GAS LISTING C:\Users\Jesper\AppData\Local\Temp\cczpUCDP.s 			page 1


   1              		.file	"gd32vf103_usb_it.c"
   2              		.option nopic
   3              		.attribute arch, "rv32i2p0_m2p0_a2p0_c2p0"
   4              		.attribute unaligned_access, 0
   5              		.attribute stack_align, 16
   6              		.text
   7              	.Ltext0:
   8              		.cfi_sections	.debug_frame
   9              		.section	.text.USBFS_IRQHandler,"ax",@progbits
  10              		.align	1
  11              		.globl	USBFS_IRQHandler
  13              	USBFS_IRQHandler:
  14              	.LFB6:
  15              		.file 1 "lib/usbcdc/src/gd32vf103_usb_it.c"
   1:lib/usbcdc/src/gd32vf103_usb_it.c **** /*!
   2:lib/usbcdc/src/gd32vf103_usb_it.c ****     \file  gd32vf103_it.c
   3:lib/usbcdc/src/gd32vf103_usb_it.c ****     \brief main interrupt service routines
   4:lib/usbcdc/src/gd32vf103_usb_it.c **** 
   5:lib/usbcdc/src/gd32vf103_usb_it.c ****     \version 2019-6-5, V1.0.0, demo for GD32VF103
   6:lib/usbcdc/src/gd32vf103_usb_it.c **** */
   7:lib/usbcdc/src/gd32vf103_usb_it.c **** 
   8:lib/usbcdc/src/gd32vf103_usb_it.c **** /*
   9:lib/usbcdc/src/gd32vf103_usb_it.c ****     Copyright (c) 2019, GigaDevice Semiconductor Inc.
  10:lib/usbcdc/src/gd32vf103_usb_it.c **** 
  11:lib/usbcdc/src/gd32vf103_usb_it.c ****     Redistribution and use in source and binary forms, with or without modification, 
  12:lib/usbcdc/src/gd32vf103_usb_it.c **** are permitted provided that the following conditions are met:
  13:lib/usbcdc/src/gd32vf103_usb_it.c **** 
  14:lib/usbcdc/src/gd32vf103_usb_it.c ****     1. Redistributions of source code must retain the above copyright notice, this 
  15:lib/usbcdc/src/gd32vf103_usb_it.c ****        list of conditions and the following disclaimer.
  16:lib/usbcdc/src/gd32vf103_usb_it.c ****     2. Redistributions in binary form must reproduce the above copyright notice, 
  17:lib/usbcdc/src/gd32vf103_usb_it.c ****        this list of conditions and the following disclaimer in the documentation 
  18:lib/usbcdc/src/gd32vf103_usb_it.c ****        and/or other materials provided with the distribution.
  19:lib/usbcdc/src/gd32vf103_usb_it.c ****     3. Neither the name of the copyright holder nor the names of its contributors 
  20:lib/usbcdc/src/gd32vf103_usb_it.c ****        may be used to endorse or promote products derived from this software without 
  21:lib/usbcdc/src/gd32vf103_usb_it.c ****        specific prior written permission.
  22:lib/usbcdc/src/gd32vf103_usb_it.c **** 
  23:lib/usbcdc/src/gd32vf103_usb_it.c ****     THIS SOFTWARE IS PROVIDED BY THE COPYRIGHT HOLDERS AND CONTRIBUTORS "AS IS" 
  24:lib/usbcdc/src/gd32vf103_usb_it.c **** AND ANY EXPRESS OR IMPLIED WARRANTIES, INCLUDING, BUT NOT LIMITED TO, THE IMPLIED 
  25:lib/usbcdc/src/gd32vf103_usb_it.c **** WARRANTIES OF MERCHANTABILITY AND FITNESS FOR A PARTICULAR PURPOSE ARE DISCLAIMED. 
  26:lib/usbcdc/src/gd32vf103_usb_it.c **** IN NO EVENT SHALL THE COPYRIGHT HOLDER OR CONTRIBUTORS BE LIABLE FOR ANY DIRECT, 
  27:lib/usbcdc/src/gd32vf103_usb_it.c **** INDIRECT, INCIDENTAL, SPECIAL, EXEMPLARY, OR CONSEQUENTIAL DAMAGES (INCLUDING, BUT 
  28:lib/usbcdc/src/gd32vf103_usb_it.c **** NOT LIMITED TO, PROCUREMENT OF SUBSTITUTE GOODS OR SERVICES; LOSS OF USE, DATA, OR 
  29:lib/usbcdc/src/gd32vf103_usb_it.c **** PROFITS; OR BUSINESS INTERRUPTION) HOWEVER CAUSED AND ON ANY THEORY OF LIABILITY, 
  30:lib/usbcdc/src/gd32vf103_usb_it.c **** WHETHER IN CONTRACT, STRICT LIABILITY, OR TORT (INCLUDING NEGLIGENCE OR OTHERWISE) 
  31:lib/usbcdc/src/gd32vf103_usb_it.c **** ARISING IN ANY WAY OUT OF THE USE OF THIS SOFTWARE, EVEN IF ADVISED OF THE POSSIBILITY 
  32:lib/usbcdc/src/gd32vf103_usb_it.c **** OF SUCH DAMAGE.
  33:lib/usbcdc/src/gd32vf103_usb_it.c **** */
  34:lib/usbcdc/src/gd32vf103_usb_it.c **** 
  35:lib/usbcdc/src/gd32vf103_usb_it.c **** #include "gd32vf103.h"
  36:lib/usbcdc/src/gd32vf103_usb_it.c **** #include "drv_usbd_int.h"
  37:lib/usbcdc/src/gd32vf103_usb_it.c **** #include "drv_usb_hw.h"
  38:lib/usbcdc/src/gd32vf103_usb_it.c **** #include "gd32vf103_usb_it.h"
  39:lib/usbcdc/src/gd32vf103_usb_it.c **** #include "usb_serial_if.h"
  40:lib/usbcdc/src/gd32vf103_usb_it.c **** 
  41:lib/usbcdc/src/gd32vf103_usb_it.c **** #define DEBUG_SP() asm volatile("csrrw sp, mscratch, sp")
  42:lib/usbcdc/src/gd32vf103_usb_it.c **** //#define DEBUG_PIN_ON() gpio_bit_set(GPIOB, GPIO_PIN_0)
  43:lib/usbcdc/src/gd32vf103_usb_it.c **** //#define DEBUG_PIN_OFF() gpio_bit_reset(GPIOB, GPIO_PIN_0)
GAS LISTING C:\Users\Jesper\AppData\Local\Temp\cczpUCDP.s 			page 2


  44:lib/usbcdc/src/gd32vf103_usb_it.c **** 
  45:lib/usbcdc/src/gd32vf103_usb_it.c **** extern usb_core_driver USB_OTG_dev;
  46:lib/usbcdc/src/gd32vf103_usb_it.c **** extern uint32_t usbfs_prescaler;
  47:lib/usbcdc/src/gd32vf103_usb_it.c **** 
  48:lib/usbcdc/src/gd32vf103_usb_it.c **** extern void usb_timer_irq(void);
  49:lib/usbcdc/src/gd32vf103_usb_it.c **** 
  50:lib/usbcdc/src/gd32vf103_usb_it.c **** /*!
  51:lib/usbcdc/src/gd32vf103_usb_it.c ****     \brief      this function handles USBD interrupt//
  52:lib/usbcdc/src/gd32vf103_usb_it.c ****     \param[in]  none
  53:lib/usbcdc/src/gd32vf103_usb_it.c ****     \param[out] none
  54:lib/usbcdc/src/gd32vf103_usb_it.c ****     \retval     none
  55:lib/usbcdc/src/gd32vf103_usb_it.c **** */
  56:lib/usbcdc/src/gd32vf103_usb_it.c **** void USBFS_IRQHandler (void)
  57:lib/usbcdc/src/gd32vf103_usb_it.c **** { 
  16              		.loc 1 57 1
  17              		.cfi_startproc
  58:lib/usbcdc/src/gd32vf103_usb_it.c ****     //DEBUG_PIN_ON();
  59:lib/usbcdc/src/gd32vf103_usb_it.c ****     usbd_isr (&USB_OTG_dev);
  18              		.loc 1 59 5
  19 0000 37050000 		lui	a0,%hi(USB_OTG_dev)
  20 0004 13050500 		addi	a0,a0,%lo(USB_OTG_dev)
  21 0008 17030000 		tail	usbd_isr
  21      67000300 
  22              	.LVL0:
  23              		.cfi_endproc
  24              	.LFE6:
  26              		.section	.text.USBFS_WKUP_IRQHandler,"ax",@progbits
  27              		.align	1
  28              		.globl	USBFS_WKUP_IRQHandler
  30              	USBFS_WKUP_IRQHandler:
  31              	.LFB7:
  60:lib/usbcdc/src/gd32vf103_usb_it.c **** }
  61:lib/usbcdc/src/gd32vf103_usb_it.c **** 
  62:lib/usbcdc/src/gd32vf103_usb_it.c **** 
  63:lib/usbcdc/src/gd32vf103_usb_it.c **** 
  64:lib/usbcdc/src/gd32vf103_usb_it.c **** /*!
  65:lib/usbcdc/src/gd32vf103_usb_it.c ****     \brief      this function handles USBD wakeup interrupt request.
  66:lib/usbcdc/src/gd32vf103_usb_it.c ****     \param[in]  none
  67:lib/usbcdc/src/gd32vf103_usb_it.c ****     \param[out] none
  68:lib/usbcdc/src/gd32vf103_usb_it.c ****     \retval     none
  69:lib/usbcdc/src/gd32vf103_usb_it.c **** */
  70:lib/usbcdc/src/gd32vf103_usb_it.c **** void USBFS_WKUP_IRQHandler(void)
  71:lib/usbcdc/src/gd32vf103_usb_it.c **** {
  32              		.loc 1 71 1
  33              		.cfi_startproc
  72:lib/usbcdc/src/gd32vf103_usb_it.c ****     //DEBUG_PIN_ON();
  73:lib/usbcdc/src/gd32vf103_usb_it.c ****     if (USB_OTG_dev.bp.low_power) {
  34              		.loc 1 73 5
  71:lib/usbcdc/src/gd32vf103_usb_it.c ****     //DEBUG_PIN_ON();
  35              		.loc 1 71 1 is_stmt 0
  36 0000 4111     		addi	sp,sp,-16
  37              	.LCFI0:
  38              		.cfi_def_cfa_offset 16
  39 0002 22C4     		sw	s0,8(sp)
  40              		.cfi_offset 8, -8
  41              		.loc 1 73 23
  42 0004 37040000 		lui	s0,%hi(USB_OTG_dev)
GAS LISTING C:\Users\Jesper\AppData\Local\Temp\cczpUCDP.s 			page 3


  71:lib/usbcdc/src/gd32vf103_usb_it.c ****     //DEBUG_PIN_ON();
  43              		.loc 1 71 1
  44 0008 06C6     		sw	ra,12(sp)
  45              		.cfi_offset 1, -4
  46              		.loc 1 73 23
  47 000a 93070400 		addi	a5,s0,%lo(USB_OTG_dev)
  48              		.loc 1 73 8
  49 000e 83C77700 		lbu	a5,7(a5)
  50 0012 8DCB     		beq	a5,zero,.L3
  74:lib/usbcdc/src/gd32vf103_usb_it.c ****         //SystemInit();
  75:lib/usbcdc/src/gd32vf103_usb_it.c ****         set_usb_clock_96m_hxtal();
  51              		.loc 1 75 9 is_stmt 1
  52 0014 97000000 		call	set_usb_clock_96m_hxtal
  52      E7800000 
  53              	.LVL1:
  76:lib/usbcdc/src/gd32vf103_usb_it.c ****         rcu_usb_clock_config(usbfs_prescaler);
  54              		.loc 1 76 9
  55 001c B7070000 		lui	a5,%hi(usbfs_prescaler)
  56 0020 03A50700 		lw	a0,%lo(usbfs_prescaler)(a5)
  57 0024 97000000 		call	rcu_usb_clock_config
  57      E7800000 
  58              	.LVL2:
  77:lib/usbcdc/src/gd32vf103_usb_it.c **** 
  78:lib/usbcdc/src/gd32vf103_usb_it.c ****         rcu_periph_clock_enable(RCU_USBFS);
  59              		.loc 1 78 9
  60 002c 1305C050 		li	a0,1292
  61 0030 97000000 		call	rcu_periph_clock_enable
  61      E7800000 
  62              	.LVL3:
  79:lib/usbcdc/src/gd32vf103_usb_it.c **** 
  80:lib/usbcdc/src/gd32vf103_usb_it.c ****         usb_clock_active(&USB_OTG_dev);
  63              		.loc 1 80 9
  64 0038 13050400 		addi	a0,s0,%lo(USB_OTG_dev)
  65 003c 97000000 		call	usb_clock_active
  65      E7800000 
  66              	.LVL4:
  67              	.L3:
  81:lib/usbcdc/src/gd32vf103_usb_it.c ****     }
  82:lib/usbcdc/src/gd32vf103_usb_it.c **** 
  83:lib/usbcdc/src/gd32vf103_usb_it.c ****     exti_interrupt_flag_clear(EXTI_18);
  68              		.loc 1 83 5
  84:lib/usbcdc/src/gd32vf103_usb_it.c **** }
  69              		.loc 1 84 1 is_stmt 0
  70 0044 2244     		lw	s0,8(sp)
  71              		.cfi_restore 8
  72 0046 B240     		lw	ra,12(sp)
  73              		.cfi_restore 1
  83:lib/usbcdc/src/gd32vf103_usb_it.c **** }
  74              		.loc 1 83 5
  75 0048 37050400 		li	a0,262144
  76              		.loc 1 84 1
  77 004c 4101     		addi	sp,sp,16
  78              	.LCFI1:
  79              		.cfi_def_cfa_offset 0
  83:lib/usbcdc/src/gd32vf103_usb_it.c **** }
  80              		.loc 1 83 5
  81 004e 17030000 		tail	exti_interrupt_flag_clear
GAS LISTING C:\Users\Jesper\AppData\Local\Temp\cczpUCDP.s 			page 4


  81      67000300 
  82              	.LVL5:
  83              		.cfi_endproc
  84              	.LFE7:
  86              		.text
  87              	.Letext0:
  88              		.file 2 "c:\\users\\jesper\\documents\\ml_sommarjobb\\toolchain-gd32v-v201-win\\toolchain-gd32v-v2
  89              		.file 3 "c:\\users\\jesper\\documents\\ml_sommarjobb\\toolchain-gd32v-v201-win\\toolchain-gd32v-v2
  90              		.file 4 "./../../firmware/GD32VF103_standard_peripheral/Include/gd32vf103_exti.h"
  91              		.file 5 "./../../firmware/GD32VF103_standard_peripheral/Include/gd32vf103_rcu.h"
  92              		.file 6 "lib/usbcdc/include/drv_usb_regs.h"
  93              		.file 7 "./../../firmware/GD32VF103_standard_peripheral/system_gd32vf103.h"
  94              		.file 8 "lib/usbcdc/include/usb_ch9_std.h"
  95              		.file 9 "lib/usbcdc/include/drv_usb_core.h"
  96              		.file 10 "lib/usbcdc/include/drv_usb_dev.h"
  97              		.file 11 "c:\\users\\jesper\\documents\\ml_sommarjobb\\toolchain-gd32v-v201-win\\toolchain-gd32v-v
  98              		.file 12 "c:\\users\\jesper\\documents\\ml_sommarjobb\\toolchain-gd32v-v201-win\\toolchain-gd32v-v
  99              		.file 13 "c:\\users\\jesper\\documents\\ml_sommarjobb\\toolchain-gd32v-v201-win\\toolchain-gd32v-v
 100              		.file 14 "c:\\users\\jesper\\documents\\ml_sommarjobb\\toolchain-gd32v-v201-win\\toolchain-gd32v-v
 101              		.file 15 "lib/usbcdc/include/cdc_acm_core.h"
 102              		.file 16 "c:\\users\\jesper\\documents\\ml_sommarjobb\\toolchain-gd32v-v201-win\\toolchain-gd32v-v
 103              		.file 17 "lib/usbcdc/include/usb_serial_if.h"
 104              		.file 18 "lib/usbcdc/include/drv_usbd_int.h"
GAS LISTING C:\Users\Jesper\AppData\Local\Temp\cczpUCDP.s 			page 5


DEFINED SYMBOLS
                            *ABS*:0000000000000000 gd32vf103_usb_it.c
C:\Users\Jesper\AppData\Local\Temp\cczpUCDP.s:13     .text.USBFS_IRQHandler:0000000000000000 USBFS_IRQHandler
C:\Users\Jesper\AppData\Local\Temp\cczpUCDP.s:17     .text.USBFS_IRQHandler:0000000000000000 .L0 
C:\Users\Jesper\AppData\Local\Temp\cczpUCDP.s:18     .text.USBFS_IRQHandler:0000000000000000 .L0 
C:\Users\Jesper\AppData\Local\Temp\cczpUCDP.s:19     .text.USBFS_IRQHandler:0000000000000000 .L0 
C:\Users\Jesper\AppData\Local\Temp\cczpUCDP.s:23     .text.USBFS_IRQHandler:0000000000000010 .L0 
C:\Users\Jesper\AppData\Local\Temp\cczpUCDP.s:30     .text.USBFS_WKUP_IRQHandler:0000000000000000 USBFS_WKUP_IRQHandler
C:\Users\Jesper\AppData\Local\Temp\cczpUCDP.s:33     .text.USBFS_WKUP_IRQHandler:0000000000000000 .L0 
C:\Users\Jesper\AppData\Local\Temp\cczpUCDP.s:34     .text.USBFS_WKUP_IRQHandler:0000000000000000 .L0 
C:\Users\Jesper\AppData\Local\Temp\cczpUCDP.s:35     .text.USBFS_WKUP_IRQHandler:0000000000000000 .L0 
C:\Users\Jesper\AppData\Local\Temp\cczpUCDP.s:36     .text.USBFS_WKUP_IRQHandler:0000000000000000 .L0 
C:\Users\Jesper\AppData\Local\Temp\cczpUCDP.s:38     .text.USBFS_WKUP_IRQHandler:0000000000000002 .L0 
C:\Users\Jesper\AppData\Local\Temp\cczpUCDP.s:40     .text.USBFS_WKUP_IRQHandler:0000000000000004 .L0 
C:\Users\Jesper\AppData\Local\Temp\cczpUCDP.s:42     .text.USBFS_WKUP_IRQHandler:0000000000000004 .L0 
C:\Users\Jesper\AppData\Local\Temp\cczpUCDP.s:44     .text.USBFS_WKUP_IRQHandler:0000000000000008 .L0 
C:\Users\Jesper\AppData\Local\Temp\cczpUCDP.s:45     .text.USBFS_WKUP_IRQHandler:000000000000000a .L0 
C:\Users\Jesper\AppData\Local\Temp\cczpUCDP.s:47     .text.USBFS_WKUP_IRQHandler:000000000000000a .L0 
C:\Users\Jesper\AppData\Local\Temp\cczpUCDP.s:49     .text.USBFS_WKUP_IRQHandler:000000000000000e .L0 
C:\Users\Jesper\AppData\Local\Temp\cczpUCDP.s:52     .text.USBFS_WKUP_IRQHandler:0000000000000014 .L0 
C:\Users\Jesper\AppData\Local\Temp\cczpUCDP.s:55     .text.USBFS_WKUP_IRQHandler:000000000000001c .L0 
C:\Users\Jesper\AppData\Local\Temp\cczpUCDP.s:60     .text.USBFS_WKUP_IRQHandler:000000000000002c .L0 
C:\Users\Jesper\AppData\Local\Temp\cczpUCDP.s:64     .text.USBFS_WKUP_IRQHandler:0000000000000038 .L0 
C:\Users\Jesper\AppData\Local\Temp\cczpUCDP.s:69     .text.USBFS_WKUP_IRQHandler:0000000000000044 .L0 
C:\Users\Jesper\AppData\Local\Temp\cczpUCDP.s:70     .text.USBFS_WKUP_IRQHandler:0000000000000044 .L0 
C:\Users\Jesper\AppData\Local\Temp\cczpUCDP.s:71     .text.USBFS_WKUP_IRQHandler:0000000000000046 .L0 
C:\Users\Jesper\AppData\Local\Temp\cczpUCDP.s:73     .text.USBFS_WKUP_IRQHandler:0000000000000048 .L0 
C:\Users\Jesper\AppData\Local\Temp\cczpUCDP.s:75     .text.USBFS_WKUP_IRQHandler:0000000000000048 .L0 
C:\Users\Jesper\AppData\Local\Temp\cczpUCDP.s:77     .text.USBFS_WKUP_IRQHandler:000000000000004c .L0 
C:\Users\Jesper\AppData\Local\Temp\cczpUCDP.s:79     .text.USBFS_WKUP_IRQHandler:000000000000004e .L0 
C:\Users\Jesper\AppData\Local\Temp\cczpUCDP.s:81     .text.USBFS_WKUP_IRQHandler:000000000000004e .L0 
C:\Users\Jesper\AppData\Local\Temp\cczpUCDP.s:83     .text.USBFS_WKUP_IRQHandler:0000000000000056 .L0 
C:\Users\Jesper\AppData\Local\Temp\cczpUCDP.s:26     .text.USBFS_IRQHandler:0000000000000010 .L0 
C:\Users\Jesper\AppData\Local\Temp\cczpUCDP.s:86     .text.USBFS_WKUP_IRQHandler:0000000000000056 .L0 
                     .debug_frame:0000000000000000 .L0 
C:\Users\Jesper\AppData\Local\Temp\cczpUCDP.s:67     .text.USBFS_WKUP_IRQHandler:0000000000000044 .L3
C:\Users\Jesper\AppData\Local\Temp\cczpUCDP.s:4195   .debug_abbrev:0000000000000000 .Ldebug_abbrev0
C:\Users\Jesper\AppData\Local\Temp\cczpUCDP.s:5006   .debug_str:0000000000000263 .LASF404
C:\Users\Jesper\AppData\Local\Temp\cczpUCDP.s:5350   .debug_str:0000000000000aa6 .LASF405
C:\Users\Jesper\AppData\Local\Temp\cczpUCDP.s:5330   .debug_str:00000000000009c4 .LASF406
C:\Users\Jesper\AppData\Local\Temp\cczpUCDP.s:4894   .debug_ranges:0000000000000000 .Ldebug_ranges0
C:\Users\Jesper\AppData\Local\Temp\cczpUCDP.s:4902   .debug_line:0000000000000000 .Ldebug_line0
C:\Users\Jesper\AppData\Local\Temp\cczpUCDP.s:5370   .debug_str:0000000000000b2e .LASF0
C:\Users\Jesper\AppData\Local\Temp\cczpUCDP.s:5096   .debug_str:00000000000004d9 .LASF1
C:\Users\Jesper\AppData\Local\Temp\cczpUCDP.s:5026   .debug_str:000000000000034f .LASF4
C:\Users\Jesper\AppData\Local\Temp\cczpUCDP.s:5112   .debug_str:0000000000000551 .LASF2
C:\Users\Jesper\AppData\Local\Temp\cczpUCDP.s:5578   .debug_str:0000000000000f88 .LASF3
C:\Users\Jesper\AppData\Local\Temp\cczpUCDP.s:5168   .debug_str:000000000000067b .LASF5
C:\Users\Jesper\AppData\Local\Temp\cczpUCDP.s:5678   .debug_str:000000000000118b .LASF6
C:\Users\Jesper\AppData\Local\Temp\cczpUCDP.s:5048   .debug_str:00000000000003bf .LASF7
C:\Users\Jesper\AppData\Local\Temp\cczpUCDP.s:5304   .debug_str:0000000000000941 .LASF8
C:\Users\Jesper\AppData\Local\Temp\cczpUCDP.s:5246   .debug_str:00000000000007fb .LASF9
C:\Users\Jesper\AppData\Local\Temp\cczpUCDP.s:5312   .debug_str:0000000000000969 .LASF10
C:\Users\Jesper\AppData\Local\Temp\cczpUCDP.s:5474   .debug_str:0000000000000d97 .LASF11
C:\Users\Jesper\AppData\Local\Temp\cczpUCDP.s:5098   .debug_str:00000000000004e5 .LASF12
C:\Users\Jesper\AppData\Local\Temp\cczpUCDP.s:5482   .debug_str:0000000000000dcb .LASF13
C:\Users\Jesper\AppData\Local\Temp\cczpUCDP.s:5634   .debug_str:00000000000010c9 .LASF14
GAS LISTING C:\Users\Jesper\AppData\Local\Temp\cczpUCDP.s 			page 6


C:\Users\Jesper\AppData\Local\Temp\cczpUCDP.s:5260   .debug_str:000000000000085c .LASF143
C:\Users\Jesper\AppData\Local\Temp\cczpUCDP.s:5650   .debug_str:0000000000001127 .LASF15
C:\Users\Jesper\AppData\Local\Temp\cczpUCDP.s:5652   .debug_str:000000000000112e .LASF16
C:\Users\Jesper\AppData\Local\Temp\cczpUCDP.s:5654   .debug_str:0000000000001135 .LASF17
C:\Users\Jesper\AppData\Local\Temp\cczpUCDP.s:5656   .debug_str:000000000000113c .LASF18
C:\Users\Jesper\AppData\Local\Temp\cczpUCDP.s:5658   .debug_str:0000000000001143 .LASF19
C:\Users\Jesper\AppData\Local\Temp\cczpUCDP.s:5660   .debug_str:000000000000114a .LASF20
C:\Users\Jesper\AppData\Local\Temp\cczpUCDP.s:5662   .debug_str:0000000000001151 .LASF21
C:\Users\Jesper\AppData\Local\Temp\cczpUCDP.s:5664   .debug_str:0000000000001158 .LASF22
C:\Users\Jesper\AppData\Local\Temp\cczpUCDP.s:5666   .debug_str:000000000000115f .LASF23
C:\Users\Jesper\AppData\Local\Temp\cczpUCDP.s:5668   .debug_str:0000000000001166 .LASF24
C:\Users\Jesper\AppData\Local\Temp\cczpUCDP.s:5210   .debug_str:000000000000074e .LASF25
C:\Users\Jesper\AppData\Local\Temp\cczpUCDP.s:5212   .debug_str:0000000000000756 .LASF26
C:\Users\Jesper\AppData\Local\Temp\cczpUCDP.s:5214   .debug_str:000000000000075e .LASF27
C:\Users\Jesper\AppData\Local\Temp\cczpUCDP.s:5216   .debug_str:0000000000000766 .LASF28
C:\Users\Jesper\AppData\Local\Temp\cczpUCDP.s:5218   .debug_str:000000000000076e .LASF29
C:\Users\Jesper\AppData\Local\Temp\cczpUCDP.s:5220   .debug_str:0000000000000776 .LASF30
C:\Users\Jesper\AppData\Local\Temp\cczpUCDP.s:5222   .debug_str:000000000000077e .LASF31
C:\Users\Jesper\AppData\Local\Temp\cczpUCDP.s:5224   .debug_str:0000000000000786 .LASF32
C:\Users\Jesper\AppData\Local\Temp\cczpUCDP.s:5226   .debug_str:000000000000078e .LASF33
C:\Users\Jesper\AppData\Local\Temp\cczpUCDP.s:5534   .debug_str:0000000000000ec2 .LASF34
C:\Users\Jesper\AppData\Local\Temp\cczpUCDP.s:5536   .debug_str:0000000000000ecb .LASF35
C:\Users\Jesper\AppData\Local\Temp\cczpUCDP.s:5372   .debug_str:0000000000000b3b .LASF36
C:\Users\Jesper\AppData\Local\Temp\cczpUCDP.s:5620   .debug_str:0000000000001060 .LASF37
C:\Users\Jesper\AppData\Local\Temp\cczpUCDP.s:5292   .debug_str:0000000000000907 .LASF38
C:\Users\Jesper\AppData\Local\Temp\cczpUCDP.s:4972   .debug_str:0000000000000196 .LASF39
C:\Users\Jesper\AppData\Local\Temp\cczpUCDP.s:4974   .debug_str:00000000000001a1 .LASF40
C:\Users\Jesper\AppData\Local\Temp\cczpUCDP.s:4976   .debug_str:00000000000001ac .LASF41
C:\Users\Jesper\AppData\Local\Temp\cczpUCDP.s:4978   .debug_str:00000000000001b7 .LASF42
C:\Users\Jesper\AppData\Local\Temp\cczpUCDP.s:4980   .debug_str:00000000000001c2 .LASF43
C:\Users\Jesper\AppData\Local\Temp\cczpUCDP.s:4982   .debug_str:00000000000001cd .LASF44
C:\Users\Jesper\AppData\Local\Temp\cczpUCDP.s:5416   .debug_str:0000000000000c2f .LASF45
C:\Users\Jesper\AppData\Local\Temp\cczpUCDP.s:5088   .debug_str:00000000000004b3 .LASF46
C:\Users\Jesper\AppData\Local\Temp\cczpUCDP.s:5090   .debug_str:00000000000004bc .LASF47
C:\Users\Jesper\AppData\Local\Temp\cczpUCDP.s:4992   .debug_str:0000000000000226 .LASF48
C:\Users\Jesper\AppData\Local\Temp\cczpUCDP.s:4994   .debug_str:0000000000000231 .LASF49
C:\Users\Jesper\AppData\Local\Temp\cczpUCDP.s:4952   .debug_str:000000000000012b .LASF50
C:\Users\Jesper\AppData\Local\Temp\cczpUCDP.s:4954   .debug_str:0000000000000135 .LASF51
C:\Users\Jesper\AppData\Local\Temp\cczpUCDP.s:5638   .debug_str:00000000000010e4 .LASF52
C:\Users\Jesper\AppData\Local\Temp\cczpUCDP.s:5640   .debug_str:00000000000010ed .LASF53
C:\Users\Jesper\AppData\Local\Temp\cczpUCDP.s:5146   .debug_str:00000000000005fb .LASF54
C:\Users\Jesper\AppData\Local\Temp\cczpUCDP.s:5148   .debug_str:0000000000000604 .LASF55
C:\Users\Jesper\AppData\Local\Temp\cczpUCDP.s:5594   .debug_str:0000000000000fd7 .LASF56
C:\Users\Jesper\AppData\Local\Temp\cczpUCDP.s:4936   .debug_str:00000000000000d7 .LASF57
C:\Users\Jesper\AppData\Local\Temp\cczpUCDP.s:5100   .debug_str:00000000000004ed .LASF58
C:\Users\Jesper\AppData\Local\Temp\cczpUCDP.s:5442   .debug_str:0000000000000cf1 .LASF59
C:\Users\Jesper\AppData\Local\Temp\cczpUCDP.s:5268   .debug_str:000000000000088d .LASF60
C:\Users\Jesper\AppData\Local\Temp\cczpUCDP.s:5316   .debug_str:0000000000000980 .LASF61
C:\Users\Jesper\AppData\Local\Temp\cczpUCDP.s:5318   .debug_str:000000000000098a .LASF62
C:\Users\Jesper\AppData\Local\Temp\cczpUCDP.s:5320   .debug_str:0000000000000994 .LASF63
C:\Users\Jesper\AppData\Local\Temp\cczpUCDP.s:5322   .debug_str:000000000000099e .LASF64
C:\Users\Jesper\AppData\Local\Temp\cczpUCDP.s:5324   .debug_str:00000000000009a8 .LASF65
C:\Users\Jesper\AppData\Local\Temp\cczpUCDP.s:5308   .debug_str:0000000000000957 .LASF66
C:\Users\Jesper\AppData\Local\Temp\cczpUCDP.s:5310   .debug_str:0000000000000960 .LASF67
C:\Users\Jesper\AppData\Local\Temp\cczpUCDP.s:4970   .debug_str:000000000000018b .LASF68
C:\Users\Jesper\AppData\Local\Temp\cczpUCDP.s:5086   .debug_str:00000000000004aa .LASF69
C:\Users\Jesper\AppData\Local\Temp\cczpUCDP.s:4990   .debug_str:000000000000021b .LASF70
GAS LISTING C:\Users\Jesper\AppData\Local\Temp\cczpUCDP.s 			page 7


C:\Users\Jesper\AppData\Local\Temp\cczpUCDP.s:5436   .debug_str:0000000000000cce .LASF71
C:\Users\Jesper\AppData\Local\Temp\cczpUCDP.s:5120   .debug_str:0000000000000580 .LASF72
C:\Users\Jesper\AppData\Local\Temp\cczpUCDP.s:5314   .debug_str:0000000000000977 .LASF73
C:\Users\Jesper\AppData\Local\Temp\cczpUCDP.s:5186   .debug_str:00000000000006e0 .LASF74
C:\Users\Jesper\AppData\Local\Temp\cczpUCDP.s:5562   .debug_str:0000000000000f38 .LASF75
C:\Users\Jesper\AppData\Local\Temp\cczpUCDP.s:5196   .debug_str:000000000000070d .LASF76
C:\Users\Jesper\AppData\Local\Temp\cczpUCDP.s:5690   .debug_str:00000000000011db .LASF77
C:\Users\Jesper\AppData\Local\Temp\cczpUCDP.s:5580   .debug_str:0000000000000f92 .LASF78
C:\Users\Jesper\AppData\Local\Temp\cczpUCDP.s:5700   .debug_str:000000000000121d .LASF79
C:\Users\Jesper\AppData\Local\Temp\cczpUCDP.s:5698   .debug_str:0000000000001215 .LASF80
C:\Users\Jesper\AppData\Local\Temp\cczpUCDP.s:5552   .debug_str:0000000000000f0c .LASF81
C:\Users\Jesper\AppData\Local\Temp\cczpUCDP.s:5696   .debug_str:0000000000001201 .LASF82
C:\Users\Jesper\AppData\Local\Temp\cczpUCDP.s:4938   .debug_str:00000000000000df .LASF83
C:\Users\Jesper\AppData\Local\Temp\cczpUCDP.s:5190   .debug_str:00000000000006f0 .LASF84
C:\Users\Jesper\AppData\Local\Temp\cczpUCDP.s:5132   .debug_str:00000000000005b1 .LASF85
C:\Users\Jesper\AppData\Local\Temp\cczpUCDP.s:5028   .debug_str:0000000000000359 .LASF86
C:\Users\Jesper\AppData\Local\Temp\cczpUCDP.s:5694   .debug_str:00000000000011f9 .LASF87
C:\Users\Jesper\AppData\Local\Temp\cczpUCDP.s:5016   .debug_str:0000000000000312 .LASF88
C:\Users\Jesper\AppData\Local\Temp\cczpUCDP.s:5686   .debug_str:00000000000011c3 .LASF89
C:\Users\Jesper\AppData\Local\Temp\cczpUCDP.s:5498   .debug_str:0000000000000e0d .LASF90
C:\Users\Jesper\AppData\Local\Temp\cczpUCDP.s:5092   .debug_str:00000000000004c5 .LASF91
C:\Users\Jesper\AppData\Local\Temp\cczpUCDP.s:5446   .debug_str:0000000000000d02 .LASF92
C:\Users\Jesper\AppData\Local\Temp\cczpUCDP.s:5642   .debug_str:00000000000010f6 .LASF93
C:\Users\Jesper\AppData\Local\Temp\cczpUCDP.s:5544   .debug_str:0000000000000ee6 .LASF94
C:\Users\Jesper\AppData\Local\Temp\cczpUCDP.s:5684   .debug_str:00000000000011b9 .LASF95
C:\Users\Jesper\AppData\Local\Temp\cczpUCDP.s:5708   .debug_str:0000000000001250 .LASF96
C:\Users\Jesper\AppData\Local\Temp\cczpUCDP.s:5240   .debug_str:00000000000007e3 .LASF97
C:\Users\Jesper\AppData\Local\Temp\cczpUCDP.s:5184   .debug_str:00000000000006d7 .LASF98
C:\Users\Jesper\AppData\Local\Temp\cczpUCDP.s:5674   .debug_str:0000000000001179 .LASF99
C:\Users\Jesper\AppData\Local\Temp\cczpUCDP.s:5556   .debug_str:0000000000000f1d .LASF100
C:\Users\Jesper\AppData\Local\Temp\cczpUCDP.s:5496   .debug_str:0000000000000e06 .LASF101
C:\Users\Jesper\AppData\Local\Temp\cczpUCDP.s:5070   .debug_str:0000000000000444 .LASF102
C:\Users\Jesper\AppData\Local\Temp\cczpUCDP.s:5386   .debug_str:0000000000000b99 .LASF103
C:\Users\Jesper\AppData\Local\Temp\cczpUCDP.s:5122   .debug_str:0000000000000587 .LASF104
C:\Users\Jesper\AppData\Local\Temp\cczpUCDP.s:5126   .debug_str:0000000000000595 .LASF105
C:\Users\Jesper\AppData\Local\Temp\cczpUCDP.s:5486   .debug_str:0000000000000de0 .LASF106
C:\Users\Jesper\AppData\Local\Temp\cczpUCDP.s:4984   .debug_str:00000000000001d8 .LASF107
C:\Users\Jesper\AppData\Local\Temp\cczpUCDP.s:5144   .debug_str:00000000000005f0 .LASF108
C:\Users\Jesper\AppData\Local\Temp\cczpUCDP.s:5288   .debug_str:00000000000008f5 .LASF109
C:\Users\Jesper\AppData\Local\Temp\cczpUCDP.s:5166   .debug_str:0000000000000671 .LASF110
C:\Users\Jesper\AppData\Local\Temp\cczpUCDP.s:5710   .debug_str:0000000000001257 .LASF111
C:\Users\Jesper\AppData\Local\Temp\cczpUCDP.s:4958   .debug_str:0000000000000159 .LASF112
C:\Users\Jesper\AppData\Local\Temp\cczpUCDP.s:5176   .debug_str:00000000000006ae .LASF113
C:\Users\Jesper\AppData\Local\Temp\cczpUCDP.s:5178   .debug_str:00000000000006b9 .LASF114
C:\Users\Jesper\AppData\Local\Temp\cczpUCDP.s:5596   .debug_str:0000000000000fe0 .LASF115
C:\Users\Jesper\AppData\Local\Temp\cczpUCDP.s:5130   .debug_str:00000000000005a9 .LASF116
C:\Users\Jesper\AppData\Local\Temp\cczpUCDP.s:5042   .debug_str:000000000000039f .LASF117
C:\Users\Jesper\AppData\Local\Temp\cczpUCDP.s:4926   .debug_str:0000000000000090 .LASF118
C:\Users\Jesper\AppData\Local\Temp\cczpUCDP.s:5494   .debug_str:0000000000000dfe .LASF119
C:\Users\Jesper\AppData\Local\Temp\cczpUCDP.s:5044   .debug_str:00000000000003a7 .LASF120
C:\Users\Jesper\AppData\Local\Temp\cczpUCDP.s:5450   .debug_str:0000000000000d14 .LASF121
C:\Users\Jesper\AppData\Local\Temp\cczpUCDP.s:5228   .debug_str:0000000000000796 .LASF122
C:\Users\Jesper\AppData\Local\Temp\cczpUCDP.s:5716   .debug_str:0000000000001275 .LASF123
C:\Users\Jesper\AppData\Local\Temp\cczpUCDP.s:5590   .debug_str:0000000000000fc6 .LASF124
C:\Users\Jesper\AppData\Local\Temp\cczpUCDP.s:5598   .debug_str:0000000000000fe8 .LASF125
C:\Users\Jesper\AppData\Local\Temp\cczpUCDP.s:5140   .debug_str:00000000000005de .LASF126
C:\Users\Jesper\AppData\Local\Temp\cczpUCDP.s:4950   .debug_str:0000000000000122 .LASF127
GAS LISTING C:\Users\Jesper\AppData\Local\Temp\cczpUCDP.s 			page 8


C:\Users\Jesper\AppData\Local\Temp\cczpUCDP.s:5074   .debug_str:0000000000000458 .LASF128
C:\Users\Jesper\AppData\Local\Temp\cczpUCDP.s:5116   .debug_str:000000000000056d .LASF129
C:\Users\Jesper\AppData\Local\Temp\cczpUCDP.s:5426   .debug_str:0000000000000c88 .LASF130
C:\Users\Jesper\AppData\Local\Temp\cczpUCDP.s:5282   .debug_str:00000000000008d9 .LASF131
C:\Users\Jesper\AppData\Local\Temp\cczpUCDP.s:5082   .debug_str:000000000000048f .LASF132
C:\Users\Jesper\AppData\Local\Temp\cczpUCDP.s:5188   .debug_str:00000000000006e7 .LASF133
C:\Users\Jesper\AppData\Local\Temp\cczpUCDP.s:5346   .debug_str:0000000000000a92 .LASF134
C:\Users\Jesper\AppData\Local\Temp\cczpUCDP.s:5582   .debug_str:0000000000000f99 .LASF135
C:\Users\Jesper\AppData\Local\Temp\cczpUCDP.s:5060   .debug_str:00000000000003f4 .LASF136
C:\Users\Jesper\AppData\Local\Temp\cczpUCDP.s:5192   .debug_str:00000000000006fb .LASF145
C:\Users\Jesper\AppData\Local\Temp\cczpUCDP.s:5052   .debug_str:00000000000003d4 .LASF137
C:\Users\Jesper\AppData\Local\Temp\cczpUCDP.s:5564   .debug_str:0000000000000f3f .LASF138
C:\Users\Jesper\AppData\Local\Temp\cczpUCDP.s:5558   .debug_str:0000000000000f26 .LASF139
C:\Users\Jesper\AppData\Local\Temp\cczpUCDP.s:5272   .debug_str:00000000000008a6 .LASF140
C:\Users\Jesper\AppData\Local\Temp\cczpUCDP.s:5018   .debug_str:000000000000031c .LASF141
C:\Users\Jesper\AppData\Local\Temp\cczpUCDP.s:5454   .debug_str:0000000000000d25 .LASF142
C:\Users\Jesper\AppData\Local\Temp\cczpUCDP.s:5554   .debug_str:0000000000000f13 .LASF144
C:\Users\Jesper\AppData\Local\Temp\cczpUCDP.s:5200   .debug_str:000000000000071a .LASF146
C:\Users\Jesper\AppData\Local\Temp\cczpUCDP.s:5114   .debug_str:000000000000055f .LASF147
C:\Users\Jesper\AppData\Local\Temp\cczpUCDP.s:5408   .debug_str:0000000000000c0d .LASF148
C:\Users\Jesper\AppData\Local\Temp\cczpUCDP.s:5124   .debug_str:000000000000058e .LASF149
C:\Users\Jesper\AppData\Local\Temp\cczpUCDP.s:5478   .debug_str:0000000000000dbc .LASF150
C:\Users\Jesper\AppData\Local\Temp\cczpUCDP.s:5202   .debug_str:0000000000000723 .LASF151
C:\Users\Jesper\AppData\Local\Temp\cczpUCDP.s:5294   .debug_str:0000000000000911 .LASF152
C:\Users\Jesper\AppData\Local\Temp\cczpUCDP.s:5418   .debug_str:0000000000000c39 .LASF153
C:\Users\Jesper\AppData\Local\Temp\cczpUCDP.s:5472   .debug_str:0000000000000d8f .LASF154
C:\Users\Jesper\AppData\Local\Temp\cczpUCDP.s:5236   .debug_str:00000000000007c4 .LASF155
C:\Users\Jesper\AppData\Local\Temp\cczpUCDP.s:5174   .debug_str:000000000000069e .LASF156
C:\Users\Jesper\AppData\Local\Temp\cczpUCDP.s:5500   .debug_str:0000000000000e12 .LASF157
C:\Users\Jesper\AppData\Local\Temp\cczpUCDP.s:5142   .debug_str:00000000000005e9 .LASF158
C:\Users\Jesper\AppData\Local\Temp\cczpUCDP.s:5014   .debug_str:000000000000030b .LASF159
C:\Users\Jesper\AppData\Local\Temp\cczpUCDP.s:5560   .debug_str:0000000000000f2b .LASF160
C:\Users\Jesper\AppData\Local\Temp\cczpUCDP.s:4944   .debug_str:00000000000000fd .LASF161
C:\Users\Jesper\AppData\Local\Temp\cczpUCDP.s:5040   .debug_str:000000000000038f .LASF162
C:\Users\Jesper\AppData\Local\Temp\cczpUCDP.s:5250   .debug_str:0000000000000823 .LASF163
C:\Users\Jesper\AppData\Local\Temp\cczpUCDP.s:5510   .debug_str:0000000000000e50 .LASF164
C:\Users\Jesper\AppData\Local\Temp\cczpUCDP.s:5502   .debug_str:0000000000000e20 .LASF165
C:\Users\Jesper\AppData\Local\Temp\cczpUCDP.s:5110   .debug_str:0000000000000547 .LASF166
C:\Users\Jesper\AppData\Local\Temp\cczpUCDP.s:5356   .debug_str:0000000000000ad8 .LASF167
C:\Users\Jesper\AppData\Local\Temp\cczpUCDP.s:4904   .debug_str:0000000000000000 .LASF168
C:\Users\Jesper\AppData\Local\Temp\cczpUCDP.s:5252   .debug_str:0000000000000833 .LASF169
C:\Users\Jesper\AppData\Local\Temp\cczpUCDP.s:5248   .debug_str:000000000000080d .LASF170
C:\Users\Jesper\AppData\Local\Temp\cczpUCDP.s:5336   .debug_str:0000000000000a51 .LASF171
C:\Users\Jesper\AppData\Local\Temp\cczpUCDP.s:5158   .debug_str:000000000000064b .LASF172
C:\Users\Jesper\AppData\Local\Temp\cczpUCDP.s:5440   .debug_str:0000000000000ce4 .LASF173
C:\Users\Jesper\AppData\Local\Temp\cczpUCDP.s:5376   .debug_str:0000000000000b4e .LASF174
C:\Users\Jesper\AppData\Local\Temp\cczpUCDP.s:5382   .debug_str:0000000000000b76 .LASF175
C:\Users\Jesper\AppData\Local\Temp\cczpUCDP.s:5404   .debug_str:0000000000000bf3 .LASF176
C:\Users\Jesper\AppData\Local\Temp\cczpUCDP.s:5300   .debug_str:000000000000092c .LASF177
C:\Users\Jesper\AppData\Local\Temp\cczpUCDP.s:5646   .debug_str:0000000000001108 .LASF178
C:\Users\Jesper\AppData\Local\Temp\cczpUCDP.s:5278   .debug_str:00000000000008bd .LASF179
C:\Users\Jesper\AppData\Local\Temp\cczpUCDP.s:5108   .debug_str:0000000000000539 .LASF180
C:\Users\Jesper\AppData\Local\Temp\cczpUCDP.s:5572   .debug_str:0000000000000f61 .LASF181
C:\Users\Jesper\AppData\Local\Temp\cczpUCDP.s:4908   .debug_str:0000000000000015 .LASF182
C:\Users\Jesper\AppData\Local\Temp\cczpUCDP.s:5266   .debug_str:000000000000087f .LASF183
C:\Users\Jesper\AppData\Local\Temp\cczpUCDP.s:5380   .debug_str:0000000000000b66 .LASF184
C:\Users\Jesper\AppData\Local\Temp\cczpUCDP.s:5548   .debug_str:0000000000000ef4 .LASF185
GAS LISTING C:\Users\Jesper\AppData\Local\Temp\cczpUCDP.s 			page 9


C:\Users\Jesper\AppData\Local\Temp\cczpUCDP.s:5084   .debug_str:0000000000000497 .LASF186
C:\Users\Jesper\AppData\Local\Temp\cczpUCDP.s:5526   .debug_str:0000000000000e9d .LASF187
C:\Users\Jesper\AppData\Local\Temp\cczpUCDP.s:4912   .debug_str:0000000000000035 .LASF188
C:\Users\Jesper\AppData\Local\Temp\cczpUCDP.s:5612   .debug_str:0000000000001037 .LASF189
C:\Users\Jesper\AppData\Local\Temp\cczpUCDP.s:4918   .debug_str:0000000000000064 .LASF190
C:\Users\Jesper\AppData\Local\Temp\cczpUCDP.s:5342   .debug_str:0000000000000a74 .LASF191
C:\Users\Jesper\AppData\Local\Temp\cczpUCDP.s:5058   .debug_str:00000000000003ea .LASF192
C:\Users\Jesper\AppData\Local\Temp\cczpUCDP.s:5242   .debug_str:00000000000007ea .LASF193
C:\Users\Jesper\AppData\Local\Temp\cczpUCDP.s:5676   .debug_str:0000000000001181 .LASF194
C:\Users\Jesper\AppData\Local\Temp\cczpUCDP.s:5284   .debug_str:00000000000008e2 .LASF195
C:\Users\Jesper\AppData\Local\Temp\cczpUCDP.s:5576   .debug_str:0000000000000f7f .LASF196
C:\Users\Jesper\AppData\Local\Temp\cczpUCDP.s:5068   .debug_str:000000000000043d .LASF197
C:\Users\Jesper\AppData\Local\Temp\cczpUCDP.s:4910   .debug_str:0000000000000027 .LASF198
C:\Users\Jesper\AppData\Local\Temp\cczpUCDP.s:5388   .debug_str:0000000000000ba2 .LASF199
C:\Users\Jesper\AppData\Local\Temp\cczpUCDP.s:5584   .debug_str:0000000000000fa5 .LASF200
C:\Users\Jesper\AppData\Local\Temp\cczpUCDP.s:5600   .debug_str:0000000000000ff0 .LASF201
C:\Users\Jesper\AppData\Local\Temp\cczpUCDP.s:5428   .debug_str:0000000000000c93 .LASF202
C:\Users\Jesper\AppData\Local\Temp\cczpUCDP.s:5464   .debug_str:0000000000000d54 .LASF203
C:\Users\Jesper\AppData\Local\Temp\cczpUCDP.s:5520   .debug_str:0000000000000e7a .LASF204
C:\Users\Jesper\AppData\Local\Temp\cczpUCDP.s:4964   .debug_str:0000000000000170 .LASF205
C:\Users\Jesper\AppData\Local\Temp\cczpUCDP.s:5568   .debug_str:0000000000000f4e .LASF206
C:\Users\Jesper\AppData\Local\Temp\cczpUCDP.s:5038   .debug_str:0000000000000387 .LASF207
C:\Users\Jesper\AppData\Local\Temp\cczpUCDP.s:5444   .debug_str:0000000000000cf9 .LASF208
C:\Users\Jesper\AppData\Local\Temp\cczpUCDP.s:4924   .debug_str:0000000000000088 .LASF209
C:\Users\Jesper\AppData\Local\Temp\cczpUCDP.s:5328   .debug_str:00000000000009b9 .LASF210
C:\Users\Jesper\AppData\Local\Temp\cczpUCDP.s:5570   .debug_str:0000000000000f57 .LASF211
C:\Users\Jesper\AppData\Local\Temp\cczpUCDP.s:5636   .debug_str:00000000000010d2 .LASF212
C:\Users\Jesper\AppData\Local\Temp\cczpUCDP.s:5024   .debug_str:000000000000033e .LASF213
C:\Users\Jesper\AppData\Local\Temp\cczpUCDP.s:5118   .debug_str:0000000000000579 .LASF214
C:\Users\Jesper\AppData\Local\Temp\cczpUCDP.s:5340   .debug_str:0000000000000a67 .LASF215
C:\Users\Jesper\AppData\Local\Temp\cczpUCDP.s:5414   .debug_str:0000000000000c25 .LASF216
C:\Users\Jesper\AppData\Local\Temp\cczpUCDP.s:5302   .debug_str:0000000000000939 .LASF217
C:\Users\Jesper\AppData\Local\Temp\cczpUCDP.s:4906   .debug_str:0000000000000009 .LASF218
C:\Users\Jesper\AppData\Local\Temp\cczpUCDP.s:5566   .debug_str:0000000000000f46 .LASF219
C:\Users\Jesper\AppData\Local\Temp\cczpUCDP.s:4930   .debug_str:00000000000000a1 .LASF220
C:\Users\Jesper\AppData\Local\Temp\cczpUCDP.s:5468   .debug_str:0000000000000d6c .LASF221
C:\Users\Jesper\AppData\Local\Temp\cczpUCDP.s:5152   .debug_str:0000000000000629 .LASF222
C:\Users\Jesper\AppData\Local\Temp\cczpUCDP.s:5262   .debug_str:000000000000086c .LASF223
C:\Users\Jesper\AppData\Local\Temp\cczpUCDP.s:5004   .debug_str:000000000000025a .LASF224
C:\Users\Jesper\AppData\Local\Temp\cczpUCDP.s:5378   .debug_str:0000000000000b5d .LASF225
C:\Users\Jesper\AppData\Local\Temp\cczpUCDP.s:5264   .debug_str:0000000000000874 .LASF226
C:\Users\Jesper\AppData\Local\Temp\cczpUCDP.s:5138   .debug_str:00000000000005d3 .LASF227
C:\Users\Jesper\AppData\Local\Temp\cczpUCDP.s:4996   .debug_str:000000000000023c .LASF228
C:\Users\Jesper\AppData\Local\Temp\cczpUCDP.s:5204   .debug_str:000000000000072b .LASF229
C:\Users\Jesper\AppData\Local\Temp\cczpUCDP.s:5718   .debug_str:0000000000001280 .LASF230
C:\Users\Jesper\AppData\Local\Temp\cczpUCDP.s:5682   .debug_str:00000000000011a8 .LASF231
C:\Users\Jesper\AppData\Local\Temp\cczpUCDP.s:5538   .debug_str:0000000000000ed4 .LASF232
C:\Users\Jesper\AppData\Local\Temp\cczpUCDP.s:5530   .debug_str:0000000000000ead .LASF233
C:\Users\Jesper\AppData\Local\Temp\cczpUCDP.s:5480   .debug_str:0000000000000dc3 .LASF234
C:\Users\Jesper\AppData\Local\Temp\cczpUCDP.s:5080   .debug_str:0000000000000485 .LASF235
C:\Users\Jesper\AppData\Local\Temp\cczpUCDP.s:5550   .debug_str:0000000000000f07 .LASF236
C:\Users\Jesper\AppData\Local\Temp\cczpUCDP.s:5182   .debug_str:00000000000006d0 .LASF237
C:\Users\Jesper\AppData\Local\Temp\cczpUCDP.s:5030   .debug_str:0000000000000364 .LASF238
C:\Users\Jesper\AppData\Local\Temp\cczpUCDP.s:5020   .debug_str:0000000000000326 .LASF239
C:\Users\Jesper\AppData\Local\Temp\cczpUCDP.s:5136   .debug_str:00000000000005ca .LASF240
C:\Users\Jesper\AppData\Local\Temp\cczpUCDP.s:5156   .debug_str:0000000000000638 .LASF241
C:\Users\Jesper\AppData\Local\Temp\cczpUCDP.s:5390   .debug_str:0000000000000baa .LASF242
GAS LISTING C:\Users\Jesper\AppData\Local\Temp\cczpUCDP.s 			page 10


C:\Users\Jesper\AppData\Local\Temp\cczpUCDP.s:5522   .debug_str:0000000000000e83 .LASF243
C:\Users\Jesper\AppData\Local\Temp\cczpUCDP.s:5208   .debug_str:0000000000000740 .LASF244
C:\Users\Jesper\AppData\Local\Temp\cczpUCDP.s:4998   .debug_str:0000000000000245 .LASF245
C:\Users\Jesper\AppData\Local\Temp\cczpUCDP.s:5366   .debug_str:0000000000000b14 .LASF246
C:\Users\Jesper\AppData\Local\Temp\cczpUCDP.s:5374   .debug_str:0000000000000b43 .LASF247
C:\Users\Jesper\AppData\Local\Temp\cczpUCDP.s:5476   .debug_str:0000000000000dae .LASF248
C:\Users\Jesper\AppData\Local\Temp\cczpUCDP.s:5506   .debug_str:0000000000000e37 .LASF249
C:\Users\Jesper\AppData\Local\Temp\cczpUCDP.s:5516   .debug_str:0000000000000e68 .LASF250
C:\Users\Jesper\AppData\Local\Temp\cczpUCDP.s:5528   .debug_str:0000000000000ea8 .LASF251
C:\Users\Jesper\AppData\Local\Temp\cczpUCDP.s:5362   .debug_str:0000000000000af2 .LASF252
C:\Users\Jesper\AppData\Local\Temp\cczpUCDP.s:5392   .debug_str:0000000000000bbe .LASF253
C:\Users\Jesper\AppData\Local\Temp\cczpUCDP.s:5588   .debug_str:0000000000000fb9 .LASF254
C:\Users\Jesper\AppData\Local\Temp\cczpUCDP.s:5022   .debug_str:000000000000032e .LASF255
C:\Users\Jesper\AppData\Local\Temp\cczpUCDP.s:5540   .debug_str:0000000000000ed9 .LASF256
C:\Users\Jesper\AppData\Local\Temp\cczpUCDP.s:5670   .debug_str:000000000000116d .LASF257
C:\Users\Jesper\AppData\Local\Temp\cczpUCDP.s:5458   .debug_str:0000000000000d3b .LASF258
C:\Users\Jesper\AppData\Local\Temp\cczpUCDP.s:4916   .debug_str:000000000000005b .LASF259
C:\Users\Jesper\AppData\Local\Temp\cczpUCDP.s:5036   .debug_str:0000000000000381 .LASF260
C:\Users\Jesper\AppData\Local\Temp\cczpUCDP.s:5460   .debug_str:0000000000000d43 .LASF261
C:\Users\Jesper\AppData\Local\Temp\cczpUCDP.s:5420   .debug_str:0000000000000c4a .LASF262
C:\Users\Jesper\AppData\Local\Temp\cczpUCDP.s:4922   .debug_str:0000000000000080 .LASF263
C:\Users\Jesper\AppData\Local\Temp\cczpUCDP.s:5524   .debug_str:0000000000000e92 .LASF264
C:\Users\Jesper\AppData\Local\Temp\cczpUCDP.s:5632   .debug_str:00000000000010c1 .LASF265
C:\Users\Jesper\AppData\Local\Temp\cczpUCDP.s:5270   .debug_str:0000000000000894 .LASF266
C:\Users\Jesper\AppData\Local\Temp\cczpUCDP.s:5514   .debug_str:0000000000000e5f .LASF267
C:\Users\Jesper\AppData\Local\Temp\cczpUCDP.s:5286   .debug_str:00000000000008ed .LASF268
C:\Users\Jesper\AppData\Local\Temp\cczpUCDP.s:5542   .debug_str:0000000000000ee0 .LASF269
C:\Users\Jesper\AppData\Local\Temp\cczpUCDP.s:5290   .debug_str:00000000000008ff .LASF270
C:\Users\Jesper\AppData\Local\Temp\cczpUCDP.s:5360   .debug_str:0000000000000aec .LASF271
C:\Users\Jesper\AppData\Local\Temp\cczpUCDP.s:5198   .debug_str:0000000000000715 .LASF272
C:\Users\Jesper\AppData\Local\Temp\cczpUCDP.s:4962   .debug_str:000000000000016b .LASF273
C:\Users\Jesper\AppData\Local\Temp\cczpUCDP.s:4968   .debug_str:0000000000000182 .LASF274
C:\Users\Jesper\AppData\Local\Temp\cczpUCDP.s:5712   .debug_str:000000000000125f .LASF275
C:\Users\Jesper\AppData\Local\Temp\cczpUCDP.s:5680   .debug_str:000000000000119e .LASF276
C:\Users\Jesper\AppData\Local\Temp\cczpUCDP.s:5232   .debug_str:00000000000007a9 .LASF277
C:\Users\Jesper\AppData\Local\Temp\cczpUCDP.s:5076   .debug_str:0000000000000460 .LASF278
C:\Users\Jesper\AppData\Local\Temp\cczpUCDP.s:5592   .debug_str:0000000000000fcd .LASF279
C:\Users\Jesper\AppData\Local\Temp\cczpUCDP.s:5432   .debug_str:0000000000000cb3 .LASF280
C:\Users\Jesper\AppData\Local\Temp\cczpUCDP.s:5438   .debug_str:0000000000000cda .LASF281
C:\Users\Jesper\AppData\Local\Temp\cczpUCDP.s:5702   .debug_str:0000000000001225 .LASF282
C:\Users\Jesper\AppData\Local\Temp\cczpUCDP.s:5034   .debug_str:0000000000000373 .LASF283
C:\Users\Jesper\AppData\Local\Temp\cczpUCDP.s:5000   .debug_str:000000000000024c .LASF284
C:\Users\Jesper\AppData\Local\Temp\cczpUCDP.s:5484   .debug_str:0000000000000dd4 .LASF285
C:\Users\Jesper\AppData\Local\Temp\cczpUCDP.s:5586   .debug_str:0000000000000fb0 .LASF286
C:\Users\Jesper\AppData\Local\Temp\cczpUCDP.s:5616   .debug_str:000000000000104b .LASF287
C:\Users\Jesper\AppData\Local\Temp\cczpUCDP.s:5412   .debug_str:0000000000000c1d .LASF288
C:\Users\Jesper\AppData\Local\Temp\cczpUCDP.s:5610   .debug_str:0000000000001032 .LASF289
C:\Users\Jesper\AppData\Local\Temp\cczpUCDP.s:5160   .debug_str:000000000000065c .LASF290
C:\Users\Jesper\AppData\Local\Temp\cczpUCDP.s:5614   .debug_str:0000000000001044 .LASF291
C:\Users\Jesper\AppData\Local\Temp\cczpUCDP.s:5512   .debug_str:0000000000000e59 .LASF292
C:\Users\Jesper\AppData\Local\Temp\cczpUCDP.s:5056   .debug_str:00000000000003e4 .LASF293
C:\Users\Jesper\AppData\Local\Temp\cczpUCDP.s:5254   .debug_str:0000000000000841 .LASF294
C:\Users\Jesper\AppData\Local\Temp\cczpUCDP.s:5410   .debug_str:0000000000000c16 .LASF295
C:\Users\Jesper\AppData\Local\Temp\cczpUCDP.s:5032   .debug_str:000000000000036d .LASF296
C:\Users\Jesper\AppData\Local\Temp\cczpUCDP.s:5606   .debug_str:0000000000001024 .LASF297
C:\Users\Jesper\AppData\Local\Temp\cczpUCDP.s:5194   .debug_str:0000000000000705 .LASF298
C:\Users\Jesper\AppData\Local\Temp\cczpUCDP.s:4932   .debug_str:00000000000000a9 .LASF299
GAS LISTING C:\Users\Jesper\AppData\Local\Temp\cczpUCDP.s 			page 11


C:\Users\Jesper\AppData\Local\Temp\cczpUCDP.s:4940   .debug_str:00000000000000ea .LASF300
C:\Users\Jesper\AppData\Local\Temp\cczpUCDP.s:5452   .debug_str:0000000000000d1f .LASF301
C:\Users\Jesper\AppData\Local\Temp\cczpUCDP.s:5162   .debug_str:0000000000000661 .LASF302
C:\Users\Jesper\AppData\Local\Temp\cczpUCDP.s:5396   .debug_str:0000000000000bce .LASF303
C:\Users\Jesper\AppData\Local\Temp\cczpUCDP.s:4966   .debug_str:000000000000017c .LASF304
C:\Users\Jesper\AppData\Local\Temp\cczpUCDP.s:5492   .debug_str:0000000000000df5 .LASF305
C:\Users\Jesper\AppData\Local\Temp\cczpUCDP.s:5456   .debug_str:0000000000000d33 .LASF306
C:\Users\Jesper\AppData\Local\Temp\cczpUCDP.s:5546   .debug_str:0000000000000eee .LASF307
C:\Users\Jesper\AppData\Local\Temp\cczpUCDP.s:5002   .debug_str:0000000000000254 .LASF308
C:\Users\Jesper\AppData\Local\Temp\cczpUCDP.s:5402   .debug_str:0000000000000bea .LASF309
C:\Users\Jesper\AppData\Local\Temp\cczpUCDP.s:5258   .debug_str:0000000000000854 .LASF310
C:\Users\Jesper\AppData\Local\Temp\cczpUCDP.s:5010   .debug_str:00000000000002f1 .LASF311
C:\Users\Jesper\AppData\Local\Temp\cczpUCDP.s:5276   .debug_str:00000000000008b6 .LASF312
C:\Users\Jesper\AppData\Local\Temp\cczpUCDP.s:5172   .debug_str:0000000000000697 .LASF313
C:\Users\Jesper\AppData\Local\Temp\cczpUCDP.s:5490   .debug_str:0000000000000ded .LASF314
C:\Users\Jesper\AppData\Local\Temp\cczpUCDP.s:5398   .debug_str:0000000000000bd4 .LASF315
C:\Users\Jesper\AppData\Local\Temp\cczpUCDP.s:5608   .debug_str:000000000000102d .LASF316
C:\Users\Jesper\AppData\Local\Temp\cczpUCDP.s:5306   .debug_str:000000000000094c .LASF317
C:\Users\Jesper\AppData\Local\Temp\cczpUCDP.s:5704   .debug_str:0000000000001230 .LASF318
C:\Users\Jesper\AppData\Local\Temp\cczpUCDP.s:5630   .debug_str:00000000000010b9 .LASF319
C:\Users\Jesper\AppData\Local\Temp\cczpUCDP.s:5256   .debug_str:0000000000000849 .LASF320
C:\Users\Jesper\AppData\Local\Temp\cczpUCDP.s:5296   .debug_str:0000000000000919 .LASF321
C:\Users\Jesper\AppData\Local\Temp\cczpUCDP.s:5644   .debug_str:0000000000001100 .LASF322
C:\Users\Jesper\AppData\Local\Temp\cczpUCDP.s:5054   .debug_str:00000000000003da .LASF323
C:\Users\Jesper\AppData\Local\Temp\cczpUCDP.s:5244   .debug_str:00000000000007f6 .LASF324
C:\Users\Jesper\AppData\Local\Temp\cczpUCDP.s:5352   .debug_str:0000000000000ac8 .LASF325
C:\Users\Jesper\AppData\Local\Temp\cczpUCDP.s:4948   .debug_str:000000000000011a .LASF326
C:\Users\Jesper\AppData\Local\Temp\cczpUCDP.s:5230   .debug_str:00000000000007a1 .LASF327
C:\Users\Jesper\AppData\Local\Temp\cczpUCDP.s:5394   .debug_str:0000000000000bc9 .LASF328
C:\Users\Jesper\AppData\Local\Temp\cczpUCDP.s:5298   .debug_str:0000000000000923 .LASF329
C:\Users\Jesper\AppData\Local\Temp\cczpUCDP.s:5206   .debug_str:0000000000000736 .LASF330
C:\Users\Jesper\AppData\Local\Temp\cczpUCDP.s:5332   .debug_str:0000000000000a31 .LASF331
C:\Users\Jesper\AppData\Local\Temp\cczpUCDP.s:4928   .debug_str:000000000000009c .LASF332
C:\Users\Jesper\AppData\Local\Temp\cczpUCDP.s:5154   .debug_str:0000000000000633 .LASF333
C:\Users\Jesper\AppData\Local\Temp\cczpUCDP.s:5518   .debug_str:0000000000000e73 .LASF334
C:\Users\Jesper\AppData\Local\Temp\cczpUCDP.s:5358   .debug_str:0000000000000ae6 .LASF335
C:\Users\Jesper\AppData\Local\Temp\cczpUCDP.s:5326   .debug_str:00000000000009b2 .LASF336
C:\Users\Jesper\AppData\Local\Temp\cczpUCDP.s:5354   .debug_str:0000000000000ad2 .LASF337
C:\Users\Jesper\AppData\Local\Temp\cczpUCDP.s:5488   .debug_str:0000000000000de5 .LASF338
C:\Users\Jesper\AppData\Local\Temp\cczpUCDP.s:5448   .debug_str:0000000000000d0e .LASF339
C:\Users\Jesper\AppData\Local\Temp\cczpUCDP.s:5008   .debug_str:00000000000002eb .LASF340
C:\Users\Jesper\AppData\Local\Temp\cczpUCDP.s:5672   .debug_str:0000000000001174 .LASF341
C:\Users\Jesper\AppData\Local\Temp\cczpUCDP.s:5094   .debug_str:00000000000004cc .LASF342
C:\Users\Jesper\AppData\Local\Temp\cczpUCDP.s:5504   .debug_str:0000000000000e2a .LASF343
C:\Users\Jesper\AppData\Local\Temp\cczpUCDP.s:4946   .debug_str:000000000000010d .LASF344
C:\Users\Jesper\AppData\Local\Temp\cczpUCDP.s:5066   .debug_str:000000000000042e .LASF345
C:\Users\Jesper\AppData\Local\Temp\cczpUCDP.s:5344   .debug_str:0000000000000a83 .LASF346
C:\Users\Jesper\AppData\Local\Temp\cczpUCDP.s:5406   .debug_str:0000000000000c02 .LASF347
C:\Users\Jesper\AppData\Local\Temp\cczpUCDP.s:5532   .debug_str:0000000000000ebd .LASF348
C:\Users\Jesper\AppData\Local\Temp\cczpUCDP.s:5574   .debug_str:0000000000000f72 .LASF349
C:\Users\Jesper\AppData\Local\Temp\cczpUCDP.s:5466   .debug_str:0000000000000d5e .LASF350
C:\Users\Jesper\AppData\Local\Temp\cczpUCDP.s:5400   .debug_str:0000000000000bdc .LASF351
C:\Users\Jesper\AppData\Local\Temp\cczpUCDP.s:5462   .debug_str:0000000000000d4a .LASF352
C:\Users\Jesper\AppData\Local\Temp\cczpUCDP.s:5280   .debug_str:00000000000008cd .LASF353
C:\Users\Jesper\AppData\Local\Temp\cczpUCDP.s:5714   .debug_str:0000000000001268 .LASF354
C:\Users\Jesper\AppData\Local\Temp\cczpUCDP.s:5046   .debug_str:00000000000003b1 .LASF355
C:\Users\Jesper\AppData\Local\Temp\cczpUCDP.s:5508   .debug_str:0000000000000e41 .LASF356
GAS LISTING C:\Users\Jesper\AppData\Local\Temp\cczpUCDP.s 			page 12


C:\Users\Jesper\AppData\Local\Temp\cczpUCDP.s:5688   .debug_str:00000000000011ca .LASF357
C:\Users\Jesper\AppData\Local\Temp\cczpUCDP.s:5384   .debug_str:0000000000000b8a .LASF358
C:\Users\Jesper\AppData\Local\Temp\cczpUCDP.s:5368   .debug_str:0000000000000b1d .LASF359
C:\Users\Jesper\AppData\Local\Temp\cczpUCDP.s:5164   .debug_str:0000000000000668 .LASF360
C:\Users\Jesper\AppData\Local\Temp\cczpUCDP.s:5622   .debug_str:0000000000001069 .LASF361
C:\Users\Jesper\AppData\Local\Temp\cczpUCDP.s:5338   .debug_str:0000000000000a5e .LASF362
C:\Users\Jesper\AppData\Local\Temp\cczpUCDP.s:4960   .debug_str:0000000000000163 .LASF363
C:\Users\Jesper\AppData\Local\Temp\cczpUCDP.s:4920   .debug_str:0000000000000075 .LASF407
C:\Users\Jesper\AppData\Local\Temp\cczpUCDP.s:5050   .debug_str:00000000000003c8 .LASF364
C:\Users\Jesper\AppData\Local\Temp\cczpUCDP.s:5424   .debug_str:0000000000000c75 .LASF365
C:\Users\Jesper\AppData\Local\Temp\cczpUCDP.s:5134   .debug_str:00000000000005b7 .LASF366
C:\Users\Jesper\AppData\Local\Temp\cczpUCDP.s:5706   .debug_str:0000000000001249 .LASF367
C:\Users\Jesper\AppData\Local\Temp\cczpUCDP.s:5624   .debug_str:0000000000001070 .LASF368
C:\Users\Jesper\AppData\Local\Temp\cczpUCDP.s:5104   .debug_str:000000000000051a .LASF369
C:\Users\Jesper\AppData\Local\Temp\cczpUCDP.s:5128   .debug_str:000000000000059a .LASF370
C:\Users\Jesper\AppData\Local\Temp\cczpUCDP.s:4986   .debug_str:00000000000001de .LASF371
C:\Users\Jesper\AppData\Local\Temp\cczpUCDP.s:5422   .debug_str:0000000000000c52 .LASF372
C:\Users\Jesper\AppData\Local\Temp\cczpUCDP.s:5628   .debug_str:00000000000010a8 .LASF373
C:\Users\Jesper\AppData\Local\Temp\cczpUCDP.s:5170   .debug_str:0000000000000686 .LASF374
C:\Users\Jesper\AppData\Local\Temp\cczpUCDP.s:5102   .debug_str:00000000000004f5 .LASF375
C:\Users\Jesper\AppData\Local\Temp\cczpUCDP.s:5064   .debug_str:0000000000000417 .LASF376
C:\Users\Jesper\AppData\Local\Temp\cczpUCDP.s:5602   .debug_str:0000000000000ffa .LASF377
C:\Users\Jesper\AppData\Local\Temp\cczpUCDP.s:5078   .debug_str:0000000000000469 .LASF378
C:\Users\Jesper\AppData\Local\Temp\cczpUCDP.s:5234   .debug_str:00000000000007b3 .LASF379
C:\Users\Jesper\AppData\Local\Temp\cczpUCDP.s:5012   .debug_str:00000000000002f8 .LASF380
C:\Users\Jesper\AppData\Local\Temp\cczpUCDP.s:4956   .debug_str:000000000000013f .LASF381
C:\Users\Jesper\AppData\Local\Temp\cczpUCDP.s:5150   .debug_str:000000000000060d .LASF382
C:\Users\Jesper\AppData\Local\Temp\cczpUCDP.s:5364   .debug_str:0000000000000afa .LASF383
C:\Users\Jesper\AppData\Local\Temp\cczpUCDP.s:4914   .debug_str:0000000000000042 .LASF384
C:\Users\Jesper\AppData\Local\Temp\cczpUCDP.s:4934   .debug_str:00000000000000af .LASF385
C:\Users\Jesper\AppData\Local\Temp\cczpUCDP.s:5618   .debug_str:0000000000001053 .LASF386
C:\Users\Jesper\AppData\Local\Temp\cczpUCDP.s:5626   .debug_str:0000000000001096 .LASF387
C:\Users\Jesper\AppData\Local\Temp\cczpUCDP.s:5062   .debug_str:00000000000003fe .LASF388
C:\Users\Jesper\AppData\Local\Temp\cczpUCDP.s:4942   .debug_str:00000000000000f1 .LASF389
C:\Users\Jesper\AppData\Local\Temp\cczpUCDP.s:5274   .debug_str:00000000000008ac .LASF390
C:\Users\Jesper\AppData\Local\Temp\cczpUCDP.s:5348   .debug_str:0000000000000a9a .LASF391
C:\Users\Jesper\AppData\Local\Temp\cczpUCDP.s:4988   .debug_str:000000000000020c .LASF392
C:\Users\Jesper\AppData\Local\Temp\cczpUCDP.s:5238   .debug_str:00000000000007d4 .LASF393
C:\Users\Jesper\AppData\Local\Temp\cczpUCDP.s:5180   .debug_str:00000000000006c4 .LASF394
C:\Users\Jesper\AppData\Local\Temp\cczpUCDP.s:5106   .debug_str:0000000000000529 .LASF395
C:\Users\Jesper\AppData\Local\Temp\cczpUCDP.s:5604   .debug_str:000000000000100e .LASF396
C:\Users\Jesper\AppData\Local\Temp\cczpUCDP.s:31     .text.USBFS_WKUP_IRQHandler:0000000000000000 .LFB7
C:\Users\Jesper\AppData\Local\Temp\cczpUCDP.s:84     .text.USBFS_WKUP_IRQHandler:0000000000000056 .LFE7
C:\Users\Jesper\AppData\Local\Temp\cczpUCDP.s:4861   .debug_loc:0000000000000000 .LLST0
C:\Users\Jesper\AppData\Local\Temp\cczpUCDP.s:53     .text.USBFS_WKUP_IRQHandler:000000000000001c .LVL1
C:\Users\Jesper\AppData\Local\Temp\cczpUCDP.s:58     .text.USBFS_WKUP_IRQHandler:000000000000002c .LVL2
C:\Users\Jesper\AppData\Local\Temp\cczpUCDP.s:62     .text.USBFS_WKUP_IRQHandler:0000000000000038 .LVL3
C:\Users\Jesper\AppData\Local\Temp\cczpUCDP.s:66     .text.USBFS_WKUP_IRQHandler:0000000000000044 .LVL4
C:\Users\Jesper\AppData\Local\Temp\cczpUCDP.s:82     .text.USBFS_WKUP_IRQHandler:0000000000000056 .LVL5
C:\Users\Jesper\AppData\Local\Temp\cczpUCDP.s:5430   .debug_str:0000000000000ca2 .LASF397
C:\Users\Jesper\AppData\Local\Temp\cczpUCDP.s:14     .text.USBFS_IRQHandler:0000000000000000 .LFB6
C:\Users\Jesper\AppData\Local\Temp\cczpUCDP.s:24     .text.USBFS_IRQHandler:0000000000000010 .LFE6
C:\Users\Jesper\AppData\Local\Temp\cczpUCDP.s:22     .text.USBFS_IRQHandler:0000000000000010 .LVL0
C:\Users\Jesper\AppData\Local\Temp\cczpUCDP.s:5334   .debug_str:0000000000000a39 .LASF398
C:\Users\Jesper\AppData\Local\Temp\cczpUCDP.s:5648   .debug_str:0000000000001112 .LASF399
C:\Users\Jesper\AppData\Local\Temp\cczpUCDP.s:5692   .debug_str:00000000000011e1 .LASF400
C:\Users\Jesper\AppData\Local\Temp\cczpUCDP.s:5434   .debug_str:0000000000000cbd .LASF401
GAS LISTING C:\Users\Jesper\AppData\Local\Temp\cczpUCDP.s 			page 13


C:\Users\Jesper\AppData\Local\Temp\cczpUCDP.s:5470   .debug_str:0000000000000d75 .LASF402
C:\Users\Jesper\AppData\Local\Temp\cczpUCDP.s:5072   .debug_str:000000000000044f .LASF403
C:\Users\Jesper\AppData\Local\Temp\cczpUCDP.s:37     .text.USBFS_WKUP_IRQHandler:0000000000000002 .LCFI0
C:\Users\Jesper\AppData\Local\Temp\cczpUCDP.s:78     .text.USBFS_WKUP_IRQHandler:000000000000004e .LCFI1
C:\Users\Jesper\AppData\Local\Temp\cczpUCDP.s:106    .debug_info:0000000000000000 .Ldebug_info0

UNDEFINED SYMBOLS
USB_OTG_dev
usbd_isr
set_usb_clock_96m_hxtal
usbfs_prescaler
rcu_usb_clock_config
rcu_periph_clock_enable
usb_clock_active
exti_interrupt_flag_clear
