GAS LISTING C:\Users\Jesper\AppData\Local\Temp\ccA1vMmE.s 			page 1


   1              		.file	"gd32vf103_hw.c"
   2              		.option nopic
   3              		.attribute arch, "rv32i2p0_m2p0_a2p0_c2p0"
   4              		.attribute unaligned_access, 0
   5              		.attribute stack_align, 16
   6              		.text
   7              	.Ltext0:
   8              		.cfi_sections	.debug_frame
   9              		.section	.text.usb_rcu_config,"ax",@progbits
  10              		.align	1
  11              		.globl	usb_rcu_config
  13              	usb_rcu_config:
  14              	.LFB6:
  15              		.file 1 "lib/usbcdc/src/gd32vf103_hw.c"
   1:lib/usbcdc/src/gd32vf103_hw.c **** /*!
   2:lib/usbcdc/src/gd32vf103_hw.c ****     \file  gd32vf103_hw.c
   3:lib/usbcdc/src/gd32vf103_hw.c ****     \brief USB hardware configuration for GD32VF103
   4:lib/usbcdc/src/gd32vf103_hw.c **** 
   5:lib/usbcdc/src/gd32vf103_hw.c ****     \version 2019-6-5, V1.0.0, demo for GD32VF103
   6:lib/usbcdc/src/gd32vf103_hw.c **** */
   7:lib/usbcdc/src/gd32vf103_hw.c **** 
   8:lib/usbcdc/src/gd32vf103_hw.c **** /*
   9:lib/usbcdc/src/gd32vf103_hw.c ****     Copyright (c) 2019, GigaDevice Semiconductor Inc.
  10:lib/usbcdc/src/gd32vf103_hw.c **** 
  11:lib/usbcdc/src/gd32vf103_hw.c ****     Redistribution and use in source and binary forms, with or without modification, 
  12:lib/usbcdc/src/gd32vf103_hw.c **** are permitted provided that the following conditions are met:
  13:lib/usbcdc/src/gd32vf103_hw.c **** 
  14:lib/usbcdc/src/gd32vf103_hw.c ****     1. Redistributions of source code must retain the above copyright notice, this 
  15:lib/usbcdc/src/gd32vf103_hw.c ****        list of conditions and the following disclaimer.
  16:lib/usbcdc/src/gd32vf103_hw.c ****     2. Redistributions in binary form must reproduce the above copyright notice, 
  17:lib/usbcdc/src/gd32vf103_hw.c ****        this list of conditions and the following disclaimer in the documentation 
  18:lib/usbcdc/src/gd32vf103_hw.c ****        and/or other materials provided with the distribution.
  19:lib/usbcdc/src/gd32vf103_hw.c ****     3. Neither the name of the copyright holder nor the names of its contributors 
  20:lib/usbcdc/src/gd32vf103_hw.c ****        may be used to endorse or promote products derived from this software without 
  21:lib/usbcdc/src/gd32vf103_hw.c ****        specific prior written permission.
  22:lib/usbcdc/src/gd32vf103_hw.c **** 
  23:lib/usbcdc/src/gd32vf103_hw.c ****     THIS SOFTWARE IS PROVIDED BY THE COPYRIGHT HOLDERS AND CONTRIBUTORS "AS IS" 
  24:lib/usbcdc/src/gd32vf103_hw.c **** AND ANY EXPRESS OR IMPLIED WARRANTIES, INCLUDING, BUT NOT LIMITED TO, THE IMPLIED 
  25:lib/usbcdc/src/gd32vf103_hw.c **** WARRANTIES OF MERCHANTABILITY AND FITNESS FOR A PARTICULAR PURPOSE ARE DISCLAIMED. 
  26:lib/usbcdc/src/gd32vf103_hw.c **** IN NO EVENT SHALL THE COPYRIGHT HOLDER OR CONTRIBUTORS BE LIABLE FOR ANY DIRECT, 
  27:lib/usbcdc/src/gd32vf103_hw.c **** INDIRECT, INCIDENTAL, SPECIAL, EXEMPLARY, OR CONSEQUENTIAL DAMAGES (INCLUDING, BUT 
  28:lib/usbcdc/src/gd32vf103_hw.c **** NOT LIMITED TO, PROCUREMENT OF SUBSTITUTE GOODS OR SERVICES; LOSS OF USE, DATA, OR 
  29:lib/usbcdc/src/gd32vf103_hw.c **** PROFITS; OR BUSINESS INTERRUPTION) HOWEVER CAUSED AND ON ANY THEORY OF LIABILITY, 
  30:lib/usbcdc/src/gd32vf103_hw.c **** WHETHER IN CONTRACT, STRICT LIABILITY, OR TORT (INCLUDING NEGLIGENCE OR OTHERWISE) 
  31:lib/usbcdc/src/gd32vf103_hw.c **** ARISING IN ANY WAY OUT OF THE USE OF THIS SOFTWARE, EVEN IF ADVISED OF THE POSSIBILITY 
  32:lib/usbcdc/src/gd32vf103_hw.c **** OF SUCH DAMAGE.
  33:lib/usbcdc/src/gd32vf103_hw.c **** */
  34:lib/usbcdc/src/gd32vf103_hw.c **** 
  35:lib/usbcdc/src/gd32vf103_hw.c **** 
  36:lib/usbcdc/src/gd32vf103_hw.c **** #include "drv_usb_hw.h"
  37:lib/usbcdc/src/gd32vf103_hw.c **** #include <stdio.h>
  38:lib/usbcdc/src/gd32vf103_hw.c **** #include <stdlib.h>
  39:lib/usbcdc/src/gd32vf103_hw.c **** #include <string.h>
  40:lib/usbcdc/src/gd32vf103_hw.c **** #include "usb_delay.h"
  41:lib/usbcdc/src/gd32vf103_hw.c **** 
  42:lib/usbcdc/src/gd32vf103_hw.c **** #define TIM_MSEC_DELAY                          0x01
  43:lib/usbcdc/src/gd32vf103_hw.c **** #define TIM_USEC_DELAY                          0x02
GAS LISTING C:\Users\Jesper\AppData\Local\Temp\ccA1vMmE.s 			page 2


  44:lib/usbcdc/src/gd32vf103_hw.c **** 
  45:lib/usbcdc/src/gd32vf103_hw.c **** __IO uint32_t delay_time = 0;
  46:lib/usbcdc/src/gd32vf103_hw.c **** __IO uint32_t timer_prescaler;
  47:lib/usbcdc/src/gd32vf103_hw.c **** __IO uint32_t usbfs_prescaler = 0;
  48:lib/usbcdc/src/gd32vf103_hw.c **** 
  49:lib/usbcdc/src/gd32vf103_hw.c **** //static void hw_time_set (uint8_t unit);
  50:lib/usbcdc/src/gd32vf103_hw.c **** static void hw_delay    (uint32_t ntime, uint8_t unit);
  51:lib/usbcdc/src/gd32vf103_hw.c **** 
  52:lib/usbcdc/src/gd32vf103_hw.c **** 
  53:lib/usbcdc/src/gd32vf103_hw.c **** /*!
  54:lib/usbcdc/src/gd32vf103_hw.c ****     \brief      configure USB clock
  55:lib/usbcdc/src/gd32vf103_hw.c ****     \param[in]  none
  56:lib/usbcdc/src/gd32vf103_hw.c ****     \param[out] none
  57:lib/usbcdc/src/gd32vf103_hw.c ****     \retval     none
  58:lib/usbcdc/src/gd32vf103_hw.c **** */
  59:lib/usbcdc/src/gd32vf103_hw.c **** void usb_rcu_config(void)
  60:lib/usbcdc/src/gd32vf103_hw.c **** {
  16              		.loc 1 60 1
  17              		.cfi_startproc
  61:lib/usbcdc/src/gd32vf103_hw.c ****     uint32_t system_clock = rcu_clock_freq_get(CK_SYS);
  18              		.loc 1 61 5
  60:lib/usbcdc/src/gd32vf103_hw.c ****     uint32_t system_clock = rcu_clock_freq_get(CK_SYS);
  19              		.loc 1 60 1 is_stmt 0
  20 0000 4111     		addi	sp,sp,-16
  21              	.LCFI0:
  22              		.cfi_def_cfa_offset 16
  23              		.loc 1 61 29
  24 0002 0145     		li	a0,0
  60:lib/usbcdc/src/gd32vf103_hw.c ****     uint32_t system_clock = rcu_clock_freq_get(CK_SYS);
  25              		.loc 1 60 1
  26 0004 06C6     		sw	ra,12(sp)
  27              		.cfi_offset 1, -4
  28              		.loc 1 61 29
  29 0006 97000000 		call	rcu_clock_freq_get
  29      E7800000 
  30              	.LVL0:
  62:lib/usbcdc/src/gd32vf103_hw.c ****   
  63:lib/usbcdc/src/gd32vf103_hw.c ****     if (system_clock == 48000000) {
  31              		.loc 1 63 5 is_stmt 1
  32              		.loc 1 63 8 is_stmt 0
  33 000e 3777DC02 		li	a4,48001024
  34 0012 B7070000 		lui	a5,%hi(.LANCHOR0)
  35 0016 130707C0 		addi	a4,a4,-1024
  36 001a 93870700 		addi	a5,a5,%lo(.LANCHOR0)
  37 001e 6317E502 		bne	a0,a4,.L2
  64:lib/usbcdc/src/gd32vf103_hw.c ****         usbfs_prescaler = RCU_CKUSB_CKPLL_DIV1;
  38              		.loc 1 64 9 is_stmt 1
  39              		.loc 1 64 25 is_stmt 0
  40 0022 37074000 		li	a4,4194304
  41 0026 98C3     		sw	a4,0(a5)
  65:lib/usbcdc/src/gd32vf103_hw.c ****         timer_prescaler = 3;
  42              		.loc 1 65 9 is_stmt 1
  43              		.loc 1 65 25 is_stmt 0
  44 0028 8D46     		li	a3,3
  45 002a 37070000 		lui	a4,%hi(timer_prescaler)
  46              	.L6:
  66:lib/usbcdc/src/gd32vf103_hw.c ****     } else if (system_clock == 72000000) {
GAS LISTING C:\Users\Jesper\AppData\Local\Temp\ccA1vMmE.s 			page 3


  67:lib/usbcdc/src/gd32vf103_hw.c ****         usbfs_prescaler = RCU_CKUSB_CKPLL_DIV1_5;
  68:lib/usbcdc/src/gd32vf103_hw.c ****         timer_prescaler = 5;
  69:lib/usbcdc/src/gd32vf103_hw.c ****     } else if (system_clock == 96000000) {
  70:lib/usbcdc/src/gd32vf103_hw.c ****         usbfs_prescaler = RCU_CKUSB_CKPLL_DIV2;
  71:lib/usbcdc/src/gd32vf103_hw.c ****         timer_prescaler = 7;
  47              		.loc 1 71 25
  48 002e 2320D700 		sw	a3,%lo(timer_prescaler)(a4)
  49              	.L3:
  72:lib/usbcdc/src/gd32vf103_hw.c ****     } else {
  73:lib/usbcdc/src/gd32vf103_hw.c ****         /*  reserved  */
  74:lib/usbcdc/src/gd32vf103_hw.c ****     }
  50              		.loc 1 74 5 is_stmt 1
  75:lib/usbcdc/src/gd32vf103_hw.c **** 
  76:lib/usbcdc/src/gd32vf103_hw.c ****     rcu_usb_clock_config(usbfs_prescaler);
  51              		.loc 1 76 5
  52 0032 8843     		lw	a0,0(a5)
  53              	.LVL1:
  54 0034 97000000 		call	rcu_usb_clock_config
  54      E7800000 
  55              	.LVL2:
  77:lib/usbcdc/src/gd32vf103_hw.c ****     rcu_periph_clock_enable(RCU_USBFS);
  56              		.loc 1 77 5
  78:lib/usbcdc/src/gd32vf103_hw.c **** }
  57              		.loc 1 78 1 is_stmt 0
  58 003c B240     		lw	ra,12(sp)
  59              		.cfi_remember_state
  60              		.cfi_restore 1
  77:lib/usbcdc/src/gd32vf103_hw.c ****     rcu_periph_clock_enable(RCU_USBFS);
  61              		.loc 1 77 5
  62 003e 1305C050 		li	a0,1292
  63              		.loc 1 78 1
  64 0042 4101     		addi	sp,sp,16
  65              	.LCFI1:
  66              		.cfi_def_cfa_offset 0
  77:lib/usbcdc/src/gd32vf103_hw.c ****     rcu_periph_clock_enable(RCU_USBFS);
  67              		.loc 1 77 5
  68 0044 17030000 		tail	rcu_periph_clock_enable
  68      67000300 
  69              	.LVL3:
  70              	.L2:
  71              	.LCFI2:
  72              		.cfi_restore_state
  66:lib/usbcdc/src/gd32vf103_hw.c ****         usbfs_prescaler = RCU_CKUSB_CKPLL_DIV1_5;
  73              		.loc 1 66 12 is_stmt 1
  66:lib/usbcdc/src/gd32vf103_hw.c ****         usbfs_prescaler = RCU_CKUSB_CKPLL_DIV1_5;
  74              		.loc 1 66 15 is_stmt 0
  75 004c 37A74A04 		li	a4,71999488
  76 0050 13070720 		addi	a4,a4,512
  77 0054 6318E500 		bne	a0,a4,.L4
  67:lib/usbcdc/src/gd32vf103_hw.c ****         timer_prescaler = 5;
  78              		.loc 1 67 9 is_stmt 1
  67:lib/usbcdc/src/gd32vf103_hw.c ****         timer_prescaler = 5;
  79              		.loc 1 67 25 is_stmt 0
  80 0058 23A00700 		sw	zero,0(a5)
  68:lib/usbcdc/src/gd32vf103_hw.c ****     } else if (system_clock == 96000000) {
  81              		.loc 1 68 9 is_stmt 1
  68:lib/usbcdc/src/gd32vf103_hw.c ****     } else if (system_clock == 96000000) {
GAS LISTING C:\Users\Jesper\AppData\Local\Temp\ccA1vMmE.s 			page 4


  82              		.loc 1 68 25 is_stmt 0
  83 005c 37070000 		lui	a4,%hi(timer_prescaler)
  84 0060 9546     		li	a3,5
  85 0062 F1B7     		j	.L6
  86              	.L4:
  69:lib/usbcdc/src/gd32vf103_hw.c ****         usbfs_prescaler = RCU_CKUSB_CKPLL_DIV2;
  87              		.loc 1 69 12 is_stmt 1
  69:lib/usbcdc/src/gd32vf103_hw.c ****         usbfs_prescaler = RCU_CKUSB_CKPLL_DIV2;
  88              		.loc 1 69 15 is_stmt 0
  89 0064 37E7B805 		li	a4,96002048
  90 0068 13070780 		addi	a4,a4,-2048
  91 006c E313E5FC 		bne	a0,a4,.L3
  70:lib/usbcdc/src/gd32vf103_hw.c ****         timer_prescaler = 7;
  92              		.loc 1 70 9 is_stmt 1
  70:lib/usbcdc/src/gd32vf103_hw.c ****         timer_prescaler = 7;
  93              		.loc 1 70 25 is_stmt 0
  94 0070 3707C000 		li	a4,12582912
  95 0074 98C3     		sw	a4,0(a5)
  71:lib/usbcdc/src/gd32vf103_hw.c ****     } else {
  96              		.loc 1 71 9 is_stmt 1
  71:lib/usbcdc/src/gd32vf103_hw.c ****     } else {
  97              		.loc 1 71 25 is_stmt 0
  98 0076 9D46     		li	a3,7
  99 0078 37070000 		lui	a4,%hi(timer_prescaler)
 100 007c 4DBF     		j	.L6
 101              		.cfi_endproc
 102              	.LFE6:
 104              		.section	.text.usb_intr_config,"ax",@progbits
 105              		.align	1
 106              		.globl	usb_intr_config
 108              	usb_intr_config:
 109              	.LFB7:
  79:lib/usbcdc/src/gd32vf103_hw.c **** 
  80:lib/usbcdc/src/gd32vf103_hw.c **** /*!
  81:lib/usbcdc/src/gd32vf103_hw.c ****     \brief      configure USB interrupt
  82:lib/usbcdc/src/gd32vf103_hw.c ****     \param[in]  none
  83:lib/usbcdc/src/gd32vf103_hw.c ****     \param[out] none
  84:lib/usbcdc/src/gd32vf103_hw.c ****     \retval     none
  85:lib/usbcdc/src/gd32vf103_hw.c **** */
  86:lib/usbcdc/src/gd32vf103_hw.c **** void usb_intr_config(void)
  87:lib/usbcdc/src/gd32vf103_hw.c **** {
 110              		.loc 1 87 1 is_stmt 1
 111              		.cfi_startproc
  88:lib/usbcdc/src/gd32vf103_hw.c ****     eclic_irq_enable((uint8_t)USBFS_IRQn, 1, 0);
 112              		.loc 1 88 5
  87:lib/usbcdc/src/gd32vf103_hw.c ****     eclic_irq_enable((uint8_t)USBFS_IRQn, 1, 0);
 113              		.loc 1 87 1 is_stmt 0
 114 0000 4111     		addi	sp,sp,-16
 115              	.LCFI3:
 116              		.cfi_def_cfa_offset 16
 117              		.loc 1 88 5
 118 0002 0146     		li	a2,0
 119 0004 8545     		li	a1,1
 120 0006 13056005 		li	a0,86
  87:lib/usbcdc/src/gd32vf103_hw.c ****     eclic_irq_enable((uint8_t)USBFS_IRQn, 1, 0);
 121              		.loc 1 87 1
 122 000a 06C6     		sw	ra,12(sp)
GAS LISTING C:\Users\Jesper\AppData\Local\Temp\ccA1vMmE.s 			page 5


 123              		.cfi_offset 1, -4
 124              		.loc 1 88 5
 125 000c 97000000 		call	eclic_irq_enable
 125      E7800000 
 126              	.LVL4:
  89:lib/usbcdc/src/gd32vf103_hw.c **** 
  90:lib/usbcdc/src/gd32vf103_hw.c ****     /* enable the power module clock */
  91:lib/usbcdc/src/gd32vf103_hw.c ****     rcu_periph_clock_enable(RCU_PMU);
 127              		.loc 1 91 5 is_stmt 1
 128 0014 1305C071 		li	a0,1820
 129 0018 97000000 		call	rcu_periph_clock_enable
 129      E7800000 
 130              	.LVL5:
  92:lib/usbcdc/src/gd32vf103_hw.c **** 
  93:lib/usbcdc/src/gd32vf103_hw.c ****     /* USB wakeup EXTI line configuration */
  94:lib/usbcdc/src/gd32vf103_hw.c ****     exti_interrupt_flag_clear(EXTI_18);
 131              		.loc 1 94 5
 132 0020 37050400 		li	a0,262144
 133 0024 97000000 		call	exti_interrupt_flag_clear
 133      E7800000 
 134              	.LVL6:
  95:lib/usbcdc/src/gd32vf103_hw.c ****     exti_init(EXTI_18, EXTI_INTERRUPT, EXTI_TRIG_RISING);
 135              		.loc 1 95 5
 136 002c 0146     		li	a2,0
 137 002e 8145     		li	a1,0
 138 0030 37050400 		li	a0,262144
 139 0034 97000000 		call	exti_init
 139      E7800000 
 140              	.LVL7:
  96:lib/usbcdc/src/gd32vf103_hw.c ****     exti_interrupt_enable(EXTI_18);
 141              		.loc 1 96 5
 142 003c 37050400 		li	a0,262144
 143 0040 97000000 		call	exti_interrupt_enable
 143      E7800000 
 144              	.LVL8:
  97:lib/usbcdc/src/gd32vf103_hw.c **** 
  98:lib/usbcdc/src/gd32vf103_hw.c ****     eclic_irq_enable((uint8_t)USBFS_WKUP_IRQn, 3, 0);
 145              		.loc 1 98 5
  99:lib/usbcdc/src/gd32vf103_hw.c **** }
 146              		.loc 1 99 1 is_stmt 0
 147 0048 B240     		lw	ra,12(sp)
 148              		.cfi_restore 1
  98:lib/usbcdc/src/gd32vf103_hw.c **** }
 149              		.loc 1 98 5
 150 004a 0146     		li	a2,0
 151              		.loc 1 99 1
  98:lib/usbcdc/src/gd32vf103_hw.c **** }
 152              		.loc 1 98 5
 153 004c 8D45     		li	a1,3
 154 004e 1305D003 		li	a0,61
 155              		.loc 1 99 1
 156 0052 4101     		addi	sp,sp,16
 157              	.LCFI4:
 158              		.cfi_def_cfa_offset 0
  98:lib/usbcdc/src/gd32vf103_hw.c **** }
 159              		.loc 1 98 5
 160 0054 17030000 		tail	eclic_irq_enable
GAS LISTING C:\Users\Jesper\AppData\Local\Temp\ccA1vMmE.s 			page 6


 160      67000300 
 161              	.LVL9:
 162              		.cfi_endproc
 163              	.LFE7:
 165              		.section	.text.usb_timer_init,"ax",@progbits
 166              		.align	1
 167              		.globl	usb_timer_init
 169              	usb_timer_init:
 170              	.LFB8:
 100:lib/usbcdc/src/gd32vf103_hw.c **** 
 101:lib/usbcdc/src/gd32vf103_hw.c **** /*!
 102:lib/usbcdc/src/gd32vf103_hw.c ****     \brief      initializes delay unit using Timer2
 103:lib/usbcdc/src/gd32vf103_hw.c ****     \param[in]  none
 104:lib/usbcdc/src/gd32vf103_hw.c ****     \param[out] none
 105:lib/usbcdc/src/gd32vf103_hw.c ****     \retval     none
 106:lib/usbcdc/src/gd32vf103_hw.c **** */
 107:lib/usbcdc/src/gd32vf103_hw.c **** void usb_timer_init (void)
 108:lib/usbcdc/src/gd32vf103_hw.c **** {
 171              		.loc 1 108 1 is_stmt 1
 172              		.cfi_startproc
 109:lib/usbcdc/src/gd32vf103_hw.c ****     /*rcu_periph_clock_enable(RCU_TIMER2);
 110:lib/usbcdc/src/gd32vf103_hw.c **** 
 111:lib/usbcdc/src/gd32vf103_hw.c ****     eclic_irq_enable(TIMER2_IRQn, 2, 0);*/
 112:lib/usbcdc/src/gd32vf103_hw.c **** }
 173              		.loc 1 112 1
 174 0000 8280     		ret
 175              		.cfi_endproc
 176              	.LFE8:
 178              		.section	.text.usb_udelay,"ax",@progbits
 179              		.align	1
 180              		.globl	usb_udelay
 182              	usb_udelay:
 183              	.LFB9:
 113:lib/usbcdc/src/gd32vf103_hw.c **** 
 114:lib/usbcdc/src/gd32vf103_hw.c **** /*!
 115:lib/usbcdc/src/gd32vf103_hw.c ****     \brief      delay in micro seconds
 116:lib/usbcdc/src/gd32vf103_hw.c ****     \param[in]  usec: value of delay required in micro seconds
 117:lib/usbcdc/src/gd32vf103_hw.c ****     \param[out] none
 118:lib/usbcdc/src/gd32vf103_hw.c ****     \retval     none
 119:lib/usbcdc/src/gd32vf103_hw.c **** */
 120:lib/usbcdc/src/gd32vf103_hw.c **** void usb_udelay (const uint32_t usec)
 121:lib/usbcdc/src/gd32vf103_hw.c **** {
 184              		.loc 1 121 1
 185              		.cfi_startproc
 186              	.LVL10:
 122:lib/usbcdc/src/gd32vf103_hw.c ****     hw_delay(usec, TIM_USEC_DELAY);
 187              		.loc 1 122 5
 188              	.LBB6:
 189              	.LBB7:
 123:lib/usbcdc/src/gd32vf103_hw.c **** }
 124:lib/usbcdc/src/gd32vf103_hw.c **** 
 125:lib/usbcdc/src/gd32vf103_hw.c **** /*!
 126:lib/usbcdc/src/gd32vf103_hw.c ****     \brief      delay in milli seconds
 127:lib/usbcdc/src/gd32vf103_hw.c ****     \param[in]  msec: value of delay required in milli seconds
 128:lib/usbcdc/src/gd32vf103_hw.c ****     \param[out] none
 129:lib/usbcdc/src/gd32vf103_hw.c ****     \retval     none
 130:lib/usbcdc/src/gd32vf103_hw.c **** */
GAS LISTING C:\Users\Jesper\AppData\Local\Temp\ccA1vMmE.s 			page 7


 131:lib/usbcdc/src/gd32vf103_hw.c **** void usb_mdelay (const uint32_t msec)
 132:lib/usbcdc/src/gd32vf103_hw.c **** {
 133:lib/usbcdc/src/gd32vf103_hw.c ****     hw_delay(msec, TIM_MSEC_DELAY);
 134:lib/usbcdc/src/gd32vf103_hw.c **** }
 135:lib/usbcdc/src/gd32vf103_hw.c **** 
 136:lib/usbcdc/src/gd32vf103_hw.c **** /*!
 137:lib/usbcdc/src/gd32vf103_hw.c ****     \brief      delay routine based on TIM0
 138:lib/usbcdc/src/gd32vf103_hw.c ****     \param[in]  nTime: delay Time 
 139:lib/usbcdc/src/gd32vf103_hw.c ****     \param[in]  unit: delay Time unit = mili sec / micro sec
 140:lib/usbcdc/src/gd32vf103_hw.c ****     \param[out] none
 141:lib/usbcdc/src/gd32vf103_hw.c ****     \retval     none
 142:lib/usbcdc/src/gd32vf103_hw.c **** */
 143:lib/usbcdc/src/gd32vf103_hw.c **** static void hw_delay(uint32_t ntime, uint8_t unit)
 144:lib/usbcdc/src/gd32vf103_hw.c **** {
 145:lib/usbcdc/src/gd32vf103_hw.c ****     if(unit == TIM_USEC_DELAY){
 190              		.loc 1 145 5
 146:lib/usbcdc/src/gd32vf103_hw.c ****         usb_delay_1us(ntime);
 191              		.loc 1 146 9
 192 0000 17030000 		tail	usb_delay_1us
 192      67000300 
 193              	.LVL11:
 194              	.LBE7:
 195              	.LBE6:
 196              		.cfi_endproc
 197              	.LFE9:
 199              		.section	.text.usb_mdelay,"ax",@progbits
 200              		.align	1
 201              		.globl	usb_mdelay
 203              	usb_mdelay:
 204              	.LFB10:
 132:lib/usbcdc/src/gd32vf103_hw.c ****     hw_delay(msec, TIM_MSEC_DELAY);
 205              		.loc 1 132 1
 206              		.cfi_startproc
 207              	.LVL12:
 133:lib/usbcdc/src/gd32vf103_hw.c **** }
 208              		.loc 1 133 5
 209              	.LBB8:
 210              	.LBB9:
 145:lib/usbcdc/src/gd32vf103_hw.c ****         usb_delay_1us(ntime);
 211              		.loc 1 145 5
 147:lib/usbcdc/src/gd32vf103_hw.c ****         return;
 148:lib/usbcdc/src/gd32vf103_hw.c ****     }
 149:lib/usbcdc/src/gd32vf103_hw.c ****     if(unit == TIM_MSEC_DELAY){
 212              		.loc 1 149 5
 150:lib/usbcdc/src/gd32vf103_hw.c ****             usb_delay_1ms(ntime);
 213              		.loc 1 150 13
 214 0000 17030000 		tail	usb_delay_1ms
 214      67000300 
 215              	.LVL13:
 216              	.LBE9:
 217              	.LBE8:
 218              		.cfi_endproc
 219              	.LFE10:
 221              		.globl	usbfs_prescaler
 222              		.comm	timer_prescaler,4,4
 223              		.globl	delay_time
 224              		.section	.sbss.delay_time,"aw",@nobits
GAS LISTING C:\Users\Jesper\AppData\Local\Temp\ccA1vMmE.s 			page 8


 225              		.align	2
 228              	delay_time:
 229 0000 00000000 		.zero	4
 230              		.section	.sbss.usbfs_prescaler,"aw",@nobits
 231              		.align	2
 232              		.set	.LANCHOR0,. + 0
 235              	usbfs_prescaler:
 236 0000 00000000 		.zero	4
 237              		.text
 238              	.Letext0:
 239              		.file 2 "c:\\users\\jesper\\documents\\ml_sommarjobb\\toolchain-gd32v-v201-win\\toolchain-gd32v-v2
 240              		.file 3 "c:\\users\\jesper\\documents\\ml_sommarjobb\\toolchain-gd32v-v201-win\\toolchain-gd32v-v2
 241              		.file 4 "./../../firmware/GD32VF103_standard_peripheral/Include/gd32vf103_exti.h"
 242              		.file 5 "./../../firmware/GD32VF103_standard_peripheral/Include/gd32vf103_rcu.h"
 243              		.file 6 "c:\\users\\jesper\\documents\\ml_sommarjobb\\toolchain-gd32v-v201-win\\toolchain-gd32v-v2
 244              		.file 7 "c:\\users\\jesper\\documents\\ml_sommarjobb\\toolchain-gd32v-v201-win\\toolchain-gd32v-v2
 245              		.file 8 "c:\\users\\jesper\\documents\\ml_sommarjobb\\toolchain-gd32v-v201-win\\toolchain-gd32v-v2
 246              		.file 9 "c:\\users\\jesper\\documents\\ml_sommarjobb\\toolchain-gd32v-v201-win\\toolchain-gd32v-v2
 247              		.file 10 "./../../firmware/GD32VF103_standard_peripheral/system_gd32vf103.h"
 248              		.file 11 "c:\\users\\jesper\\documents\\ml_sommarjobb\\toolchain-gd32v-v201-win\\toolchain-gd32v-v
 249              		.file 12 "lib/usbcdc/include/usb_delay.h"
 250              		.file 13 "./../../firmware/GD32VF103_standard_peripheral/Include/gd32vf103_eclic.h"
 251              		.file 14 "./../../firmware/GD32VF103_standard_peripheral/gd32vf103.h"
GAS LISTING C:\Users\Jesper\AppData\Local\Temp\ccA1vMmE.s 			page 9


DEFINED SYMBOLS
                            *ABS*:0000000000000000 gd32vf103_hw.c
C:\Users\Jesper\AppData\Local\Temp\ccA1vMmE.s:13     .text.usb_rcu_config:0000000000000000 usb_rcu_config
C:\Users\Jesper\AppData\Local\Temp\ccA1vMmE.s:17     .text.usb_rcu_config:0000000000000000 .L0 
C:\Users\Jesper\AppData\Local\Temp\ccA1vMmE.s:18     .text.usb_rcu_config:0000000000000000 .L0 
C:\Users\Jesper\AppData\Local\Temp\ccA1vMmE.s:19     .text.usb_rcu_config:0000000000000000 .L0 
C:\Users\Jesper\AppData\Local\Temp\ccA1vMmE.s:20     .text.usb_rcu_config:0000000000000000 .L0 
C:\Users\Jesper\AppData\Local\Temp\ccA1vMmE.s:22     .text.usb_rcu_config:0000000000000002 .L0 
C:\Users\Jesper\AppData\Local\Temp\ccA1vMmE.s:24     .text.usb_rcu_config:0000000000000002 .L0 
C:\Users\Jesper\AppData\Local\Temp\ccA1vMmE.s:26     .text.usb_rcu_config:0000000000000004 .L0 
C:\Users\Jesper\AppData\Local\Temp\ccA1vMmE.s:27     .text.usb_rcu_config:0000000000000006 .L0 
C:\Users\Jesper\AppData\Local\Temp\ccA1vMmE.s:29     .text.usb_rcu_config:0000000000000006 .L0 
C:\Users\Jesper\AppData\Local\Temp\ccA1vMmE.s:32     .text.usb_rcu_config:000000000000000e .L0 
C:\Users\Jesper\AppData\Local\Temp\ccA1vMmE.s:33     .text.usb_rcu_config:000000000000000e .L0 
C:\Users\Jesper\AppData\Local\Temp\ccA1vMmE.s:39     .text.usb_rcu_config:0000000000000022 .L0 
C:\Users\Jesper\AppData\Local\Temp\ccA1vMmE.s:40     .text.usb_rcu_config:0000000000000022 .L0 
C:\Users\Jesper\AppData\Local\Temp\ccA1vMmE.s:43     .text.usb_rcu_config:0000000000000028 .L0 
C:\Users\Jesper\AppData\Local\Temp\ccA1vMmE.s:44     .text.usb_rcu_config:0000000000000028 .L0 
                            *COM*:0000000000000004 timer_prescaler
C:\Users\Jesper\AppData\Local\Temp\ccA1vMmE.s:48     .text.usb_rcu_config:000000000000002e .L0 
C:\Users\Jesper\AppData\Local\Temp\ccA1vMmE.s:51     .text.usb_rcu_config:0000000000000032 .L0 
C:\Users\Jesper\AppData\Local\Temp\ccA1vMmE.s:52     .text.usb_rcu_config:0000000000000032 .L0 
C:\Users\Jesper\AppData\Local\Temp\ccA1vMmE.s:57     .text.usb_rcu_config:000000000000003c .L0 
C:\Users\Jesper\AppData\Local\Temp\ccA1vMmE.s:58     .text.usb_rcu_config:000000000000003c .L0 
C:\Users\Jesper\AppData\Local\Temp\ccA1vMmE.s:59     .text.usb_rcu_config:000000000000003e .L0 
C:\Users\Jesper\AppData\Local\Temp\ccA1vMmE.s:60     .text.usb_rcu_config:000000000000003e .L0 
C:\Users\Jesper\AppData\Local\Temp\ccA1vMmE.s:62     .text.usb_rcu_config:000000000000003e .L0 
C:\Users\Jesper\AppData\Local\Temp\ccA1vMmE.s:64     .text.usb_rcu_config:0000000000000042 .L0 
C:\Users\Jesper\AppData\Local\Temp\ccA1vMmE.s:66     .text.usb_rcu_config:0000000000000044 .L0 
C:\Users\Jesper\AppData\Local\Temp\ccA1vMmE.s:68     .text.usb_rcu_config:0000000000000044 .L0 
C:\Users\Jesper\AppData\Local\Temp\ccA1vMmE.s:72     .text.usb_rcu_config:000000000000004c .L0 
C:\Users\Jesper\AppData\Local\Temp\ccA1vMmE.s:74     .text.usb_rcu_config:000000000000004c .L0 
C:\Users\Jesper\AppData\Local\Temp\ccA1vMmE.s:75     .text.usb_rcu_config:000000000000004c .L0 
C:\Users\Jesper\AppData\Local\Temp\ccA1vMmE.s:79     .text.usb_rcu_config:0000000000000058 .L0 
C:\Users\Jesper\AppData\Local\Temp\ccA1vMmE.s:80     .text.usb_rcu_config:0000000000000058 .L0 
C:\Users\Jesper\AppData\Local\Temp\ccA1vMmE.s:82     .text.usb_rcu_config:000000000000005c .L0 
C:\Users\Jesper\AppData\Local\Temp\ccA1vMmE.s:83     .text.usb_rcu_config:000000000000005c .L0 
C:\Users\Jesper\AppData\Local\Temp\ccA1vMmE.s:88     .text.usb_rcu_config:0000000000000064 .L0 
C:\Users\Jesper\AppData\Local\Temp\ccA1vMmE.s:89     .text.usb_rcu_config:0000000000000064 .L0 
C:\Users\Jesper\AppData\Local\Temp\ccA1vMmE.s:93     .text.usb_rcu_config:0000000000000070 .L0 
C:\Users\Jesper\AppData\Local\Temp\ccA1vMmE.s:94     .text.usb_rcu_config:0000000000000070 .L0 
C:\Users\Jesper\AppData\Local\Temp\ccA1vMmE.s:97     .text.usb_rcu_config:0000000000000076 .L0 
C:\Users\Jesper\AppData\Local\Temp\ccA1vMmE.s:98     .text.usb_rcu_config:0000000000000076 .L0 
C:\Users\Jesper\AppData\Local\Temp\ccA1vMmE.s:101    .text.usb_rcu_config:000000000000007e .L0 
C:\Users\Jesper\AppData\Local\Temp\ccA1vMmE.s:108    .text.usb_intr_config:0000000000000000 usb_intr_config
C:\Users\Jesper\AppData\Local\Temp\ccA1vMmE.s:111    .text.usb_intr_config:0000000000000000 .L0 
C:\Users\Jesper\AppData\Local\Temp\ccA1vMmE.s:112    .text.usb_intr_config:0000000000000000 .L0 
C:\Users\Jesper\AppData\Local\Temp\ccA1vMmE.s:113    .text.usb_intr_config:0000000000000000 .L0 
C:\Users\Jesper\AppData\Local\Temp\ccA1vMmE.s:114    .text.usb_intr_config:0000000000000000 .L0 
C:\Users\Jesper\AppData\Local\Temp\ccA1vMmE.s:116    .text.usb_intr_config:0000000000000002 .L0 
C:\Users\Jesper\AppData\Local\Temp\ccA1vMmE.s:118    .text.usb_intr_config:0000000000000002 .L0 
C:\Users\Jesper\AppData\Local\Temp\ccA1vMmE.s:122    .text.usb_intr_config:000000000000000a .L0 
C:\Users\Jesper\AppData\Local\Temp\ccA1vMmE.s:123    .text.usb_intr_config:000000000000000c .L0 
C:\Users\Jesper\AppData\Local\Temp\ccA1vMmE.s:125    .text.usb_intr_config:000000000000000c .L0 
C:\Users\Jesper\AppData\Local\Temp\ccA1vMmE.s:128    .text.usb_intr_config:0000000000000014 .L0 
C:\Users\Jesper\AppData\Local\Temp\ccA1vMmE.s:132    .text.usb_intr_config:0000000000000020 .L0 
C:\Users\Jesper\AppData\Local\Temp\ccA1vMmE.s:136    .text.usb_intr_config:000000000000002c .L0 
GAS LISTING C:\Users\Jesper\AppData\Local\Temp\ccA1vMmE.s 			page 10


C:\Users\Jesper\AppData\Local\Temp\ccA1vMmE.s:142    .text.usb_intr_config:000000000000003c .L0 
C:\Users\Jesper\AppData\Local\Temp\ccA1vMmE.s:146    .text.usb_intr_config:0000000000000048 .L0 
C:\Users\Jesper\AppData\Local\Temp\ccA1vMmE.s:147    .text.usb_intr_config:0000000000000048 .L0 
C:\Users\Jesper\AppData\Local\Temp\ccA1vMmE.s:148    .text.usb_intr_config:000000000000004a .L0 
C:\Users\Jesper\AppData\Local\Temp\ccA1vMmE.s:150    .text.usb_intr_config:000000000000004a .L0 
C:\Users\Jesper\AppData\Local\Temp\ccA1vMmE.s:152    .text.usb_intr_config:000000000000004c .L0 
C:\Users\Jesper\AppData\Local\Temp\ccA1vMmE.s:153    .text.usb_intr_config:000000000000004c .L0 
C:\Users\Jesper\AppData\Local\Temp\ccA1vMmE.s:156    .text.usb_intr_config:0000000000000052 .L0 
C:\Users\Jesper\AppData\Local\Temp\ccA1vMmE.s:158    .text.usb_intr_config:0000000000000054 .L0 
C:\Users\Jesper\AppData\Local\Temp\ccA1vMmE.s:160    .text.usb_intr_config:0000000000000054 .L0 
C:\Users\Jesper\AppData\Local\Temp\ccA1vMmE.s:162    .text.usb_intr_config:000000000000005c .L0 
C:\Users\Jesper\AppData\Local\Temp\ccA1vMmE.s:169    .text.usb_timer_init:0000000000000000 usb_timer_init
C:\Users\Jesper\AppData\Local\Temp\ccA1vMmE.s:172    .text.usb_timer_init:0000000000000000 .L0 
C:\Users\Jesper\AppData\Local\Temp\ccA1vMmE.s:173    .text.usb_timer_init:0000000000000000 .L0 
C:\Users\Jesper\AppData\Local\Temp\ccA1vMmE.s:174    .text.usb_timer_init:0000000000000000 .L0 
C:\Users\Jesper\AppData\Local\Temp\ccA1vMmE.s:175    .text.usb_timer_init:0000000000000002 .L0 
C:\Users\Jesper\AppData\Local\Temp\ccA1vMmE.s:182    .text.usb_udelay:0000000000000000 usb_udelay
C:\Users\Jesper\AppData\Local\Temp\ccA1vMmE.s:185    .text.usb_udelay:0000000000000000 .L0 
C:\Users\Jesper\AppData\Local\Temp\ccA1vMmE.s:187    .text.usb_udelay:0000000000000000 .L0 
C:\Users\Jesper\AppData\Local\Temp\ccA1vMmE.s:190    .text.usb_udelay:0000000000000000 .L0 
C:\Users\Jesper\AppData\Local\Temp\ccA1vMmE.s:191    .text.usb_udelay:0000000000000000 .L0 
C:\Users\Jesper\AppData\Local\Temp\ccA1vMmE.s:192    .text.usb_udelay:0000000000000000 .L0 
C:\Users\Jesper\AppData\Local\Temp\ccA1vMmE.s:196    .text.usb_udelay:0000000000000008 .L0 
C:\Users\Jesper\AppData\Local\Temp\ccA1vMmE.s:203    .text.usb_mdelay:0000000000000000 usb_mdelay
C:\Users\Jesper\AppData\Local\Temp\ccA1vMmE.s:206    .text.usb_mdelay:0000000000000000 .L0 
C:\Users\Jesper\AppData\Local\Temp\ccA1vMmE.s:208    .text.usb_mdelay:0000000000000000 .L0 
C:\Users\Jesper\AppData\Local\Temp\ccA1vMmE.s:211    .text.usb_mdelay:0000000000000000 .L0 
C:\Users\Jesper\AppData\Local\Temp\ccA1vMmE.s:212    .text.usb_mdelay:0000000000000000 .L0 
C:\Users\Jesper\AppData\Local\Temp\ccA1vMmE.s:213    .text.usb_mdelay:0000000000000000 .L0 
C:\Users\Jesper\AppData\Local\Temp\ccA1vMmE.s:214    .text.usb_mdelay:0000000000000000 .L0 
C:\Users\Jesper\AppData\Local\Temp\ccA1vMmE.s:218    .text.usb_mdelay:0000000000000008 .L0 
C:\Users\Jesper\AppData\Local\Temp\ccA1vMmE.s:235    .sbss.usbfs_prescaler:0000000000000000 usbfs_prescaler
C:\Users\Jesper\AppData\Local\Temp\ccA1vMmE.s:228    .sbss.delay_time:0000000000000000 delay_time
C:\Users\Jesper\AppData\Local\Temp\ccA1vMmE.s:232    .sbss.usbfs_prescaler:0000000000000000 .LANCHOR0
C:\Users\Jesper\AppData\Local\Temp\ccA1vMmE.s:104    .text.usb_rcu_config:000000000000007e .L0 
C:\Users\Jesper\AppData\Local\Temp\ccA1vMmE.s:165    .text.usb_intr_config:000000000000005c .L0 
C:\Users\Jesper\AppData\Local\Temp\ccA1vMmE.s:178    .text.usb_timer_init:0000000000000002 .L0 
C:\Users\Jesper\AppData\Local\Temp\ccA1vMmE.s:199    .text.usb_udelay:0000000000000008 .L0 
C:\Users\Jesper\AppData\Local\Temp\ccA1vMmE.s:224    .text.usb_mdelay:0000000000000008 .L0 
                     .debug_frame:0000000000000000 .L0 
C:\Users\Jesper\AppData\Local\Temp\ccA1vMmE.s:70     .text.usb_rcu_config:000000000000004c .L2
C:\Users\Jesper\AppData\Local\Temp\ccA1vMmE.s:86     .text.usb_rcu_config:0000000000000064 .L4
C:\Users\Jesper\AppData\Local\Temp\ccA1vMmE.s:46     .text.usb_rcu_config:000000000000002e .L6
C:\Users\Jesper\AppData\Local\Temp\ccA1vMmE.s:49     .text.usb_rcu_config:0000000000000032 .L3
C:\Users\Jesper\AppData\Local\Temp\ccA1vMmE.s:2524   .debug_abbrev:0000000000000000 .Ldebug_abbrev0
C:\Users\Jesper\AppData\Local\Temp\ccA1vMmE.s:3513   .debug_str:0000000000000145 .LASF278
C:\Users\Jesper\AppData\Local\Temp\ccA1vMmE.s:3597   .debug_str:00000000000003a0 .LASF279
C:\Users\Jesper\AppData\Local\Temp\ccA1vMmE.s:3749   .debug_str:0000000000000715 .LASF280
C:\Users\Jesper\AppData\Local\Temp\ccA1vMmE.s:3433   .debug_ranges:0000000000000000 .Ldebug_ranges0
C:\Users\Jesper\AppData\Local\Temp\ccA1vMmE.s:3447   .debug_line:0000000000000000 .Ldebug_line0
C:\Users\Jesper\AppData\Local\Temp\ccA1vMmE.s:3567   .debug_str:00000000000002ff .LASF281
C:\Users\Jesper\AppData\Local\Temp\ccA1vMmE.s:3779   .debug_str:0000000000000825 .LASF0
C:\Users\Jesper\AppData\Local\Temp\ccA1vMmE.s:4015   .debug_str:0000000000000cff .LASF1
C:\Users\Jesper\AppData\Local\Temp\ccA1vMmE.s:3687   .debug_str:00000000000005a8 .LASF2
C:\Users\Jesper\AppData\Local\Temp\ccA1vMmE.s:3579   .debug_str:0000000000000340 .LASF3
C:\Users\Jesper\AppData\Local\Temp\ccA1vMmE.s:3831   .debug_str:0000000000000932 .LASF4
C:\Users\Jesper\AppData\Local\Temp\ccA1vMmE.s:3907   .debug_str:0000000000000abe .LASF5
GAS LISTING C:\Users\Jesper\AppData\Local\Temp\ccA1vMmE.s 			page 11


C:\Users\Jesper\AppData\Local\Temp\ccA1vMmE.s:3947   .debug_str:0000000000000bab .LASF6
C:\Users\Jesper\AppData\Local\Temp\ccA1vMmE.s:3563   .debug_str:00000000000002e6 .LASF7
C:\Users\Jesper\AppData\Local\Temp\ccA1vMmE.s:4017   .debug_str:0000000000000d0c .LASF8
C:\Users\Jesper\AppData\Local\Temp\ccA1vMmE.s:3855   .debug_str:00000000000009a8 .LASF9
C:\Users\Jesper\AppData\Local\Temp\ccA1vMmE.s:3909   .debug_str:0000000000000ac9 .LASF10
C:\Users\Jesper\AppData\Local\Temp\ccA1vMmE.s:3905   .debug_str:0000000000000ab3 .LASF11
C:\Users\Jesper\AppData\Local\Temp\ccA1vMmE.s:3679   .debug_str:0000000000000579 .LASF12
C:\Users\Jesper\AppData\Local\Temp\ccA1vMmE.s:3449   .debug_str:0000000000000000 .LASF13
C:\Users\Jesper\AppData\Local\Temp\ccA1vMmE.s:4001   .debug_str:0000000000000ca2 .LASF14
C:\Users\Jesper\AppData\Local\Temp\ccA1vMmE.s:3777   .debug_str:000000000000081a .LASF15
C:\Users\Jesper\AppData\Local\Temp\ccA1vMmE.s:3535   .debug_str:0000000000000249 .LASF16
C:\Users\Jesper\AppData\Local\Temp\ccA1vMmE.s:3503   .debug_str:000000000000010b .LASF17
C:\Users\Jesper\AppData\Local\Temp\ccA1vMmE.s:3851   .debug_str:0000000000000987 .LASF18
C:\Users\Jesper\AppData\Local\Temp\ccA1vMmE.s:3641   .debug_str:00000000000004be .LASF19
C:\Users\Jesper\AppData\Local\Temp\ccA1vMmE.s:3603   .debug_str:00000000000003dc .LASF20
C:\Users\Jesper\AppData\Local\Temp\ccA1vMmE.s:3929   .debug_str:0000000000000b44 .LASF21
C:\Users\Jesper\AppData\Local\Temp\ccA1vMmE.s:3709   .debug_str:000000000000062d .LASF22
C:\Users\Jesper\AppData\Local\Temp\ccA1vMmE.s:3625   .debug_str:0000000000000472 .LASF23
C:\Users\Jesper\AppData\Local\Temp\ccA1vMmE.s:3565   .debug_str:00000000000002f2 .LASF24
C:\Users\Jesper\AppData\Local\Temp\ccA1vMmE.s:3715   .debug_str:0000000000000652 .LASF25
C:\Users\Jesper\AppData\Local\Temp\ccA1vMmE.s:3515   .debug_str:00000000000001cd .LASF26
C:\Users\Jesper\AppData\Local\Temp\ccA1vMmE.s:3917   .debug_str:0000000000000b00 .LASF27
C:\Users\Jesper\AppData\Local\Temp\ccA1vMmE.s:3561   .debug_str:00000000000002d9 .LASF28
C:\Users\Jesper\AppData\Local\Temp\ccA1vMmE.s:3459   .debug_str:000000000000002c .LASF29
C:\Users\Jesper\AppData\Local\Temp\ccA1vMmE.s:3919   .debug_str:0000000000000b0f .LASF30
C:\Users\Jesper\AppData\Local\Temp\ccA1vMmE.s:3937   .debug_str:0000000000000b78 .LASF31
C:\Users\Jesper\AppData\Local\Temp\ccA1vMmE.s:3721   .debug_str:0000000000000673 .LASF32
C:\Users\Jesper\AppData\Local\Temp\ccA1vMmE.s:3727   .debug_str:000000000000069f .LASF33
C:\Users\Jesper\AppData\Local\Temp\ccA1vMmE.s:3519   .debug_str:00000000000001e1 .LASF34
C:\Users\Jesper\AppData\Local\Temp\ccA1vMmE.s:3871   .debug_str:0000000000000a13 .LASF35
C:\Users\Jesper\AppData\Local\Temp\ccA1vMmE.s:3539   .debug_str:0000000000000266 .LASF36
C:\Users\Jesper\AppData\Local\Temp\ccA1vMmE.s:3461   .debug_str:000000000000003c .LASF37
C:\Users\Jesper\AppData\Local\Temp\ccA1vMmE.s:3651   .debug_str:0000000000000505 .LASF38
C:\Users\Jesper\AppData\Local\Temp\ccA1vMmE.s:3607   .debug_str:0000000000000408 .LASF39
C:\Users\Jesper\AppData\Local\Temp\ccA1vMmE.s:3949   .debug_str:0000000000000bb4 .LASF40
C:\Users\Jesper\AppData\Local\Temp\ccA1vMmE.s:3547   .debug_str:0000000000000297 .LASF41
C:\Users\Jesper\AppData\Local\Temp\ccA1vMmE.s:3817   .debug_str:00000000000008db .LASF42
C:\Users\Jesper\AppData\Local\Temp\ccA1vMmE.s:3867   .debug_str:00000000000009fe .LASF43
C:\Users\Jesper\AppData\Local\Temp\ccA1vMmE.s:3647   .debug_str:00000000000004e7 .LASF44
C:\Users\Jesper\AppData\Local\Temp\ccA1vMmE.s:3645   .debug_str:00000000000004d8 .LASF45
C:\Users\Jesper\AppData\Local\Temp\ccA1vMmE.s:3893   .debug_str:0000000000000a7a .LASF46
C:\Users\Jesper\AppData\Local\Temp\ccA1vMmE.s:3753   .debug_str:000000000000078a .LASF47
C:\Users\Jesper\AppData\Local\Temp\ccA1vMmE.s:3477   .debug_str:0000000000000087 .LASF48
C:\Users\Jesper\AppData\Local\Temp\ccA1vMmE.s:3839   .debug_str:0000000000000954 .LASF49
C:\Users\Jesper\AppData\Local\Temp\ccA1vMmE.s:3537   .debug_str:000000000000025c .LASF50
C:\Users\Jesper\AppData\Local\Temp\ccA1vMmE.s:3991   .debug_str:0000000000000c6d .LASF51
C:\Users\Jesper\AppData\Local\Temp\ccA1vMmE.s:3773   .debug_str:0000000000000804 .LASF52
C:\Users\Jesper\AppData\Local\Temp\ccA1vMmE.s:3635   .debug_str:0000000000000495 .LASF53
C:\Users\Jesper\AppData\Local\Temp\ccA1vMmE.s:3951   .debug_str:0000000000000bbe .LASF54
C:\Users\Jesper\AppData\Local\Temp\ccA1vMmE.s:3821   .debug_str:00000000000008f6 .LASF55
C:\Users\Jesper\AppData\Local\Temp\ccA1vMmE.s:3615   .debug_str:000000000000043e .LASF56
C:\Users\Jesper\AppData\Local\Temp\ccA1vMmE.s:3935   .debug_str:0000000000000b65 .LASF57
C:\Users\Jesper\AppData\Local\Temp\ccA1vMmE.s:3911   .debug_str:0000000000000ad6 .LASF58
C:\Users\Jesper\AppData\Local\Temp\ccA1vMmE.s:3689   .debug_str:00000000000005b5 .LASF59
C:\Users\Jesper\AppData\Local\Temp\ccA1vMmE.s:3681   .debug_str:0000000000000584 .LASF60
C:\Users\Jesper\AppData\Local\Temp\ccA1vMmE.s:3639   .debug_str:00000000000004b0 .LASF61
C:\Users\Jesper\AppData\Local\Temp\ccA1vMmE.s:3965   .debug_str:0000000000000bfd .LASF62
GAS LISTING C:\Users\Jesper\AppData\Local\Temp\ccA1vMmE.s 			page 12


C:\Users\Jesper\AppData\Local\Temp\ccA1vMmE.s:3529   .debug_str:000000000000022a .LASF63
C:\Users\Jesper\AppData\Local\Temp\ccA1vMmE.s:4019   .debug_str:0000000000000d15 .LASF64
C:\Users\Jesper\AppData\Local\Temp\ccA1vMmE.s:3761   .debug_str:00000000000007bd .LASF65
C:\Users\Jesper\AppData\Local\Temp\ccA1vMmE.s:3787   .debug_str:000000000000084f .LASF66
C:\Users\Jesper\AppData\Local\Temp\ccA1vMmE.s:3591   .debug_str:0000000000000384 .LASF67
C:\Users\Jesper\AppData\Local\Temp\ccA1vMmE.s:3533   .debug_str:000000000000023f .LASF72
C:\Users\Jesper\AppData\Local\Temp\ccA1vMmE.s:3601   .debug_str:00000000000003ce .LASF68
C:\Users\Jesper\AppData\Local\Temp\ccA1vMmE.s:3915   .debug_str:0000000000000af6 .LASF69
C:\Users\Jesper\AppData\Local\Temp\ccA1vMmE.s:3995   .debug_str:0000000000000c7d .LASF70
C:\Users\Jesper\AppData\Local\Temp\ccA1vMmE.s:3551   .debug_str:00000000000002af .LASF71
C:\Users\Jesper\AppData\Local\Temp\ccA1vMmE.s:3725   .debug_str:0000000000000694 .LASF73
C:\Users\Jesper\AppData\Local\Temp\ccA1vMmE.s:3685   .debug_str:0000000000000596 .LASF74
C:\Users\Jesper\AppData\Local\Temp\ccA1vMmE.s:3735   .debug_str:00000000000006ce .LASF75
C:\Users\Jesper\AppData\Local\Temp\ccA1vMmE.s:3859   .debug_str:00000000000009cb .LASF76
C:\Users\Jesper\AppData\Local\Temp\ccA1vMmE.s:3593   .debug_str:0000000000000390 .LASF77
C:\Users\Jesper\AppData\Local\Temp\ccA1vMmE.s:3957   .debug_str:0000000000000bda .LASF78
C:\Users\Jesper\AppData\Local\Temp\ccA1vMmE.s:3695   .debug_str:00000000000005db .LASF254
C:\Users\Jesper\AppData\Local\Temp\ccA1vMmE.s:3969   .debug_str:0000000000000c20 .LASF79
C:\Users\Jesper\AppData\Local\Temp\ccA1vMmE.s:3971   .debug_str:0000000000000c27 .LASF80
C:\Users\Jesper\AppData\Local\Temp\ccA1vMmE.s:3973   .debug_str:0000000000000c2e .LASF81
C:\Users\Jesper\AppData\Local\Temp\ccA1vMmE.s:3975   .debug_str:0000000000000c35 .LASF82
C:\Users\Jesper\AppData\Local\Temp\ccA1vMmE.s:3977   .debug_str:0000000000000c3c .LASF83
C:\Users\Jesper\AppData\Local\Temp\ccA1vMmE.s:3979   .debug_str:0000000000000c43 .LASF84
C:\Users\Jesper\AppData\Local\Temp\ccA1vMmE.s:3981   .debug_str:0000000000000c4a .LASF85
C:\Users\Jesper\AppData\Local\Temp\ccA1vMmE.s:3983   .debug_str:0000000000000c51 .LASF86
C:\Users\Jesper\AppData\Local\Temp\ccA1vMmE.s:3985   .debug_str:0000000000000c58 .LASF87
C:\Users\Jesper\AppData\Local\Temp\ccA1vMmE.s:3987   .debug_str:0000000000000c5f .LASF88
C:\Users\Jesper\AppData\Local\Temp\ccA1vMmE.s:3659   .debug_str:0000000000000529 .LASF89
C:\Users\Jesper\AppData\Local\Temp\ccA1vMmE.s:3661   .debug_str:0000000000000531 .LASF90
C:\Users\Jesper\AppData\Local\Temp\ccA1vMmE.s:3663   .debug_str:0000000000000539 .LASF91
C:\Users\Jesper\AppData\Local\Temp\ccA1vMmE.s:3665   .debug_str:0000000000000541 .LASF92
C:\Users\Jesper\AppData\Local\Temp\ccA1vMmE.s:3667   .debug_str:0000000000000549 .LASF93
C:\Users\Jesper\AppData\Local\Temp\ccA1vMmE.s:3669   .debug_str:0000000000000551 .LASF94
C:\Users\Jesper\AppData\Local\Temp\ccA1vMmE.s:3671   .debug_str:0000000000000559 .LASF95
C:\Users\Jesper\AppData\Local\Temp\ccA1vMmE.s:3673   .debug_str:0000000000000561 .LASF96
C:\Users\Jesper\AppData\Local\Temp\ccA1vMmE.s:3675   .debug_str:0000000000000569 .LASF97
C:\Users\Jesper\AppData\Local\Temp\ccA1vMmE.s:3903   .debug_str:0000000000000aa4 .LASF98
C:\Users\Jesper\AppData\Local\Temp\ccA1vMmE.s:3521   .debug_str:00000000000001ed .LASF99
C:\Users\Jesper\AppData\Local\Temp\ccA1vMmE.s:3733   .debug_str:00000000000006bd .LASF100
C:\Users\Jesper\AppData\Local\Temp\ccA1vMmE.s:3649   .debug_str:00000000000004f3 .LASF101
C:\Users\Jesper\AppData\Local\Temp\ccA1vMmE.s:3613   .debug_str:000000000000042f .LASF102
C:\Users\Jesper\AppData\Local\Temp\ccA1vMmE.s:3527   .debug_str:000000000000021b .LASF103
C:\Users\Jesper\AppData\Local\Temp\ccA1vMmE.s:3887   .debug_str:0000000000000a61 .LASF104
C:\Users\Jesper\AppData\Local\Temp\ccA1vMmE.s:3889   .debug_str:0000000000000a6a .LASF105
C:\Users\Jesper\AppData\Local\Temp\ccA1vMmE.s:3781   .debug_str:0000000000000837 .LASF106
C:\Users\Jesper\AppData\Local\Temp\ccA1vMmE.s:3943   .debug_str:0000000000000b9b .LASF107
C:\Users\Jesper\AppData\Local\Temp\ccA1vMmE.s:3713   .debug_str:0000000000000648 .LASF108
C:\Users\Jesper\AppData\Local\Temp\ccA1vMmE.s:3491   .debug_str:00000000000000c9 .LASF109
C:\Users\Jesper\AppData\Local\Temp\ccA1vMmE.s:3493   .debug_str:00000000000000d4 .LASF110
C:\Users\Jesper\AppData\Local\Temp\ccA1vMmE.s:3495   .debug_str:00000000000000df .LASF111
C:\Users\Jesper\AppData\Local\Temp\ccA1vMmE.s:3497   .debug_str:00000000000000ea .LASF112
C:\Users\Jesper\AppData\Local\Temp\ccA1vMmE.s:3499   .debug_str:00000000000000f5 .LASF113
C:\Users\Jesper\AppData\Local\Temp\ccA1vMmE.s:3501   .debug_str:0000000000000100 .LASF114
C:\Users\Jesper\AppData\Local\Temp\ccA1vMmE.s:3809   .debug_str:00000000000008b9 .LASF115
C:\Users\Jesper\AppData\Local\Temp\ccA1vMmE.s:3585   .debug_str:0000000000000365 .LASF116
C:\Users\Jesper\AppData\Local\Temp\ccA1vMmE.s:3587   .debug_str:000000000000036e .LASF117
C:\Users\Jesper\AppData\Local\Temp\ccA1vMmE.s:3507   .debug_str:0000000000000129 .LASF118
GAS LISTING C:\Users\Jesper\AppData\Local\Temp\ccA1vMmE.s 			page 13


C:\Users\Jesper\AppData\Local\Temp\ccA1vMmE.s:3509   .debug_str:0000000000000134 .LASF119
C:\Users\Jesper\AppData\Local\Temp\ccA1vMmE.s:3473   .debug_str:0000000000000073 .LASF120
C:\Users\Jesper\AppData\Local\Temp\ccA1vMmE.s:3475   .debug_str:000000000000007d .LASF121
C:\Users\Jesper\AppData\Local\Temp\ccA1vMmE.s:3959   .debug_str:0000000000000be3 .LASF122
C:\Users\Jesper\AppData\Local\Temp\ccA1vMmE.s:3961   .debug_str:0000000000000bec .LASF123
C:\Users\Jesper\AppData\Local\Temp\ccA1vMmE.s:3617   .debug_str:0000000000000451 .LASF124
C:\Users\Jesper\AppData\Local\Temp\ccA1vMmE.s:3619   .debug_str:000000000000045a .LASF125
C:\Users\Jesper\AppData\Local\Temp\ccA1vMmE.s:3927   .debug_str:0000000000000b3b .LASF126
C:\Users\Jesper\AppData\Local\Temp\ccA1vMmE.s:3465   .debug_str:000000000000004f .LASF127
C:\Users\Jesper\AppData\Local\Temp\ccA1vMmE.s:3595   .debug_str:0000000000000398 .LASF128
C:\Users\Jesper\AppData\Local\Temp\ccA1vMmE.s:3833   .debug_str:0000000000000941 .LASF129
C:\Users\Jesper\AppData\Local\Temp\ccA1vMmE.s:3697   .debug_str:00000000000005eb .LASF130
C:\Users\Jesper\AppData\Local\Temp\ccA1vMmE.s:3737   .debug_str:00000000000006dc .LASF131
C:\Users\Jesper\AppData\Local\Temp\ccA1vMmE.s:3739   .debug_str:00000000000006e6 .LASF132
C:\Users\Jesper\AppData\Local\Temp\ccA1vMmE.s:3741   .debug_str:00000000000006f0 .LASF133
C:\Users\Jesper\AppData\Local\Temp\ccA1vMmE.s:3743   .debug_str:00000000000006fa .LASF134
C:\Users\Jesper\AppData\Local\Temp\ccA1vMmE.s:3745   .debug_str:0000000000000704 .LASF135
C:\Users\Jesper\AppData\Local\Temp\ccA1vMmE.s:3729   .debug_str:00000000000006ab .LASF136
C:\Users\Jesper\AppData\Local\Temp\ccA1vMmE.s:3731   .debug_str:00000000000006b4 .LASF137
C:\Users\Jesper\AppData\Local\Temp\ccA1vMmE.s:3489   .debug_str:00000000000000be .LASF138
C:\Users\Jesper\AppData\Local\Temp\ccA1vMmE.s:3583   .debug_str:000000000000035c .LASF139
C:\Users\Jesper\AppData\Local\Temp\ccA1vMmE.s:3505   .debug_str:000000000000011e .LASF140
C:\Users\Jesper\AppData\Local\Temp\ccA1vMmE.s:3901   .debug_str:0000000000000a9d .LASF141
C:\Users\Jesper\AppData\Local\Temp\ccA1vMmE.s:3785   .debug_str:0000000000000848 .LASF142
C:\Users\Jesper\AppData\Local\Temp\ccA1vMmE.s:3899   .debug_str:0000000000000a95 .LASF143
C:\Users\Jesper\AppData\Local\Temp\ccA1vMmE.s:3575   .debug_str:000000000000032d .LASF144
C:\Users\Jesper\AppData\Local\Temp\ccA1vMmE.s:3825   .debug_str:0000000000000913 .LASF145
C:\Users\Jesper\AppData\Local\Temp\ccA1vMmE.s:3891   .debug_str:0000000000000a73 .LASF146
C:\Users\Jesper\AppData\Local\Temp\ccA1vMmE.s:3989   .debug_str:0000000000000c66 .LASF147
C:\Users\Jesper\AppData\Local\Temp\ccA1vMmE.s:3845   .debug_str:000000000000096e .LASF148
C:\Users\Jesper\AppData\Local\Temp\ccA1vMmE.s:3451   .debug_str:000000000000000b .LASF149
C:\Users\Jesper\AppData\Local\Temp\ccA1vMmE.s:3531   .debug_str:0000000000000239 .LASF150
C:\Users\Jesper\AppData\Local\Temp\ccA1vMmE.s:3847   .debug_str:0000000000000976 .LASF151
C:\Users\Jesper\AppData\Local\Temp\ccA1vMmE.s:3813   .debug_str:00000000000008ce .LASF152
C:\Users\Jesper\AppData\Local\Temp\ccA1vMmE.s:3455   .debug_str:000000000000001f .LASF153
C:\Users\Jesper\AppData\Local\Temp\ccA1vMmE.s:3883   .debug_str:0000000000000a51 .LASF154
C:\Users\Jesper\AppData\Local\Temp\ccA1vMmE.s:3955   .debug_str:0000000000000bd2 .LASF155
C:\Users\Jesper\AppData\Local\Temp\ccA1vMmE.s:3699   .debug_str:00000000000005f2 .LASF156
C:\Users\Jesper\AppData\Local\Temp\ccA1vMmE.s:3879   .debug_str:0000000000000a41 .LASF157
C:\Users\Jesper\AppData\Local\Temp\ccA1vMmE.s:3707   .debug_str:0000000000000625 .LASF162
C:\Users\Jesper\AppData\Local\Temp\ccA1vMmE.s:3895   .debug_str:0000000000000a89 .LASF158
C:\Users\Jesper\AppData\Local\Temp\ccA1vMmE.s:3711   .debug_str:0000000000000640 .LASF159
C:\Users\Jesper\AppData\Local\Temp\ccA1vMmE.s:3769   .debug_str:00000000000007e8 .LASF160
C:\Users\Jesper\AppData\Local\Temp\ccA1vMmE.s:3655   .debug_str:000000000000051a .LASF161
C:\Users\Jesper\AppData\Local\Temp\ccA1vMmE.s:3481   .debug_str:0000000000000099 .LASF163
C:\Users\Jesper\AppData\Local\Temp\ccA1vMmE.s:3487   .debug_str:00000000000000b5 .LASF164
C:\Users\Jesper\AppData\Local\Temp\ccA1vMmE.s:4011   .debug_str:0000000000000ce9 .LASF165
C:\Users\Jesper\AppData\Local\Temp\ccA1vMmE.s:3997   .debug_str:0000000000000c90 .LASF166
C:\Users\Jesper\AppData\Local\Temp\ccA1vMmE.s:3791   .debug_str:000000000000086b .LASF167
C:\Users\Jesper\AppData\Local\Temp\ccA1vMmE.s:3573   .debug_str:0000000000000324 .LASF168
C:\Users\Jesper\AppData\Local\Temp\ccA1vMmE.s:3925   .debug_str:0000000000000b31 .LASF169
C:\Users\Jesper\AppData\Local\Temp\ccA1vMmE.s:3823   .debug_str:0000000000000909 .LASF170
C:\Users\Jesper\AppData\Local\Temp\ccA1vMmE.s:3827   .debug_str:000000000000091f .LASF171
C:\Users\Jesper\AppData\Local\Temp\ccA1vMmE.s:4009   .debug_str:0000000000000cde .LASF172
C:\Users\Jesper\AppData\Local\Temp\ccA1vMmE.s:3541   .debug_str:0000000000000273 .LASF173
C:\Users\Jesper\AppData\Local\Temp\ccA1vMmE.s:4007   .debug_str:0000000000000cd6 .LASF174
C:\Users\Jesper\AppData\Local\Temp\ccA1vMmE.s:3861   .debug_str:00000000000009e2 .LASF175
GAS LISTING C:\Users\Jesper\AppData\Local\Temp\ccA1vMmE.s 			page 14


C:\Users\Jesper\AppData\Local\Temp\ccA1vMmE.s:3923   .debug_str:0000000000000b28 .LASF176
C:\Users\Jesper\AppData\Local\Temp\ccA1vMmE.s:3941   .debug_str:0000000000000b93 .LASF177
C:\Users\Jesper\AppData\Local\Temp\ccA1vMmE.s:3807   .debug_str:00000000000008b1 .LASF178
C:\Users\Jesper\AppData\Local\Temp\ccA1vMmE.s:3623   .debug_str:000000000000046d .LASF179
C:\Users\Jesper\AppData\Local\Temp\ccA1vMmE.s:3629   .debug_str:0000000000000483 .LASF180
C:\Users\Jesper\AppData\Local\Temp\ccA1vMmE.s:3939   .debug_str:0000000000000b8c .LASF181
C:\Users\Jesper\AppData\Local\Temp\ccA1vMmE.s:3873   .debug_str:0000000000000a1f .LASF182
C:\Users\Jesper\AppData\Local\Temp\ccA1vMmE.s:3559   .debug_str:00000000000002d3 .LASF183
C:\Users\Jesper\AppData\Local\Temp\ccA1vMmE.s:3999   .debug_str:0000000000000c9a .LASF184
C:\Users\Jesper\AppData\Local\Temp\ccA1vMmE.s:3805   .debug_str:00000000000008aa .LASF185
C:\Users\Jesper\AppData\Local\Temp\ccA1vMmE.s:3543   .debug_str:0000000000000281 .LASF186
C:\Users\Jesper\AppData\Local\Temp\ccA1vMmE.s:3931   .debug_str:0000000000000b57 .LASF187
C:\Users\Jesper\AppData\Local\Temp\ccA1vMmE.s:3653   .debug_str:0000000000000512 .LASF188
C:\Users\Jesper\AppData\Local\Temp\ccA1vMmE.s:3463   .debug_str:0000000000000049 .LASF189
C:\Users\Jesper\AppData\Local\Temp\ccA1vMmE.s:3467   .debug_str:0000000000000057 .LASF190
C:\Users\Jesper\AppData\Local\Temp\ccA1vMmE.s:3841   .debug_str:0000000000000960 .LASF191
C:\Users\Jesper\AppData\Local\Temp\ccA1vMmE.s:3633   .debug_str:000000000000048e .LASF192
C:\Users\Jesper\AppData\Local\Temp\ccA1vMmE.s:3795   .debug_str:000000000000087a .LASF193
C:\Users\Jesper\AppData\Local\Temp\ccA1vMmE.s:3485   .debug_str:00000000000000af .LASF194
C:\Users\Jesper\AppData\Local\Temp\ccA1vMmE.s:3869   .debug_str:0000000000000a0a .LASF195
C:\Users\Jesper\AppData\Local\Temp\ccA1vMmE.s:3843   .debug_str:0000000000000966 .LASF196
C:\Users\Jesper\AppData\Local\Temp\ccA1vMmE.s:3897   .debug_str:0000000000000a8f .LASF197
C:\Users\Jesper\AppData\Local\Temp\ccA1vMmE.s:3511   .debug_str:000000000000013f .LASF198
C:\Users\Jesper\AppData\Local\Temp\ccA1vMmE.s:3801   .debug_str:0000000000000896 .LASF199
C:\Users\Jesper\AppData\Local\Temp\ccA1vMmE.s:3693   .debug_str:00000000000005d3 .LASF200
C:\Users\Jesper\AppData\Local\Temp\ccA1vMmE.s:3609   .debug_str:0000000000000415 .LASF201
C:\Users\Jesper\AppData\Local\Temp\ccA1vMmE.s:3701   .debug_str:0000000000000604 .LASF202
C:\Users\Jesper\AppData\Local\Temp\ccA1vMmE.s:3643   .debug_str:00000000000004d1 .LASF203
C:\Users\Jesper\AppData\Local\Temp\ccA1vMmE.s:3865   .debug_str:00000000000009f6 .LASF204
C:\Users\Jesper\AppData\Local\Temp\ccA1vMmE.s:3797   .debug_str:0000000000000880 .LASF205
C:\Users\Jesper\AppData\Local\Temp\ccA1vMmE.s:3933   .debug_str:0000000000000b60 .LASF206
C:\Users\Jesper\AppData\Local\Temp\ccA1vMmE.s:3775   .debug_str:000000000000080f .LASF207
C:\Users\Jesper\AppData\Local\Temp\ccA1vMmE.s:3605   .debug_str:00000000000003ef .LASF208
C:\Users\Jesper\AppData\Local\Temp\ccA1vMmE.s:3953   .debug_str:0000000000000bca .LASF209
C:\Users\Jesper\AppData\Local\Temp\ccA1vMmE.s:3691   .debug_str:00000000000005c8 .LASF210
C:\Users\Jesper\AppData\Local\Temp\ccA1vMmE.s:3717   .debug_str:0000000000000660 .LASF211
C:\Users\Jesper\AppData\Local\Temp\ccA1vMmE.s:3963   .debug_str:0000000000000bf5 .LASF212
C:\Users\Jesper\AppData\Local\Temp\ccA1vMmE.s:3555   .debug_str:00000000000002c4 .LASF213
C:\Users\Jesper\AppData\Local\Temp\ccA1vMmE.s:3683   .debug_str:0000000000000591 .LASF214
C:\Users\Jesper\AppData\Local\Temp\ccA1vMmE.s:3763   .debug_str:00000000000007d2 .LASF215
C:\Users\Jesper\AppData\Local\Temp\ccA1vMmE.s:3471   .debug_str:000000000000006b .LASF216
C:\Users\Jesper\AppData\Local\Temp\ccA1vMmE.s:3677   .debug_str:0000000000000571 .LASF217
C:\Users\Jesper\AppData\Local\Temp\ccA1vMmE.s:3793   .debug_str:0000000000000875 .LASF218
C:\Users\Jesper\AppData\Local\Temp\ccA1vMmE.s:3719   .debug_str:000000000000066a .LASF219
C:\Users\Jesper\AppData\Local\Temp\ccA1vMmE.s:3657   .debug_str:000000000000051f .LASF220
C:\Users\Jesper\AppData\Local\Temp\ccA1vMmE.s:3751   .debug_str:0000000000000782 .LASF221
C:\Users\Jesper\AppData\Local\Temp\ccA1vMmE.s:3457   .debug_str:0000000000000027 .LASF222
C:\Users\Jesper\AppData\Local\Temp\ccA1vMmE.s:3627   .debug_str:000000000000047e .LASF223
C:\Users\Jesper\AppData\Local\Temp\ccA1vMmE.s:3881   .debug_str:0000000000000a4a .LASF224
C:\Users\Jesper\AppData\Local\Temp\ccA1vMmE.s:3767   .debug_str:00000000000007e2 .LASF225
C:\Users\Jesper\AppData\Local\Temp\ccA1vMmE.s:3747   .debug_str:000000000000070e .LASF226
C:\Users\Jesper\AppData\Local\Temp\ccA1vMmE.s:3765   .debug_str:00000000000007dc .LASF227
C:\Users\Jesper\AppData\Local\Temp\ccA1vMmE.s:3863   .debug_str:00000000000009ee .LASF228
C:\Users\Jesper\AppData\Local\Temp\ccA1vMmE.s:3835   .debug_str:0000000000000949 .LASF229
C:\Users\Jesper\AppData\Local\Temp\ccA1vMmE.s:3517   .debug_str:00000000000001db .LASF230
C:\Users\Jesper\AppData\Local\Temp\ccA1vMmE.s:3993   .debug_str:0000000000000c78 .LASF231
C:\Users\Jesper\AppData\Local\Temp\ccA1vMmE.s:3589   .debug_str:0000000000000377 .LASF232
GAS LISTING C:\Users\Jesper\AppData\Local\Temp\ccA1vMmE.s 			page 15


C:\Users\Jesper\AppData\Local\Temp\ccA1vMmE.s:3875   .debug_str:0000000000000a25 .LASF233
C:\Users\Jesper\AppData\Local\Temp\ccA1vMmE.s:3469   .debug_str:000000000000005e .LASF234
C:\Users\Jesper\AppData\Local\Temp\ccA1vMmE.s:3569   .debug_str:0000000000000304 .LASF235
C:\Users\Jesper\AppData\Local\Temp\ccA1vMmE.s:3759   .debug_str:00000000000007ae .LASF236
C:\Users\Jesper\AppData\Local\Temp\ccA1vMmE.s:3803   .debug_str:000000000000089f .LASF237
C:\Users\Jesper\AppData\Local\Temp\ccA1vMmE.s:3885   .debug_str:0000000000000a5c .LASF238
C:\Users\Jesper\AppData\Local\Temp\ccA1vMmE.s:3913   .debug_str:0000000000000ae9 .LASF239
C:\Users\Jesper\AppData\Local\Temp\ccA1vMmE.s:3853   .debug_str:000000000000099a .LASF240
C:\Users\Jesper\AppData\Local\Temp\ccA1vMmE.s:3799   .debug_str:0000000000000888 .LASF241
C:\Users\Jesper\AppData\Local\Temp\ccA1vMmE.s:3849   .debug_str:000000000000097d .LASF242
C:\Users\Jesper\AppData\Local\Temp\ccA1vMmE.s:3703   .debug_str:000000000000060b .LASF243
C:\Users\Jesper\AppData\Local\Temp\ccA1vMmE.s:4013   .debug_str:0000000000000cf2 .LASF244
C:\Users\Jesper\AppData\Local\Temp\ccA1vMmE.s:3549   .debug_str:00000000000002a1 .LASF245
C:\Users\Jesper\AppData\Local\Temp\ccA1vMmE.s:3877   .debug_str:0000000000000a32 .LASF246
C:\Users\Jesper\AppData\Local\Temp\ccA1vMmE.s:4003   .debug_str:0000000000000cad .LASF247
C:\Users\Jesper\AppData\Local\Temp\ccA1vMmE.s:3789   .debug_str:000000000000085c .LASF248
C:\Users\Jesper\AppData\Local\Temp\ccA1vMmE.s:3483   .debug_str:000000000000009e .LASF249
C:\Users\Jesper\AppData\Local\Temp\ccA1vMmE.s:3783   .debug_str:000000000000083f .LASF250
C:\Users\Jesper\AppData\Local\Temp\ccA1vMmE.s:3945   .debug_str:0000000000000ba4 .LASF251
C:\Users\Jesper\AppData\Local\Temp\ccA1vMmE.s:3755   .debug_str:000000000000079a .LASF252
C:\Users\Jesper\AppData\Local\Temp\ccA1vMmE.s:3479   .debug_str:0000000000000091 .LASF253
C:\Users\Jesper\AppData\Local\Temp\ccA1vMmE.s:3453   .debug_str:0000000000000014 .LASF282
C:\Users\Jesper\AppData\Local\Temp\ccA1vMmE.s:3553   .debug_str:00000000000002b8 .LASF255
C:\Users\Jesper\AppData\Local\Temp\ccA1vMmE.s:3611   .debug_str:000000000000041c .LASF256
C:\Users\Jesper\AppData\Local\Temp\ccA1vMmE.s:3921   .debug_str:0000000000000b1e .LASF257
C:\Users\Jesper\AppData\Local\Temp\ccA1vMmE.s:3757   .debug_str:00000000000007a3 .LASF258
C:\Users\Jesper\AppData\Local\Temp\ccA1vMmE.s:3525   .debug_str:000000000000020b .LASF259
C:\Users\Jesper\AppData\Local\Temp\ccA1vMmE.s:3599   .debug_str:00000000000003be .LASF260
C:\Users\Jesper\AppData\Local\Temp\ccA1vMmE.s:3829   .debug_str:0000000000000929 .LASF283
C:\Users\Jesper\AppData\Local\Temp\ccA1vMmE.s:3631   .debug_str:0000000000000488 .LASF261
C:\Users\Jesper\AppData\Local\Temp\ccA1vMmE.s:3557   .debug_str:00000000000002ce .LASF262
C:\Users\Jesper\AppData\Local\Temp\ccA1vMmE.s:3811   .debug_str:00000000000008c3 .LASF263
C:\Users\Jesper\AppData\Local\Temp\ccA1vMmE.s:204    .text.usb_mdelay:0000000000000000 .LFB10
C:\Users\Jesper\AppData\Local\Temp\ccA1vMmE.s:219    .text.usb_mdelay:0000000000000008 .LFE10
C:\Users\Jesper\AppData\Local\Temp\ccA1vMmE.s:3837   .debug_str:000000000000094f .LASF265
C:\Users\Jesper\AppData\Local\Temp\ccA1vMmE.s:3304   .debug_loc:0000000000000000 .LLST5
C:\Users\Jesper\AppData\Local\Temp\ccA1vMmE.s:209    .text.usb_mdelay:0000000000000000 .LBB8
C:\Users\Jesper\AppData\Local\Temp\ccA1vMmE.s:217    .text.usb_mdelay:0000000000000008 .LBE8
C:\Users\Jesper\AppData\Local\Temp\ccA1vMmE.s:3318   .debug_loc:0000000000000021 .LLST6
C:\Users\Jesper\AppData\Local\Temp\ccA1vMmE.s:215    .text.usb_mdelay:0000000000000008 .LVL13
C:\Users\Jesper\AppData\Local\Temp\ccA1vMmE.s:3577   .debug_str:0000000000000335 .LASF264
C:\Users\Jesper\AppData\Local\Temp\ccA1vMmE.s:183    .text.usb_udelay:0000000000000000 .LFB9
C:\Users\Jesper\AppData\Local\Temp\ccA1vMmE.s:197    .text.usb_udelay:0000000000000008 .LFE9
C:\Users\Jesper\AppData\Local\Temp\ccA1vMmE.s:3815   .debug_str:00000000000008d6 .LASF266
C:\Users\Jesper\AppData\Local\Temp\ccA1vMmE.s:3332   .debug_loc:0000000000000042 .LLST3
C:\Users\Jesper\AppData\Local\Temp\ccA1vMmE.s:188    .text.usb_udelay:0000000000000000 .LBB6
C:\Users\Jesper\AppData\Local\Temp\ccA1vMmE.s:195    .text.usb_udelay:0000000000000008 .LBE6
C:\Users\Jesper\AppData\Local\Temp\ccA1vMmE.s:3346   .debug_loc:0000000000000063 .LLST4
C:\Users\Jesper\AppData\Local\Temp\ccA1vMmE.s:193    .text.usb_udelay:0000000000000008 .LVL11
C:\Users\Jesper\AppData\Local\Temp\ccA1vMmE.s:3819   .debug_str:00000000000008e7 .LASF284
C:\Users\Jesper\AppData\Local\Temp\ccA1vMmE.s:170    .text.usb_timer_init:0000000000000000 .LFB8
C:\Users\Jesper\AppData\Local\Temp\ccA1vMmE.s:176    .text.usb_timer_init:0000000000000002 .LFE8
C:\Users\Jesper\AppData\Local\Temp\ccA1vMmE.s:3545   .debug_str:0000000000000287 .LASF267
C:\Users\Jesper\AppData\Local\Temp\ccA1vMmE.s:109    .text.usb_intr_config:0000000000000000 .LFB7
C:\Users\Jesper\AppData\Local\Temp\ccA1vMmE.s:163    .text.usb_intr_config:000000000000005c .LFE7
C:\Users\Jesper\AppData\Local\Temp\ccA1vMmE.s:3360   .debug_loc:0000000000000084 .LLST2
C:\Users\Jesper\AppData\Local\Temp\ccA1vMmE.s:126    .text.usb_intr_config:0000000000000014 .LVL4
GAS LISTING C:\Users\Jesper\AppData\Local\Temp\ccA1vMmE.s 			page 16


C:\Users\Jesper\AppData\Local\Temp\ccA1vMmE.s:130    .text.usb_intr_config:0000000000000020 .LVL5
C:\Users\Jesper\AppData\Local\Temp\ccA1vMmE.s:134    .text.usb_intr_config:000000000000002c .LVL6
C:\Users\Jesper\AppData\Local\Temp\ccA1vMmE.s:140    .text.usb_intr_config:000000000000003c .LVL7
C:\Users\Jesper\AppData\Local\Temp\ccA1vMmE.s:144    .text.usb_intr_config:0000000000000048 .LVL8
C:\Users\Jesper\AppData\Local\Temp\ccA1vMmE.s:161    .text.usb_intr_config:000000000000005c .LVL9
C:\Users\Jesper\AppData\Local\Temp\ccA1vMmE.s:3637   .debug_str:00000000000004a1 .LASF268
C:\Users\Jesper\AppData\Local\Temp\ccA1vMmE.s:14     .text.usb_rcu_config:0000000000000000 .LFB6
C:\Users\Jesper\AppData\Local\Temp\ccA1vMmE.s:102    .text.usb_rcu_config:000000000000007e .LFE6
C:\Users\Jesper\AppData\Local\Temp\ccA1vMmE.s:3378   .debug_loc:00000000000000b0 .LLST0
C:\Users\Jesper\AppData\Local\Temp\ccA1vMmE.s:3723   .debug_str:0000000000000687 .LASF285
C:\Users\Jesper\AppData\Local\Temp\ccA1vMmE.s:3401   .debug_loc:00000000000000e8 .LLST1
C:\Users\Jesper\AppData\Local\Temp\ccA1vMmE.s:30     .text.usb_rcu_config:000000000000000e .LVL0
C:\Users\Jesper\AppData\Local\Temp\ccA1vMmE.s:55     .text.usb_rcu_config:000000000000003c .LVL2
C:\Users\Jesper\AppData\Local\Temp\ccA1vMmE.s:69     .text.usb_rcu_config:000000000000004c .LVL3
C:\Users\Jesper\AppData\Local\Temp\ccA1vMmE.s:3581   .debug_str:000000000000034e .LASF269
C:\Users\Jesper\AppData\Local\Temp\ccA1vMmE.s:3705   .debug_str:0000000000000617 .LASF270
C:\Users\Jesper\AppData\Local\Temp\ccA1vMmE.s:3571   .debug_str:0000000000000313 .LASF271
C:\Users\Jesper\AppData\Local\Temp\ccA1vMmE.s:4005   .debug_str:0000000000000cbe .LASF272
C:\Users\Jesper\AppData\Local\Temp\ccA1vMmE.s:3857   .debug_str:00000000000009b1 .LASF273
C:\Users\Jesper\AppData\Local\Temp\ccA1vMmE.s:3621   .debug_str:0000000000000463 .LASF274
C:\Users\Jesper\AppData\Local\Temp\ccA1vMmE.s:3771   .debug_str:00000000000007ee .LASF275
C:\Users\Jesper\AppData\Local\Temp\ccA1vMmE.s:3523   .debug_str:00000000000001f8 .LASF276
C:\Users\Jesper\AppData\Local\Temp\ccA1vMmE.s:3967   .debug_str:0000000000000c0b .LASF277
C:\Users\Jesper\AppData\Local\Temp\ccA1vMmE.s:207    .text.usb_mdelay:0000000000000000 .LVL12
C:\Users\Jesper\AppData\Local\Temp\ccA1vMmE.s:186    .text.usb_udelay:0000000000000000 .LVL10
C:\Users\Jesper\AppData\Local\Temp\ccA1vMmE.s:115    .text.usb_intr_config:0000000000000002 .LCFI3
C:\Users\Jesper\AppData\Local\Temp\ccA1vMmE.s:157    .text.usb_intr_config:0000000000000054 .LCFI4
C:\Users\Jesper\AppData\Local\Temp\ccA1vMmE.s:21     .text.usb_rcu_config:0000000000000002 .LCFI0
C:\Users\Jesper\AppData\Local\Temp\ccA1vMmE.s:65     .text.usb_rcu_config:0000000000000044 .LCFI1
C:\Users\Jesper\AppData\Local\Temp\ccA1vMmE.s:71     .text.usb_rcu_config:000000000000004c .LCFI2
C:\Users\Jesper\AppData\Local\Temp\ccA1vMmE.s:53     .text.usb_rcu_config:0000000000000034 .LVL1
C:\Users\Jesper\AppData\Local\Temp\ccA1vMmE.s:253    .debug_info:0000000000000000 .Ldebug_info0

UNDEFINED SYMBOLS
rcu_clock_freq_get
rcu_usb_clock_config
rcu_periph_clock_enable
eclic_irq_enable
exti_interrupt_flag_clear
exti_init
exti_interrupt_enable
usb_delay_1us
usb_delay_1ms
