GAS LISTING C:\Users\Jesper\AppData\Local\Temp\ccteJwuU.s 			page 1


   1              		.file	"main.c"
   2              		.option nopic
   3              		.attribute arch, "rv32i2p0_m2p0_a2p0_c2p0"
   4              		.attribute unaligned_access, 0
   5              		.attribute stack_align, 16
   6              		.text
   7              	.Ltext0:
   8              		.cfi_sections	.debug_frame
   9              		.globl	mdl_data
  10              		.globl	mnist_pic
  11              		.section	.text.layer_cb,"ax",@progbits
  12              		.align	1
  14              	layer_cb:
  15              	.LFB29:
  16              		.file 1 "main.c"
   1:main.c        **** /* Copyright 2022 Sipeed Technology Co., Ltd. All Rights Reserved.
   2:main.c        **** Licensed under the Apache License, Version 2.0 (the "License");
   3:main.c        **** you may not use this file except in compliance with the License.
   4:main.c        **** You may obtain a copy of the License at
   5:main.c        ****     http://www.apache.org/licenses/LICENSE-2.0
   6:main.c        **** Unless required by applicable law or agreed to in writing, software
   7:main.c        **** distributed under the License is distributed on an "AS IS" BASIS,
   8:main.c        **** WITHOUT WARRANTIES OR CONDITIONS OF ANY KIND, either express or implied.
   9:main.c        **** See the License for the specific language governing permissions and
  10:main.c        **** limitations under the License.
  11:main.c        **** ==============================================================================*/
  12:main.c        **** 
  13:main.c        **** #include "gd32vf103.h"
  14:main.c        **** #include "stdio.h"
  15:main.c        **** #include "tinymaix.h"
  16:main.c        **** #include "usb_serial_if.h"
  17:main.c        **** #include "usb_delay.h"
  18:main.c        **** #include "usart.h"
  19:main.c        **** #include "get_time.h"
  20:main.c        **** 
  21:main.c        **** #if TM_MDL_TYPE == TM_MDL_INT8
  22:main.c        **** #include "mnist_valid_q.h"
  23:main.c        **** //#include "../../tools/tmdl/mnist_resnet_q.h"
  24:main.c        **** #elif TM_MDL_TYPE == TM_MDL_FP32
  25:main.c        **** #include "/tools/tmdl/mnist_valid_f.h"
  26:main.c        **** //#include "../../tools/tmdl/mnist_resnet_f.h"
  27:main.c        **** #elif TM_MDL_TYPE == TM_MDL_FP16
  28:main.c        **** #include "/tools/tmdl/mnist_valid_fp16.h"
  29:main.c        **** #elif TM_MDL_TYPE == TM_MDL_FP8_143
  30:main.c        **** #include "/tools/tmdl/mnist_fp8_143.h"
  31:main.c        **** #elif TM_MDL_TYPE == TM_MDL_FP8_152
  32:main.c        **** #include "/tools/tmdl/mnist_fp8_152.h"
  33:main.c        **** #endif
  34:main.c        **** 
  35:main.c        **** #if 1
  36:main.c        **** uint8_t mnist_pic[28*28]={
  37:main.c        ****   0,  0,  0,  0,  0,  0,  0,  0,  0,  0,  0,  0,  0,  0,  0,  0,  0,  0,  0,  0,  0,  0,  0,  0,  0
  38:main.c        ****   0,  0,  0,  0,  0,  0,  0,  0,  0,  0,  0,  0,  0,  0,  0,  0,  0,  0,  0,  0,  0,  0,  0,  0,  0
  39:main.c        ****   0,  0,  0,  0,  0,  0,  0,  0,  0,  0,  0,  0,  0,  0,  0,  0,  0,  0,  0,  0,  0,  0,  0,  0,  0
  40:main.c        ****   0,  0,  0,  0,  0,  0,  0,  0,  0,  0,116,125,171,255,255,150, 93,  0,  0,  0,  0,  0,  0,  0,  0
  41:main.c        ****   0,  0,  0,  0,  0,  0,  0,  0,  0,169,253,253,253,253,253,253,218, 30,  0,  0,  0,  0,  0,  0,  0
  42:main.c        ****   0,  0,  0,  0,  0,  0,  0,  0,169,253,253,253,213,142,176,253,253,122,  0,  0,  0,  0,  0,  0,  0
GAS LISTING C:\Users\Jesper\AppData\Local\Temp\ccteJwuU.s 			page 2


  43:main.c        ****   0,  0,  0,  0,  0,  0,  0, 52,250,253,210, 32, 12,  0,  6,206,253,140,  0,  0,  0,  0,  0,  0,  0
  44:main.c        ****   0,  0,  0,  0,  0,  0,  0, 77,251,210, 25,  0,  0,  0,122,248,253, 65,  0,  0,  0,  0,  0,  0,  0
  45:main.c        ****   0,  0,  0,  0,  0,  0,  0,  0, 31, 18,  0,  0,  0,  0,209,253,253, 65,  0,  0,  0,  0,  0,  0,  0
  46:main.c        ****   0,  0,  0,  0,  0,  0,  0,  0,  0,  0,  0,  0,  0,117,247,253,198, 10,  0,  0,  0,  0,  0,  0,  0
  47:main.c        ****   0,  0,  0,  0,  0,  0,  0,  0,  0,  0,  0,  0, 76,247,253,231, 63,  0,  0,  0,  0,  0,  0,  0,  0
  48:main.c        ****   0,  0,  0,  0,  0,  0,  0,  0,  0,  0,  0,  0,128,253,253,144,  0,  0,  0,  0,  0,  0,  0,  0,  0
  49:main.c        ****   0,  0,  0,  0,  0,  0,  0,  0,  0,  0,  0,176,246,253,159, 12,  0,  0,  0,  0,  0,  0,  0,  0,  0
  50:main.c        ****   0,  0,  0,  0,  0,  0,  0,  0,  0,  0, 25,234,253,233, 35,  0,  0,  0,  0,  0,  0,  0,  0,  0,  0
  51:main.c        ****   0,  0,  0,  0,  0,  0,  0,  0,  0,  0,198,253,253,141,  0,  0,  0,  0,  0,  0,  0,  0,  0,  0,  0
  52:main.c        ****   0,  0,  0,  0,  0,  0,  0,  0,  0, 78,248,253,189, 12,  0,  0,  0,  0,  0,  0,  0,  0,  0,  0,  0
  53:main.c        ****   0,  0,  0,  0,  0,  0,  0,  0, 19,200,253,253,141,  0,  0,  0,  0,  0,  0,  0,  0,  0,  0,  0,  0
  54:main.c        ****   0,  0,  0,  0,  0,  0,  0,  0,134,253,253,173, 12,  0,  0,  0,  0,  0,  0,  0,  0,  0,  0,  0,  0
  55:main.c        ****   0,  0,  0,  0,  0,  0,  0,  0,248,253,253, 25,  0,  0,  0,  0,  0,  0,  0,  0,  0,  0,  0,  0,  0
  56:main.c        ****   0,  0,  0,  0,  0,  0,  0,  0,248,253,253, 43, 20, 20, 20, 20,  5,  0,  5, 20, 20, 37,150,150,150
  57:main.c        ****   0,  0,  0,  0,  0,  0,  0,  0,248,253,253,253,253,253,253,253,168,143,166,253,253,253,253,253,253
  58:main.c        ****   0,  0,  0,  0,  0,  0,  0,  0,174,253,253,253,253,253,253,253,253,253,253,253,249,247,247,169,117
  59:main.c        ****   0,  0,  0,  0,  0,  0,  0,  0,  0,118,123,123,123,166,253,253,253,155,123,123, 41,  0,  0,  0,  0
  60:main.c        ****   0,  0,  0,  0,  0,  0,  0,  0,  0,  0,  0,  0,  0,  0,  0,  0,  0,  0,  0,  0,  0,  0,  0,  0,  0
  61:main.c        ****   0,  0,  0,  0,  0,  0,  0,  0,  0,  0,  0,  0,  0,  0,  0,  0,  0,  0,  0,  0,  0,  0,  0,  0,  0
  62:main.c        ****   0,  0,  0,  0,  0,  0,  0,  0,  0,  0,  0,  0,  0,  0,  0,  0,  0,  0,  0,  0,  0,  0,  0,  0,  0
  63:main.c        ****   0,  0,  0,  0,  0,  0,  0,  0,  0,  0,  0,  0,  0,  0,  0,  0,  0,  0,  0,  0,  0,  0,  0,  0,  0
  64:main.c        ****   0,  0,  0,  0,  0,  0,  0,  0,  0,  0,  0,  0,  0,  0,  0,  0,  0,  0,  0,  0,  0,  0,  0,  0,  0
  65:main.c        **** };
  66:main.c        **** #else
  67:main.c        **** uint8_t mnist_pic[28*28]={
  68:main.c        ****   0,  0,  0,  0,  0,  0,  0,  0,  0,  0,  0,  0,  0,  0,  0,  0,  0,  0,  0,  0,  0,  0,  0,  0,  0
  69:main.c        ****   0,  0,  0,  0,  0,  0,  0,  0,  0,  0,  0,  0,  0,  0,  0,  0,  0,  0,  0,  0,  0,  0,  0,  0,  0
  70:main.c        ****   0,  0,  0,  0,  0,  0,  0,  0,  0,  0,  0,  0,  0,  0,  0,  0,  0,  0,  0,  0,  0,  0,  0,  0,  0
  71:main.c        ****   0,  0,  0,  0,  0,  0,  0,  0,  0,  0,  0,  0,  0,  0,  0,  0,  0,  0,  0,  0,  0,  0,  0,  0,  0
  72:main.c        ****   0,  0,  0,  0,  0,  0,  0,  0,  0,  0,  0,  0,  0,  0,  0,  0,  0,  0,  0,  0,  0,  0,  0,  0,  0
  73:main.c        ****   0,  0,  0,  0,  0,  0,  0,  0,  0,  0,  0,  0,  0,  0,  0,  0,  0,  0,  0,  0,  0,  0,  0,  0,  0
  74:main.c        ****   0,  0,  0,  0,  0,  0,  0,  0,  0,  0,  0,  0,  0,  0,  0,  0,  0,  0,  0,  0,  0,  0,  0,  0,  0
  75:main.c        ****   0,  0,  0,  0,  0,  0,  0,  0,  0,  0,  0,  0,  0, 36, 56,137,201,199, 95, 37,  0,  0,  0,  0,  0
  76:main.c        ****   0,  0,  0,  0,  0,  0,  0,  0,  0,  0,  0, 45,152,234,254,254,254,254,254,250,211,151,  6,  0,  0
  77:main.c        ****   0,  0,  0,  0,  0,  0,  0,  0,  0, 46,153,240,254,254,227,166,133,251,200,254,229,225,104,  0,  0
  78:main.c        ****   0,  0,  0,  0,  0,  0,  0,  0,153,234,254,254,187,142,  8,  0,  0,191, 40,198,246,223,253, 21,  0
  79:main.c        ****   0,  0,  0,  0,  0,  0,  8,126,253,254,233,128, 11,  0,  0,  0,  0,210, 43, 70,254,254,254, 21,  0
  80:main.c        ****   0,  0,  0,  0,  0,  0, 72,243,254,228, 54,  0,  0,  0,  0,  3, 32,116,225,242,254,255,162,  5,  0
  81:main.c        ****   0,  0,  0,  0,  0,  0, 75,240,254,223,109,138,178,178,169,210,251,231,254,254,254,232, 38,  0,  0
  82:main.c        ****   0,  0,  0,  0,  0,  0,  9,175,244,253,255,254,254,251,254,254,254,254,254,252,171, 25,  0,  0,  0
  83:main.c        ****   0,  0,  0,  0,  0,  0,  0,  0, 16,136,195,176,146,153,200,254,254,254,254,150, 16,  0,  0,  0,  0
  84:main.c        ****   0,  0,  0,  0,  0,  0,  0,  0,  0,  0,  0,  0,  0,  0,162,254,254,241, 99,  3,  0,  0,  0,  0,  0
  85:main.c        ****   0,  0,  0,  0,  0,  0,  0,  0,  0,  0,  0,  0,  0,118,250,254,254, 90,  0,  0,  0,  0,  0,  0,  0
  86:main.c        ****   0,  0,  0,  0,  0,  0,  0,  0,  0,  0,  0,  0,100,242,254,254,211,  7,  0,  0,  0,  0,  0,  0,  0
  87:main.c        ****   0,  0,  0,  0,  0,  0,  0,  0,  0,  0,  0, 54,241,254,254,242, 59,  0,  0,  0,  0,  0,  0,  0,  0
  88:main.c        ****   0,  0,  0,  0,  0,  0,  0,  0,  0,  0,  0,131,254,254,244, 64,  0,  0,  0,  0,  0,  0,  0,  0,  0
  89:main.c        ****   0,  0,  0,  0,  0,  0,  0,  0,  0,  0, 13,249,254,254,152,  0,  0,  0,  0,  0,  0,  0,  0,  0,  0
  90:main.c        ****   0,  0,  0,  0,  0,  0,  0,  0,  0, 12,228,254,254,208,  8,  0,  0,  0,  0,  0,  0,  0,  0,  0,  0
  91:main.c        ****   0,  0,  0,  0,  0,  0,  0,  0,  0, 78,255,254,254, 66,  0,  0,  0,  0,  0,  0,  0,  0,  0,  0,  0
  92:main.c        ****   0,  0,  0,  0,  0,  0,  0,  0,  0,209,254,254,137,  0,  0,  0,  0,  0,  0,  0,  0,  0,  0,  0,  0
  93:main.c        ****   0,  0,  0,  0,  0,  0,  0,  0,  0,227,255,233, 25,  0,  0,  0,  0,  0,  0,  0,  0,  0,  0,  0,  0
  94:main.c        ****   0,  0,  0,  0,  0,  0,  0,  0,  0,113,255,108,  0,  0,  0,  0,  0,  0,  0,  0,  0,  0,  0,  0,  0
  95:main.c        ****   0,  0,  0,  0,  0,  0,  0,  0,  0,  0,  0,  0,  0,  0,  0,  0,  0,  0,  0,  0,  0,  0,  0,  0,  0
  96:main.c        **** };
  97:main.c        **** #endif
  98:main.c        **** 
  99:main.c        **** static tm_err_t layer_cb(tm_mdl_t* mdl, tml_head_t* lh)
GAS LISTING C:\Users\Jesper\AppData\Local\Temp\ccteJwuU.s 			page 3


 100:main.c        **** {   //dump middle result
  17              		.loc 1 100 1
  18              		.cfi_startproc
  19              	.LVL0:
 101:main.c        ****     int h = lh->out_dims[1];
  20              		.loc 1 101 5
 102:main.c        ****     int w = lh->out_dims[2];
  21              		.loc 1 102 5
 103:main.c        ****     int ch= lh->out_dims[3];
  22              		.loc 1 103 5
 104:main.c        ****     mtype_t* output = TML_GET_OUTPUT(mdl, lh);
  23              		.loc 1 104 5
 105:main.c        ****     return TM_OK;
  24              		.loc 1 105 5
 106:main.c        ****     TM_PRINTF("Layer %d callback ========\r\n", mdl->layer_i);
 107:main.c        ****     #if 1
 108:main.c        ****     for(int y=0; y<h; y++){
 109:main.c        ****         TM_PRINTF("[");
 110:main.c        ****         for(int x=0; x<w; x++){
 111:main.c        ****             TM_PRINTF("[");
 112:main.c        ****             for(int c=0; c<ch; c++){
 113:main.c        ****             #if TM_MDL_TYPE == TM_MDL_FP32
 114:main.c        ****                 TM_PRINTF("%.3f,", output[(y*w+x)*ch+c]);
 115:main.c        ****             #else
 116:main.c        ****                 TM_PRINTF("%.3f,", TML_DEQUANT(lh,output[(y*w+x)*ch+c]));
 117:main.c        ****             #endif
 118:main.c        ****             }
 119:main.c        ****             TM_PRINTF("],");
 120:main.c        ****         }
 121:main.c        ****         TM_PRINTF("],\r\n");
 122:main.c        ****     }
 123:main.c        ****     TM_PRINTF("\r\n");
 124:main.c        ****     #endif
 125:main.c        ****     return TM_OK;
 126:main.c        **** }
  25              		.loc 1 126 1 is_stmt 0
  26 0000 0145     		li	a0,0
  27              	.LVL1:
  28 0002 8280     		ret
  29              		.cfi_endproc
  30              	.LFE29:
  32              		.globl	__extendsfdf2
  33              		.globl	__gtsf2
  34              		.section	.text.parse_output,"ax",@progbits
  35              		.align	1
  37              	parse_output:
  38              	.LFB30:
 127:main.c        **** 
 128:main.c        **** static void parse_output(tm_mat_t* outs)
 129:main.c        **** {
  39              		.loc 1 129 1 is_stmt 1
  40              		.cfi_startproc
  41              	.LVL2:
 130:main.c        ****     tm_mat_t out = outs[0];
  42              		.loc 1 130 5
 131:main.c        ****     float* data  = out.dataf;
  43              		.loc 1 131 5
GAS LISTING C:\Users\Jesper\AppData\Local\Temp\ccteJwuU.s 			page 4


 132:main.c        ****     float maxp = 0;
  44              		.loc 1 132 5
 133:main.c        ****     int maxi = -1;
  45              		.loc 1 133 5
 134:main.c        ****     for(int i=0; i<10; i++){
  46              		.loc 1 134 5
  47              	.LBB2:
  48              		.loc 1 134 9
  49              	.LBE2:
 129:main.c        ****     tm_mat_t out = outs[0];
  50              		.loc 1 129 1 is_stmt 0
  51 0000 7971     		addi	sp,sp,-48
  52              	.LCFI0:
  53              		.cfi_def_cfa_offset 48
  54 0002 26D2     		sw	s1,36(sp)
  55              	.LVL3:
  56              		.cfi_offset 9, -12
  57 0004 0445     		lw	s1,8(a0)
  58 0006 56CA     		sw	s5,20(sp)
  59              		.cfi_offset 21, -28
  60              	.LBB3:
 135:main.c        ****         printf("%d: %.3f\r\n", i, data[i]);
  61              		.loc 1 135 9
  62 0008 B70A0000 		lui	s5,%hi(.LANCHOR0)
  63              	.LBE3:
 129:main.c        ****     tm_mat_t out = outs[0];
  64              		.loc 1 129 1
  65 000c 22D4     		sw	s0,40(sp)
  66 000e 4AD0     		sw	s2,32(sp)
  67 0010 4ECE     		sw	s3,28(sp)
  68 0012 52CC     		sw	s4,24(sp)
  69 0014 5EC6     		sw	s7,12(sp)
  70 0016 06D6     		sw	ra,44(sp)
  71 0018 5AC8     		sw	s6,16(sp)
  72              		.cfi_offset 8, -8
  73              		.cfi_offset 18, -16
  74              		.cfi_offset 19, -20
  75              		.cfi_offset 20, -24
  76              		.cfi_offset 23, -36
  77              		.cfi_offset 1, -4
  78              		.cfi_offset 22, -32
  79              	.LBB4:
 134:main.c        ****     for(int i=0; i<10; i++){
  80              		.loc 1 134 13
  81 001a 0144     		li	s0,0
  82              	.LBE4:
 133:main.c        ****     for(int i=0; i<10; i++){
  83              		.loc 1 133 9
  84 001c 7D5A     		li	s4,-1
 132:main.c        ****     int maxi = -1;
  85              		.loc 1 132 11
  86 001e 93090000 		mv	s3,zero
  87 0022 5689     		mv	s2,s5
  88              	.LBB5:
 134:main.c        ****         printf("%d: %.3f\r\n", i, data[i]);
  89              		.loc 1 134 5
  90 0024 A94B     		li	s7,10
GAS LISTING C:\Users\Jesper\AppData\Local\Temp\ccteJwuU.s 			page 5


  91              	.LVL4:
  92              	.L5:
  93              		.loc 1 135 9 is_stmt 1
  94 0026 8840     		lw	a0,0(s1)
  95 0028 97000000 		call	__extendsfdf2
  95      E7800000 
  96              	.LVL5:
  97 0030 2A86     		mv	a2,a0
  98 0032 AE86     		mv	a3,a1
  99 0034 13850A00 		addi	a0,s5,%lo(.LANCHOR0)
 100 0038 A285     		mv	a1,s0
 101 003a 97000000 		call	printf
 101      E7800000 
 102              	.LVL6:
 136:main.c        ****         if(data[i] > maxp) {
 103              		.loc 1 136 9
 104              		.loc 1 136 16 is_stmt 0
 105 0042 03AB0400 		lw	s6,0(s1)
 106              		.loc 1 136 11
 107 0046 CE85     		mv	a1,s3
 108 0048 5A85     		mv	a0,s6
 109 004a 97000000 		call	__gtsf2
 109      E7800000 
 110              	.LVL7:
 111 0052 6354A000 		ble	a0,zero,.L3
 112 0056 228A     		mv	s4,s0
 113              	.LVL8:
 137:main.c        ****             maxi = i;
 138:main.c        ****             maxp = data[i];
 114              		.loc 1 138 18
 115 0058 DA89     		mv	s3,s6
 116              	.LVL9:
 117              	.L3:
 134:main.c        ****         printf("%d: %.3f\r\n", i, data[i]);
 118              		.loc 1 134 25 discriminator 2
 119 005a 0504     		addi	s0,s0,1
 120              	.LVL10:
 121 005c 9104     		addi	s1,s1,4
 134:main.c        ****         printf("%d: %.3f\r\n", i, data[i]);
 122              		.loc 1 134 5 discriminator 2
 123 005e E31474FD 		bne	s0,s7,.L5
 124              	.LBE5:
 139:main.c        ****         }
 140:main.c        ****     }
 141:main.c        ****     TM_PRINTF("### Predict output is: Number %d, prob %.3f\r\n", maxi, maxp);
 125              		.loc 1 141 5 is_stmt 1
 126 0062 4E85     		mv	a0,s3
 127 0064 97000000 		call	__extendsfdf2
 127      E7800000 
 128              	.LVL11:
 129 006c 13090900 		addi	s2,s2,%lo(.LANCHOR0)
 130 0070 2A86     		mv	a2,a0
 131 0072 AE86     		mv	a3,a1
 132 0074 1305C900 		addi	a0,s2,12
 133 0078 D285     		mv	a1,s4
 134 007a 97000000 		call	printf
 134      E7800000 
GAS LISTING C:\Users\Jesper\AppData\Local\Temp\ccteJwuU.s 			page 6


 135              	.LVL12:
 136              		.loc 1 141 5
 142:main.c        ****     return;
 143:main.c        **** }
 137              		.loc 1 143 1 is_stmt 0
 138 0082 2254     		lw	s0,40(sp)
 139              		.cfi_restore 8
 140              	.LVL13:
 141 0084 B250     		lw	ra,44(sp)
 142              		.cfi_restore 1
 143 0086 9254     		lw	s1,36(sp)
 144              		.cfi_restore 9
 145 0088 0259     		lw	s2,32(sp)
 146              		.cfi_restore 18
 147 008a F249     		lw	s3,28(sp)
 148              		.cfi_restore 19
 149              	.LVL14:
 150 008c 624A     		lw	s4,24(sp)
 151              		.cfi_restore 20
 152              	.LVL15:
 153 008e D24A     		lw	s5,20(sp)
 154              		.cfi_restore 21
 155 0090 424B     		lw	s6,16(sp)
 156              		.cfi_restore 22
 157 0092 B24B     		lw	s7,12(sp)
 158              		.cfi_restore 23
 141:main.c        ****     return;
 159              		.loc 1 141 5
 160 0094 0145     		li	a0,0
 161              		.loc 1 143 1
 162 0096 4561     		addi	sp,sp,48
 163              	.LCFI1:
 164              		.cfi_def_cfa_offset 0
 141:main.c        ****     return;
 165              		.loc 1 141 5
 166 0098 17030000 		tail	fflush
 166      67000300 
 167              	.LVL16:
 168              		.cfi_endproc
 169              	.LFE30:
 171              		.section	.text.ledInit,"ax",@progbits
 172              		.align	1
 173              		.globl	ledInit
 175              	ledInit:
 176              	.LFB31:
 144:main.c        **** 
 145:main.c        **** void ledInit (void){
 177              		.loc 1 145 20 is_stmt 1
 178              		.cfi_startproc
 146:main.c        ****     rcu_periph_clock_enable(RCU_GPIOB);
 179              		.loc 1 146 5
 145:main.c        ****     rcu_periph_clock_enable(RCU_GPIOB);
 180              		.loc 1 145 20 is_stmt 0
 181 0000 4111     		addi	sp,sp,-16
 182              	.LCFI2:
 183              		.cfi_def_cfa_offset 16
 184              		.loc 1 146 5
GAS LISTING C:\Users\Jesper\AppData\Local\Temp\ccteJwuU.s 			page 7


 185 0002 13053060 		li	a0,1539
 145:main.c        ****     rcu_periph_clock_enable(RCU_GPIOB);
 186              		.loc 1 145 20
 187 0006 06C6     		sw	ra,12(sp)
 188              		.cfi_offset 1, -4
 189              		.loc 1 146 5
 190 0008 97000000 		call	rcu_periph_clock_enable
 190      E7800000 
 191              	.LVL17:
 147:main.c        **** 	gpio_init(GPIOB, GPIO_MODE_OUT_PP, GPIO_OSPEED_50MHZ, GPIO_PIN_0 | GPIO_PIN_1);
 192              		.loc 1 147 2 is_stmt 1
 148:main.c        **** }
 193              		.loc 1 148 1 is_stmt 0
 194 0010 B240     		lw	ra,12(sp)
 195              		.cfi_restore 1
 147:main.c        **** 	gpio_init(GPIOB, GPIO_MODE_OUT_PP, GPIO_OSPEED_50MHZ, GPIO_PIN_0 | GPIO_PIN_1);
 196              		.loc 1 147 2
 197 0012 37150140 		li	a0,1073811456
 198              		.loc 1 148 1
 147:main.c        **** 	gpio_init(GPIOB, GPIO_MODE_OUT_PP, GPIO_OSPEED_50MHZ, GPIO_PIN_0 | GPIO_PIN_1);
 199              		.loc 1 147 2
 200 0016 8D46     		li	a3,3
 201 0018 0D46     		li	a2,3
 202 001a C145     		li	a1,16
 203 001c 130505C0 		addi	a0,a0,-1024
 204              		.loc 1 148 1
 205 0020 4101     		addi	sp,sp,16
 206              	.LCFI3:
 207              		.cfi_def_cfa_offset 0
 147:main.c        **** 	gpio_init(GPIOB, GPIO_MODE_OUT_PP, GPIO_OSPEED_50MHZ, GPIO_PIN_0 | GPIO_PIN_1);
 208              		.loc 1 147 2
 209 0022 17030000 		tail	gpio_init
 209      67000300 
 210              	.LVL18:
 211              		.cfi_endproc
 212              	.LFE31:
 214              		.section	.text.ledOnOff,"ax",@progbits
 215              		.align	1
 216              		.globl	ledOnOff
 218              	ledOnOff:
 219              	.LFB32:
 149:main.c        **** 
 150:main.c        **** void ledOnOff(int set){
 220              		.loc 1 150 23 is_stmt 1
 221              		.cfi_startproc
 222              	.LVL19:
 151:main.c        ****     gpio_bit_write(GPIOB, GPIO_PIN_0, set);
 223              		.loc 1 151 5
 224 0000 2A86     		mv	a2,a0
 225 0002 37150140 		li	a0,1073811456
 226              	.LVL20:
 227 0006 8545     		li	a1,1
 228 0008 130505C0 		addi	a0,a0,-1024
 229 000c 17030000 		tail	gpio_bit_write
 229      67000300 
 230              	.LVL21:
 231              		.cfi_endproc
GAS LISTING C:\Users\Jesper\AppData\Local\Temp\ccteJwuU.s 			page 8


 232              	.LFE32:
 234              		.globl	__floatunsisf
 235              		.globl	__divsf3
 236              		.section	.text.startup.main,"ax",@progbits
 237              		.align	1
 238              		.globl	main
 240              	main:
 241              	.LFB33:
 152:main.c        **** }
 153:main.c        **** 
 154:main.c        **** int main(int argc, char** argv)
 155:main.c        **** {   
 242              		.loc 1 155 1
 243              		.cfi_startproc
 244              	.LVL22:
 156:main.c        ****     uint32_t count = 0;
 245              		.loc 1 156 5
 157:main.c        ****     char usb_data_buffer[512] = {'\0'};
 246              		.loc 1 157 5
 158:main.c        ****     char usb_read_buf[80] = {'\0'};
 247              		.loc 1 158 5
 159:main.c        **** 
 160:main.c        ****     configure_usb_serial();
 248              		.loc 1 160 5
 155:main.c        ****     uint32_t count = 0;
 249              		.loc 1 155 1 is_stmt 0
 250 0000 5971     		addi	sp,sp,-112
 251              	.LCFI4:
 252              		.cfi_def_cfa_offset 112
 253 0002 86D6     		sw	ra,108(sp)
 254 0004 A2D4     		sw	s0,104(sp)
 255 0006 A6D2     		sw	s1,100(sp)
 256 0008 CAD0     		sw	s2,96(sp)
 257 000a CECE     		sw	s3,92(sp)
 258 000c D2CC     		sw	s4,88(sp)
 259 000e D6CA     		sw	s5,84(sp)
 260 0010 DAC8     		sw	s6,80(sp)
 261 0012 DEC6     		sw	s7,76(sp)
 262              		.cfi_offset 1, -4
 263              		.cfi_offset 8, -8
 264              		.cfi_offset 9, -12
 265              		.cfi_offset 18, -16
 266              		.cfi_offset 19, -20
 267              		.cfi_offset 20, -24
 268              		.cfi_offset 21, -28
 269              		.cfi_offset 22, -32
 270              		.cfi_offset 23, -36
 271              		.loc 1 160 5
 272 0014 97000000 		call	configure_usb_serial
 272      E7800000 
 273              	.LVL23:
 161:main.c        ****     usb_delay_1ms(1);
 274              		.loc 1 161 5 is_stmt 1
 275 001c 0545     		li	a0,1
 276 001e 97000000 		call	usb_delay_1ms
 276      E7800000 
 277              	.LVL24:
GAS LISTING C:\Users\Jesper\AppData\Local\Temp\ccteJwuU.s 			page 9


 162:main.c        **** 
 163:main.c        ****     while (!usb_serial_available()) {
 278              		.loc 1 163 5
 279              	.L13:
 280              		.loc 1 163 13 is_stmt 0
 281 0026 97000000 		call	usb_serial_available
 281      E7800000 
 282              	.LVL25:
 283              		.loc 1 163 11
 284 002e 630B0512 		beq	a0,zero,.L14
 164:main.c        ****         usb_delay_1ms(100);
 165:main.c        ****     }
 166:main.c        **** 
 167:main.c        ****     TM_PRINTF("\r\nReady\r\n");
 285              		.loc 1 167 5 is_stmt 1
 286 0032 37040000 		lui	s0,%hi(.LANCHOR0)
 287 0036 93040400 		addi	s1,s0,%lo(.LANCHOR0)
 288 003a 1385C403 		addi	a0,s1,60
 289 003e 97000000 		call	puts
 289      E7800000 
 290              	.LVL26:
 291              		.loc 1 167 5
 292 0046 0145     		li	a0,0
 293 0048 97000000 		call	fflush
 293      E7800000 
 294              	.LVL27:
 295              		.loc 1 167 31
 168:main.c        ****     ledInit();
 296              		.loc 1 168 5
 297 0050 97000000 		call	ledInit
 297      E7800000 
 298              	.LVL28:
 169:main.c        **** 
 170:main.c        ****     ledOnOff(1);
 299              		.loc 1 170 5
 300 0058 0545     		li	a0,1
 301 005a 97000000 		call	ledOnOff
 301      E7800000 
 302              	.LVL29:
 171:main.c        ****     get_time();
 303              		.loc 1 171 5
 304 0062 97000000 		call	get_time
 304      E7800000 
 305              	.LVL30:
 172:main.c        ****     TM_DBGT_INIT(); //fastnar här
 306              		.loc 1 172 5
 307              		.loc 1 172 5
 308              		.loc 1 172 5
 309 006a 97000000 		call	get_time
 309      E7800000 
 310              	.LVL31:
 311              		.loc 1 172 19
 173:main.c        ****     
 174:main.c        **** 
 175:main.c        ****     printf("\r\nmnist demo\r\n");
 312              		.loc 1 175 5
 313 0072 13858404 		addi	a0,s1,72
GAS LISTING C:\Users\Jesper\AppData\Local\Temp\ccteJwuU.s 			page 10


 314 0076 97000000 		call	puts
 314      E7800000 
 315              	.LVL32:
 176:main.c        ****     fflush(0);
 316              		.loc 1 176 5
 317 007e 0145     		li	a0,0
 318              	.LBB6:
 177:main.c        ****     tm_mdl_t mdl;
 178:main.c        **** 
 179:main.c        ****     for(int i=0; i<28*28; i++){
 180:main.c        ****         TM_PRINTF("%3d,", mnist_pic[i]);
 319              		.loc 1 180 9 is_stmt 0
 320 0080 37090000 		lui	s2,%hi(.LANCHOR1)
 321              	.LBE6:
 176:main.c        ****     fflush(0);
 322              		.loc 1 176 5
 323 0084 97000000 		call	fflush
 323      E7800000 
 324              	.LVL33:
 177:main.c        ****     tm_mdl_t mdl;
 325              		.loc 1 177 5 is_stmt 1
 179:main.c        ****         TM_PRINTF("%3d,", mnist_pic[i]);
 326              		.loc 1 179 5
 327              	.LBB7:
 179:main.c        ****         TM_PRINTF("%3d,", mnist_pic[i]);
 328              		.loc 1 179 9
 179:main.c        ****         TM_PRINTF("%3d,", mnist_pic[i]);
 329              		.loc 1 179 13 is_stmt 0
 330 008c 8144     		li	s1,0
 331 008e 13040400 		addi	s0,s0,%lo(.LANCHOR0)
 332              		.loc 1 180 9
 333 0092 13090900 		addi	s2,s2,%lo(.LANCHOR1)
 334 0096 370A0000 		lui	s4,%hi(.LC6)
 181:main.c        ****         if(i%28==27)TM_PRINTF("\r\n");
 335              		.loc 1 181 13
 336 009a F14A     		li	s5,28
 337              		.loc 1 181 11
 338 009c 6D4B     		li	s6,27
 339              		.loc 1 181 21
 340 009e B70B0000 		lui	s7,%hi(.LC7)
 179:main.c        ****         TM_PRINTF("%3d,", mnist_pic[i]);
 341              		.loc 1 179 5
 342 00a2 93090031 		li	s3,784
 343              	.LVL34:
 344              	.L16:
 180:main.c        ****         if(i%28==27)TM_PRINTF("\r\n");
 345              		.loc 1 180 9 is_stmt 1
 346 00a6 B3079900 		add	a5,s2,s1
 347 00aa 83C50700 		lbu	a1,0(a5)
 348 00ae 13050A00 		addi	a0,s4,%lo(.LC6)
 349 00b2 97000000 		call	printf
 349      E7800000 
 350              	.LVL35:
 180:main.c        ****         if(i%28==27)TM_PRINTF("\r\n");
 351              		.loc 1 180 9
 352 00ba 0145     		li	a0,0
 353 00bc 97000000 		call	fflush
GAS LISTING C:\Users\Jesper\AppData\Local\Temp\ccteJwuU.s 			page 11


 353      E7800000 
 354              	.LVL36:
 180:main.c        ****         if(i%28==27)TM_PRINTF("\r\n");
 355              		.loc 1 180 40
 356              		.loc 1 181 9
 357              		.loc 1 181 13 is_stmt 0
 358 00c4 B3E75403 		rem	a5,s1,s5
 359              		.loc 1 181 11
 360 00c8 63986701 		bne	a5,s6,.L15
 361              		.loc 1 181 21 is_stmt 1 discriminator 1
 362 00cc 13850B00 		addi	a0,s7,%lo(.LC7)
 363 00d0 97000000 		call	puts
 363      E7800000 
 364              	.LVL37:
 365              	.L15:
 366              		.loc 1 181 21 discriminator 3
 367 00d8 0145     		li	a0,0
 179:main.c        ****         TM_PRINTF("%3d,", mnist_pic[i]);
 368              		.loc 1 179 28 is_stmt 0 discriminator 3
 369 00da 8504     		addi	s1,s1,1
 370              	.LVL38:
 371              		.loc 1 181 21 discriminator 3
 372 00dc 97000000 		call	fflush
 372      E7800000 
 373              	.LVL39:
 374              		.loc 1 181 38 is_stmt 1 discriminator 3
 179:main.c        ****         TM_PRINTF("%3d,", mnist_pic[i]);
 375              		.loc 1 179 5 is_stmt 0 discriminator 3
 376 00e4 E39134FD 		bne	s1,s3,.L16
 377              	.LBE7:
 182:main.c        ****     }
 183:main.c        **** 
 184:main.c        ****     tm_mat_t in_uint8 = {3,28,28,1, {(mtype_t*)mnist_pic}};
 378              		.loc 1 184 5 is_stmt 1
 379              		.loc 1 184 14 is_stmt 0
 380 00e8 3146     		li	a2,12
 381 00ea 93054406 		addi	a1,s0,100
 382 00ee 4800     		addi	a0,sp,4
 383 00f0 97000000 		call	memcpy
 383      E7800000 
 384              	.LVL40:
 185:main.c        ****     tm_mat_t in = {3,28,28,1, {NULL}};
 385              		.loc 1 185 5 is_stmt 1
 386              		.loc 1 185 14 is_stmt 0
 387 00f8 3146     		li	a2,12
 388 00fa 93050407 		addi	a1,s0,112
 389 00fe 0808     		addi	a0,sp,16
 390 0100 97000000 		call	memcpy
 390      E7800000 
 391              	.LVL41:
 186:main.c        ****     tm_mat_t outs[1];
 392              		.loc 1 186 5 is_stmt 1
 187:main.c        ****     tm_err_t res;
 393              		.loc 1 187 5
 188:main.c        ****     tm_stat((tm_mdlbin_t*)mdl_data); 
 394              		.loc 1 188 5
 395 0108 B7040000 		lui	s1,%hi(mdl_data)
GAS LISTING C:\Users\Jesper\AppData\Local\Temp\ccteJwuU.s 			page 12


 396              	.LVL42:
 397 010c 13850400 		addi	a0,s1,%lo(mdl_data)
 398 0110 97000000 		call	tm_stat
 398      E7800000 
 399              	.LVL43:
 189:main.c        ****     res = tm_load(&mdl, mdl_data, NULL, layer_cb, &in);
 400              		.loc 1 189 5
 401              		.loc 1 189 11 is_stmt 0
 402 0118 B7060000 		lui	a3,%hi(layer_cb)
 403 011c 93850400 		addi	a1,s1,%lo(mdl_data)
 404 0120 1808     		addi	a4,sp,16
 405 0122 93860600 		addi	a3,a3,%lo(layer_cb)
 406 0126 0146     		li	a2,0
 407 0128 2810     		addi	a0,sp,40
 408 012a 97000000 		call	tm_load
 408      E7800000 
 409              	.LVL44:
 410 0132 AA85     		mv	a1,a0
 411              	.LVL45:
 190:main.c        ****     if(res != TM_OK) {
 412              		.loc 1 190 5 is_stmt 1
 413              		.loc 1 190 7 is_stmt 0
 414 0134 1DCD     		beq	a0,zero,.L17
 191:main.c        ****         TM_PRINTF("tm model load err %d\r\n", res);
 415              		.loc 1 191 9 is_stmt 1
 416 0136 1305C407 		addi	a0,s0,124
 417              	.LVL46:
 418 013a 97000000 		call	printf
 418      E7800000 
 419              	.LVL47:
 420              		.loc 1 191 9
 421 0142 0145     		li	a0,0
 422 0144 97000000 		call	fflush
 422      E7800000 
 423              	.LVL48:
 424              		.loc 1 191 51
 192:main.c        ****         return -1;
 425              		.loc 1 192 9
 426              		.loc 1 192 16 is_stmt 0
 427 014c 7D55     		li	a0,-1
 428              	.L12:
 193:main.c        ****     }
 194:main.c        **** 
 195:main.c        **** #if (TM_MDL_TYPE == TM_MDL_INT8) || (TM_MDL_TYPE == TM_MDL_INT16) 
 196:main.c        ****     res = tm_preprocess(&mdl, TMPP_UINT2INT, &in_uint8, &in); 
 197:main.c        **** #else
 198:main.c        ****     res = tm_preprocess(&mdl, TMPP_UINT2FP01, &in_uint8, &in); 
 199:main.c        **** #endif
 200:main.c        ****     TM_DBGT_START();
 201:main.c        ****     TM_DBGL();
 202:main.c        ****     res = tm_run(&mdl, &in, outs); //fastnar här
 203:main.c        ****     TM_DBGL();
 204:main.c        ****     TM_DBGT("tm_run");
 205:main.c        ****     if(res==TM_OK) parse_output(outs);  
 206:main.c        ****     else TM_PRINTF("tm run error: %d\r\n", res);
 207:main.c        ****     tm_unload(&mdl);                
 208:main.c        ****     printf("\r\nunloaded\r\n");
GAS LISTING C:\Users\Jesper\AppData\Local\Temp\ccteJwuU.s 			page 13


 209:main.c        ****     fflush(0);
 210:main.c        ****     return 0;
 211:main.c        **** }
 429              		.loc 1 211 1
 430 014e B650     		lw	ra,108(sp)
 431              		.cfi_remember_state
 432              		.cfi_restore 1
 433 0150 2654     		lw	s0,104(sp)
 434              		.cfi_restore 8
 435 0152 9654     		lw	s1,100(sp)
 436              		.cfi_restore 9
 437 0154 0659     		lw	s2,96(sp)
 438              		.cfi_restore 18
 439 0156 F649     		lw	s3,92(sp)
 440              		.cfi_restore 19
 441 0158 664A     		lw	s4,88(sp)
 442              		.cfi_restore 20
 443 015a D64A     		lw	s5,84(sp)
 444              		.cfi_restore 21
 445 015c 464B     		lw	s6,80(sp)
 446              		.cfi_restore 22
 447 015e B64B     		lw	s7,76(sp)
 448              		.cfi_restore 23
 449 0160 6561     		addi	sp,sp,112
 450              	.LCFI5:
 451              		.cfi_def_cfa_offset 0
 452 0162 8280     		jr	ra
 453              	.L14:
 454              	.LCFI6:
 455              		.cfi_restore_state
 164:main.c        ****     }
 456              		.loc 1 164 9 is_stmt 1
 457 0164 13054006 		li	a0,100
 458 0168 97000000 		call	usb_delay_1ms
 458      E7800000 
 459              	.LVL49:
 460 0170 5DBD     		j	.L13
 461              	.LVL50:
 462              	.L17:
 196:main.c        **** #else
 463              		.loc 1 196 5
 196:main.c        **** #else
 464              		.loc 1 196 11 is_stmt 0
 465 0172 1408     		addi	a3,sp,16
 466 0174 5000     		addi	a2,sp,4
 467 0176 8945     		li	a1,2
 468 0178 2810     		addi	a0,sp,40
 469              	.LVL51:
 470 017a 97000000 		call	tm_preprocess
 470      E7800000 
 471              	.LVL52:
 200:main.c        ****     TM_DBGL();
 472              		.loc 1 200 5 is_stmt 1
 473 0182 97000000 		call	get_time
 473      E7800000 
 474              	.LVL53:
 201:main.c        ****     res = tm_run(&mdl, &in, outs); //fastnar här
GAS LISTING C:\Users\Jesper\AppData\Local\Temp\ccteJwuU.s 			page 14


 475              		.loc 1 201 5 is_stmt 0
 476 018a 13094409 		addi	s2,s0,148
 477 018e 9305900C 		li	a1,201
 200:main.c        ****     TM_DBGL();
 478              		.loc 1 200 5
 479 0192 AA89     		mv	s3,a0
 480              	.LVL54:
 200:main.c        ****     TM_DBGL();
 481              		.loc 1 200 20 is_stmt 1
 201:main.c        ****     res = tm_run(&mdl, &in, outs); //fastnar här
 482              		.loc 1 201 5
 483 0194 4A85     		mv	a0,s2
 484              	.LVL55:
 485 0196 97000000 		call	printf
 485      E7800000 
 486              	.LVL56:
 201:main.c        ****     res = tm_run(&mdl, &in, outs); //fastnar här
 487              		.loc 1 201 5
 488 019e 0145     		li	a0,0
 489 01a0 97000000 		call	fflush
 489      E7800000 
 490              	.LVL57:
 201:main.c        ****     res = tm_run(&mdl, &in, outs); //fastnar här
 491              		.loc 1 201 5
 201:main.c        ****     res = tm_run(&mdl, &in, outs); //fastnar här
 492              		.loc 1 201 14
 202:main.c        ****     TM_DBGL();
 493              		.loc 1 202 5
 202:main.c        ****     TM_DBGL();
 494              		.loc 1 202 11 is_stmt 0
 495 01a8 7008     		addi	a2,sp,28
 496 01aa 0C08     		addi	a1,sp,16
 497 01ac 2810     		addi	a0,sp,40
 498 01ae 97000000 		call	tm_run
 498      E7800000 
 499              	.LVL58:
 203:main.c        ****     TM_DBGT("tm_run");
 500              		.loc 1 203 5
 501 01b6 9305B00C 		li	a1,203
 202:main.c        ****     TM_DBGL();
 502              		.loc 1 202 11
 503 01ba AA84     		mv	s1,a0
 504              	.LVL59:
 203:main.c        ****     TM_DBGT("tm_run");
 505              		.loc 1 203 5 is_stmt 1
 506 01bc 4A85     		mv	a0,s2
 507 01be 97000000 		call	printf
 507      E7800000 
 508              	.LVL60:
 203:main.c        ****     TM_DBGT("tm_run");
 509              		.loc 1 203 5
 510 01c6 0145     		li	a0,0
 511 01c8 97000000 		call	fflush
 511      E7800000 
 512              	.LVL61:
 203:main.c        ****     TM_DBGT("tm_run");
 513              		.loc 1 203 5
GAS LISTING C:\Users\Jesper\AppData\Local\Temp\ccteJwuU.s 			page 15


 203:main.c        ****     TM_DBGT("tm_run");
 514              		.loc 1 203 14
 204:main.c        ****     if(res==TM_OK) parse_output(outs);  
 515              		.loc 1 204 5
 516 01d0 97000000 		call	get_time
 516      E7800000 
 517              	.LVL62:
 204:main.c        ****     if(res==TM_OK) parse_output(outs);  
 518              		.loc 1 204 5
 204:main.c        ****     if(res==TM_OK) parse_output(outs);  
 519              		.loc 1 204 5
 520 01d8 33053541 		sub	a0,a0,s3
 521              	.LVL63:
 522 01dc 97000000 		call	__floatunsisf
 522      E7800000 
 523              	.LVL64:
 524 01e4 8325040A 		lw	a1,160(s0)
 525 01e8 97000000 		call	__divsf3
 525      E7800000 
 526              	.LVL65:
 527 01f0 97000000 		call	__extendsfdf2
 527      E7800000 
 528              	.LVL66:
 529 01f8 AE86     		mv	a3,a1
 530 01fa B7050000 		lui	a1,%hi(.LC12)
 531 01fe 2A86     		mv	a2,a0
 532 0200 93850500 		addi	a1,a1,%lo(.LC12)
 533 0204 1305C40A 		addi	a0,s0,172
 534 0208 97000000 		call	printf
 534      E7800000 
 535              	.LVL67:
 204:main.c        ****     if(res==TM_OK) parse_output(outs);  
 536              		.loc 1 204 5
 537 0210 0145     		li	a0,0
 538 0212 97000000 		call	fflush
 538      E7800000 
 539              	.LVL68:
 204:main.c        ****     if(res==TM_OK) parse_output(outs);  
 540              		.loc 1 204 5
 204:main.c        ****     if(res==TM_OK) parse_output(outs);  
 541              		.loc 1 204 5
 542 021a 97000000 		call	get_time
 542      E7800000 
 543              	.LVL69:
 204:main.c        ****     if(res==TM_OK) parse_output(outs);  
 544              		.loc 1 204 22
 205:main.c        ****     else TM_PRINTF("tm run error: %d\r\n", res);
 545              		.loc 1 205 5
 205:main.c        ****     else TM_PRINTF("tm run error: %d\r\n", res);
 546              		.loc 1 205 7 is_stmt 0
 547 0222 8DEC     		bne	s1,zero,.L19
 205:main.c        ****     else TM_PRINTF("tm run error: %d\r\n", res);
 548              		.loc 1 205 20 is_stmt 1 discriminator 1
 549 0224 6808     		addi	a0,sp,28
 550 0226 97000000 		call	parse_output
 550      E7800000 
 551              	.LVL70:
GAS LISTING C:\Users\Jesper\AppData\Local\Temp\ccteJwuU.s 			page 16


 552              	.L20:
 206:main.c        ****     tm_unload(&mdl);                
 553              		.loc 1 206 10 discriminator 1
 554 022e 0145     		li	a0,0
 555 0230 97000000 		call	fflush
 555      E7800000 
 556              	.LVL71:
 206:main.c        ****     tm_unload(&mdl);                
 557              		.loc 1 206 48 discriminator 1
 207:main.c        ****     printf("\r\nunloaded\r\n");
 558              		.loc 1 207 5 discriminator 1
 559 0238 2810     		addi	a0,sp,40
 560 023a 97000000 		call	tm_unload
 560      E7800000 
 561              	.LVL72:
 208:main.c        ****     fflush(0);
 562              		.loc 1 208 5 discriminator 1
 563 0242 1305440D 		addi	a0,s0,212
 564 0246 97000000 		call	puts
 564      E7800000 
 565              	.LVL73:
 209:main.c        ****     return 0;
 566              		.loc 1 209 5 discriminator 1
 567 024e 0145     		li	a0,0
 568 0250 97000000 		call	fflush
 568      E7800000 
 569              	.LVL74:
 210:main.c        **** }
 570              		.loc 1 210 5 discriminator 1
 210:main.c        **** }
 571              		.loc 1 210 12 is_stmt 0 discriminator 1
 572 0258 0145     		li	a0,0
 573 025a D5BD     		j	.L12
 574              	.L19:
 206:main.c        ****     tm_unload(&mdl);                
 575              		.loc 1 206 10 is_stmt 1
 576 025c A685     		mv	a1,s1
 577 025e 1305040C 		addi	a0,s0,192
 578 0262 97000000 		call	printf
 578      E7800000 
 579              	.LVL75:
 580 026a D1B7     		j	.L20
 581              		.cfi_endproc
 582              	.LFE33:
 584              		.section	.rodata
 585              		.align	2
 586              		.set	.LANCHOR0,. + 0
 587              	.LC2:
 588 0000 25643A20 		.string	"%d: %.3f\r\n"
 588      252E3366 
 588      0D0A00
 589 000b 00       		.zero	1
 590              	.LC3:
 591 000c 23232320 		.string	"### Predict output is: Number %d, prob %.3f\r\n"
 591      50726564 
 591      69637420 
 591      6F757470 
GAS LISTING C:\Users\Jesper\AppData\Local\Temp\ccteJwuU.s 			page 17


 591      75742069 
 592 003a 0000     		.zero	2
 593              	.LC4:
 594 003c 0D0A5265 		.string	"\r\nReady\r"
 594      6164790D 
 594      00
 595 0045 000000   		.zero	3
 596              	.LC5:
 597 0048 0D0A6D6E 		.string	"\r\nmnist demo\r"
 597      69737420 
 597      64656D6F 
 597      0D00
 598 0056 0000     		.zero	2
 599              	.LC6:
 600 0058 2533642C 		.string	"%3d,"
 600      00
 601 005d 000000   		.zero	3
 602              	.LC7:
 603 0060 0D00     		.string	"\r"
 604 0062 0000     		.zero	2
 605              	.LC8:
 606 0064 0300     		.half	3
 607 0066 1C00     		.half	28
 608 0068 1C00     		.half	28
 609 006a 0100     		.half	1
 610 006c 00000000 		.word	mnist_pic
 611              	.LC1:
 612 0070 0300     		.half	3
 613 0072 1C00     		.half	28
 614 0074 1C00     		.half	28
 615 0076 0100     		.half	1
 616 0078 00000000 		.word	0
 617              	.LC9:
 618 007c 746D206D 		.string	"tm model load err %d\r\n"
 618      6F64656C 
 618      206C6F61 
 618      64206572 
 618      72202564 
 619 0093 00       		.zero	1
 620              	.LC10:
 621 0094 2323234C 		.string	"###L%d\r\n"
 621      25640D0A 
 621      00
 622 009d 000000   		.zero	3
 623              	.LC11:
 624 00a0 00007A44 		.word	1148846080
 625              	.LC12:
 626 00a4 746D5F72 		.string	"tm_run"
 626      756E00
 627 00ab 00       		.zero	1
 628              	.LC13:
 629 00ac 3D3D3D25 		.string	"===%s use %.3f ms\r\n"
 629      73207573 
 629      6520252E 
 629      3366206D 
 629      730D0A00 
 630              	.LC14:
GAS LISTING C:\Users\Jesper\AppData\Local\Temp\ccteJwuU.s 			page 18


 631 00c0 746D2072 		.string	"tm run error: %d\r\n"
 631      756E2065 
 631      72726F72 
 631      3A202564 
 631      0D0A00
 632 00d3 00       		.zero	1
 633              	.LC15:
 634 00d4 0D0A756E 		.string	"\r\nunloaded\r"
 634      6C6F6164 
 634      65640D00 
 635              		.section	.data.mnist_pic,"aw"
 636              		.align	2
 637              		.set	.LANCHOR1,. + 0
 640              	mnist_pic:
 641 0000 00       		.byte	0
 642 0001 00       		.byte	0
 643 0002 00       		.byte	0
 644 0003 00       		.byte	0
 645 0004 00       		.byte	0
 646 0005 00       		.byte	0
 647 0006 00       		.byte	0
 648 0007 00       		.byte	0
 649 0008 00       		.byte	0
 650 0009 00       		.byte	0
 651 000a 00       		.byte	0
 652 000b 00       		.byte	0
 653 000c 00       		.byte	0
 654 000d 00       		.byte	0
 655 000e 00       		.byte	0
 656 000f 00       		.byte	0
 657 0010 00       		.byte	0
 658 0011 00       		.byte	0
 659 0012 00       		.byte	0
 660 0013 00       		.byte	0
 661 0014 00       		.byte	0
 662 0015 00       		.byte	0
 663 0016 00       		.byte	0
 664 0017 00       		.byte	0
 665 0018 00       		.byte	0
 666 0019 00       		.byte	0
 667 001a 00       		.byte	0
 668 001b 00       		.byte	0
 669 001c 00       		.byte	0
 670 001d 00       		.byte	0
 671 001e 00       		.byte	0
 672 001f 00       		.byte	0
 673 0020 00       		.byte	0
 674 0021 00       		.byte	0
 675 0022 00       		.byte	0
 676 0023 00       		.byte	0
 677 0024 00       		.byte	0
 678 0025 00       		.byte	0
 679 0026 00       		.byte	0
 680 0027 00       		.byte	0
 681 0028 00       		.byte	0
 682 0029 00       		.byte	0
 683 002a 00       		.byte	0
GAS LISTING C:\Users\Jesper\AppData\Local\Temp\ccteJwuU.s 			page 19


 684 002b 00       		.byte	0
 685 002c 00       		.byte	0
 686 002d 00       		.byte	0
 687 002e 00       		.byte	0
 688 002f 00       		.byte	0
 689 0030 00       		.byte	0
 690 0031 00       		.byte	0
 691 0032 00       		.byte	0
 692 0033 00       		.byte	0
 693 0034 00       		.byte	0
 694 0035 00       		.byte	0
 695 0036 00       		.byte	0
 696 0037 00       		.byte	0
 697 0038 00       		.byte	0
 698 0039 00       		.byte	0
 699 003a 00       		.byte	0
 700 003b 00       		.byte	0
 701 003c 00       		.byte	0
 702 003d 00       		.byte	0
 703 003e 00       		.byte	0
 704 003f 00       		.byte	0
 705 0040 00       		.byte	0
 706 0041 00       		.byte	0
 707 0042 00       		.byte	0
 708 0043 00       		.byte	0
 709 0044 00       		.byte	0
 710 0045 00       		.byte	0
 711 0046 00       		.byte	0
 712 0047 00       		.byte	0
 713 0048 00       		.byte	0
 714 0049 00       		.byte	0
 715 004a 00       		.byte	0
 716 004b 00       		.byte	0
 717 004c 00       		.byte	0
 718 004d 00       		.byte	0
 719 004e 00       		.byte	0
 720 004f 00       		.byte	0
 721 0050 00       		.byte	0
 722 0051 00       		.byte	0
 723 0052 00       		.byte	0
 724 0053 00       		.byte	0
 725 0054 00       		.byte	0
 726 0055 00       		.byte	0
 727 0056 00       		.byte	0
 728 0057 00       		.byte	0
 729 0058 00       		.byte	0
 730 0059 00       		.byte	0
 731 005a 00       		.byte	0
 732 005b 00       		.byte	0
 733 005c 00       		.byte	0
 734 005d 00       		.byte	0
 735 005e 74       		.byte	116
 736 005f 7D       		.byte	125
 737 0060 AB       		.byte	-85
 738 0061 FF       		.byte	-1
 739 0062 FF       		.byte	-1
 740 0063 96       		.byte	-106
GAS LISTING C:\Users\Jesper\AppData\Local\Temp\ccteJwuU.s 			page 20


 741 0064 5D       		.byte	93
 742 0065 00       		.byte	0
 743 0066 00       		.byte	0
 744 0067 00       		.byte	0
 745 0068 00       		.byte	0
 746 0069 00       		.byte	0
 747 006a 00       		.byte	0
 748 006b 00       		.byte	0
 749 006c 00       		.byte	0
 750 006d 00       		.byte	0
 751 006e 00       		.byte	0
 752 006f 00       		.byte	0
 753 0070 00       		.byte	0
 754 0071 00       		.byte	0
 755 0072 00       		.byte	0
 756 0073 00       		.byte	0
 757 0074 00       		.byte	0
 758 0075 00       		.byte	0
 759 0076 00       		.byte	0
 760 0077 00       		.byte	0
 761 0078 00       		.byte	0
 762 0079 A9       		.byte	-87
 763 007a FD       		.byte	-3
 764 007b FD       		.byte	-3
 765 007c FD       		.byte	-3
 766 007d FD       		.byte	-3
 767 007e FD       		.byte	-3
 768 007f FD       		.byte	-3
 769 0080 DA       		.byte	-38
 770 0081 1E       		.byte	30
 771 0082 00       		.byte	0
 772 0083 00       		.byte	0
 773 0084 00       		.byte	0
 774 0085 00       		.byte	0
 775 0086 00       		.byte	0
 776 0087 00       		.byte	0
 777 0088 00       		.byte	0
 778 0089 00       		.byte	0
 779 008a 00       		.byte	0
 780 008b 00       		.byte	0
 781 008c 00       		.byte	0
 782 008d 00       		.byte	0
 783 008e 00       		.byte	0
 784 008f 00       		.byte	0
 785 0090 00       		.byte	0
 786 0091 00       		.byte	0
 787 0092 00       		.byte	0
 788 0093 00       		.byte	0
 789 0094 A9       		.byte	-87
 790 0095 FD       		.byte	-3
 791 0096 FD       		.byte	-3
 792 0097 FD       		.byte	-3
 793 0098 D5       		.byte	-43
 794 0099 8E       		.byte	-114
 795 009a B0       		.byte	-80
 796 009b FD       		.byte	-3
 797 009c FD       		.byte	-3
GAS LISTING C:\Users\Jesper\AppData\Local\Temp\ccteJwuU.s 			page 21


 798 009d 7A       		.byte	122
 799 009e 00       		.byte	0
 800 009f 00       		.byte	0
 801 00a0 00       		.byte	0
 802 00a1 00       		.byte	0
 803 00a2 00       		.byte	0
 804 00a3 00       		.byte	0
 805 00a4 00       		.byte	0
 806 00a5 00       		.byte	0
 807 00a6 00       		.byte	0
 808 00a7 00       		.byte	0
 809 00a8 00       		.byte	0
 810 00a9 00       		.byte	0
 811 00aa 00       		.byte	0
 812 00ab 00       		.byte	0
 813 00ac 00       		.byte	0
 814 00ad 00       		.byte	0
 815 00ae 00       		.byte	0
 816 00af 34       		.byte	52
 817 00b0 FA       		.byte	-6
 818 00b1 FD       		.byte	-3
 819 00b2 D2       		.byte	-46
 820 00b3 20       		.byte	32
 821 00b4 0C       		.byte	12
 822 00b5 00       		.byte	0
 823 00b6 06       		.byte	6
 824 00b7 CE       		.byte	-50
 825 00b8 FD       		.byte	-3
 826 00b9 8C       		.byte	-116
 827 00ba 00       		.byte	0
 828 00bb 00       		.byte	0
 829 00bc 00       		.byte	0
 830 00bd 00       		.byte	0
 831 00be 00       		.byte	0
 832 00bf 00       		.byte	0
 833 00c0 00       		.byte	0
 834 00c1 00       		.byte	0
 835 00c2 00       		.byte	0
 836 00c3 00       		.byte	0
 837 00c4 00       		.byte	0
 838 00c5 00       		.byte	0
 839 00c6 00       		.byte	0
 840 00c7 00       		.byte	0
 841 00c8 00       		.byte	0
 842 00c9 00       		.byte	0
 843 00ca 00       		.byte	0
 844 00cb 4D       		.byte	77
 845 00cc FB       		.byte	-5
 846 00cd D2       		.byte	-46
 847 00ce 19       		.byte	25
 848 00cf 00       		.byte	0
 849 00d0 00       		.byte	0
 850 00d1 00       		.byte	0
 851 00d2 7A       		.byte	122
 852 00d3 F8       		.byte	-8
 853 00d4 FD       		.byte	-3
 854 00d5 41       		.byte	65
GAS LISTING C:\Users\Jesper\AppData\Local\Temp\ccteJwuU.s 			page 22


 855 00d6 00       		.byte	0
 856 00d7 00       		.byte	0
 857 00d8 00       		.byte	0
 858 00d9 00       		.byte	0
 859 00da 00       		.byte	0
 860 00db 00       		.byte	0
 861 00dc 00       		.byte	0
 862 00dd 00       		.byte	0
 863 00de 00       		.byte	0
 864 00df 00       		.byte	0
 865 00e0 00       		.byte	0
 866 00e1 00       		.byte	0
 867 00e2 00       		.byte	0
 868 00e3 00       		.byte	0
 869 00e4 00       		.byte	0
 870 00e5 00       		.byte	0
 871 00e6 00       		.byte	0
 872 00e7 00       		.byte	0
 873 00e8 1F       		.byte	31
 874 00e9 12       		.byte	18
 875 00ea 00       		.byte	0
 876 00eb 00       		.byte	0
 877 00ec 00       		.byte	0
 878 00ed 00       		.byte	0
 879 00ee D1       		.byte	-47
 880 00ef FD       		.byte	-3
 881 00f0 FD       		.byte	-3
 882 00f1 41       		.byte	65
 883 00f2 00       		.byte	0
 884 00f3 00       		.byte	0
 885 00f4 00       		.byte	0
 886 00f5 00       		.byte	0
 887 00f6 00       		.byte	0
 888 00f7 00       		.byte	0
 889 00f8 00       		.byte	0
 890 00f9 00       		.byte	0
 891 00fa 00       		.byte	0
 892 00fb 00       		.byte	0
 893 00fc 00       		.byte	0
 894 00fd 00       		.byte	0
 895 00fe 00       		.byte	0
 896 00ff 00       		.byte	0
 897 0100 00       		.byte	0
 898 0101 00       		.byte	0
 899 0102 00       		.byte	0
 900 0103 00       		.byte	0
 901 0104 00       		.byte	0
 902 0105 00       		.byte	0
 903 0106 00       		.byte	0
 904 0107 00       		.byte	0
 905 0108 00       		.byte	0
 906 0109 75       		.byte	117
 907 010a F7       		.byte	-9
 908 010b FD       		.byte	-3
 909 010c C6       		.byte	-58
 910 010d 0A       		.byte	10
 911 010e 00       		.byte	0
GAS LISTING C:\Users\Jesper\AppData\Local\Temp\ccteJwuU.s 			page 23


 912 010f 00       		.byte	0
 913 0110 00       		.byte	0
 914 0111 00       		.byte	0
 915 0112 00       		.byte	0
 916 0113 00       		.byte	0
 917 0114 00       		.byte	0
 918 0115 00       		.byte	0
 919 0116 00       		.byte	0
 920 0117 00       		.byte	0
 921 0118 00       		.byte	0
 922 0119 00       		.byte	0
 923 011a 00       		.byte	0
 924 011b 00       		.byte	0
 925 011c 00       		.byte	0
 926 011d 00       		.byte	0
 927 011e 00       		.byte	0
 928 011f 00       		.byte	0
 929 0120 00       		.byte	0
 930 0121 00       		.byte	0
 931 0122 00       		.byte	0
 932 0123 00       		.byte	0
 933 0124 4C       		.byte	76
 934 0125 F7       		.byte	-9
 935 0126 FD       		.byte	-3
 936 0127 E7       		.byte	-25
 937 0128 3F       		.byte	63
 938 0129 00       		.byte	0
 939 012a 00       		.byte	0
 940 012b 00       		.byte	0
 941 012c 00       		.byte	0
 942 012d 00       		.byte	0
 943 012e 00       		.byte	0
 944 012f 00       		.byte	0
 945 0130 00       		.byte	0
 946 0131 00       		.byte	0
 947 0132 00       		.byte	0
 948 0133 00       		.byte	0
 949 0134 00       		.byte	0
 950 0135 00       		.byte	0
 951 0136 00       		.byte	0
 952 0137 00       		.byte	0
 953 0138 00       		.byte	0
 954 0139 00       		.byte	0
 955 013a 00       		.byte	0
 956 013b 00       		.byte	0
 957 013c 00       		.byte	0
 958 013d 00       		.byte	0
 959 013e 00       		.byte	0
 960 013f 00       		.byte	0
 961 0140 80       		.byte	-128
 962 0141 FD       		.byte	-3
 963 0142 FD       		.byte	-3
 964 0143 90       		.byte	-112
 965 0144 00       		.byte	0
 966 0145 00       		.byte	0
 967 0146 00       		.byte	0
 968 0147 00       		.byte	0
GAS LISTING C:\Users\Jesper\AppData\Local\Temp\ccteJwuU.s 			page 24


 969 0148 00       		.byte	0
 970 0149 00       		.byte	0
 971 014a 00       		.byte	0
 972 014b 00       		.byte	0
 973 014c 00       		.byte	0
 974 014d 00       		.byte	0
 975 014e 00       		.byte	0
 976 014f 00       		.byte	0
 977 0150 00       		.byte	0
 978 0151 00       		.byte	0
 979 0152 00       		.byte	0
 980 0153 00       		.byte	0
 981 0154 00       		.byte	0
 982 0155 00       		.byte	0
 983 0156 00       		.byte	0
 984 0157 00       		.byte	0
 985 0158 00       		.byte	0
 986 0159 00       		.byte	0
 987 015a 00       		.byte	0
 988 015b B0       		.byte	-80
 989 015c F6       		.byte	-10
 990 015d FD       		.byte	-3
 991 015e 9F       		.byte	-97
 992 015f 0C       		.byte	12
 993 0160 00       		.byte	0
 994 0161 00       		.byte	0
 995 0162 00       		.byte	0
 996 0163 00       		.byte	0
 997 0164 00       		.byte	0
 998 0165 00       		.byte	0
 999 0166 00       		.byte	0
 1000 0167 00       		.byte	0
 1001 0168 00       		.byte	0
 1002 0169 00       		.byte	0
 1003 016a 00       		.byte	0
 1004 016b 00       		.byte	0
 1005 016c 00       		.byte	0
 1006 016d 00       		.byte	0
 1007 016e 00       		.byte	0
 1008 016f 00       		.byte	0
 1009 0170 00       		.byte	0
 1010 0171 00       		.byte	0
 1011 0172 00       		.byte	0
 1012 0173 00       		.byte	0
 1013 0174 00       		.byte	0
 1014 0175 00       		.byte	0
 1015 0176 19       		.byte	25
 1016 0177 EA       		.byte	-22
 1017 0178 FD       		.byte	-3
 1018 0179 E9       		.byte	-23
 1019 017a 23       		.byte	35
 1020 017b 00       		.byte	0
 1021 017c 00       		.byte	0
 1022 017d 00       		.byte	0
 1023 017e 00       		.byte	0
 1024 017f 00       		.byte	0
 1025 0180 00       		.byte	0
GAS LISTING C:\Users\Jesper\AppData\Local\Temp\ccteJwuU.s 			page 25


 1026 0181 00       		.byte	0
 1027 0182 00       		.byte	0
 1028 0183 00       		.byte	0
 1029 0184 00       		.byte	0
 1030 0185 00       		.byte	0
 1031 0186 00       		.byte	0
 1032 0187 00       		.byte	0
 1033 0188 00       		.byte	0
 1034 0189 00       		.byte	0
 1035 018a 00       		.byte	0
 1036 018b 00       		.byte	0
 1037 018c 00       		.byte	0
 1038 018d 00       		.byte	0
 1039 018e 00       		.byte	0
 1040 018f 00       		.byte	0
 1041 0190 00       		.byte	0
 1042 0191 00       		.byte	0
 1043 0192 C6       		.byte	-58
 1044 0193 FD       		.byte	-3
 1045 0194 FD       		.byte	-3
 1046 0195 8D       		.byte	-115
 1047 0196 00       		.byte	0
 1048 0197 00       		.byte	0
 1049 0198 00       		.byte	0
 1050 0199 00       		.byte	0
 1051 019a 00       		.byte	0
 1052 019b 00       		.byte	0
 1053 019c 00       		.byte	0
 1054 019d 00       		.byte	0
 1055 019e 00       		.byte	0
 1056 019f 00       		.byte	0
 1057 01a0 00       		.byte	0
 1058 01a1 00       		.byte	0
 1059 01a2 00       		.byte	0
 1060 01a3 00       		.byte	0
 1061 01a4 00       		.byte	0
 1062 01a5 00       		.byte	0
 1063 01a6 00       		.byte	0
 1064 01a7 00       		.byte	0
 1065 01a8 00       		.byte	0
 1066 01a9 00       		.byte	0
 1067 01aa 00       		.byte	0
 1068 01ab 00       		.byte	0
 1069 01ac 00       		.byte	0
 1070 01ad 4E       		.byte	78
 1071 01ae F8       		.byte	-8
 1072 01af FD       		.byte	-3
 1073 01b0 BD       		.byte	-67
 1074 01b1 0C       		.byte	12
 1075 01b2 00       		.byte	0
 1076 01b3 00       		.byte	0
 1077 01b4 00       		.byte	0
 1078 01b5 00       		.byte	0
 1079 01b6 00       		.byte	0
 1080 01b7 00       		.byte	0
 1081 01b8 00       		.byte	0
 1082 01b9 00       		.byte	0
GAS LISTING C:\Users\Jesper\AppData\Local\Temp\ccteJwuU.s 			page 26


 1083 01ba 00       		.byte	0
 1084 01bb 00       		.byte	0
 1085 01bc 00       		.byte	0
 1086 01bd 00       		.byte	0
 1087 01be 00       		.byte	0
 1088 01bf 00       		.byte	0
 1089 01c0 00       		.byte	0
 1090 01c1 00       		.byte	0
 1091 01c2 00       		.byte	0
 1092 01c3 00       		.byte	0
 1093 01c4 00       		.byte	0
 1094 01c5 00       		.byte	0
 1095 01c6 00       		.byte	0
 1096 01c7 00       		.byte	0
 1097 01c8 13       		.byte	19
 1098 01c9 C8       		.byte	-56
 1099 01ca FD       		.byte	-3
 1100 01cb FD       		.byte	-3
 1101 01cc 8D       		.byte	-115
 1102 01cd 00       		.byte	0
 1103 01ce 00       		.byte	0
 1104 01cf 00       		.byte	0
 1105 01d0 00       		.byte	0
 1106 01d1 00       		.byte	0
 1107 01d2 00       		.byte	0
 1108 01d3 00       		.byte	0
 1109 01d4 00       		.byte	0
 1110 01d5 00       		.byte	0
 1111 01d6 00       		.byte	0
 1112 01d7 00       		.byte	0
 1113 01d8 00       		.byte	0
 1114 01d9 00       		.byte	0
 1115 01da 00       		.byte	0
 1116 01db 00       		.byte	0
 1117 01dc 00       		.byte	0
 1118 01dd 00       		.byte	0
 1119 01de 00       		.byte	0
 1120 01df 00       		.byte	0
 1121 01e0 00       		.byte	0
 1122 01e1 00       		.byte	0
 1123 01e2 00       		.byte	0
 1124 01e3 00       		.byte	0
 1125 01e4 86       		.byte	-122
 1126 01e5 FD       		.byte	-3
 1127 01e6 FD       		.byte	-3
 1128 01e7 AD       		.byte	-83
 1129 01e8 0C       		.byte	12
 1130 01e9 00       		.byte	0
 1131 01ea 00       		.byte	0
 1132 01eb 00       		.byte	0
 1133 01ec 00       		.byte	0
 1134 01ed 00       		.byte	0
 1135 01ee 00       		.byte	0
 1136 01ef 00       		.byte	0
 1137 01f0 00       		.byte	0
 1138 01f1 00       		.byte	0
 1139 01f2 00       		.byte	0
GAS LISTING C:\Users\Jesper\AppData\Local\Temp\ccteJwuU.s 			page 27


 1140 01f3 00       		.byte	0
 1141 01f4 00       		.byte	0
 1142 01f5 00       		.byte	0
 1143 01f6 00       		.byte	0
 1144 01f7 00       		.byte	0
 1145 01f8 00       		.byte	0
 1146 01f9 00       		.byte	0
 1147 01fa 00       		.byte	0
 1148 01fb 00       		.byte	0
 1149 01fc 00       		.byte	0
 1150 01fd 00       		.byte	0
 1151 01fe 00       		.byte	0
 1152 01ff 00       		.byte	0
 1153 0200 F8       		.byte	-8
 1154 0201 FD       		.byte	-3
 1155 0202 FD       		.byte	-3
 1156 0203 19       		.byte	25
 1157 0204 00       		.byte	0
 1158 0205 00       		.byte	0
 1159 0206 00       		.byte	0
 1160 0207 00       		.byte	0
 1161 0208 00       		.byte	0
 1162 0209 00       		.byte	0
 1163 020a 00       		.byte	0
 1164 020b 00       		.byte	0
 1165 020c 00       		.byte	0
 1166 020d 00       		.byte	0
 1167 020e 00       		.byte	0
 1168 020f 00       		.byte	0
 1169 0210 00       		.byte	0
 1170 0211 00       		.byte	0
 1171 0212 00       		.byte	0
 1172 0213 00       		.byte	0
 1173 0214 00       		.byte	0
 1174 0215 00       		.byte	0
 1175 0216 00       		.byte	0
 1176 0217 00       		.byte	0
 1177 0218 00       		.byte	0
 1178 0219 00       		.byte	0
 1179 021a 00       		.byte	0
 1180 021b 00       		.byte	0
 1181 021c F8       		.byte	-8
 1182 021d FD       		.byte	-3
 1183 021e FD       		.byte	-3
 1184 021f 2B       		.byte	43
 1185 0220 14       		.byte	20
 1186 0221 14       		.byte	20
 1187 0222 14       		.byte	20
 1188 0223 14       		.byte	20
 1189 0224 05       		.byte	5
 1190 0225 00       		.byte	0
 1191 0226 05       		.byte	5
 1192 0227 14       		.byte	20
 1193 0228 14       		.byte	20
 1194 0229 25       		.byte	37
 1195 022a 96       		.byte	-106
 1196 022b 96       		.byte	-106
GAS LISTING C:\Users\Jesper\AppData\Local\Temp\ccteJwuU.s 			page 28


 1197 022c 96       		.byte	-106
 1198 022d 93       		.byte	-109
 1199 022e 0A       		.byte	10
 1200 022f 00       		.byte	0
 1201 0230 00       		.byte	0
 1202 0231 00       		.byte	0
 1203 0232 00       		.byte	0
 1204 0233 00       		.byte	0
 1205 0234 00       		.byte	0
 1206 0235 00       		.byte	0
 1207 0236 00       		.byte	0
 1208 0237 00       		.byte	0
 1209 0238 F8       		.byte	-8
 1210 0239 FD       		.byte	-3
 1211 023a FD       		.byte	-3
 1212 023b FD       		.byte	-3
 1213 023c FD       		.byte	-3
 1214 023d FD       		.byte	-3
 1215 023e FD       		.byte	-3
 1216 023f FD       		.byte	-3
 1217 0240 A8       		.byte	-88
 1218 0241 8F       		.byte	-113
 1219 0242 A6       		.byte	-90
 1220 0243 FD       		.byte	-3
 1221 0244 FD       		.byte	-3
 1222 0245 FD       		.byte	-3
 1223 0246 FD       		.byte	-3
 1224 0247 FD       		.byte	-3
 1225 0248 FD       		.byte	-3
 1226 0249 FD       		.byte	-3
 1227 024a 7B       		.byte	123
 1228 024b 00       		.byte	0
 1229 024c 00       		.byte	0
 1230 024d 00       		.byte	0
 1231 024e 00       		.byte	0
 1232 024f 00       		.byte	0
 1233 0250 00       		.byte	0
 1234 0251 00       		.byte	0
 1235 0252 00       		.byte	0
 1236 0253 00       		.byte	0
 1237 0254 AE       		.byte	-82
 1238 0255 FD       		.byte	-3
 1239 0256 FD       		.byte	-3
 1240 0257 FD       		.byte	-3
 1241 0258 FD       		.byte	-3
 1242 0259 FD       		.byte	-3
 1243 025a FD       		.byte	-3
 1244 025b FD       		.byte	-3
 1245 025c FD       		.byte	-3
 1246 025d FD       		.byte	-3
 1247 025e FD       		.byte	-3
 1248 025f FD       		.byte	-3
 1249 0260 F9       		.byte	-7
 1250 0261 F7       		.byte	-9
 1251 0262 F7       		.byte	-9
 1252 0263 A9       		.byte	-87
 1253 0264 75       		.byte	117
GAS LISTING C:\Users\Jesper\AppData\Local\Temp\ccteJwuU.s 			page 29


 1254 0265 75       		.byte	117
 1255 0266 39       		.byte	57
 1256 0267 00       		.byte	0
 1257 0268 00       		.byte	0
 1258 0269 00       		.byte	0
 1259 026a 00       		.byte	0
 1260 026b 00       		.byte	0
 1261 026c 00       		.byte	0
 1262 026d 00       		.byte	0
 1263 026e 00       		.byte	0
 1264 026f 00       		.byte	0
 1265 0270 00       		.byte	0
 1266 0271 76       		.byte	118
 1267 0272 7B       		.byte	123
 1268 0273 7B       		.byte	123
 1269 0274 7B       		.byte	123
 1270 0275 A6       		.byte	-90
 1271 0276 FD       		.byte	-3
 1272 0277 FD       		.byte	-3
 1273 0278 FD       		.byte	-3
 1274 0279 9B       		.byte	-101
 1275 027a 7B       		.byte	123
 1276 027b 7B       		.byte	123
 1277 027c 29       		.byte	41
 1278 027d 00       		.byte	0
 1279 027e 00       		.byte	0
 1280 027f 00       		.byte	0
 1281 0280 00       		.byte	0
 1282 0281 00       		.byte	0
 1283 0282 00       		.byte	0
 1284 0283 00       		.byte	0
 1285 0284 00       		.byte	0
 1286 0285 00       		.byte	0
 1287 0286 00       		.byte	0
 1288 0287 00       		.byte	0
 1289 0288 00       		.byte	0
 1290 0289 00       		.byte	0
 1291 028a 00       		.byte	0
 1292 028b 00       		.byte	0
 1293 028c 00       		.byte	0
 1294 028d 00       		.byte	0
 1295 028e 00       		.byte	0
 1296 028f 00       		.byte	0
 1297 0290 00       		.byte	0
 1298 0291 00       		.byte	0
 1299 0292 00       		.byte	0
 1300 0293 00       		.byte	0
 1301 0294 00       		.byte	0
 1302 0295 00       		.byte	0
 1303 0296 00       		.byte	0
 1304 0297 00       		.byte	0
 1305 0298 00       		.byte	0
 1306 0299 00       		.byte	0
 1307 029a 00       		.byte	0
 1308 029b 00       		.byte	0
 1309 029c 00       		.byte	0
 1310 029d 00       		.byte	0
GAS LISTING C:\Users\Jesper\AppData\Local\Temp\ccteJwuU.s 			page 30


 1311 029e 00       		.byte	0
 1312 029f 00       		.byte	0
 1313 02a0 00       		.byte	0
 1314 02a1 00       		.byte	0
 1315 02a2 00       		.byte	0
 1316 02a3 00       		.byte	0
 1317 02a4 00       		.byte	0
 1318 02a5 00       		.byte	0
 1319 02a6 00       		.byte	0
 1320 02a7 00       		.byte	0
 1321 02a8 00       		.byte	0
 1322 02a9 00       		.byte	0
 1323 02aa 00       		.byte	0
 1324 02ab 00       		.byte	0
 1325 02ac 00       		.byte	0
 1326 02ad 00       		.byte	0
 1327 02ae 00       		.byte	0
 1328 02af 00       		.byte	0
 1329 02b0 00       		.byte	0
 1330 02b1 00       		.byte	0
 1331 02b2 00       		.byte	0
 1332 02b3 00       		.byte	0
 1333 02b4 00       		.byte	0
 1334 02b5 00       		.byte	0
 1335 02b6 00       		.byte	0
 1336 02b7 00       		.byte	0
 1337 02b8 00       		.byte	0
 1338 02b9 00       		.byte	0
 1339 02ba 00       		.byte	0
 1340 02bb 00       		.byte	0
 1341 02bc 00       		.byte	0
 1342 02bd 00       		.byte	0
 1343 02be 00       		.byte	0
 1344 02bf 00       		.byte	0
 1345 02c0 00       		.byte	0
 1346 02c1 00       		.byte	0
 1347 02c2 00       		.byte	0
 1348 02c3 00       		.byte	0
 1349 02c4 00       		.byte	0
 1350 02c5 00       		.byte	0
 1351 02c6 00       		.byte	0
 1352 02c7 00       		.byte	0
 1353 02c8 00       		.byte	0
 1354 02c9 00       		.byte	0
 1355 02ca 00       		.byte	0
 1356 02cb 00       		.byte	0
 1357 02cc 00       		.byte	0
 1358 02cd 00       		.byte	0
 1359 02ce 00       		.byte	0
 1360 02cf 00       		.byte	0
 1361 02d0 00       		.byte	0
 1362 02d1 00       		.byte	0
 1363 02d2 00       		.byte	0
 1364 02d3 00       		.byte	0
 1365 02d4 00       		.byte	0
 1366 02d5 00       		.byte	0
 1367 02d6 00       		.byte	0
GAS LISTING C:\Users\Jesper\AppData\Local\Temp\ccteJwuU.s 			page 31


 1368 02d7 00       		.byte	0
 1369 02d8 00       		.byte	0
 1370 02d9 00       		.byte	0
 1371 02da 00       		.byte	0
 1372 02db 00       		.byte	0
 1373 02dc 00       		.byte	0
 1374 02dd 00       		.byte	0
 1375 02de 00       		.byte	0
 1376 02df 00       		.byte	0
 1377 02e0 00       		.byte	0
 1378 02e1 00       		.byte	0
 1379 02e2 00       		.byte	0
 1380 02e3 00       		.byte	0
 1381 02e4 00       		.byte	0
 1382 02e5 00       		.byte	0
 1383 02e6 00       		.byte	0
 1384 02e7 00       		.byte	0
 1385 02e8 00       		.byte	0
 1386 02e9 00       		.byte	0
 1387 02ea 00       		.byte	0
 1388 02eb 00       		.byte	0
 1389 02ec 00       		.byte	0
 1390 02ed 00       		.byte	0
 1391 02ee 00       		.byte	0
 1392 02ef 00       		.byte	0
 1393 02f0 00       		.byte	0
 1394 02f1 00       		.byte	0
 1395 02f2 00       		.byte	0
 1396 02f3 00       		.byte	0
 1397 02f4 00       		.byte	0
 1398 02f5 00       		.byte	0
 1399 02f6 00       		.byte	0
 1400 02f7 00       		.byte	0
 1401 02f8 00       		.byte	0
 1402 02f9 00       		.byte	0
 1403 02fa 00       		.byte	0
 1404 02fb 00       		.byte	0
 1405 02fc 00       		.byte	0
 1406 02fd 00       		.byte	0
 1407 02fe 00       		.byte	0
 1408 02ff 00       		.byte	0
 1409 0300 00       		.byte	0
 1410 0301 00       		.byte	0
 1411 0302 00       		.byte	0
 1412 0303 00       		.byte	0
 1413 0304 00       		.byte	0
 1414 0305 00       		.byte	0
 1415 0306 00       		.byte	0
 1416 0307 00       		.byte	0
 1417 0308 00       		.byte	0
 1418 0309 00       		.byte	0
 1419 030a 00       		.byte	0
 1420 030b 00       		.byte	0
 1421 030c 00       		.byte	0
 1422 030d 00       		.byte	0
 1423 030e 00       		.byte	0
 1424 030f 00       		.byte	0
GAS LISTING C:\Users\Jesper\AppData\Local\Temp\ccteJwuU.s 			page 32


 1425              		.section	.rodata.mdl_data,"a"
 1426              		.align	2
 1429              	mdl_data:
 1430 0000 4D       		.byte	77
 1431 0001 41       		.byte	65
 1432 0002 49       		.byte	73
 1433 0003 58       		.byte	88
 1434 0004 00       		.byte	0
 1435 0005 01       		.byte	1
 1436 0006 01       		.byte	1
 1437 0007 00       		.byte	0
 1438 0008 01       		.byte	1
 1439 0009 00       		.byte	0
 1440 000a 06       		.byte	6
 1441 000b 00       		.byte	0
 1442 000c B8       		.byte	-72
 1443 000d 05       		.byte	5
 1444 000e 00       		.byte	0
 1445 000f 00       		.byte	0
 1446 0010 00       		.byte	0
 1447 0011 00       		.byte	0
 1448 0012 00       		.byte	0
 1449 0013 00       		.byte	0
 1450 0014 03       		.byte	3
 1451 0015 00       		.byte	0
 1452 0016 1C       		.byte	28
 1453 0017 00       		.byte	0
 1454 0018 1C       		.byte	28
 1455 0019 00       		.byte	0
 1456 001a 01       		.byte	1
 1457 001b 00       		.byte	0
 1458 001c 01       		.byte	1
 1459 001d 00       		.byte	0
 1460 001e 01       		.byte	1
 1461 001f 00       		.byte	0
 1462 0020 01       		.byte	1
 1463 0021 00       		.byte	0
 1464 0022 0A       		.byte	10
 1465 0023 00       		.byte	0
 1466 0024 00       		.byte	0
 1467 0025 00       		.byte	0
 1468 0026 00       		.byte	0
 1469 0027 00       		.byte	0
 1470 0028 00       		.byte	0
 1471 0029 00       		.byte	0
 1472 002a 00       		.byte	0
 1473 002b 00       		.byte	0
 1474 002c 00       		.byte	0
 1475 002d 00       		.byte	0
 1476 002e 00       		.byte	0
 1477 002f 00       		.byte	0
 1478 0030 00       		.byte	0
 1479 0031 00       		.byte	0
 1480 0032 00       		.byte	0
 1481 0033 00       		.byte	0
 1482 0034 00       		.byte	0
 1483 0035 00       		.byte	0
GAS LISTING C:\Users\Jesper\AppData\Local\Temp\ccteJwuU.s 			page 33


 1484 0036 00       		.byte	0
 1485 0037 00       		.byte	0
 1486 0038 00       		.byte	0
 1487 0039 00       		.byte	0
 1488 003a 00       		.byte	0
 1489 003b 00       		.byte	0
 1490 003c 00       		.byte	0
 1491 003d 00       		.byte	0
 1492 003e 00       		.byte	0
 1493 003f 00       		.byte	0
 1494 0040 00       		.byte	0
 1495 0041 00       		.byte	0
 1496 0042 00       		.byte	0
 1497 0043 00       		.byte	0
 1498 0044 98       		.byte	-104
 1499 0045 00       		.byte	0
 1500 0046 00       		.byte	0
 1501 0047 00       		.byte	0
 1502 0048 00       		.byte	0
 1503 0049 00       		.byte	0
 1504 004a 00       		.byte	0
 1505 004b 00       		.byte	0
 1506 004c 10       		.byte	16
 1507 004d 03       		.byte	3
 1508 004e 00       		.byte	0
 1509 004f 00       		.byte	0
 1510 0050 03       		.byte	3
 1511 0051 00       		.byte	0
 1512 0052 1C       		.byte	28
 1513 0053 00       		.byte	0
 1514 0054 1C       		.byte	28
 1515 0055 00       		.byte	0
 1516 0056 01       		.byte	1
 1517 0057 00       		.byte	0
 1518 0058 03       		.byte	3
 1519 0059 00       		.byte	0
 1520 005a 0D       		.byte	13
 1521 005b 00       		.byte	0
 1522 005c 0D       		.byte	13
 1523 005d 00       		.byte	0
 1524 005e 04       		.byte	4
 1525 005f 00       		.byte	0
 1526 0060 81       		.byte	-127
 1527 0061 80       		.byte	-128
 1528 0062 80       		.byte	-128
 1529 0063 3B       		.byte	59
 1530 0064 80       		.byte	-128
 1531 0065 FF       		.byte	-1
 1532 0066 FF       		.byte	-1
 1533 0067 FF       		.byte	-1
 1534 0068 31       		.byte	49
 1535 0069 E9       		.byte	-23
 1536 006a 84       		.byte	-124
 1537 006b 3C       		.byte	60
 1538 006c 80       		.byte	-128
 1539 006d FF       		.byte	-1
 1540 006e FF       		.byte	-1
GAS LISTING C:\Users\Jesper\AppData\Local\Temp\ccteJwuU.s 			page 34


 1541 006f FF       		.byte	-1
 1542 0070 03       		.byte	3
 1543 0071 03       		.byte	3
 1544 0072 02       		.byte	2
 1545 0073 02       		.byte	2
 1546 0074 01       		.byte	1
 1547 0075 01       		.byte	1
 1548 0076 01       		.byte	1
 1549 0077 00       		.byte	0
 1550 0078 00       		.byte	0
 1551 0079 00       		.byte	0
 1552 007a 00       		.byte	0
 1553 007b 00       		.byte	0
 1554 007c 00       		.byte	0
 1555 007d 00       		.byte	0
 1556 007e 00       		.byte	0
 1557 007f 00       		.byte	0
 1558 0080 00       		.byte	0
 1559 0081 00       		.byte	0
 1560 0082 00       		.byte	0
 1561 0083 00       		.byte	0
 1562 0084 50       		.byte	80
 1563 0085 00       		.byte	0
 1564 0086 00       		.byte	0
 1565 0087 00       		.byte	0
 1566 0088 60       		.byte	96
 1567 0089 00       		.byte	0
 1568 008a 00       		.byte	0
 1569 008b 00       		.byte	0
 1570 008c 88       		.byte	-120
 1571 008d 00       		.byte	0
 1572 008e 00       		.byte	0
 1573 008f 00       		.byte	0
 1574 0090 7D       		.byte	125
 1575 0091 77       		.byte	119
 1576 0092 4A       		.byte	74
 1577 0093 3C       		.byte	60
 1578 0094 85       		.byte	-123
 1579 0095 AD       		.byte	-83
 1580 0096 87       		.byte	-121
 1581 0097 3C       		.byte	60
 1582 0098 26       		.byte	38
 1583 0099 92       		.byte	-110
 1584 009a C5       		.byte	-59
 1585 009b 3B       		.byte	59
 1586 009c B9       		.byte	-71
 1587 009d C9       		.byte	-55
 1588 009e 48       		.byte	72
 1589 009f 3C       		.byte	60
 1590 00a0 2F       		.byte	47
 1591 00a1 5E       		.byte	94
 1592 00a2 5B       		.byte	91
 1593 00a3 46       		.byte	70
 1594 00a4 14       		.byte	20
 1595 00a5 C0       		.byte	-64
 1596 00a6 B0       		.byte	-80
 1597 00a7 81       		.byte	-127
GAS LISTING C:\Users\Jesper\AppData\Local\Temp\ccteJwuU.s 			page 35


 1598 00a8 C8       		.byte	-56
 1599 00a9 32       		.byte	50
 1600 00aa 0A       		.byte	10
 1601 00ab D8       		.byte	-40
 1602 00ac 6F       		.byte	111
 1603 00ad 09       		.byte	9
 1604 00ae 81       		.byte	-127
 1605 00af 27       		.byte	39
 1606 00b0 F6       		.byte	-10
 1607 00b1 D6       		.byte	-42
 1608 00b2 7F       		.byte	127
 1609 00b3 79       		.byte	121
 1610 00b4 50       		.byte	80
 1611 00b5 F9       		.byte	-7
 1612 00b6 16       		.byte	22
 1613 00b7 2B       		.byte	43
 1614 00b8 2B       		.byte	43
 1615 00b9 5E       		.byte	94
 1616 00ba 60       		.byte	96
 1617 00bb F3       		.byte	-13
 1618 00bc 85       		.byte	-123
 1619 00bd 99       		.byte	-103
 1620 00be 7A       		.byte	122
 1621 00bf 0A       		.byte	10
 1622 00c0 81       		.byte	-127
 1623 00c1 67       		.byte	103
 1624 00c2 65       		.byte	101
 1625 00c3 19       		.byte	25
 1626 00c4 00       		.byte	0
 1627 00c5 00       		.byte	0
 1628 00c6 00       		.byte	0
 1629 00c7 00       		.byte	0
 1630 00c8 94       		.byte	-108
 1631 00c9 FB       		.byte	-5
 1632 00ca FF       		.byte	-1
 1633 00cb FF       		.byte	-1
 1634 00cc 94       		.byte	-108
 1635 00cd FC       		.byte	-4
 1636 00ce FF       		.byte	-1
 1637 00cf FF       		.byte	-1
 1638 00d0 94       		.byte	-108
 1639 00d1 41       		.byte	65
 1640 00d2 01       		.byte	1
 1641 00d3 00       		.byte	0
 1642 00d4 AB       		.byte	-85
 1643 00d5 FA       		.byte	-6
 1644 00d6 FF       		.byte	-1
 1645 00d7 FF       		.byte	-1
 1646 00d8 00       		.byte	0
 1647 00d9 00       		.byte	0
 1648 00da 00       		.byte	0
 1649 00db 00       		.byte	0
 1650 00dc B0       		.byte	-80
 1651 00dd 01       		.byte	1
 1652 00de 00       		.byte	0
 1653 00df 00       		.byte	0
 1654 00e0 10       		.byte	16
GAS LISTING C:\Users\Jesper\AppData\Local\Temp\ccteJwuU.s 			page 36


 1655 00e1 03       		.byte	3
 1656 00e2 00       		.byte	0
 1657 00e3 00       		.byte	0
 1658 00e4 00       		.byte	0
 1659 00e5 00       		.byte	0
 1660 00e6 00       		.byte	0
 1661 00e7 00       		.byte	0
 1662 00e8 03       		.byte	3
 1663 00e9 00       		.byte	0
 1664 00ea 0D       		.byte	13
 1665 00eb 00       		.byte	0
 1666 00ec 0D       		.byte	13
 1667 00ed 00       		.byte	0
 1668 00ee 04       		.byte	4
 1669 00ef 00       		.byte	0
 1670 00f0 03       		.byte	3
 1671 00f1 00       		.byte	0
 1672 00f2 06       		.byte	6
 1673 00f3 00       		.byte	0
 1674 00f4 06       		.byte	6
 1675 00f5 00       		.byte	0
 1676 00f6 08       		.byte	8
 1677 00f7 00       		.byte	0
 1678 00f8 31       		.byte	49
 1679 00f9 E9       		.byte	-23
 1680 00fa 84       		.byte	-124
 1681 00fb 3C       		.byte	60
 1682 00fc 80       		.byte	-128
 1683 00fd FF       		.byte	-1
 1684 00fe FF       		.byte	-1
 1685 00ff FF       		.byte	-1
 1686 0100 A0       		.byte	-96
 1687 0101 2A       		.byte	42
 1688 0102 84       		.byte	-124
 1689 0103 3C       		.byte	60
 1690 0104 80       		.byte	-128
 1691 0105 FF       		.byte	-1
 1692 0106 FF       		.byte	-1
 1693 0107 FF       		.byte	-1
 1694 0108 03       		.byte	3
 1695 0109 03       		.byte	3
 1696 010a 02       		.byte	2
 1697 010b 02       		.byte	2
 1698 010c 01       		.byte	1
 1699 010d 01       		.byte	1
 1700 010e 01       		.byte	1
 1701 010f 00       		.byte	0
 1702 0110 00       		.byte	0
 1703 0111 00       		.byte	0
 1704 0112 00       		.byte	0
 1705 0113 00       		.byte	0
 1706 0114 00       		.byte	0
 1707 0115 00       		.byte	0
 1708 0116 00       		.byte	0
 1709 0117 00       		.byte	0
 1710 0118 00       		.byte	0
 1711 0119 00       		.byte	0
GAS LISTING C:\Users\Jesper\AppData\Local\Temp\ccteJwuU.s 			page 37


 1712 011a 00       		.byte	0
 1713 011b 00       		.byte	0
 1714 011c 50       		.byte	80
 1715 011d 00       		.byte	0
 1716 011e 00       		.byte	0
 1717 011f 00       		.byte	0
 1718 0120 70       		.byte	112
 1719 0121 00       		.byte	0
 1720 0122 00       		.byte	0
 1721 0123 00       		.byte	0
 1722 0124 90       		.byte	-112
 1723 0125 01       		.byte	1
 1724 0126 00       		.byte	0
 1725 0127 00       		.byte	0
 1726 0128 B6       		.byte	-74
 1727 0129 E0       		.byte	-32
 1728 012a 8A       		.byte	-118
 1729 012b 3B       		.byte	59
 1730 012c E0       		.byte	-32
 1731 012d A8       		.byte	-88
 1732 012e 36       		.byte	54
 1733 012f 3B       		.byte	59
 1734 0130 50       		.byte	80
 1735 0131 3D       		.byte	61
 1736 0132 C9       		.byte	-55
 1737 0133 3B       		.byte	59
 1738 0134 3E       		.byte	62
 1739 0135 4F       		.byte	79
 1740 0136 91       		.byte	-111
 1741 0137 3B       		.byte	59
 1742 0138 88       		.byte	-120
 1743 0139 9E       		.byte	-98
 1744 013a 57       		.byte	87
 1745 013b 3B       		.byte	59
 1746 013c 22       		.byte	34
 1747 013d A8       		.byte	-88
 1748 013e 6C       		.byte	108
 1749 013f 3B       		.byte	59
 1750 0140 1F       		.byte	31
 1751 0141 25       		.byte	37
 1752 0142 9F       		.byte	-97
 1753 0143 3B       		.byte	59
 1754 0144 F2       		.byte	-14
 1755 0145 40       		.byte	64
 1756 0146 71       		.byte	113
 1757 0147 3B       		.byte	59
 1758 0148 F1       		.byte	-15
 1759 0149 0D       		.byte	13
 1760 014a 28       		.byte	40
 1761 014b 3E       		.byte	62
 1762 014c 71       		.byte	113
 1763 014d 3E       		.byte	62
 1764 014e A8       		.byte	-88
 1765 014f DA       		.byte	-38
 1766 0150 EF       		.byte	-17
 1767 0151 AD       		.byte	-83
 1768 0152 3D       		.byte	61
GAS LISTING C:\Users\Jesper\AppData\Local\Temp\ccteJwuU.s 			page 38


 1769 0153 2C       		.byte	44
 1770 0154 81       		.byte	-127
 1771 0155 B5       		.byte	-75
 1772 0156 CC       		.byte	-52
 1773 0157 0F       		.byte	15
 1774 0158 F2       		.byte	-14
 1775 0159 DF       		.byte	-33
 1776 015a DC       		.byte	-36
 1777 015b DC       		.byte	-36
 1778 015c BF       		.byte	-65
 1779 015d 9F       		.byte	-97
 1780 015e D1       		.byte	-47
 1781 015f E9       		.byte	-23
 1782 0160 EA       		.byte	-22
 1783 0161 E9       		.byte	-23
 1784 0162 D0       		.byte	-48
 1785 0163 C3       		.byte	-61
 1786 0164 C1       		.byte	-63
 1787 0165 99       		.byte	-103
 1788 0166 F2       		.byte	-14
 1789 0167 53       		.byte	83
 1790 0168 48       		.byte	72
 1791 0169 E8       		.byte	-24
 1792 016a 1B       		.byte	27
 1793 016b 34       		.byte	52
 1794 016c DD       		.byte	-35
 1795 016d C3       		.byte	-61
 1796 016e BA       		.byte	-70
 1797 016f AF       		.byte	-81
 1798 0170 81       		.byte	-127
 1799 0171 DB       		.byte	-37
 1800 0172 AC       		.byte	-84
 1801 0173 B1       		.byte	-79
 1802 0174 EB       		.byte	-21
 1803 0175 2B       		.byte	43
 1804 0176 13       		.byte	19
 1805 0177 09       		.byte	9
 1806 0178 18       		.byte	24
 1807 0179 1C       		.byte	28
 1808 017a 20       		.byte	32
 1809 017b 2F       		.byte	47
 1810 017c 34       		.byte	52
 1811 017d 20       		.byte	32
 1812 017e 56       		.byte	86
 1813 017f 46       		.byte	70
 1814 0180 3D       		.byte	61
 1815 0181 12       		.byte	18
 1816 0182 D6       		.byte	-42
 1817 0183 DB       		.byte	-37
 1818 0184 D4       		.byte	-44
 1819 0185 FB       		.byte	-5
 1820 0186 00       		.byte	0
 1821 0187 3E       		.byte	62
 1822 0188 5B       		.byte	91
 1823 0189 3F       		.byte	63
 1824 018a 48       		.byte	72
 1825 018b 5D       		.byte	93
GAS LISTING C:\Users\Jesper\AppData\Local\Temp\ccteJwuU.s 			page 39


 1826 018c 33       		.byte	51
 1827 018d 55       		.byte	85
 1828 018e 3F       		.byte	63
 1829 018f 10       		.byte	16
 1830 0190 81       		.byte	-127
 1831 0191 C0       		.byte	-64
 1832 0192 D3       		.byte	-45
 1833 0193 D6       		.byte	-42
 1834 0194 93       		.byte	-109
 1835 0195 BF       		.byte	-65
 1836 0196 D5       		.byte	-43
 1837 0197 D7       		.byte	-41
 1838 0198 CA       		.byte	-54
 1839 0199 C9       		.byte	-55
 1840 019a F2       		.byte	-14
 1841 019b 1B       		.byte	27
 1842 019c 02       		.byte	2
 1843 019d 24       		.byte	36
 1844 019e F8       		.byte	-8
 1845 019f 1B       		.byte	27
 1846 01a0 F9       		.byte	-7
 1847 01a1 F7       		.byte	-9
 1848 01a2 DF       		.byte	-33
 1849 01a3 F8       		.byte	-8
 1850 01a4 07       		.byte	7
 1851 01a5 FF       		.byte	-1
 1852 01a6 50       		.byte	80
 1853 01a7 1C       		.byte	28
 1854 01a8 E6       		.byte	-26
 1855 01a9 B8       		.byte	-72
 1856 01aa C7       		.byte	-57
 1857 01ab 1A       		.byte	26
 1858 01ac D2       		.byte	-46
 1859 01ad CE       		.byte	-50
 1860 01ae 0C       		.byte	12
 1861 01af 09       		.byte	9
 1862 01b0 11       		.byte	17
 1863 01b1 E1       		.byte	-31
 1864 01b2 F6       		.byte	-10
 1865 01b3 0E       		.byte	14
 1866 01b4 1F       		.byte	31
 1867 01b5 2F       		.byte	47
 1868 01b6 20       		.byte	32
 1869 01b7 FA       		.byte	-6
 1870 01b8 2E       		.byte	46
 1871 01b9 2B       		.byte	43
 1872 01ba C7       		.byte	-57
 1873 01bb F8       		.byte	-8
 1874 01bc 0E       		.byte	14
 1875 01bd 49       		.byte	73
 1876 01be 47       		.byte	71
 1877 01bf 19       		.byte	25
 1878 01c0 2B       		.byte	43
 1879 01c1 11       		.byte	17
 1880 01c2 F7       		.byte	-9
 1881 01c3 37       		.byte	55
 1882 01c4 06       		.byte	6
GAS LISTING C:\Users\Jesper\AppData\Local\Temp\ccteJwuU.s 			page 40


 1883 01c5 E9       		.byte	-23
 1884 01c6 B9       		.byte	-71
 1885 01c7 B9       		.byte	-71
 1886 01c8 E7       		.byte	-25
 1887 01c9 7F       		.byte	127
 1888 01ca 42       		.byte	66
 1889 01cb 14       		.byte	20
 1890 01cc A1       		.byte	-95
 1891 01cd F4       		.byte	-12
 1892 01ce 29       		.byte	41
 1893 01cf D1       		.byte	-47
 1894 01d0 D5       		.byte	-43
 1895 01d1 07       		.byte	7
 1896 01d2 F9       		.byte	-7
 1897 01d3 FC       		.byte	-4
 1898 01d4 0C       		.byte	12
 1899 01d5 1B       		.byte	27
 1900 01d6 2F       		.byte	47
 1901 01d7 2F       		.byte	47
 1902 01d8 25       		.byte	37
 1903 01d9 1E       		.byte	30
 1904 01da 07       		.byte	7
 1905 01db 02       		.byte	2
 1906 01dc EB       		.byte	-21
 1907 01dd DD       		.byte	-35
 1908 01de 08       		.byte	8
 1909 01df A8       		.byte	-88
 1910 01e0 B4       		.byte	-76
 1911 01e1 2B       		.byte	43
 1912 01e2 1D       		.byte	29
 1913 01e3 E4       		.byte	-28
 1914 01e4 16       		.byte	22
 1915 01e5 31       		.byte	49
 1916 01e6 16       		.byte	22
 1917 01e7 1F       		.byte	31
 1918 01e8 F7       		.byte	-9
 1919 01e9 5C       		.byte	92
 1920 01ea 17       		.byte	23
 1921 01eb E0       		.byte	-32
 1922 01ec 0A       		.byte	10
 1923 01ed 15       		.byte	21
 1924 01ee 08       		.byte	8
 1925 01ef 25       		.byte	37
 1926 01f0 A4       		.byte	-92
 1927 01f1 D9       		.byte	-39
 1928 01f2 1A       		.byte	26
 1929 01f3 19       		.byte	25
 1930 01f4 F9       		.byte	-7
 1931 01f5 F7       		.byte	-9
 1932 01f6 F9       		.byte	-7
 1933 01f7 8D       		.byte	-115
 1934 01f8 A9       		.byte	-87
 1935 01f9 CB       		.byte	-53
 1936 01fa 81       		.byte	-127
 1937 01fb C0       		.byte	-64
 1938 01fc EC       		.byte	-20
 1939 01fd 18       		.byte	24
GAS LISTING C:\Users\Jesper\AppData\Local\Temp\ccteJwuU.s 			page 41


 1940 01fe 51       		.byte	81
 1941 01ff C4       		.byte	-60
 1942 0200 0C       		.byte	12
 1943 0201 40       		.byte	64
 1944 0202 0C       		.byte	12
 1945 0203 65       		.byte	101
 1946 0204 24       		.byte	36
 1947 0205 CD       		.byte	-51
 1948 0206 CD       		.byte	-51
 1949 0207 CD       		.byte	-51
 1950 0208 87       		.byte	-121
 1951 0209 81       		.byte	-127
 1952 020a CD       		.byte	-51
 1953 020b C2       		.byte	-62
 1954 020c 9F       		.byte	-97
 1955 020d E4       		.byte	-28
 1956 020e 75       		.byte	117
 1957 020f 52       		.byte	82
 1958 0210 F8       		.byte	-8
 1959 0211 08       		.byte	8
 1960 0212 08       		.byte	8
 1961 0213 0C       		.byte	12
 1962 0214 8E       		.byte	-114
 1963 0215 8A       		.byte	-118
 1964 0216 90       		.byte	-112
 1965 0217 3A       		.byte	58
 1966 0218 1C       		.byte	28
 1967 0219 03       		.byte	3
 1968 021a 77       		.byte	119
 1969 021b 3B       		.byte	59
 1970 021c F1       		.byte	-15
 1971 021d 45       		.byte	69
 1972 021e 4B       		.byte	75
 1973 021f 06       		.byte	6
 1974 0220 48       		.byte	72
 1975 0221 41       		.byte	65
 1976 0222 10       		.byte	16
 1977 0223 1A       		.byte	26
 1978 0224 05       		.byte	5
 1979 0225 FE       		.byte	-2
 1980 0226 00       		.byte	0
 1981 0227 FF       		.byte	-1
 1982 0228 EA       		.byte	-22
 1983 0229 AC       		.byte	-84
 1984 022a 81       		.byte	-127
 1985 022b AD       		.byte	-83
 1986 022c DA       		.byte	-38
 1987 022d B6       		.byte	-74
 1988 022e CB       		.byte	-53
 1989 022f 13       		.byte	19
 1990 0230 EF       		.byte	-17
 1991 0231 EA       		.byte	-22
 1992 0232 D5       		.byte	-43
 1993 0233 C8       		.byte	-56
 1994 0234 B3       		.byte	-77
 1995 0235 0F       		.byte	15
 1996 0236 FD       		.byte	-3
GAS LISTING C:\Users\Jesper\AppData\Local\Temp\ccteJwuU.s 			page 42


 1997 0237 F4       		.byte	-12
 1998 0238 FA       		.byte	-6
 1999 0239 FE       		.byte	-2
 2000 023a 0D       		.byte	13
 2001 023b 04       		.byte	4
 2002 023c 4B       		.byte	75
 2003 023d 4C       		.byte	76
 2004 023e 1C       		.byte	28
 2005 023f 4B       		.byte	75
 2006 0240 44       		.byte	68
 2007 0241 09       		.byte	9
 2008 0242 38       		.byte	56
 2009 0243 33       		.byte	51
 2010 0244 B0       		.byte	-80
 2011 0245 D2       		.byte	-46
 2012 0246 17       		.byte	23
 2013 0247 8D       		.byte	-115
 2014 0248 AF       		.byte	-81
 2015 0249 E6       		.byte	-26
 2016 024a DA       		.byte	-38
 2017 024b CB       		.byte	-53
 2018 024c DD       		.byte	-35
 2019 024d 2E       		.byte	46
 2020 024e 0F       		.byte	15
 2021 024f 04       		.byte	4
 2022 0250 3C       		.byte	60
 2023 0251 7F       		.byte	127
 2024 0252 3D       		.byte	61
 2025 0253 24       		.byte	36
 2026 0254 53       		.byte	83
 2027 0255 32       		.byte	50
 2028 0256 B0       		.byte	-80
 2029 0257 C7       		.byte	-57
 2030 0258 E1       		.byte	-31
 2031 0259 F1       		.byte	-15
 2032 025a 2D       		.byte	45
 2033 025b 13       		.byte	19
 2034 025c E7       		.byte	-25
 2035 025d 4D       		.byte	77
 2036 025e 24       		.byte	36
 2037 025f A1       		.byte	-95
 2038 0260 D8       		.byte	-40
 2039 0261 F1       		.byte	-15
 2040 0262 B1       		.byte	-79
 2041 0263 83       		.byte	-125
 2042 0264 D0       		.byte	-48
 2043 0265 C5       		.byte	-59
 2044 0266 C0       		.byte	-64
 2045 0267 E2       		.byte	-30
 2046 0268 24       		.byte	36
 2047 0269 1F       		.byte	31
 2048 026a FF       		.byte	-1
 2049 026b FF       		.byte	-1
 2050 026c DE       		.byte	-34
 2051 026d D1       		.byte	-47
 2052 026e 00       		.byte	0
 2053 026f 00       		.byte	0
GAS LISTING C:\Users\Jesper\AppData\Local\Temp\ccteJwuU.s 			page 43


 2054 0270 57       		.byte	87
 2055 0271 C8       		.byte	-56
 2056 0272 FE       		.byte	-2
 2057 0273 FF       		.byte	-1
 2058 0274 53       		.byte	83
 2059 0275 CC       		.byte	-52
 2060 0276 00       		.byte	0
 2061 0277 00       		.byte	0
 2062 0278 F3       		.byte	-13
 2063 0279 76       		.byte	118
 2064 027a FF       		.byte	-1
 2065 027b FF       		.byte	-1
 2066 027c 99       		.byte	-103
 2067 027d FC       		.byte	-4
 2068 027e FF       		.byte	-1
 2069 027f FF       		.byte	-1
 2070 0280 A0       		.byte	-96
 2071 0281 12       		.byte	18
 2072 0282 00       		.byte	0
 2073 0283 00       		.byte	0
 2074 0284 5E       		.byte	94
 2075 0285 1B       		.byte	27
 2076 0286 FF       		.byte	-1
 2077 0287 FF       		.byte	-1
 2078 0288 00       		.byte	0
 2079 0289 00       		.byte	0
 2080 028a 00       		.byte	0
 2081 028b 00       		.byte	0
 2082 028c 50       		.byte	80
 2083 028d 05       		.byte	5
 2084 028e 00       		.byte	0
 2085 028f 00       		.byte	0
 2086 0290 00       		.byte	0
 2087 0291 00       		.byte	0
 2088 0292 00       		.byte	0
 2089 0293 00       		.byte	0
 2090 0294 78       		.byte	120
 2091 0295 05       		.byte	5
 2092 0296 00       		.byte	0
 2093 0297 00       		.byte	0
 2094 0298 03       		.byte	3
 2095 0299 00       		.byte	0
 2096 029a 06       		.byte	6
 2097 029b 00       		.byte	0
 2098 029c 06       		.byte	6
 2099 029d 00       		.byte	0
 2100 029e 08       		.byte	8
 2101 029f 00       		.byte	0
 2102 02a0 03       		.byte	3
 2103 02a1 00       		.byte	0
 2104 02a2 02       		.byte	2
 2105 02a3 00       		.byte	0
 2106 02a4 02       		.byte	2
 2107 02a5 00       		.byte	0
 2108 02a6 10       		.byte	16
 2109 02a7 00       		.byte	0
 2110 02a8 A0       		.byte	-96
GAS LISTING C:\Users\Jesper\AppData\Local\Temp\ccteJwuU.s 			page 44


 2111 02a9 2A       		.byte	42
 2112 02aa 84       		.byte	-124
 2113 02ab 3C       		.byte	60
 2114 02ac 80       		.byte	-128
 2115 02ad FF       		.byte	-1
 2116 02ae FF       		.byte	-1
 2117 02af FF       		.byte	-1
 2118 02b0 05       		.byte	5
 2119 02b1 09       		.byte	9
 2120 02b2 68       		.byte	104
 2121 02b3 3D       		.byte	61
 2122 02b4 80       		.byte	-128
 2123 02b5 FF       		.byte	-1
 2124 02b6 FF       		.byte	-1
 2125 02b7 FF       		.byte	-1
 2126 02b8 03       		.byte	3
 2127 02b9 03       		.byte	3
 2128 02ba 02       		.byte	2
 2129 02bb 02       		.byte	2
 2130 02bc 01       		.byte	1
 2131 02bd 01       		.byte	1
 2132 02be 01       		.byte	1
 2133 02bf 00       		.byte	0
 2134 02c0 00       		.byte	0
 2135 02c1 00       		.byte	0
 2136 02c2 00       		.byte	0
 2137 02c3 00       		.byte	0
 2138 02c4 00       		.byte	0
 2139 02c5 00       		.byte	0
 2140 02c6 00       		.byte	0
 2141 02c7 00       		.byte	0
 2142 02c8 00       		.byte	0
 2143 02c9 00       		.byte	0
 2144 02ca 00       		.byte	0
 2145 02cb 00       		.byte	0
 2146 02cc 50       		.byte	80
 2147 02cd 00       		.byte	0
 2148 02ce 00       		.byte	0
 2149 02cf 00       		.byte	0
 2150 02d0 90       		.byte	-112
 2151 02d1 00       		.byte	0
 2152 02d2 00       		.byte	0
 2153 02d3 00       		.byte	0
 2154 02d4 10       		.byte	16
 2155 02d5 05       		.byte	5
 2156 02d6 00       		.byte	0
 2157 02d7 00       		.byte	0
 2158 02d8 E3       		.byte	-29
 2159 02d9 93       		.byte	-109
 2160 02da AD       		.byte	-83
 2161 02db 3C       		.byte	60
 2162 02dc 61       		.byte	97
 2163 02dd 96       		.byte	-106
 2164 02de 68       		.byte	104
 2165 02df 3C       		.byte	60
 2166 02e0 71       		.byte	113
 2167 02e1 D9       		.byte	-39
GAS LISTING C:\Users\Jesper\AppData\Local\Temp\ccteJwuU.s 			page 45


 2168 02e2 96       		.byte	-106
 2169 02e3 3C       		.byte	60
 2170 02e4 CA       		.byte	-54
 2171 02e5 A1       		.byte	-95
 2172 02e6 4F       		.byte	79
 2173 02e7 3C       		.byte	60
 2174 02e8 7B       		.byte	123
 2175 02e9 9B       		.byte	-101
 2176 02ea 6D       		.byte	109
 2177 02eb 3C       		.byte	60
 2178 02ec 35       		.byte	53
 2179 02ed 94       		.byte	-108
 2180 02ee A4       		.byte	-92
 2181 02ef 3C       		.byte	60
 2182 02f0 C1       		.byte	-63
 2183 02f1 F4       		.byte	-12
 2184 02f2 A1       		.byte	-95
 2185 02f3 3C       		.byte	60
 2186 02f4 36       		.byte	54
 2187 02f5 E6       		.byte	-26
 2188 02f6 83       		.byte	-125
 2189 02f7 3C       		.byte	60
 2190 02f8 93       		.byte	-109
 2191 02f9 D4       		.byte	-44
 2192 02fa 45       		.byte	69
 2193 02fb 3C       		.byte	60
 2194 02fc 16       		.byte	22
 2195 02fd 82       		.byte	-126
 2196 02fe 5F       		.byte	95
 2197 02ff 3C       		.byte	60
 2198 0300 39       		.byte	57
 2199 0301 F8       		.byte	-8
 2200 0302 56       		.byte	86
 2201 0303 3C       		.byte	60
 2202 0304 8B       		.byte	-117
 2203 0305 F0       		.byte	-16
 2204 0306 AA       		.byte	-86
 2205 0307 3C       		.byte	60
 2206 0308 68       		.byte	104
 2207 0309 39       		.byte	57
 2208 030a 66       		.byte	102
 2209 030b 3C       		.byte	60
 2210 030c 58       		.byte	88
 2211 030d 1E       		.byte	30
 2212 030e A3       		.byte	-93
 2213 030f 3C       		.byte	60
 2214 0310 D8       		.byte	-40
 2215 0311 1B       		.byte	27
 2216 0312 86       		.byte	-122
 2217 0313 3C       		.byte	60
 2218 0314 38       		.byte	56
 2219 0315 AD       		.byte	-83
 2220 0316 9A       		.byte	-102
 2221 0317 3C       		.byte	60
 2222 0318 FB       		.byte	-5
 2223 0319 F8       		.byte	-8
 2224 031a 49       		.byte	73
GAS LISTING C:\Users\Jesper\AppData\Local\Temp\ccteJwuU.s 			page 46


 2225 031b 99       		.byte	-103
 2226 031c FB       		.byte	-5
 2227 031d D6       		.byte	-42
 2228 031e 82       		.byte	-126
 2229 031f FF       		.byte	-1
 2230 0320 07       		.byte	7
 2231 0321 DF       		.byte	-33
 2232 0322 FD       		.byte	-3
 2233 0323 16       		.byte	22
 2234 0324 49       		.byte	73
 2235 0325 28       		.byte	40
 2236 0326 FD       		.byte	-3
 2237 0327 03       		.byte	3
 2238 0328 10       		.byte	16
 2239 0329 10       		.byte	16
 2240 032a 0E       		.byte	14
 2241 032b 13       		.byte	19
 2242 032c FE       		.byte	-2
 2243 032d 19       		.byte	25
 2244 032e 31       		.byte	49
 2245 032f 23       		.byte	35
 2246 0330 0D       		.byte	13
 2247 0331 81       		.byte	-127
 2248 0332 A5       		.byte	-91
 2249 0333 01       		.byte	1
 2250 0334 DE       		.byte	-34
 2251 0335 FB       		.byte	-5
 2252 0336 18       		.byte	24
 2253 0337 F8       		.byte	-8
 2254 0338 CA       		.byte	-54
 2255 0339 F6       		.byte	-10
 2256 033a E1       		.byte	-31
 2257 033b F2       		.byte	-14
 2258 033c 14       		.byte	20
 2259 033d F9       		.byte	-7
 2260 033e FF       		.byte	-1
 2261 033f 3D       		.byte	61
 2262 0340 49       		.byte	73
 2263 0341 1F       		.byte	31
 2264 0342 2D       		.byte	45
 2265 0343 F8       		.byte	-8
 2266 0344 04       		.byte	4
 2267 0345 42       		.byte	66
 2268 0346 05       		.byte	5
 2269 0347 13       		.byte	19
 2270 0348 F1       		.byte	-15
 2271 0349 1B       		.byte	27
 2272 034a 03       		.byte	3
 2273 034b 2A       		.byte	42
 2274 034c FB       		.byte	-5
 2275 034d 17       		.byte	23
 2276 034e DE       		.byte	-34
 2277 034f ED       		.byte	-19
 2278 0350 FB       		.byte	-5
 2279 0351 E6       		.byte	-26
 2280 0352 F6       		.byte	-10
 2281 0353 C8       		.byte	-56
GAS LISTING C:\Users\Jesper\AppData\Local\Temp\ccteJwuU.s 			page 47


 2282 0354 16       		.byte	22
 2283 0355 05       		.byte	5
 2284 0356 D5       		.byte	-43
 2285 0357 32       		.byte	50
 2286 0358 43       		.byte	67
 2287 0359 10       		.byte	16
 2288 035a 13       		.byte	19
 2289 035b 38       		.byte	56
 2290 035c 40       		.byte	64
 2291 035d E9       		.byte	-23
 2292 035e 05       		.byte	5
 2293 035f 29       		.byte	41
 2294 0360 A4       		.byte	-92
 2295 0361 AE       		.byte	-82
 2296 0362 2D       		.byte	45
 2297 0363 AB       		.byte	-85
 2298 0364 A1       		.byte	-95
 2299 0365 05       		.byte	5
 2300 0366 CA       		.byte	-54
 2301 0367 81       		.byte	-127
 2302 0368 4A       		.byte	74
 2303 0369 D0       		.byte	-48
 2304 036a BA       		.byte	-70
 2305 036b E5       		.byte	-27
 2306 036c 3D       		.byte	61
 2307 036d C8       		.byte	-56
 2308 036e BC       		.byte	-68
 2309 036f 06       		.byte	6
 2310 0370 EB       		.byte	-21
 2311 0371 2B       		.byte	43
 2312 0372 32       		.byte	50
 2313 0373 F9       		.byte	-7
 2314 0374 12       		.byte	18
 2315 0375 40       		.byte	64
 2316 0376 2E       		.byte	46
 2317 0377 CC       		.byte	-52
 2318 0378 10       		.byte	16
 2319 0379 E4       		.byte	-28
 2320 037a 04       		.byte	4
 2321 037b 5E       		.byte	94
 2322 037c 58       		.byte	88
 2323 037d 03       		.byte	3
 2324 037e 2F       		.byte	47
 2325 037f 1A       		.byte	26
 2326 0380 33       		.byte	51
 2327 0381 D2       		.byte	-46
 2328 0382 F5       		.byte	-11
 2329 0383 F4       		.byte	-12
 2330 0384 11       		.byte	17
 2331 0385 2C       		.byte	44
 2332 0386 08       		.byte	8
 2333 0387 FD       		.byte	-3
 2334 0388 DD       		.byte	-35
 2335 0389 17       		.byte	23
 2336 038a 11       		.byte	17
 2337 038b EC       		.byte	-20
 2338 038c 48       		.byte	72
GAS LISTING C:\Users\Jesper\AppData\Local\Temp\ccteJwuU.s 			page 48


 2339 038d 82       		.byte	-126
 2340 038e F2       		.byte	-14
 2341 038f 3E       		.byte	62
 2342 0390 E4       		.byte	-28
 2343 0391 22       		.byte	34
 2344 0392 11       		.byte	17
 2345 0393 2A       		.byte	42
 2346 0394 C8       		.byte	-56
 2347 0395 0E       		.byte	14
 2348 0396 2A       		.byte	42
 2349 0397 0C       		.byte	12
 2350 0398 53       		.byte	83
 2351 0399 B0       		.byte	-80
 2352 039a 4B       		.byte	75
 2353 039b 0A       		.byte	10
 2354 039c CB       		.byte	-53
 2355 039d 09       		.byte	9
 2356 039e F9       		.byte	-7
 2357 039f 42       		.byte	66
 2358 03a0 47       		.byte	71
 2359 03a1 09       		.byte	9
 2360 03a2 6A       		.byte	106
 2361 03a3 30       		.byte	48
 2362 03a4 E2       		.byte	-30
 2363 03a5 FC       		.byte	-4
 2364 03a6 02       		.byte	2
 2365 03a7 BB       		.byte	-69
 2366 03a8 48       		.byte	72
 2367 03a9 0A       		.byte	10
 2368 03aa F4       		.byte	-12
 2369 03ab DC       		.byte	-36
 2370 03ac 7F       		.byte	127
 2371 03ad D6       		.byte	-42
 2372 03ae 9D       		.byte	-99
 2373 03af FD       		.byte	-3
 2374 03b0 B0       		.byte	-80
 2375 03b1 07       		.byte	7
 2376 03b2 12       		.byte	18
 2377 03b3 61       		.byte	97
 2378 03b4 34       		.byte	52
 2379 03b5 11       		.byte	17
 2380 03b6 CE       		.byte	-50
 2381 03b7 44       		.byte	68
 2382 03b8 C0       		.byte	-64
 2383 03b9 FD       		.byte	-3
 2384 03ba 0D       		.byte	13
 2385 03bb 19       		.byte	25
 2386 03bc 29       		.byte	41
 2387 03bd CF       		.byte	-49
 2388 03be FB       		.byte	-5
 2389 03bf CD       		.byte	-51
 2390 03c0 E0       		.byte	-32
 2391 03c1 ED       		.byte	-19
 2392 03c2 AE       		.byte	-82
 2393 03c3 DE       		.byte	-34
 2394 03c4 E9       		.byte	-23
 2395 03c5 F7       		.byte	-9
GAS LISTING C:\Users\Jesper\AppData\Local\Temp\ccteJwuU.s 			page 49


 2396 03c6 22       		.byte	34
 2397 03c7 19       		.byte	25
 2398 03c8 11       		.byte	17
 2399 03c9 E9       		.byte	-23
 2400 03ca 19       		.byte	25
 2401 03cb 18       		.byte	24
 2402 03cc D0       		.byte	-48
 2403 03cd 52       		.byte	82
 2404 03ce 17       		.byte	23
 2405 03cf DA       		.byte	-38
 2406 03d0 1F       		.byte	31
 2407 03d1 B4       		.byte	-76
 2408 03d2 10       		.byte	16
 2409 03d3 23       		.byte	35
 2410 03d4 36       		.byte	54
 2411 03d5 EF       		.byte	-17
 2412 03d6 08       		.byte	8
 2413 03d7 DD       		.byte	-35
 2414 03d8 C2       		.byte	-62
 2415 03d9 E8       		.byte	-24
 2416 03da 30       		.byte	48
 2417 03db D3       		.byte	-45
 2418 03dc 08       		.byte	8
 2419 03dd 23       		.byte	35
 2420 03de 02       		.byte	2
 2421 03df 24       		.byte	36
 2422 03e0 99       		.byte	-103
 2423 03e1 1D       		.byte	29
 2424 03e2 ED       		.byte	-19
 2425 03e3 12       		.byte	18
 2426 03e4 03       		.byte	3
 2427 03e5 11       		.byte	17
 2428 03e6 EE       		.byte	-18
 2429 03e7 E5       		.byte	-27
 2430 03e8 DC       		.byte	-36
 2431 03e9 F2       		.byte	-14
 2432 03ea 13       		.byte	19
 2433 03eb 0A       		.byte	10
 2434 03ec 26       		.byte	38
 2435 03ed 1A       		.byte	26
 2436 03ee F2       		.byte	-14
 2437 03ef 02       		.byte	2
 2438 03f0 F8       		.byte	-8
 2439 03f1 FC       		.byte	-4
 2440 03f2 CB       		.byte	-53
 2441 03f3 84       		.byte	-124
 2442 03f4 5C       		.byte	92
 2443 03f5 ED       		.byte	-19
 2444 03f6 1D       		.byte	29
 2445 03f7 99       		.byte	-103
 2446 03f8 F2       		.byte	-14
 2447 03f9 57       		.byte	87
 2448 03fa 3E       		.byte	62
 2449 03fb F3       		.byte	-13
 2450 03fc 8A       		.byte	-118
 2451 03fd D6       		.byte	-42
 2452 03fe D6       		.byte	-42
GAS LISTING C:\Users\Jesper\AppData\Local\Temp\ccteJwuU.s 			page 50


 2453 03ff C1       		.byte	-63
 2454 0400 16       		.byte	22
 2455 0401 05       		.byte	5
 2456 0402 81       		.byte	-127
 2457 0403 00       		.byte	0
 2458 0404 FD       		.byte	-3
 2459 0405 92       		.byte	-110
 2460 0406 D9       		.byte	-39
 2461 0407 36       		.byte	54
 2462 0408 E7       		.byte	-25
 2463 0409 25       		.byte	37
 2464 040a 17       		.byte	23
 2465 040b E8       		.byte	-24
 2466 040c 05       		.byte	5
 2467 040d 19       		.byte	25
 2468 040e 33       		.byte	51
 2469 040f 0D       		.byte	13
 2470 0410 48       		.byte	72
 2471 0411 AC       		.byte	-84
 2472 0412 DF       		.byte	-33
 2473 0413 15       		.byte	21
 2474 0414 E9       		.byte	-23
 2475 0415 F5       		.byte	-11
 2476 0416 BD       		.byte	-67
 2477 0417 F7       		.byte	-9
 2478 0418 F0       		.byte	-16
 2479 0419 31       		.byte	49
 2480 041a 72       		.byte	114
 2481 041b 23       		.byte	35
 2482 041c 16       		.byte	22
 2483 041d 65       		.byte	101
 2484 041e E2       		.byte	-30
 2485 041f B5       		.byte	-75
 2486 0420 F4       		.byte	-12
 2487 0421 0D       		.byte	13
 2488 0422 EA       		.byte	-22
 2489 0423 BC       		.byte	-68
 2490 0424 F3       		.byte	-13
 2491 0425 3B       		.byte	59
 2492 0426 5A       		.byte	90
 2493 0427 DF       		.byte	-33
 2494 0428 91       		.byte	-111
 2495 0429 10       		.byte	16
 2496 042a E9       		.byte	-23
 2497 042b F7       		.byte	-9
 2498 042c 20       		.byte	32
 2499 042d B2       		.byte	-78
 2500 042e FB       		.byte	-5
 2501 042f E9       		.byte	-23
 2502 0430 FC       		.byte	-4
 2503 0431 0F       		.byte	15
 2504 0432 B6       		.byte	-74
 2505 0433 3B       		.byte	59
 2506 0434 04       		.byte	4
 2507 0435 04       		.byte	4
 2508 0436 1B       		.byte	27
 2509 0437 25       		.byte	37
GAS LISTING C:\Users\Jesper\AppData\Local\Temp\ccteJwuU.s 			page 51


 2510 0438 95       		.byte	-107
 2511 0439 C6       		.byte	-58
 2512 043a D5       		.byte	-43
 2513 043b FA       		.byte	-6
 2514 043c A1       		.byte	-95
 2515 043d 90       		.byte	-112
 2516 043e DE       		.byte	-34
 2517 043f B9       		.byte	-71
 2518 0440 8B       		.byte	-117
 2519 0441 39       		.byte	57
 2520 0442 E8       		.byte	-24
 2521 0443 C1       		.byte	-63
 2522 0444 09       		.byte	9
 2523 0445 F9       		.byte	-7
 2524 0446 05       		.byte	5
 2525 0447 1D       		.byte	29
 2526 0448 1B       		.byte	27
 2527 0449 0F       		.byte	15
 2528 044a 39       		.byte	57
 2529 044b FF       		.byte	-1
 2530 044c D5       		.byte	-43
 2531 044d 46       		.byte	70
 2532 044e F7       		.byte	-9
 2533 044f 29       		.byte	41
 2534 0450 7A       		.byte	122
 2535 0451 6A       		.byte	106
 2536 0452 FA       		.byte	-6
 2537 0453 F7       		.byte	-9
 2538 0454 08       		.byte	8
 2539 0455 3D       		.byte	61
 2540 0456 AF       		.byte	-81
 2541 0457 07       		.byte	7
 2542 0458 56       		.byte	86
 2543 0459 41       		.byte	65
 2544 045a 02       		.byte	2
 2545 045b D7       		.byte	-41
 2546 045c EC       		.byte	-20
 2547 045d E7       		.byte	-25
 2548 045e 01       		.byte	1
 2549 045f E0       		.byte	-32
 2550 0460 D1       		.byte	-47
 2551 0461 B9       		.byte	-71
 2552 0462 C1       		.byte	-63
 2553 0463 94       		.byte	-108
 2554 0464 D4       		.byte	-44
 2555 0465 EB       		.byte	-21
 2556 0466 CA       		.byte	-54
 2557 0467 DD       		.byte	-35
 2558 0468 D6       		.byte	-42
 2559 0469 B2       		.byte	-78
 2560 046a E1       		.byte	-31
 2561 046b E1       		.byte	-31
 2562 046c 0C       		.byte	12
 2563 046d FC       		.byte	-4
 2564 046e 38       		.byte	56
 2565 046f 11       		.byte	17
 2566 0470 01       		.byte	1
GAS LISTING C:\Users\Jesper\AppData\Local\Temp\ccteJwuU.s 			page 52


 2567 0471 EA       		.byte	-22
 2568 0472 DD       		.byte	-35
 2569 0473 23       		.byte	35
 2570 0474 81       		.byte	-127
 2571 0475 E4       		.byte	-28
 2572 0476 10       		.byte	16
 2573 0477 FF       		.byte	-1
 2574 0478 00       		.byte	0
 2575 0479 20       		.byte	32
 2576 047a 1A       		.byte	26
 2577 047b C7       		.byte	-57
 2578 047c F4       		.byte	-12
 2579 047d 3B       		.byte	59
 2580 047e F9       		.byte	-7
 2581 047f E5       		.byte	-27
 2582 0480 81       		.byte	-127
 2583 0481 E7       		.byte	-25
 2584 0482 12       		.byte	18
 2585 0483 E0       		.byte	-32
 2586 0484 EB       		.byte	-21
 2587 0485 07       		.byte	7
 2588 0486 0E       		.byte	14
 2589 0487 37       		.byte	55
 2590 0488 F6       		.byte	-10
 2591 0489 36       		.byte	54
 2592 048a F6       		.byte	-10
 2593 048b ED       		.byte	-19
 2594 048c 27       		.byte	39
 2595 048d 09       		.byte	9
 2596 048e 38       		.byte	56
 2597 048f 0C       		.byte	12
 2598 0490 0D       		.byte	13
 2599 0491 E9       		.byte	-23
 2600 0492 14       		.byte	20
 2601 0493 EE       		.byte	-18
 2602 0494 DE       		.byte	-34
 2603 0495 16       		.byte	22
 2604 0496 1E       		.byte	30
 2605 0497 2C       		.byte	44
 2606 0498 22       		.byte	34
 2607 0499 22       		.byte	34
 2608 049a E3       		.byte	-29
 2609 049b FB       		.byte	-5
 2610 049c 14       		.byte	20
 2611 049d 45       		.byte	69
 2612 049e 08       		.byte	8
 2613 049f F2       		.byte	-14
 2614 04a0 C7       		.byte	-57
 2615 04a1 F8       		.byte	-8
 2616 04a2 F9       		.byte	-7
 2617 04a3 F4       		.byte	-12
 2618 04a4 13       		.byte	19
 2619 04a5 DB       		.byte	-37
 2620 04a6 DE       		.byte	-34
 2621 04a7 10       		.byte	16
 2622 04a8 21       		.byte	33
 2623 04a9 DD       		.byte	-35
GAS LISTING C:\Users\Jesper\AppData\Local\Temp\ccteJwuU.s 			page 53


 2624 04aa 04       		.byte	4
 2625 04ab 06       		.byte	6
 2626 04ac 22       		.byte	34
 2627 04ad 0F       		.byte	15
 2628 04ae 1A       		.byte	26
 2629 04af 23       		.byte	35
 2630 04b0 18       		.byte	24
 2631 04b1 EF       		.byte	-17
 2632 04b2 EC       		.byte	-20
 2633 04b3 00       		.byte	0
 2634 04b4 DE       		.byte	-34
 2635 04b5 D9       		.byte	-39
 2636 04b6 C4       		.byte	-60
 2637 04b7 CF       		.byte	-49
 2638 04b8 0B       		.byte	11
 2639 04b9 F0       		.byte	-16
 2640 04ba FE       		.byte	-2
 2641 04bb 37       		.byte	55
 2642 04bc F2       		.byte	-14
 2643 04bd EE       		.byte	-18
 2644 04be F4       		.byte	-12
 2645 04bf 4C       		.byte	76
 2646 04c0 48       		.byte	72
 2647 04c1 EC       		.byte	-20
 2648 04c2 BD       		.byte	-67
 2649 04c3 27       		.byte	39
 2650 04c4 FB       		.byte	-5
 2651 04c5 C4       		.byte	-60
 2652 04c6 EA       		.byte	-22
 2653 04c7 09       		.byte	9
 2654 04c8 29       		.byte	41
 2655 04c9 00       		.byte	0
 2656 04ca 0C       		.byte	12
 2657 04cb 2A       		.byte	42
 2658 04cc 2E       		.byte	46
 2659 04cd DC       		.byte	-36
 2660 04ce F8       		.byte	-8
 2661 04cf 03       		.byte	3
 2662 04d0 D1       		.byte	-47
 2663 04d1 B3       		.byte	-77
 2664 04d2 16       		.byte	22
 2665 04d3 04       		.byte	4
 2666 04d4 81       		.byte	-127
 2667 04d5 D3       		.byte	-45
 2668 04d6 09       		.byte	9
 2669 04d7 F7       		.byte	-9
 2670 04d8 D3       		.byte	-45
 2671 04d9 FA       		.byte	-6
 2672 04da F5       		.byte	-11
 2673 04db D3       		.byte	-45
 2674 04dc E0       		.byte	-32
 2675 04dd E0       		.byte	-32
 2676 04de C6       		.byte	-58
 2677 04df FF       		.byte	-1
 2678 04e0 19       		.byte	25
 2679 04e1 F6       		.byte	-10
 2680 04e2 2F       		.byte	47
GAS LISTING C:\Users\Jesper\AppData\Local\Temp\ccteJwuU.s 			page 54


 2681 04e3 01       		.byte	1
 2682 04e4 F7       		.byte	-9
 2683 04e5 0A       		.byte	10
 2684 04e6 26       		.byte	38
 2685 04e7 02       		.byte	2
 2686 04e8 F5       		.byte	-11
 2687 04e9 2C       		.byte	44
 2688 04ea 11       		.byte	17
 2689 04eb 0B       		.byte	11
 2690 04ec 22       		.byte	34
 2691 04ed FF       		.byte	-1
 2692 04ee FC       		.byte	-4
 2693 04ef 06       		.byte	6
 2694 04f0 DD       		.byte	-35
 2695 04f1 FD       		.byte	-3
 2696 04f2 16       		.byte	22
 2697 04f3 D9       		.byte	-39
 2698 04f4 EB       		.byte	-21
 2699 04f5 4F       		.byte	79
 2700 04f6 1C       		.byte	28
 2701 04f7 E0       		.byte	-32
 2702 04f8 E1       		.byte	-31
 2703 04f9 E3       		.byte	-29
 2704 04fa D5       		.byte	-43
 2705 04fb 15       		.byte	21
 2706 04fc E8       		.byte	-24
 2707 04fd F6       		.byte	-10
 2708 04fe 64       		.byte	100
 2709 04ff 29       		.byte	41
 2710 0500 3D       		.byte	61
 2711 0501 C3       		.byte	-61
 2712 0502 23       		.byte	35
 2713 0503 49       		.byte	73
 2714 0504 E1       		.byte	-31
 2715 0505 CE       		.byte	-50
 2716 0506 DB       		.byte	-37
 2717 0507 BC       		.byte	-68
 2718 0508 DE       		.byte	-34
 2719 0509 D9       		.byte	-39
 2720 050a E3       		.byte	-29
 2721 050b D3       		.byte	-45
 2722 050c B0       		.byte	-80
 2723 050d 0C       		.byte	12
 2724 050e 22       		.byte	34
 2725 050f 2A       		.byte	42
 2726 0510 2C       		.byte	44
 2727 0511 08       		.byte	8
 2728 0512 0D       		.byte	13
 2729 0513 0C       		.byte	12
 2730 0514 7F       		.byte	127
 2731 0515 F6       		.byte	-10
 2732 0516 1B       		.byte	27
 2733 0517 D3       		.byte	-45
 2734 0518 17       		.byte	23
 2735 0519 E0       		.byte	-32
 2736 051a 11       		.byte	17
 2737 051b F6       		.byte	-10
GAS LISTING C:\Users\Jesper\AppData\Local\Temp\ccteJwuU.s 			page 55


 2738 051c DC       		.byte	-36
 2739 051d FD       		.byte	-3
 2740 051e 08       		.byte	8
 2741 051f CA       		.byte	-54
 2742 0520 F6       		.byte	-10
 2743 0521 28       		.byte	40
 2744 0522 F3       		.byte	-13
 2745 0523 E3       		.byte	-29
 2746 0524 B7       		.byte	-73
 2747 0525 31       		.byte	49
 2748 0526 09       		.byte	9
 2749 0527 20       		.byte	32
 2750 0528 14       		.byte	20
 2751 0529 A8       		.byte	-88
 2752 052a 18       		.byte	24
 2753 052b F2       		.byte	-14
 2754 052c E3       		.byte	-29
 2755 052d 25       		.byte	37
 2756 052e 3B       		.byte	59
 2757 052f D7       		.byte	-41
 2758 0530 1A       		.byte	26
 2759 0531 C5       		.byte	-59
 2760 0532 B8       		.byte	-72
 2761 0533 E2       		.byte	-30
 2762 0534 F2       		.byte	-14
 2763 0535 0B       		.byte	11
 2764 0536 F8       		.byte	-8
 2765 0537 1E       		.byte	30
 2766 0538 B9       		.byte	-71
 2767 0539 FA       		.byte	-6
 2768 053a 3F       		.byte	63
 2769 053b D1       		.byte	-47
 2770 053c F4       		.byte	-12
 2771 053d CD       		.byte	-51
 2772 053e 24       		.byte	36
 2773 053f DE       		.byte	-34
 2774 0540 03       		.byte	3
 2775 0541 41       		.byte	65
 2776 0542 11       		.byte	17
 2777 0543 08       		.byte	8
 2778 0544 FD       		.byte	-3
 2779 0545 E6       		.byte	-26
 2780 0546 DD       		.byte	-35
 2781 0547 FC       		.byte	-4
 2782 0548 22       		.byte	34
 2783 0549 14       		.byte	20
 2784 054a 0F       		.byte	15
 2785 054b 07       		.byte	7
 2786 054c 0E       		.byte	14
 2787 054d 25       		.byte	37
 2788 054e 01       		.byte	1
 2789 054f D8       		.byte	-40
 2790 0550 02       		.byte	2
 2791 0551 2B       		.byte	43
 2792 0552 F9       		.byte	-7
 2793 0553 94       		.byte	-108
 2794 0554 DC       		.byte	-36
GAS LISTING C:\Users\Jesper\AppData\Local\Temp\ccteJwuU.s 			page 56


 2795 0555 1F       		.byte	31
 2796 0556 FA       		.byte	-6
 2797 0557 FA       		.byte	-6
 2798 0558 7C       		.byte	124
 2799 0559 71       		.byte	113
 2800 055a EF       		.byte	-17
 2801 055b 09       		.byte	9
 2802 055c 4D       		.byte	77
 2803 055d 9F       		.byte	-97
 2804 055e B9       		.byte	-71
 2805 055f 81       		.byte	-127
 2806 0560 E8       		.byte	-24
 2807 0561 20       		.byte	32
 2808 0562 E6       		.byte	-26
 2809 0563 49       		.byte	73
 2810 0564 43       		.byte	67
 2811 0565 16       		.byte	22
 2812 0566 D0       		.byte	-48
 2813 0567 49       		.byte	73
 2814 0568 37       		.byte	55
 2815 0569 DF       		.byte	-33
 2816 056a 00       		.byte	0
 2817 056b F2       		.byte	-14
 2818 056c 9A       		.byte	-102
 2819 056d 15       		.byte	21
 2820 056e 9A       		.byte	-102
 2821 056f 8F       		.byte	-113
 2822 0570 D8       		.byte	-40
 2823 0571 D3       		.byte	-45
 2824 0572 46       		.byte	70
 2825 0573 D0       		.byte	-48
 2826 0574 DF       		.byte	-33
 2827 0575 C8       		.byte	-56
 2828 0576 D7       		.byte	-41
 2829 0577 F0       		.byte	-16
 2830 0578 24       		.byte	36
 2831 0579 12       		.byte	18
 2832 057a FF       		.byte	-1
 2833 057b 12       		.byte	18
 2834 057c F9       		.byte	-7
 2835 057d 42       		.byte	66
 2836 057e 15       		.byte	21
 2837 057f F0       		.byte	-16
 2838 0580 10       		.byte	16
 2839 0581 13       		.byte	19
 2840 0582 AE       		.byte	-82
 2841 0583 E4       		.byte	-28
 2842 0584 33       		.byte	51
 2843 0585 A6       		.byte	-90
 2844 0586 20       		.byte	32
 2845 0587 1E       		.byte	30
 2846 0588 B2       		.byte	-78
 2847 0589 DF       		.byte	-33
 2848 058a 24       		.byte	36
 2849 058b DA       		.byte	-38
 2850 058c 06       		.byte	6
 2851 058d 71       		.byte	113
GAS LISTING C:\Users\Jesper\AppData\Local\Temp\ccteJwuU.s 			page 57


 2852 058e 62       		.byte	98
 2853 058f 2A       		.byte	42
 2854 0590 0A       		.byte	10
 2855 0591 2C       		.byte	44
 2856 0592 34       		.byte	52
 2857 0593 CC       		.byte	-52
 2858 0594 27       		.byte	39
 2859 0595 EB       		.byte	-21
 2860 0596 3A       		.byte	58
 2861 0597 62       		.byte	98
 2862 0598 F0       		.byte	-16
 2863 0599 14       		.byte	20
 2864 059a 1F       		.byte	31
 2865 059b 56       		.byte	86
 2866 059c 2C       		.byte	44
 2867 059d CC       		.byte	-52
 2868 059e 4E       		.byte	78
 2869 059f 36       		.byte	54
 2870 05a0 48       		.byte	72
 2871 05a1 FC       		.byte	-4
 2872 05a2 90       		.byte	-112
 2873 05a3 1C       		.byte	28
 2874 05a4 0D       		.byte	13
 2875 05a5 CA       		.byte	-54
 2876 05a6 1D       		.byte	29
 2877 05a7 58       		.byte	88
 2878 05a8 16       		.byte	22
 2879 05a9 44       		.byte	68
 2880 05aa 1A       		.byte	26
 2881 05ab EB       		.byte	-21
 2882 05ac 88       		.byte	-120
 2883 05ad 0F       		.byte	15
 2884 05ae 21       		.byte	33
 2885 05af F9       		.byte	-7
 2886 05b0 FB       		.byte	-5
 2887 05b1 1E       		.byte	30
 2888 05b2 5A       		.byte	90
 2889 05b3 2E       		.byte	46
 2890 05b4 A7       		.byte	-89
 2891 05b5 0D       		.byte	13
 2892 05b6 FB       		.byte	-5
 2893 05b7 10       		.byte	16
 2894 05b8 BF       		.byte	-65
 2895 05b9 D1       		.byte	-47
 2896 05ba 3B       		.byte	59
 2897 05bb E7       		.byte	-25
 2898 05bc 11       		.byte	17
 2899 05bd 2B       		.byte	43
 2900 05be 3C       		.byte	60
 2901 05bf DD       		.byte	-35
 2902 05c0 FB       		.byte	-5
 2903 05c1 08       		.byte	8
 2904 05c2 E2       		.byte	-30
 2905 05c3 A2       		.byte	-94
 2906 05c4 81       		.byte	-127
 2907 05c5 D2       		.byte	-46
 2908 05c6 01       		.byte	1
GAS LISTING C:\Users\Jesper\AppData\Local\Temp\ccteJwuU.s 			page 58


 2909 05c7 C3       		.byte	-61
 2910 05c8 E6       		.byte	-26
 2911 05c9 29       		.byte	41
 2912 05ca AE       		.byte	-82
 2913 05cb DE       		.byte	-34
 2914 05cc 33       		.byte	51
 2915 05cd F1       		.byte	-15
 2916 05ce 05       		.byte	5
 2917 05cf 72       		.byte	114
 2918 05d0 29       		.byte	41
 2919 05d1 E0       		.byte	-32
 2920 05d2 07       		.byte	7
 2921 05d3 05       		.byte	5
 2922 05d4 C1       		.byte	-63
 2923 05d5 CF       		.byte	-49
 2924 05d6 B7       		.byte	-73
 2925 05d7 F2       		.byte	-14
 2926 05d8 EC       		.byte	-20
 2927 05d9 18       		.byte	24
 2928 05da 51       		.byte	81
 2929 05db FF       		.byte	-1
 2930 05dc E2       		.byte	-30
 2931 05dd 3D       		.byte	61
 2932 05de 35       		.byte	53
 2933 05df 0C       		.byte	12
 2934 05e0 B3       		.byte	-77
 2935 05e1 06       		.byte	6
 2936 05e2 32       		.byte	50
 2937 05e3 A5       		.byte	-91
 2938 05e4 AD       		.byte	-83
 2939 05e5 22       		.byte	34
 2940 05e6 3D       		.byte	61
 2941 05e7 EB       		.byte	-21
 2942 05e8 7F       		.byte	127
 2943 05e9 45       		.byte	69
 2944 05ea 92       		.byte	-110
 2945 05eb 89       		.byte	-119
 2946 05ec 0C       		.byte	12
 2947 05ed C7       		.byte	-57
 2948 05ee 20       		.byte	32
 2949 05ef 12       		.byte	18
 2950 05f0 3B       		.byte	59
 2951 05f1 00       		.byte	0
 2952 05f2 52       		.byte	82
 2953 05f3 1D       		.byte	29
 2954 05f4 08       		.byte	8
 2955 05f5 B0       		.byte	-80
 2956 05f6 A3       		.byte	-93
 2957 05f7 EE       		.byte	-18
 2958 05f8 DC       		.byte	-36
 2959 05f9 0F       		.byte	15
 2960 05fa 1C       		.byte	28
 2961 05fb FA       		.byte	-6
 2962 05fc 2B       		.byte	43
 2963 05fd 06       		.byte	6
 2964 05fe FA       		.byte	-6
 2965 05ff 03       		.byte	3
GAS LISTING C:\Users\Jesper\AppData\Local\Temp\ccteJwuU.s 			page 59


 2966 0600 04       		.byte	4
 2967 0601 E1       		.byte	-31
 2968 0602 D2       		.byte	-46
 2969 0603 16       		.byte	22
 2970 0604 F8       		.byte	-8
 2971 0605 DE       		.byte	-34
 2972 0606 E9       		.byte	-23
 2973 0607 39       		.byte	57
 2974 0608 22       		.byte	34
 2975 0609 30       		.byte	48
 2976 060a 3F       		.byte	63
 2977 060b 36       		.byte	54
 2978 060c 14       		.byte	20
 2979 060d 1F       		.byte	31
 2980 060e 1E       		.byte	30
 2981 060f CB       		.byte	-53
 2982 0610 3E       		.byte	62
 2983 0611 2B       		.byte	43
 2984 0612 D4       		.byte	-44
 2985 0613 A7       		.byte	-89
 2986 0614 8C       		.byte	-116
 2987 0615 F1       		.byte	-15
 2988 0616 BD       		.byte	-67
 2989 0617 D0       		.byte	-48
 2990 0618 E0       		.byte	-32
 2991 0619 32       		.byte	50
 2992 061a 21       		.byte	33
 2993 061b FF       		.byte	-1
 2994 061c 46       		.byte	70
 2995 061d 6B       		.byte	107
 2996 061e F5       		.byte	-11
 2997 061f FD       		.byte	-3
 2998 0620 51       		.byte	81
 2999 0621 35       		.byte	53
 3000 0622 C8       		.byte	-56
 3001 0623 CE       		.byte	-50
 3002 0624 A7       		.byte	-89
 3003 0625 06       		.byte	6
 3004 0626 EF       		.byte	-17
 3005 0627 BA       		.byte	-70
 3006 0628 F8       		.byte	-8
 3007 0629 54       		.byte	84
 3008 062a 1E       		.byte	30
 3009 062b 1D       		.byte	29
 3010 062c 37       		.byte	55
 3011 062d 27       		.byte	39
 3012 062e D6       		.byte	-42
 3013 062f D2       		.byte	-46
 3014 0630 81       		.byte	-127
 3015 0631 F6       		.byte	-10
 3016 0632 F9       		.byte	-7
 3017 0633 E0       		.byte	-32
 3018 0634 EA       		.byte	-22
 3019 0635 C4       		.byte	-60
 3020 0636 FD       		.byte	-3
 3021 0637 FA       		.byte	-6
 3022 0638 E4       		.byte	-28
GAS LISTING C:\Users\Jesper\AppData\Local\Temp\ccteJwuU.s 			page 60


 3023 0639 4C       		.byte	76
 3024 063a 29       		.byte	41
 3025 063b FB       		.byte	-5
 3026 063c 2A       		.byte	42
 3027 063d D6       		.byte	-42
 3028 063e C5       		.byte	-59
 3029 063f C6       		.byte	-58
 3030 0640 0C       		.byte	12
 3031 0641 31       		.byte	49
 3032 0642 24       		.byte	36
 3033 0643 3C       		.byte	60
 3034 0644 FC       		.byte	-4
 3035 0645 0E       		.byte	14
 3036 0646 02       		.byte	2
 3037 0647 94       		.byte	-108
 3038 0648 F0       		.byte	-16
 3039 0649 EA       		.byte	-22
 3040 064a 40       		.byte	64
 3041 064b 37       		.byte	55
 3042 064c 22       		.byte	34
 3043 064d 1F       		.byte	31
 3044 064e CE       		.byte	-50
 3045 064f C3       		.byte	-61
 3046 0650 E2       		.byte	-30
 3047 0651 F0       		.byte	-16
 3048 0652 2A       		.byte	42
 3049 0653 24       		.byte	36
 3050 0654 F6       		.byte	-10
 3051 0655 ED       		.byte	-19
 3052 0656 DD       		.byte	-35
 3053 0657 D5       		.byte	-43
 3054 0658 E8       		.byte	-24
 3055 0659 2A       		.byte	42
 3056 065a 4D       		.byte	77
 3057 065b 59       		.byte	89
 3058 065c 2E       		.byte	46
 3059 065d 16       		.byte	22
 3060 065e 11       		.byte	17
 3061 065f 1C       		.byte	28
 3062 0660 15       		.byte	21
 3063 0661 2D       		.byte	45
 3064 0662 18       		.byte	24
 3065 0663 C5       		.byte	-59
 3066 0664 FA       		.byte	-6
 3067 0665 FD       		.byte	-3
 3068 0666 1F       		.byte	31
 3069 0667 F8       		.byte	-8
 3070 0668 D3       		.byte	-45
 3071 0669 2B       		.byte	43
 3072 066a EB       		.byte	-21
 3073 066b E7       		.byte	-25
 3074 066c F6       		.byte	-10
 3075 066d C9       		.byte	-55
 3076 066e DC       		.byte	-36
 3077 066f 34       		.byte	52
 3078 0670 F8       		.byte	-8
 3079 0671 D7       		.byte	-41
GAS LISTING C:\Users\Jesper\AppData\Local\Temp\ccteJwuU.s 			page 61


 3080 0672 EE       		.byte	-18
 3081 0673 D7       		.byte	-41
 3082 0674 1C       		.byte	28
 3083 0675 0F       		.byte	15
 3084 0676 1D       		.byte	29
 3085 0677 1F       		.byte	31
 3086 0678 9B       		.byte	-101
 3087 0679 9F       		.byte	-97
 3088 067a D8       		.byte	-40
 3089 067b 03       		.byte	3
 3090 067c 30       		.byte	48
 3091 067d 3A       		.byte	58
 3092 067e B4       		.byte	-76
 3093 067f 02       		.byte	2
 3094 0680 CE       		.byte	-50
 3095 0681 1A       		.byte	26
 3096 0682 08       		.byte	8
 3097 0683 43       		.byte	67
 3098 0684 E5       		.byte	-27
 3099 0685 F8       		.byte	-8
 3100 0686 DF       		.byte	-33
 3101 0687 28       		.byte	40
 3102 0688 BF       		.byte	-65
 3103 0689 D8       		.byte	-40
 3104 068a A9       		.byte	-87
 3105 068b 92       		.byte	-110
 3106 068c E7       		.byte	-25
 3107 068d BE       		.byte	-66
 3108 068e 18       		.byte	24
 3109 068f E9       		.byte	-23
 3110 0690 6E       		.byte	110
 3111 0691 60       		.byte	96
 3112 0692 97       		.byte	-105
 3113 0693 02       		.byte	2
 3114 0694 2A       		.byte	42
 3115 0695 FB       		.byte	-5
 3116 0696 CF       		.byte	-49
 3117 0697 07       		.byte	7
 3118 0698 0B       		.byte	11
 3119 0699 E8       		.byte	-24
 3120 069a DC       		.byte	-36
 3121 069b 05       		.byte	5
 3122 069c 2D       		.byte	45
 3123 069d 43       		.byte	67
 3124 069e 3C       		.byte	60
 3125 069f 34       		.byte	52
 3126 06a0 47       		.byte	71
 3127 06a1 26       		.byte	38
 3128 06a2 09       		.byte	9
 3129 06a3 97       		.byte	-105
 3130 06a4 99       		.byte	-103
 3131 06a5 F2       		.byte	-14
 3132 06a6 B7       		.byte	-73
 3133 06a7 15       		.byte	21
 3134 06a8 9E       		.byte	-98
 3135 06a9 B4       		.byte	-76
 3136 06aa D6       		.byte	-42
GAS LISTING C:\Users\Jesper\AppData\Local\Temp\ccteJwuU.s 			page 62


 3137 06ab 8B       		.byte	-117
 3138 06ac 0B       		.byte	11
 3139 06ad BA       		.byte	-70
 3140 06ae BA       		.byte	-70
 3141 06af EA       		.byte	-22
 3142 06b0 D1       		.byte	-47
 3143 06b1 02       		.byte	2
 3144 06b2 7F       		.byte	127
 3145 06b3 38       		.byte	56
 3146 06b4 F1       		.byte	-15
 3147 06b5 30       		.byte	48
 3148 06b6 29       		.byte	41
 3149 06b7 33       		.byte	51
 3150 06b8 4C       		.byte	76
 3151 06b9 30       		.byte	48
 3152 06ba 52       		.byte	82
 3153 06bb 1D       		.byte	29
 3154 06bc 01       		.byte	1
 3155 06bd 53       		.byte	83
 3156 06be 32       		.byte	50
 3157 06bf BF       		.byte	-65
 3158 06c0 C9       		.byte	-55
 3159 06c1 E8       		.byte	-24
 3160 06c2 08       		.byte	8
 3161 06c3 D7       		.byte	-41
 3162 06c4 C9       		.byte	-55
 3163 06c5 E0       		.byte	-32
 3164 06c6 F9       		.byte	-7
 3165 06c7 C8       		.byte	-56
 3166 06c8 2A       		.byte	42
 3167 06c9 CF       		.byte	-49
 3168 06ca E2       		.byte	-30
 3169 06cb 3E       		.byte	62
 3170 06cc 08       		.byte	8
 3171 06cd 17       		.byte	23
 3172 06ce FD       		.byte	-3
 3173 06cf 05       		.byte	5
 3174 06d0 C9       		.byte	-55
 3175 06d1 EE       		.byte	-18
 3176 06d2 F3       		.byte	-13
 3177 06d3 D3       		.byte	-45
 3178 06d4 05       		.byte	5
 3179 06d5 1A       		.byte	26
 3180 06d6 FF       		.byte	-1
 3181 06d7 16       		.byte	22
 3182 06d8 03       		.byte	3
 3183 06d9 10       		.byte	16
 3184 06da E2       		.byte	-30
 3185 06db 3D       		.byte	61
 3186 06dc 20       		.byte	32
 3187 06dd EE       		.byte	-18
 3188 06de FF       		.byte	-1
 3189 06df F9       		.byte	-7
 3190 06e0 0A       		.byte	10
 3191 06e1 EF       		.byte	-17
 3192 06e2 09       		.byte	9
 3193 06e3 0A       		.byte	10
GAS LISTING C:\Users\Jesper\AppData\Local\Temp\ccteJwuU.s 			page 63


 3194 06e4 02       		.byte	2
 3195 06e5 F9       		.byte	-7
 3196 06e6 FD       		.byte	-3
 3197 06e7 DA       		.byte	-38
 3198 06e8 DE       		.byte	-34
 3199 06e9 2A       		.byte	42
 3200 06ea 09       		.byte	9
 3201 06eb 08       		.byte	8
 3202 06ec 07       		.byte	7
 3203 06ed D0       		.byte	-48
 3204 06ee 02       		.byte	2
 3205 06ef D3       		.byte	-45
 3206 06f0 7F       		.byte	127
 3207 06f1 DF       		.byte	-33
 3208 06f2 EE       		.byte	-18
 3209 06f3 2C       		.byte	44
 3210 06f4 27       		.byte	39
 3211 06f5 FF       		.byte	-1
 3212 06f6 E0       		.byte	-32
 3213 06f7 F6       		.byte	-10
 3214 06f8 F7       		.byte	-9
 3215 06f9 0F       		.byte	15
 3216 06fa E9       		.byte	-23
 3217 06fb F2       		.byte	-14
 3218 06fc 22       		.byte	34
 3219 06fd FB       		.byte	-5
 3220 06fe F5       		.byte	-11
 3221 06ff FF       		.byte	-1
 3222 0700 3D       		.byte	61
 3223 0701 53       		.byte	83
 3224 0702 14       		.byte	20
 3225 0703 EB       		.byte	-21
 3226 0704 15       		.byte	21
 3227 0705 FE       		.byte	-2
 3228 0706 E4       		.byte	-28
 3229 0707 06       		.byte	6
 3230 0708 DC       		.byte	-36
 3231 0709 27       		.byte	39
 3232 070a 11       		.byte	17
 3233 070b E3       		.byte	-29
 3234 070c 1B       		.byte	27
 3235 070d 9D       		.byte	-99
 3236 070e D8       		.byte	-40
 3237 070f 07       		.byte	7
 3238 0710 EC       		.byte	-20
 3239 0711 CD       		.byte	-51
 3240 0712 B0       		.byte	-80
 3241 0713 EE       		.byte	-18
 3242 0714 F8       		.byte	-8
 3243 0715 05       		.byte	5
 3244 0716 0D       		.byte	13
 3245 0717 2C       		.byte	44
 3246 0718 24       		.byte	36
 3247 0719 F8       		.byte	-8
 3248 071a DF       		.byte	-33
 3249 071b FE       		.byte	-2
 3250 071c EC       		.byte	-20
GAS LISTING C:\Users\Jesper\AppData\Local\Temp\ccteJwuU.s 			page 64


 3251 071d 1B       		.byte	27
 3252 071e 69       		.byte	105
 3253 071f E6       		.byte	-26
 3254 0720 04       		.byte	4
 3255 0721 DB       		.byte	-37
 3256 0722 04       		.byte	4
 3257 0723 3B       		.byte	59
 3258 0724 53       		.byte	83
 3259 0725 1B       		.byte	27
 3260 0726 3D       		.byte	61
 3261 0727 20       		.byte	32
 3262 0728 07       		.byte	7
 3263 0729 00       		.byte	0
 3264 072a C8       		.byte	-56
 3265 072b DB       		.byte	-37
 3266 072c 47       		.byte	71
 3267 072d D7       		.byte	-41
 3268 072e E0       		.byte	-32
 3269 072f D8       		.byte	-40
 3270 0730 C7       		.byte	-57
 3271 0731 DE       		.byte	-34
 3272 0732 DC       		.byte	-36
 3273 0733 E6       		.byte	-26
 3274 0734 19       		.byte	25
 3275 0735 DC       		.byte	-36
 3276 0736 F7       		.byte	-9
 3277 0737 EF       		.byte	-17
 3278 0738 14       		.byte	20
 3279 0739 33       		.byte	51
 3280 073a F3       		.byte	-13
 3281 073b 2D       		.byte	45
 3282 073c EE       		.byte	-18
 3283 073d AC       		.byte	-84
 3284 073e E1       		.byte	-31
 3285 073f 9C       		.byte	-100
 3286 0740 FB       		.byte	-5
 3287 0741 D5       		.byte	-43
 3288 0742 FE       		.byte	-2
 3289 0743 FF       		.byte	-1
 3290 0744 14       		.byte	20
 3291 0745 2D       		.byte	45
 3292 0746 81       		.byte	-127
 3293 0747 FC       		.byte	-4
 3294 0748 F0       		.byte	-16
 3295 0749 03       		.byte	3
 3296 074a 06       		.byte	6
 3297 074b CC       		.byte	-52
 3298 074c E3       		.byte	-29
 3299 074d 1E       		.byte	30
 3300 074e DF       		.byte	-33
 3301 074f A2       		.byte	-94
 3302 0750 EF       		.byte	-17
 3303 0751 ED       		.byte	-19
 3304 0752 EB       		.byte	-21
 3305 0753 21       		.byte	33
 3306 0754 06       		.byte	6
 3307 0755 3C       		.byte	60
GAS LISTING C:\Users\Jesper\AppData\Local\Temp\ccteJwuU.s 			page 65


 3308 0756 3C       		.byte	60
 3309 0757 7F       		.byte	127
 3310 0758 43       		.byte	67
 3311 0759 F7       		.byte	-9
 3312 075a 16       		.byte	22
 3313 075b 01       		.byte	1
 3314 075c 37       		.byte	55
 3315 075d 2C       		.byte	44
 3316 075e 4D       		.byte	77
 3317 075f C4       		.byte	-60
 3318 0760 F9       		.byte	-7
 3319 0761 F5       		.byte	-11
 3320 0762 10       		.byte	16
 3321 0763 2B       		.byte	43
 3322 0764 FB       		.byte	-5
 3323 0765 02       		.byte	2
 3324 0766 D1       		.byte	-47
 3325 0767 0C       		.byte	12
 3326 0768 08       		.byte	8
 3327 0769 99       		.byte	-103
 3328 076a 2B       		.byte	43
 3329 076b FB       		.byte	-5
 3330 076c B4       		.byte	-76
 3331 076d FC       		.byte	-4
 3332 076e E3       		.byte	-29
 3333 076f D5       		.byte	-43
 3334 0770 D4       		.byte	-44
 3335 0771 37       		.byte	55
 3336 0772 CC       		.byte	-52
 3337 0773 04       		.byte	4
 3338 0774 29       		.byte	41
 3339 0775 FA       		.byte	-6
 3340 0776 51       		.byte	81
 3341 0777 16       		.byte	22
 3342 0778 18       		.byte	24
 3343 0779 19       		.byte	25
 3344 077a 03       		.byte	3
 3345 077b 01       		.byte	1
 3346 077c 0A       		.byte	10
 3347 077d E7       		.byte	-25
 3348 077e 44       		.byte	68
 3349 077f BF       		.byte	-65
 3350 0780 01       		.byte	1
 3351 0781 F4       		.byte	-12
 3352 0782 F7       		.byte	-9
 3353 0783 F7       		.byte	-9
 3354 0784 E5       		.byte	-27
 3355 0785 2A       		.byte	42
 3356 0786 6F       		.byte	111
 3357 0787 36       		.byte	54
 3358 0788 1F       		.byte	31
 3359 0789 4C       		.byte	76
 3360 078a 03       		.byte	3
 3361 078b 93       		.byte	-109
 3362 078c DB       		.byte	-37
 3363 078d D8       		.byte	-40
 3364 078e E0       		.byte	-32
GAS LISTING C:\Users\Jesper\AppData\Local\Temp\ccteJwuU.s 			page 66


 3365 078f 3A       		.byte	58
 3366 0790 18       		.byte	24
 3367 0791 F8       		.byte	-8
 3368 0792 08       		.byte	8
 3369 0793 0E       		.byte	14
 3370 0794 46       		.byte	70
 3371 0795 07       		.byte	7
 3372 0796 E3       		.byte	-29
 3373 0797 CE       		.byte	-50
 3374 0798 E8       		.byte	-24
 3375 0799 58       		.byte	88
 3376 079a 00       		.byte	0
 3377 079b 00       		.byte	0
 3378 079c 38       		.byte	56
 3379 079d 27       		.byte	39
 3380 079e 00       		.byte	0
 3381 079f 00       		.byte	0
 3382 07a0 0C       		.byte	12
 3383 07a1 E2       		.byte	-30
 3384 07a2 FF       		.byte	-1
 3385 07a3 FF       		.byte	-1
 3386 07a4 DC       		.byte	-36
 3387 07a5 6A       		.byte	106
 3388 07a6 FF       		.byte	-1
 3389 07a7 FF       		.byte	-1
 3390 07a8 7E       		.byte	126
 3391 07a9 85       		.byte	-123
 3392 07aa FE       		.byte	-2
 3393 07ab FF       		.byte	-1
 3394 07ac 76       		.byte	118
 3395 07ad 17       		.byte	23
 3396 07ae 00       		.byte	0
 3397 07af 00       		.byte	0
 3398 07b0 EB       		.byte	-21
 3399 07b1 5A       		.byte	90
 3400 07b2 FF       		.byte	-1
 3401 07b3 FF       		.byte	-1
 3402 07b4 46       		.byte	70
 3403 07b5 CB       		.byte	-53
 3404 07b6 FF       		.byte	-1
 3405 07b7 FF       		.byte	-1
 3406 07b8 B6       		.byte	-74
 3407 07b9 80       		.byte	-128
 3408 07ba 00       		.byte	0
 3409 07bb 00       		.byte	0
 3410 07bc 31       		.byte	49
 3411 07bd AF       		.byte	-81
 3412 07be FF       		.byte	-1
 3413 07bf FF       		.byte	-1
 3414 07c0 DB       		.byte	-37
 3415 07c1 36       		.byte	54
 3416 07c2 00       		.byte	0
 3417 07c3 00       		.byte	0
 3418 07c4 F6       		.byte	-10
 3419 07c5 EF       		.byte	-17
 3420 07c6 FF       		.byte	-1
 3421 07c7 FF       		.byte	-1
GAS LISTING C:\Users\Jesper\AppData\Local\Temp\ccteJwuU.s 			page 67


 3422 07c8 0C       		.byte	12
 3423 07c9 82       		.byte	-126
 3424 07ca FF       		.byte	-1
 3425 07cb FF       		.byte	-1
 3426 07cc 82       		.byte	-126
 3427 07cd E2       		.byte	-30
 3428 07ce FF       		.byte	-1
 3429 07cf FF       		.byte	-1
 3430 07d0 55       		.byte	85
 3431 07d1 12       		.byte	18
 3432 07d2 FF       		.byte	-1
 3433 07d3 FF       		.byte	-1
 3434 07d4 F1       		.byte	-15
 3435 07d5 BF       		.byte	-65
 3436 07d6 00       		.byte	0
 3437 07d7 00       		.byte	0
 3438 07d8 01       		.byte	1
 3439 07d9 00       		.byte	0
 3440 07da 00       		.byte	0
 3441 07db 00       		.byte	0
 3442 07dc 30       		.byte	48
 3443 07dd 00       		.byte	0
 3444 07de 00       		.byte	0
 3445 07df 00       		.byte	0
 3446 07e0 78       		.byte	120
 3447 07e1 05       		.byte	5
 3448 07e2 00       		.byte	0
 3449 07e3 00       		.byte	0
 3450 07e4 00       		.byte	0
 3451 07e5 00       		.byte	0
 3452 07e6 00       		.byte	0
 3453 07e7 00       		.byte	0
 3454 07e8 03       		.byte	3
 3455 07e9 00       		.byte	0
 3456 07ea 02       		.byte	2
 3457 07eb 00       		.byte	0
 3458 07ec 02       		.byte	2
 3459 07ed 00       		.byte	0
 3460 07ee 10       		.byte	16
 3461 07ef 00       		.byte	0
 3462 07f0 01       		.byte	1
 3463 07f1 00       		.byte	0
 3464 07f2 01       		.byte	1
 3465 07f3 00       		.byte	0
 3466 07f4 01       		.byte	1
 3467 07f5 00       		.byte	0
 3468 07f6 10       		.byte	16
 3469 07f7 00       		.byte	0
 3470 07f8 05       		.byte	5
 3471 07f9 09       		.byte	9
 3472 07fa 68       		.byte	104
 3473 07fb 3D       		.byte	61
 3474 07fc 80       		.byte	-128
 3475 07fd FF       		.byte	-1
 3476 07fe FF       		.byte	-1
 3477 07ff FF       		.byte	-1
 3478 0800 21       		.byte	33
GAS LISTING C:\Users\Jesper\AppData\Local\Temp\ccteJwuU.s 			page 68


 3479 0801 1A       		.byte	26
 3480 0802 B7       		.byte	-73
 3481 0803 3C       		.byte	60
 3482 0804 80       		.byte	-128
 3483 0805 FF       		.byte	-1
 3484 0806 FF       		.byte	-1
 3485 0807 FF       		.byte	-1
 3486 0808 02       		.byte	2
 3487 0809 00       		.byte	0
 3488 080a 00       		.byte	0
 3489 080b 00       		.byte	0
 3490 080c 30       		.byte	48
 3491 080d 01       		.byte	1
 3492 080e 00       		.byte	0
 3493 080f 00       		.byte	0
 3494 0810 00       		.byte	0
 3495 0811 00       		.byte	0
 3496 0812 00       		.byte	0
 3497 0813 00       		.byte	0
 3498 0814 A8       		.byte	-88
 3499 0815 05       		.byte	5
 3500 0816 00       		.byte	0
 3501 0817 00       		.byte	0
 3502 0818 01       		.byte	1
 3503 0819 00       		.byte	0
 3504 081a 01       		.byte	1
 3505 081b 00       		.byte	0
 3506 081c 01       		.byte	1
 3507 081d 00       		.byte	0
 3508 081e 10       		.byte	16
 3509 081f 00       		.byte	0
 3510 0820 01       		.byte	1
 3511 0821 00       		.byte	0
 3512 0822 01       		.byte	1
 3513 0823 00       		.byte	0
 3514 0824 01       		.byte	1
 3515 0825 00       		.byte	0
 3516 0826 0A       		.byte	10
 3517 0827 00       		.byte	0
 3518 0828 21       		.byte	33
 3519 0829 1A       		.byte	26
 3520 082a B7       		.byte	-73
 3521 082b 3C       		.byte	60
 3522 082c 80       		.byte	-128
 3523 082d FF       		.byte	-1
 3524 082e FF       		.byte	-1
 3525 082f FF       		.byte	-1
 3526 0830 FD       		.byte	-3
 3527 0831 06       		.byte	6
 3528 0832 1B       		.byte	27
 3529 0833 3E       		.byte	62
 3530 0834 2A       		.byte	42
 3531 0835 00       		.byte	0
 3532 0836 00       		.byte	0
 3533 0837 00       		.byte	0
 3534 0838 40       		.byte	64
 3535 0839 00       		.byte	0
GAS LISTING C:\Users\Jesper\AppData\Local\Temp\ccteJwuU.s 			page 69


 3536 083a 00       		.byte	0
 3537 083b 00       		.byte	0
 3538 083c 68       		.byte	104
 3539 083d 00       		.byte	0
 3540 083e 00       		.byte	0
 3541 083f 00       		.byte	0
 3542 0840 08       		.byte	8
 3543 0841 01       		.byte	1
 3544 0842 00       		.byte	0
 3545 0843 00       		.byte	0
 3546 0844 00       		.byte	0
 3547 0845 00       		.byte	0
 3548 0846 00       		.byte	0
 3549 0847 00       		.byte	0
 3550 0848 E9       		.byte	-23
 3551 0849 E2       		.byte	-30
 3552 084a AF       		.byte	-81
 3553 084b 3C       		.byte	60
 3554 084c 00       		.byte	0
 3555 084d 00       		.byte	0
 3556 084e 00       		.byte	0
 3557 084f 00       		.byte	0
 3558 0850 00       		.byte	0
 3559 0851 00       		.byte	0
 3560 0852 00       		.byte	0
 3561 0853 00       		.byte	0
 3562 0854 00       		.byte	0
 3563 0855 00       		.byte	0
 3564 0856 00       		.byte	0
 3565 0857 00       		.byte	0
 3566 0858 00       		.byte	0
 3567 0859 00       		.byte	0
 3568 085a 00       		.byte	0
 3569 085b 00       		.byte	0
 3570 085c 00       		.byte	0
 3571 085d 00       		.byte	0
 3572 085e 00       		.byte	0
 3573 085f 00       		.byte	0
 3574 0860 00       		.byte	0
 3575 0861 00       		.byte	0
 3576 0862 00       		.byte	0
 3577 0863 00       		.byte	0
 3578 0864 00       		.byte	0
 3579 0865 00       		.byte	0
 3580 0866 00       		.byte	0
 3581 0867 00       		.byte	0
 3582 0868 00       		.byte	0
 3583 0869 00       		.byte	0
 3584 086a 00       		.byte	0
 3585 086b 00       		.byte	0
 3586 086c 00       		.byte	0
 3587 086d 00       		.byte	0
 3588 086e 00       		.byte	0
 3589 086f 00       		.byte	0
 3590 0870 2A       		.byte	42
 3591 0871 E2       		.byte	-30
 3592 0872 29       		.byte	41
GAS LISTING C:\Users\Jesper\AppData\Local\Temp\ccteJwuU.s 			page 70


 3593 0873 BF       		.byte	-65
 3594 0874 0B       		.byte	11
 3595 0875 DD       		.byte	-35
 3596 0876 09       		.byte	9
 3597 0877 FA       		.byte	-6
 3598 0878 42       		.byte	66
 3599 0879 B1       		.byte	-79
 3600 087a F9       		.byte	-7
 3601 087b C2       		.byte	-62
 3602 087c 46       		.byte	70
 3603 087d D2       		.byte	-46
 3604 087e 0F       		.byte	15
 3605 087f B5       		.byte	-75
 3606 0880 34       		.byte	52
 3607 0881 EA       		.byte	-22
 3608 0882 B3       		.byte	-77
 3609 0883 17       		.byte	23
 3610 0884 DB       		.byte	-37
 3611 0885 FB       		.byte	-5
 3612 0886 BC       		.byte	-68
 3613 0887 0F       		.byte	15
 3614 0888 24       		.byte	36
 3615 0889 DF       		.byte	-33
 3616 088a CE       		.byte	-50
 3617 088b F9       		.byte	-7
 3618 088c 1C       		.byte	28
 3619 088d E0       		.byte	-32
 3620 088e BB       		.byte	-69
 3621 088f 38       		.byte	56
 3622 0890 B7       		.byte	-73
 3623 0891 E2       		.byte	-30
 3624 0892 28       		.byte	40
 3625 0893 0C       		.byte	12
 3626 0894 04       		.byte	4
 3627 0895 93       		.byte	-109
 3628 0896 39       		.byte	57
 3629 0897 E3       		.byte	-29
 3630 0898 F5       		.byte	-11
 3631 0899 EE       		.byte	-18
 3632 089a 3C       		.byte	60
 3633 089b C6       		.byte	-58
 3634 089c 37       		.byte	55
 3635 089d F6       		.byte	-10
 3636 089e B6       		.byte	-74
 3637 089f 41       		.byte	65
 3638 08a0 CA       		.byte	-54
 3639 08a1 BA       		.byte	-70
 3640 08a2 D7       		.byte	-41
 3641 08a3 ED       		.byte	-19
 3642 08a4 C3       		.byte	-61
 3643 08a5 FD       		.byte	-3
 3644 08a6 3A       		.byte	58
 3645 08a7 0D       		.byte	13
 3646 08a8 D2       		.byte	-46
 3647 08a9 1D       		.byte	29
 3648 08aa 07       		.byte	7
 3649 08ab A9       		.byte	-87
GAS LISTING C:\Users\Jesper\AppData\Local\Temp\ccteJwuU.s 			page 71


 3650 08ac E9       		.byte	-23
 3651 08ad 06       		.byte	6
 3652 08ae 53       		.byte	83
 3653 08af 25       		.byte	37
 3654 08b0 25       		.byte	37
 3655 08b1 D7       		.byte	-41
 3656 08b2 1A       		.byte	26
 3657 08b3 31       		.byte	49
 3658 08b4 F0       		.byte	-16
 3659 08b5 0E       		.byte	14
 3660 08b6 81       		.byte	-127
 3661 08b7 19       		.byte	25
 3662 08b8 EF       		.byte	-17
 3663 08b9 C0       		.byte	-64
 3664 08ba 0A       		.byte	10
 3665 08bb 2D       		.byte	45
 3666 08bc B5       		.byte	-75
 3667 08bd 33       		.byte	51
 3668 08be FB       		.byte	-5
 3669 08bf E6       		.byte	-26
 3670 08c0 DC       		.byte	-36
 3671 08c1 1D       		.byte	29
 3672 08c2 03       		.byte	3
 3673 08c3 83       		.byte	-125
 3674 08c4 E2       		.byte	-30
 3675 08c5 48       		.byte	72
 3676 08c6 D9       		.byte	-39
 3677 08c7 28       		.byte	40
 3678 08c8 23       		.byte	35
 3679 08c9 31       		.byte	49
 3680 08ca 34       		.byte	52
 3681 08cb E6       		.byte	-26
 3682 08cc EB       		.byte	-21
 3683 08cd DB       		.byte	-37
 3684 08ce DD       		.byte	-35
 3685 08cf DC       		.byte	-36
 3686 08d0 E7       		.byte	-25
 3687 08d1 4E       		.byte	78
 3688 08d2 C0       		.byte	-64
 3689 08d3 CF       		.byte	-49
 3690 08d4 25       		.byte	37
 3691 08d5 3C       		.byte	60
 3692 08d6 98       		.byte	-104
 3693 08d7 B5       		.byte	-75
 3694 08d8 EC       		.byte	-20
 3695 08d9 CC       		.byte	-52
 3696 08da 36       		.byte	54
 3697 08db C3       		.byte	-61
 3698 08dc 3C       		.byte	60
 3699 08dd 08       		.byte	8
 3700 08de F2       		.byte	-14
 3701 08df E3       		.byte	-29
 3702 08e0 0D       		.byte	13
 3703 08e1 F7       		.byte	-9
 3704 08e2 41       		.byte	65
 3705 08e3 44       		.byte	68
 3706 08e4 90       		.byte	-112
GAS LISTING C:\Users\Jesper\AppData\Local\Temp\ccteJwuU.s 			page 72


 3707 08e5 1F       		.byte	31
 3708 08e6 22       		.byte	34
 3709 08e7 07       		.byte	7
 3710 08e8 CB       		.byte	-53
 3711 08e9 0B       		.byte	11
 3712 08ea B8       		.byte	-72
 3713 08eb 09       		.byte	9
 3714 08ec FE       		.byte	-2
 3715 08ed C8       		.byte	-56
 3716 08ee BF       		.byte	-65
 3717 08ef 0B       		.byte	11
 3718 08f0 BD       		.byte	-67
 3719 08f1 F5       		.byte	-11
 3720 08f2 06       		.byte	6
 3721 08f3 D2       		.byte	-46
 3722 08f4 4D       		.byte	77
 3723 08f5 CC       		.byte	-52
 3724 08f6 07       		.byte	7
 3725 08f7 DF       		.byte	-33
 3726 08f8 1F       		.byte	31
 3727 08f9 FB       		.byte	-5
 3728 08fa F9       		.byte	-7
 3729 08fb 2F       		.byte	47
 3730 08fc E6       		.byte	-26
 3731 08fd A2       		.byte	-94
 3732 08fe 26       		.byte	38
 3733 08ff 00       		.byte	0
 3734 0900 F0       		.byte	-16
 3735 0901 36       		.byte	54
 3736 0902 FC       		.byte	-4
 3737 0903 E9       		.byte	-23
 3738 0904 F3       		.byte	-13
 3739 0905 EB       		.byte	-21
 3740 0906 0E       		.byte	14
 3741 0907 B0       		.byte	-80
 3742 0908 BD       		.byte	-67
 3743 0909 3F       		.byte	63
 3744 090a C6       		.byte	-58
 3745 090b 1C       		.byte	28
 3746 090c CA       		.byte	-54
 3747 090d 4D       		.byte	77
 3748 090e 02       		.byte	2
 3749 090f F4       		.byte	-12
 3750 0910 BC       		.byte	-68
 3751 0911 B2       		.byte	-78
 3752 0912 FF       		.byte	-1
 3753 0913 FF       		.byte	-1
 3754 0914 1A       		.byte	26
 3755 0915 A5       		.byte	-91
 3756 0916 FF       		.byte	-1
 3757 0917 FF       		.byte	-1
 3758 0918 C5       		.byte	-59
 3759 0919 C3       		.byte	-61
 3760 091a FF       		.byte	-1
 3761 091b FF       		.byte	-1
 3762 091c 1C       		.byte	28
 3763 091d AA       		.byte	-86
GAS LISTING C:\Users\Jesper\AppData\Local\Temp\ccteJwuU.s 			page 73


 3764 091e FF       		.byte	-1
 3765 091f FF       		.byte	-1
 3766 0920 44       		.byte	68
 3767 0921 C4       		.byte	-60
 3768 0922 FF       		.byte	-1
 3769 0923 FF       		.byte	-1
 3770 0924 64       		.byte	100
 3771 0925 CC       		.byte	-52
 3772 0926 FF       		.byte	-1
 3773 0927 FF       		.byte	-1
 3774 0928 FB       		.byte	-5
 3775 0929 9C       		.byte	-100
 3776 092a FF       		.byte	-1
 3777 092b FF       		.byte	-1
 3778 092c 62       		.byte	98
 3779 092d C3       		.byte	-61
 3780 092e FF       		.byte	-1
 3781 092f FF       		.byte	-1
 3782 0930 97       		.byte	-105
 3783 0931 BD       		.byte	-67
 3784 0932 FF       		.byte	-1
 3785 0933 FF       		.byte	-1
 3786 0934 E6       		.byte	-26
 3787 0935 C9       		.byte	-55
 3788 0936 FF       		.byte	-1
 3789 0937 FF       		.byte	-1
 3790 0938 03       		.byte	3
 3791 0939 00       		.byte	0
 3792 093a 01       		.byte	1
 3793 093b 00       		.byte	0
 3794 093c 30       		.byte	48
 3795 093d 00       		.byte	0
 3796 093e 00       		.byte	0
 3797 093f 00       		.byte	0
 3798 0940 A8       		.byte	-88
 3799 0941 05       		.byte	5
 3800 0942 00       		.byte	0
 3801 0943 00       		.byte	0
 3802 0944 00       		.byte	0
 3803 0945 00       		.byte	0
 3804 0946 00       		.byte	0
 3805 0947 00       		.byte	0
 3806 0948 01       		.byte	1
 3807 0949 00       		.byte	0
 3808 094a 01       		.byte	1
 3809 094b 00       		.byte	0
 3810 094c 01       		.byte	1
 3811 094d 00       		.byte	0
 3812 094e 0A       		.byte	10
 3813 094f 00       		.byte	0
 3814 0950 01       		.byte	1
 3815 0951 00       		.byte	0
 3816 0952 01       		.byte	1
 3817 0953 00       		.byte	0
 3818 0954 01       		.byte	1
 3819 0955 00       		.byte	0
 3820 0956 0A       		.byte	10
GAS LISTING C:\Users\Jesper\AppData\Local\Temp\ccteJwuU.s 			page 74


 3821 0957 00       		.byte	0
 3822 0958 FD       		.byte	-3
 3823 0959 06       		.byte	6
 3824 095a 1B       		.byte	27
 3825 095b 3E       		.byte	62
 3826 095c 2A       		.byte	42
 3827 095d 00       		.byte	0
 3828 095e 00       		.byte	0
 3829 095f 00       		.byte	0
 3830 0960 00       		.byte	0
 3831 0961 00       		.byte	0
 3832 0962 80       		.byte	-128
 3833 0963 3B       		.byte	59
 3834 0964 80       		.byte	-128
 3835 0965 FF       		.byte	-1
 3836 0966 FF       		.byte	-1
 3837 0967 FF       		.byte	-1
 3838              		.text
 3839              	.Letext0:
 3840              		.file 2 "c:\\users\\jesper\\documents\\ml_sommarjobb\\toolchain-gd32v-v201-win\\toolchain-gd32v-v2
 3841              		.file 3 "c:\\users\\jesper\\documents\\ml_sommarjobb\\toolchain-gd32v-v201-win\\toolchain-gd32v-v2
 3842              		.file 4 "c:\\users\\jesper\\documents\\ml_sommarjobb\\toolchain-gd32v-v201-win\\toolchain-gd32v-v2
 3843              		.file 5 "c:\\users\\jesper\\documents\\ml_sommarjobb\\toolchain-gd32v-v201-win\\toolchain-gd32v-v2
 3844              		.file 6 "c:\\users\\jesper\\documents\\ml_sommarjobb\\toolchain-gd32v-v201-win\\toolchain-gd32v-v2
 3845              		.file 7 "c:\\users\\jesper\\documents\\ml_sommarjobb\\toolchain-gd32v-v201-win\\toolchain-gd32v-v2
 3846              		.file 8 "./../../firmware/GD32VF103_standard_peripheral/system_gd32vf103.h"
 3847              		.file 9 "c:\\users\\jesper\\documents\\ml_sommarjobb\\toolchain-gd32v-v201-win\\toolchain-gd32v-v2
 3848              		.file 10 "c:\\users\\jesper\\documents\\ml_sommarjobb\\toolchain-gd32v-v201-win\\toolchain-gd32v-v
 3849              		.file 11 "lib/tinymaix/include/tinymaix.h"
 3850              		.file 12 "./../../firmware/GD32VF103_standard_peripheral/Include/gd32vf103_rcu.h"
 3851              		.file 13 "lib/usbcdc/include/drv_usb_regs.h"
 3852              		.file 14 "lib/usbcdc/include/usb_ch9_std.h"
 3853              		.file 15 "lib/usbcdc/include/drv_usb_core.h"
 3854              		.file 16 "lib/usbcdc/include/drv_usb_dev.h"
 3855              		.file 17 "lib/usbcdc/include/cdc_acm_core.h"
 3856              		.file 18 "lib/usbcdc/include/usb_serial_if.h"
 3857              		.file 19 "lib/mnist/include/mnist_valid_q.h"
 3858              		.file 20 "c:\\users\\jesper\\documents\\ml_sommarjobb\\toolchain-gd32v-v201-win\\toolchain-gd32v-v
 3859              		.file 21 "lib/usbcdc/include/usb_delay.h"
 3860              		.file 22 "lib/tinymaix/include/get_time.h"
 3861              		.file 23 "<built-in>"
 3862              		.file 24 "./../../firmware/GD32VF103_standard_peripheral/Include/gd32vf103_gpio.h"
GAS LISTING C:\Users\Jesper\AppData\Local\Temp\ccteJwuU.s 			page 75


DEFINED SYMBOLS
                            *ABS*:0000000000000000 main.c
C:\Users\Jesper\AppData\Local\Temp\ccteJwuU.s:1429   .rodata.mdl_data:0000000000000000 mdl_data
C:\Users\Jesper\AppData\Local\Temp\ccteJwuU.s:640    .data.mnist_pic:0000000000000000 mnist_pic
C:\Users\Jesper\AppData\Local\Temp\ccteJwuU.s:14     .text.layer_cb:0000000000000000 layer_cb
C:\Users\Jesper\AppData\Local\Temp\ccteJwuU.s:18     .text.layer_cb:0000000000000000 .L0 
C:\Users\Jesper\AppData\Local\Temp\ccteJwuU.s:20     .text.layer_cb:0000000000000000 .L0 
C:\Users\Jesper\AppData\Local\Temp\ccteJwuU.s:21     .text.layer_cb:0000000000000000 .L0 
C:\Users\Jesper\AppData\Local\Temp\ccteJwuU.s:22     .text.layer_cb:0000000000000000 .L0 
C:\Users\Jesper\AppData\Local\Temp\ccteJwuU.s:23     .text.layer_cb:0000000000000000 .L0 
C:\Users\Jesper\AppData\Local\Temp\ccteJwuU.s:24     .text.layer_cb:0000000000000000 .L0 
C:\Users\Jesper\AppData\Local\Temp\ccteJwuU.s:25     .text.layer_cb:0000000000000000 .L0 
C:\Users\Jesper\AppData\Local\Temp\ccteJwuU.s:26     .text.layer_cb:0000000000000000 .L0 
C:\Users\Jesper\AppData\Local\Temp\ccteJwuU.s:29     .text.layer_cb:0000000000000004 .L0 
C:\Users\Jesper\AppData\Local\Temp\ccteJwuU.s:37     .text.parse_output:0000000000000000 parse_output
C:\Users\Jesper\AppData\Local\Temp\ccteJwuU.s:40     .text.parse_output:0000000000000000 .L0 
C:\Users\Jesper\AppData\Local\Temp\ccteJwuU.s:42     .text.parse_output:0000000000000000 .L0 
C:\Users\Jesper\AppData\Local\Temp\ccteJwuU.s:43     .text.parse_output:0000000000000000 .L0 
C:\Users\Jesper\AppData\Local\Temp\ccteJwuU.s:44     .text.parse_output:0000000000000000 .L0 
C:\Users\Jesper\AppData\Local\Temp\ccteJwuU.s:45     .text.parse_output:0000000000000000 .L0 
C:\Users\Jesper\AppData\Local\Temp\ccteJwuU.s:46     .text.parse_output:0000000000000000 .L0 
C:\Users\Jesper\AppData\Local\Temp\ccteJwuU.s:48     .text.parse_output:0000000000000000 .L0 
C:\Users\Jesper\AppData\Local\Temp\ccteJwuU.s:50     .text.parse_output:0000000000000000 .L0 
C:\Users\Jesper\AppData\Local\Temp\ccteJwuU.s:51     .text.parse_output:0000000000000000 .L0 
C:\Users\Jesper\AppData\Local\Temp\ccteJwuU.s:53     .text.parse_output:0000000000000002 .L0 
C:\Users\Jesper\AppData\Local\Temp\ccteJwuU.s:56     .text.parse_output:0000000000000004 .L0 
C:\Users\Jesper\AppData\Local\Temp\ccteJwuU.s:59     .text.parse_output:0000000000000008 .L0 
C:\Users\Jesper\AppData\Local\Temp\ccteJwuU.s:62     .text.parse_output:0000000000000008 .L0 
C:\Users\Jesper\AppData\Local\Temp\ccteJwuU.s:65     .text.parse_output:000000000000000c .L0 
C:\Users\Jesper\AppData\Local\Temp\ccteJwuU.s:72     .text.parse_output:000000000000001a .L0 
C:\Users\Jesper\AppData\Local\Temp\ccteJwuU.s:73     .text.parse_output:000000000000001a .L0 
C:\Users\Jesper\AppData\Local\Temp\ccteJwuU.s:74     .text.parse_output:000000000000001a .L0 
C:\Users\Jesper\AppData\Local\Temp\ccteJwuU.s:75     .text.parse_output:000000000000001a .L0 
C:\Users\Jesper\AppData\Local\Temp\ccteJwuU.s:76     .text.parse_output:000000000000001a .L0 
C:\Users\Jesper\AppData\Local\Temp\ccteJwuU.s:77     .text.parse_output:000000000000001a .L0 
C:\Users\Jesper\AppData\Local\Temp\ccteJwuU.s:78     .text.parse_output:000000000000001a .L0 
C:\Users\Jesper\AppData\Local\Temp\ccteJwuU.s:81     .text.parse_output:000000000000001a .L0 
C:\Users\Jesper\AppData\Local\Temp\ccteJwuU.s:84     .text.parse_output:000000000000001c .L0 
C:\Users\Jesper\AppData\Local\Temp\ccteJwuU.s:86     .text.parse_output:000000000000001e .L0 
C:\Users\Jesper\AppData\Local\Temp\ccteJwuU.s:90     .text.parse_output:0000000000000024 .L0 
C:\Users\Jesper\AppData\Local\Temp\ccteJwuU.s:94     .text.parse_output:0000000000000026 .L0 
C:\Users\Jesper\AppData\Local\Temp\ccteJwuU.s:104    .text.parse_output:0000000000000042 .L0 
C:\Users\Jesper\AppData\Local\Temp\ccteJwuU.s:105    .text.parse_output:0000000000000042 .L0 
C:\Users\Jesper\AppData\Local\Temp\ccteJwuU.s:107    .text.parse_output:0000000000000046 .L0 
C:\Users\Jesper\AppData\Local\Temp\ccteJwuU.s:115    .text.parse_output:0000000000000058 .L0 
C:\Users\Jesper\AppData\Local\Temp\ccteJwuU.s:119    .text.parse_output:000000000000005a .L0 
C:\Users\Jesper\AppData\Local\Temp\ccteJwuU.s:123    .text.parse_output:000000000000005e .L0 
C:\Users\Jesper\AppData\Local\Temp\ccteJwuU.s:126    .text.parse_output:0000000000000062 .L0 
C:\Users\Jesper\AppData\Local\Temp\ccteJwuU.s:137    .text.parse_output:0000000000000082 .L0 
C:\Users\Jesper\AppData\Local\Temp\ccteJwuU.s:138    .text.parse_output:0000000000000082 .L0 
C:\Users\Jesper\AppData\Local\Temp\ccteJwuU.s:139    .text.parse_output:0000000000000084 .L0 
C:\Users\Jesper\AppData\Local\Temp\ccteJwuU.s:142    .text.parse_output:0000000000000086 .L0 
C:\Users\Jesper\AppData\Local\Temp\ccteJwuU.s:144    .text.parse_output:0000000000000088 .L0 
C:\Users\Jesper\AppData\Local\Temp\ccteJwuU.s:146    .text.parse_output:000000000000008a .L0 
C:\Users\Jesper\AppData\Local\Temp\ccteJwuU.s:148    .text.parse_output:000000000000008c .L0 
C:\Users\Jesper\AppData\Local\Temp\ccteJwuU.s:151    .text.parse_output:000000000000008e .L0 
C:\Users\Jesper\AppData\Local\Temp\ccteJwuU.s:154    .text.parse_output:0000000000000090 .L0 
GAS LISTING C:\Users\Jesper\AppData\Local\Temp\ccteJwuU.s 			page 76


C:\Users\Jesper\AppData\Local\Temp\ccteJwuU.s:156    .text.parse_output:0000000000000092 .L0 
C:\Users\Jesper\AppData\Local\Temp\ccteJwuU.s:158    .text.parse_output:0000000000000094 .L0 
C:\Users\Jesper\AppData\Local\Temp\ccteJwuU.s:160    .text.parse_output:0000000000000094 .L0 
C:\Users\Jesper\AppData\Local\Temp\ccteJwuU.s:162    .text.parse_output:0000000000000096 .L0 
C:\Users\Jesper\AppData\Local\Temp\ccteJwuU.s:164    .text.parse_output:0000000000000098 .L0 
C:\Users\Jesper\AppData\Local\Temp\ccteJwuU.s:166    .text.parse_output:0000000000000098 .L0 
C:\Users\Jesper\AppData\Local\Temp\ccteJwuU.s:168    .text.parse_output:00000000000000a0 .L0 
C:\Users\Jesper\AppData\Local\Temp\ccteJwuU.s:175    .text.ledInit:0000000000000000 ledInit
C:\Users\Jesper\AppData\Local\Temp\ccteJwuU.s:178    .text.ledInit:0000000000000000 .L0 
C:\Users\Jesper\AppData\Local\Temp\ccteJwuU.s:179    .text.ledInit:0000000000000000 .L0 
C:\Users\Jesper\AppData\Local\Temp\ccteJwuU.s:180    .text.ledInit:0000000000000000 .L0 
C:\Users\Jesper\AppData\Local\Temp\ccteJwuU.s:181    .text.ledInit:0000000000000000 .L0 
C:\Users\Jesper\AppData\Local\Temp\ccteJwuU.s:183    .text.ledInit:0000000000000002 .L0 
C:\Users\Jesper\AppData\Local\Temp\ccteJwuU.s:185    .text.ledInit:0000000000000002 .L0 
C:\Users\Jesper\AppData\Local\Temp\ccteJwuU.s:187    .text.ledInit:0000000000000006 .L0 
C:\Users\Jesper\AppData\Local\Temp\ccteJwuU.s:188    .text.ledInit:0000000000000008 .L0 
C:\Users\Jesper\AppData\Local\Temp\ccteJwuU.s:190    .text.ledInit:0000000000000008 .L0 
C:\Users\Jesper\AppData\Local\Temp\ccteJwuU.s:193    .text.ledInit:0000000000000010 .L0 
C:\Users\Jesper\AppData\Local\Temp\ccteJwuU.s:194    .text.ledInit:0000000000000010 .L0 
C:\Users\Jesper\AppData\Local\Temp\ccteJwuU.s:195    .text.ledInit:0000000000000012 .L0 
C:\Users\Jesper\AppData\Local\Temp\ccteJwuU.s:197    .text.ledInit:0000000000000012 .L0 
C:\Users\Jesper\AppData\Local\Temp\ccteJwuU.s:199    .text.ledInit:0000000000000016 .L0 
C:\Users\Jesper\AppData\Local\Temp\ccteJwuU.s:200    .text.ledInit:0000000000000016 .L0 
C:\Users\Jesper\AppData\Local\Temp\ccteJwuU.s:205    .text.ledInit:0000000000000020 .L0 
C:\Users\Jesper\AppData\Local\Temp\ccteJwuU.s:207    .text.ledInit:0000000000000022 .L0 
C:\Users\Jesper\AppData\Local\Temp\ccteJwuU.s:209    .text.ledInit:0000000000000022 .L0 
C:\Users\Jesper\AppData\Local\Temp\ccteJwuU.s:211    .text.ledInit:000000000000002a .L0 
C:\Users\Jesper\AppData\Local\Temp\ccteJwuU.s:218    .text.ledOnOff:0000000000000000 ledOnOff
C:\Users\Jesper\AppData\Local\Temp\ccteJwuU.s:221    .text.ledOnOff:0000000000000000 .L0 
C:\Users\Jesper\AppData\Local\Temp\ccteJwuU.s:223    .text.ledOnOff:0000000000000000 .L0 
C:\Users\Jesper\AppData\Local\Temp\ccteJwuU.s:224    .text.ledOnOff:0000000000000000 .L0 
C:\Users\Jesper\AppData\Local\Temp\ccteJwuU.s:231    .text.ledOnOff:0000000000000014 .L0 
C:\Users\Jesper\AppData\Local\Temp\ccteJwuU.s:240    .text.startup.main:0000000000000000 main
C:\Users\Jesper\AppData\Local\Temp\ccteJwuU.s:243    .text.startup.main:0000000000000000 .L0 
C:\Users\Jesper\AppData\Local\Temp\ccteJwuU.s:245    .text.startup.main:0000000000000000 .L0 
C:\Users\Jesper\AppData\Local\Temp\ccteJwuU.s:246    .text.startup.main:0000000000000000 .L0 
C:\Users\Jesper\AppData\Local\Temp\ccteJwuU.s:247    .text.startup.main:0000000000000000 .L0 
C:\Users\Jesper\AppData\Local\Temp\ccteJwuU.s:248    .text.startup.main:0000000000000000 .L0 
C:\Users\Jesper\AppData\Local\Temp\ccteJwuU.s:249    .text.startup.main:0000000000000000 .L0 
C:\Users\Jesper\AppData\Local\Temp\ccteJwuU.s:250    .text.startup.main:0000000000000000 .L0 
C:\Users\Jesper\AppData\Local\Temp\ccteJwuU.s:252    .text.startup.main:0000000000000002 .L0 
C:\Users\Jesper\AppData\Local\Temp\ccteJwuU.s:262    .text.startup.main:0000000000000014 .L0 
C:\Users\Jesper\AppData\Local\Temp\ccteJwuU.s:263    .text.startup.main:0000000000000014 .L0 
C:\Users\Jesper\AppData\Local\Temp\ccteJwuU.s:264    .text.startup.main:0000000000000014 .L0 
C:\Users\Jesper\AppData\Local\Temp\ccteJwuU.s:265    .text.startup.main:0000000000000014 .L0 
C:\Users\Jesper\AppData\Local\Temp\ccteJwuU.s:266    .text.startup.main:0000000000000014 .L0 
C:\Users\Jesper\AppData\Local\Temp\ccteJwuU.s:267    .text.startup.main:0000000000000014 .L0 
C:\Users\Jesper\AppData\Local\Temp\ccteJwuU.s:268    .text.startup.main:0000000000000014 .L0 
C:\Users\Jesper\AppData\Local\Temp\ccteJwuU.s:269    .text.startup.main:0000000000000014 .L0 
C:\Users\Jesper\AppData\Local\Temp\ccteJwuU.s:270    .text.startup.main:0000000000000014 .L0 
C:\Users\Jesper\AppData\Local\Temp\ccteJwuU.s:272    .text.startup.main:0000000000000014 .L0 
C:\Users\Jesper\AppData\Local\Temp\ccteJwuU.s:275    .text.startup.main:000000000000001c .L0 
C:\Users\Jesper\AppData\Local\Temp\ccteJwuU.s:280    .text.startup.main:0000000000000026 .L0 
C:\Users\Jesper\AppData\Local\Temp\ccteJwuU.s:281    .text.startup.main:0000000000000026 .L0 
C:\Users\Jesper\AppData\Local\Temp\ccteJwuU.s:284    .text.startup.main:000000000000002e .L0 
C:\Users\Jesper\AppData\Local\Temp\ccteJwuU.s:286    .text.startup.main:0000000000000032 .L0 
C:\Users\Jesper\AppData\Local\Temp\ccteJwuU.s:292    .text.startup.main:0000000000000046 .L0 
GAS LISTING C:\Users\Jesper\AppData\Local\Temp\ccteJwuU.s 			page 77


C:\Users\Jesper\AppData\Local\Temp\ccteJwuU.s:296    .text.startup.main:0000000000000050 .L0 
C:\Users\Jesper\AppData\Local\Temp\ccteJwuU.s:297    .text.startup.main:0000000000000050 .L0 
C:\Users\Jesper\AppData\Local\Temp\ccteJwuU.s:300    .text.startup.main:0000000000000058 .L0 
C:\Users\Jesper\AppData\Local\Temp\ccteJwuU.s:304    .text.startup.main:0000000000000062 .L0 
C:\Users\Jesper\AppData\Local\Temp\ccteJwuU.s:307    .text.startup.main:000000000000006a .L0 
C:\Users\Jesper\AppData\Local\Temp\ccteJwuU.s:308    .text.startup.main:000000000000006a .L0 
C:\Users\Jesper\AppData\Local\Temp\ccteJwuU.s:309    .text.startup.main:000000000000006a .L0 
C:\Users\Jesper\AppData\Local\Temp\ccteJwuU.s:312    .text.startup.main:0000000000000072 .L0 
C:\Users\Jesper\AppData\Local\Temp\ccteJwuU.s:313    .text.startup.main:0000000000000072 .L0 
C:\Users\Jesper\AppData\Local\Temp\ccteJwuU.s:317    .text.startup.main:000000000000007e .L0 
C:\Users\Jesper\AppData\Local\Temp\ccteJwuU.s:320    .text.startup.main:0000000000000080 .L0 
C:\Users\Jesper\AppData\Local\Temp\ccteJwuU.s:323    .text.startup.main:0000000000000084 .L0 
C:\Users\Jesper\AppData\Local\Temp\ccteJwuU.s:326    .text.startup.main:000000000000008c .L0 
C:\Users\Jesper\AppData\Local\Temp\ccteJwuU.s:328    .text.startup.main:000000000000008c .L0 
C:\Users\Jesper\AppData\Local\Temp\ccteJwuU.s:329    .text.startup.main:000000000000008c .L0 
C:\Users\Jesper\AppData\Local\Temp\ccteJwuU.s:330    .text.startup.main:000000000000008c .L0 
C:\Users\Jesper\AppData\Local\Temp\ccteJwuU.s:333    .text.startup.main:0000000000000092 .L0 
C:\Users\Jesper\AppData\Local\Temp\ccteJwuU.s:336    .text.startup.main:000000000000009a .L0 
C:\Users\Jesper\AppData\Local\Temp\ccteJwuU.s:338    .text.startup.main:000000000000009c .L0 
C:\Users\Jesper\AppData\Local\Temp\ccteJwuU.s:340    .text.startup.main:000000000000009e .L0 
C:\Users\Jesper\AppData\Local\Temp\ccteJwuU.s:342    .text.startup.main:00000000000000a2 .L0 
C:\Users\Jesper\AppData\Local\Temp\ccteJwuU.s:346    .text.startup.main:00000000000000a6 .L0 
C:\Users\Jesper\AppData\Local\Temp\ccteJwuU.s:352    .text.startup.main:00000000000000ba .L0 
C:\Users\Jesper\AppData\Local\Temp\ccteJwuU.s:356    .text.startup.main:00000000000000c4 .L0 
C:\Users\Jesper\AppData\Local\Temp\ccteJwuU.s:357    .text.startup.main:00000000000000c4 .L0 
C:\Users\Jesper\AppData\Local\Temp\ccteJwuU.s:358    .text.startup.main:00000000000000c4 .L0 
C:\Users\Jesper\AppData\Local\Temp\ccteJwuU.s:360    .text.startup.main:00000000000000c8 .L0 
C:\Users\Jesper\AppData\Local\Temp\ccteJwuU.s:362    .text.startup.main:00000000000000cc .L0 
C:\Users\Jesper\AppData\Local\Temp\ccteJwuU.s:367    .text.startup.main:00000000000000d8 .L0 
C:\Users\Jesper\AppData\Local\Temp\ccteJwuU.s:369    .text.startup.main:00000000000000da .L0 
C:\Users\Jesper\AppData\Local\Temp\ccteJwuU.s:372    .text.startup.main:00000000000000dc .L0 
C:\Users\Jesper\AppData\Local\Temp\ccteJwuU.s:375    .text.startup.main:00000000000000e4 .L0 
C:\Users\Jesper\AppData\Local\Temp\ccteJwuU.s:376    .text.startup.main:00000000000000e4 .L0 
C:\Users\Jesper\AppData\Local\Temp\ccteJwuU.s:379    .text.startup.main:00000000000000e8 .L0 
C:\Users\Jesper\AppData\Local\Temp\ccteJwuU.s:380    .text.startup.main:00000000000000e8 .L0 
C:\Users\Jesper\AppData\Local\Temp\ccteJwuU.s:386    .text.startup.main:00000000000000f8 .L0 
C:\Users\Jesper\AppData\Local\Temp\ccteJwuU.s:387    .text.startup.main:00000000000000f8 .L0 
C:\Users\Jesper\AppData\Local\Temp\ccteJwuU.s:393    .text.startup.main:0000000000000108 .L0 
C:\Users\Jesper\AppData\Local\Temp\ccteJwuU.s:394    .text.startup.main:0000000000000108 .L0 
C:\Users\Jesper\AppData\Local\Temp\ccteJwuU.s:395    .text.startup.main:0000000000000108 .L0 
C:\Users\Jesper\AppData\Local\Temp\ccteJwuU.s:401    .text.startup.main:0000000000000118 .L0 
C:\Users\Jesper\AppData\Local\Temp\ccteJwuU.s:402    .text.startup.main:0000000000000118 .L0 
C:\Users\Jesper\AppData\Local\Temp\ccteJwuU.s:413    .text.startup.main:0000000000000134 .L0 
C:\Users\Jesper\AppData\Local\Temp\ccteJwuU.s:414    .text.startup.main:0000000000000134 .L0 
C:\Users\Jesper\AppData\Local\Temp\ccteJwuU.s:416    .text.startup.main:0000000000000136 .L0 
C:\Users\Jesper\AppData\Local\Temp\ccteJwuU.s:421    .text.startup.main:0000000000000142 .L0 
C:\Users\Jesper\AppData\Local\Temp\ccteJwuU.s:425    .text.startup.main:000000000000014c .L0 
C:\Users\Jesper\AppData\Local\Temp\ccteJwuU.s:426    .text.startup.main:000000000000014c .L0 
C:\Users\Jesper\AppData\Local\Temp\ccteJwuU.s:427    .text.startup.main:000000000000014c .L0 
C:\Users\Jesper\AppData\Local\Temp\ccteJwuU.s:430    .text.startup.main:000000000000014e .L0 
C:\Users\Jesper\AppData\Local\Temp\ccteJwuU.s:431    .text.startup.main:0000000000000150 .L0 
C:\Users\Jesper\AppData\Local\Temp\ccteJwuU.s:432    .text.startup.main:0000000000000150 .L0 
C:\Users\Jesper\AppData\Local\Temp\ccteJwuU.s:434    .text.startup.main:0000000000000152 .L0 
C:\Users\Jesper\AppData\Local\Temp\ccteJwuU.s:436    .text.startup.main:0000000000000154 .L0 
C:\Users\Jesper\AppData\Local\Temp\ccteJwuU.s:438    .text.startup.main:0000000000000156 .L0 
C:\Users\Jesper\AppData\Local\Temp\ccteJwuU.s:440    .text.startup.main:0000000000000158 .L0 
C:\Users\Jesper\AppData\Local\Temp\ccteJwuU.s:442    .text.startup.main:000000000000015a .L0 
GAS LISTING C:\Users\Jesper\AppData\Local\Temp\ccteJwuU.s 			page 78


C:\Users\Jesper\AppData\Local\Temp\ccteJwuU.s:444    .text.startup.main:000000000000015c .L0 
C:\Users\Jesper\AppData\Local\Temp\ccteJwuU.s:446    .text.startup.main:000000000000015e .L0 
C:\Users\Jesper\AppData\Local\Temp\ccteJwuU.s:448    .text.startup.main:0000000000000160 .L0 
C:\Users\Jesper\AppData\Local\Temp\ccteJwuU.s:451    .text.startup.main:0000000000000162 .L0 
C:\Users\Jesper\AppData\Local\Temp\ccteJwuU.s:455    .text.startup.main:0000000000000164 .L0 
C:\Users\Jesper\AppData\Local\Temp\ccteJwuU.s:457    .text.startup.main:0000000000000164 .L0 
C:\Users\Jesper\AppData\Local\Temp\ccteJwuU.s:464    .text.startup.main:0000000000000172 .L0 
C:\Users\Jesper\AppData\Local\Temp\ccteJwuU.s:465    .text.startup.main:0000000000000172 .L0 
C:\Users\Jesper\AppData\Local\Temp\ccteJwuU.s:473    .text.startup.main:0000000000000182 .L0 
C:\Users\Jesper\AppData\Local\Temp\ccteJwuU.s:476    .text.startup.main:000000000000018a .L0 
C:\Users\Jesper\AppData\Local\Temp\ccteJwuU.s:479    .text.startup.main:0000000000000192 .L0 
C:\Users\Jesper\AppData\Local\Temp\ccteJwuU.s:482    .text.startup.main:0000000000000194 .L0 
C:\Users\Jesper\AppData\Local\Temp\ccteJwuU.s:483    .text.startup.main:0000000000000194 .L0 
C:\Users\Jesper\AppData\Local\Temp\ccteJwuU.s:488    .text.startup.main:000000000000019e .L0 
C:\Users\Jesper\AppData\Local\Temp\ccteJwuU.s:492    .text.startup.main:00000000000001a8 .L0 
C:\Users\Jesper\AppData\Local\Temp\ccteJwuU.s:493    .text.startup.main:00000000000001a8 .L0 
C:\Users\Jesper\AppData\Local\Temp\ccteJwuU.s:494    .text.startup.main:00000000000001a8 .L0 
C:\Users\Jesper\AppData\Local\Temp\ccteJwuU.s:495    .text.startup.main:00000000000001a8 .L0 
C:\Users\Jesper\AppData\Local\Temp\ccteJwuU.s:501    .text.startup.main:00000000000001b6 .L0 
C:\Users\Jesper\AppData\Local\Temp\ccteJwuU.s:503    .text.startup.main:00000000000001ba .L0 
C:\Users\Jesper\AppData\Local\Temp\ccteJwuU.s:506    .text.startup.main:00000000000001bc .L0 
C:\Users\Jesper\AppData\Local\Temp\ccteJwuU.s:510    .text.startup.main:00000000000001c6 .L0 
C:\Users\Jesper\AppData\Local\Temp\ccteJwuU.s:514    .text.startup.main:00000000000001d0 .L0 
C:\Users\Jesper\AppData\Local\Temp\ccteJwuU.s:515    .text.startup.main:00000000000001d0 .L0 
C:\Users\Jesper\AppData\Local\Temp\ccteJwuU.s:516    .text.startup.main:00000000000001d0 .L0 
C:\Users\Jesper\AppData\Local\Temp\ccteJwuU.s:519    .text.startup.main:00000000000001d8 .L0 
C:\Users\Jesper\AppData\Local\Temp\ccteJwuU.s:520    .text.startup.main:00000000000001d8 .L0 
C:\Users\Jesper\AppData\Local\Temp\ccteJwuU.s:537    .text.startup.main:0000000000000210 .L0 
C:\Users\Jesper\AppData\Local\Temp\ccteJwuU.s:541    .text.startup.main:000000000000021a .L0 
C:\Users\Jesper\AppData\Local\Temp\ccteJwuU.s:542    .text.startup.main:000000000000021a .L0 
C:\Users\Jesper\AppData\Local\Temp\ccteJwuU.s:545    .text.startup.main:0000000000000222 .L0 
C:\Users\Jesper\AppData\Local\Temp\ccteJwuU.s:546    .text.startup.main:0000000000000222 .L0 
C:\Users\Jesper\AppData\Local\Temp\ccteJwuU.s:547    .text.startup.main:0000000000000222 .L0 
C:\Users\Jesper\AppData\Local\Temp\ccteJwuU.s:549    .text.startup.main:0000000000000224 .L0 
C:\Users\Jesper\AppData\Local\Temp\ccteJwuU.s:554    .text.startup.main:000000000000022e .L0 
C:\Users\Jesper\AppData\Local\Temp\ccteJwuU.s:558    .text.startup.main:0000000000000238 .L0 
C:\Users\Jesper\AppData\Local\Temp\ccteJwuU.s:559    .text.startup.main:0000000000000238 .L0 
C:\Users\Jesper\AppData\Local\Temp\ccteJwuU.s:563    .text.startup.main:0000000000000242 .L0 
C:\Users\Jesper\AppData\Local\Temp\ccteJwuU.s:567    .text.startup.main:000000000000024e .L0 
C:\Users\Jesper\AppData\Local\Temp\ccteJwuU.s:571    .text.startup.main:0000000000000258 .L0 
C:\Users\Jesper\AppData\Local\Temp\ccteJwuU.s:572    .text.startup.main:0000000000000258 .L0 
C:\Users\Jesper\AppData\Local\Temp\ccteJwuU.s:576    .text.startup.main:000000000000025c .L0 
C:\Users\Jesper\AppData\Local\Temp\ccteJwuU.s:581    .text.startup.main:000000000000026c .L0 
C:\Users\Jesper\AppData\Local\Temp\ccteJwuU.s:586    .rodata:0000000000000000 .LANCHOR0
C:\Users\Jesper\AppData\Local\Temp\ccteJwuU.s:637    .data.mnist_pic:0000000000000000 .LANCHOR1
C:\Users\Jesper\AppData\Local\Temp\ccteJwuU.s:34     .text.layer_cb:0000000000000004 .L0 
C:\Users\Jesper\AppData\Local\Temp\ccteJwuU.s:171    .text.parse_output:00000000000000a0 .L0 
C:\Users\Jesper\AppData\Local\Temp\ccteJwuU.s:214    .text.ledInit:000000000000002a .L0 
C:\Users\Jesper\AppData\Local\Temp\ccteJwuU.s:236    .text.ledOnOff:0000000000000014 .L0 
C:\Users\Jesper\AppData\Local\Temp\ccteJwuU.s:584    .text.startup.main:000000000000026c .L0 
                     .debug_frame:0000000000000000 .L0 
C:\Users\Jesper\AppData\Local\Temp\ccteJwuU.s:117    .text.parse_output:000000000000005a .L3
C:\Users\Jesper\AppData\Local\Temp\ccteJwuU.s:92     .text.parse_output:0000000000000026 .L5
C:\Users\Jesper\AppData\Local\Temp\ccteJwuU.s:599    .rodata:0000000000000058 .LC6
C:\Users\Jesper\AppData\Local\Temp\ccteJwuU.s:602    .rodata:0000000000000060 .LC7
C:\Users\Jesper\AppData\Local\Temp\ccteJwuU.s:625    .rodata:00000000000000a4 .LC12
C:\Users\Jesper\AppData\Local\Temp\ccteJwuU.s:453    .text.startup.main:0000000000000164 .L14
GAS LISTING C:\Users\Jesper\AppData\Local\Temp\ccteJwuU.s 			page 79


C:\Users\Jesper\AppData\Local\Temp\ccteJwuU.s:365    .text.startup.main:00000000000000d8 .L15
C:\Users\Jesper\AppData\Local\Temp\ccteJwuU.s:344    .text.startup.main:00000000000000a6 .L16
C:\Users\Jesper\AppData\Local\Temp\ccteJwuU.s:462    .text.startup.main:0000000000000172 .L17
C:\Users\Jesper\AppData\Local\Temp\ccteJwuU.s:279    .text.startup.main:0000000000000026 .L13
C:\Users\Jesper\AppData\Local\Temp\ccteJwuU.s:574    .text.startup.main:000000000000025c .L19
C:\Users\Jesper\AppData\Local\Temp\ccteJwuU.s:428    .text.startup.main:000000000000014e .L12
C:\Users\Jesper\AppData\Local\Temp\ccteJwuU.s:552    .text.startup.main:000000000000022e .L20
C:\Users\Jesper\AppData\Local\Temp\ccteJwuU.s:9406   .debug_abbrev:0000000000000000 .Ldebug_abbrev0
C:\Users\Jesper\AppData\Local\Temp\ccteJwuU.s:10857  .debug_str:00000000000002b3 .LASF473
C:\Users\Jesper\AppData\Local\Temp\ccteJwuU.s:11245  .debug_str:0000000000000bb1 .LASF474
C:\Users\Jesper\AppData\Local\Temp\ccteJwuU.s:11237  .debug_str:0000000000000b26 .LASF475
C:\Users\Jesper\AppData\Local\Temp\ccteJwuU.s:10707  .debug_ranges:0000000000000000 .Ldebug_ranges0
C:\Users\Jesper\AppData\Local\Temp\ccteJwuU.s:10737  .debug_line:0000000000000000 .Ldebug_line0
C:\Users\Jesper\AppData\Local\Temp\ccteJwuU.s:11271  .debug_str:0000000000000c43 .LASF0
C:\Users\Jesper\AppData\Local\Temp\ccteJwuU.s:11281  .debug_str:0000000000000c77 .LASF1
C:\Users\Jesper\AppData\Local\Temp\ccteJwuU.s:11391  .debug_str:0000000000000ed7 .LASF3
C:\Users\Jesper\AppData\Local\Temp\ccteJwuU.s:10965  .debug_str:000000000000057f .LASF2
C:\Users\Jesper\AppData\Local\Temp\ccteJwuU.s:10885  .debug_str:00000000000003bd .LASF4
C:\Users\Jesper\AppData\Local\Temp\ccteJwuU.s:10987  .debug_str:0000000000000607 .LASF5
C:\Users\Jesper\AppData\Local\Temp\ccteJwuU.s:11523  .debug_str:000000000000114c .LASF6
C:\Users\Jesper\AppData\Local\Temp\ccteJwuU.s:11055  .debug_str:0000000000000785 .LASF7
C:\Users\Jesper\AppData\Local\Temp\ccteJwuU.s:11635  .debug_str:0000000000001390 .LASF8
C:\Users\Jesper\AppData\Local\Temp\ccteJwuU.s:11653  .debug_str:00000000000013fd .LASF9
C:\Users\Jesper\AppData\Local\Temp\ccteJwuU.s:10913  .debug_str:0000000000000455 .LASF10
C:\Users\Jesper\AppData\Local\Temp\ccteJwuU.s:11209  .debug_str:0000000000000a9c .LASF11
C:\Users\Jesper\AppData\Local\Temp\ccteJwuU.s:11143  .debug_str:0000000000000949 .LASF12
C:\Users\Jesper\AppData\Local\Temp\ccteJwuU.s:11219  .debug_str:0000000000000acb .LASF13
C:\Users\Jesper\AppData\Local\Temp\ccteJwuU.s:11403  .debug_str:0000000000000f05 .LASF14
C:\Users\Jesper\AppData\Local\Temp\ccteJwuU.s:10749  .debug_str:0000000000000042 .LASF15
C:\Users\Jesper\AppData\Local\Temp\ccteJwuU.s:10967  .debug_str:000000000000058b .LASF16
C:\Users\Jesper\AppData\Local\Temp\ccteJwuU.s:11411  .debug_str:0000000000000f39 .LASF17
C:\Users\Jesper\AppData\Local\Temp\ccteJwuU.s:10787  .debug_str:000000000000011a .LASF18
C:\Users\Jesper\AppData\Local\Temp\ccteJwuU.s:11599  .debug_str:00000000000012da .LASF19
C:\Users\Jesper\AppData\Local\Temp\ccteJwuU.s:11157  .debug_str:000000000000099a .LASF166
C:\Users\Jesper\AppData\Local\Temp\ccteJwuU.s:11471  .debug_str:000000000000105a .LASF20
C:\Users\Jesper\AppData\Local\Temp\ccteJwuU.s:11473  .debug_str:0000000000001063 .LASF21
C:\Users\Jesper\AppData\Local\Temp\ccteJwuU.s:11285  .debug_str:0000000000000c90 .LASF22
C:\Users\Jesper\AppData\Local\Temp\ccteJwuU.s:11577  .debug_str:0000000000001247 .LASF23
C:\Users\Jesper\AppData\Local\Temp\ccteJwuU.s:11193  .debug_str:0000000000000a4d .LASF24
C:\Users\Jesper\AppData\Local\Temp\ccteJwuU.s:10819  .debug_str:00000000000001cb .LASF25
C:\Users\Jesper\AppData\Local\Temp\ccteJwuU.s:10821  .debug_str:00000000000001d6 .LASF26
C:\Users\Jesper\AppData\Local\Temp\ccteJwuU.s:10823  .debug_str:00000000000001e1 .LASF27
C:\Users\Jesper\AppData\Local\Temp\ccteJwuU.s:10825  .debug_str:00000000000001ec .LASF28
C:\Users\Jesper\AppData\Local\Temp\ccteJwuU.s:10827  .debug_str:00000000000001f7 .LASF29
C:\Users\Jesper\AppData\Local\Temp\ccteJwuU.s:10829  .debug_str:0000000000000202 .LASF30
C:\Users\Jesper\AppData\Local\Temp\ccteJwuU.s:11337  .debug_str:0000000000000d9e .LASF31
C:\Users\Jesper\AppData\Local\Temp\ccteJwuU.s:10957  .debug_str:0000000000000559 .LASF32
C:\Users\Jesper\AppData\Local\Temp\ccteJwuU.s:10959  .debug_str:0000000000000562 .LASF33
C:\Users\Jesper\AppData\Local\Temp\ccteJwuU.s:10841  .debug_str:000000000000026c .LASF34
C:\Users\Jesper\AppData\Local\Temp\ccteJwuU.s:10843  .debug_str:0000000000000277 .LASF35
C:\Users\Jesper\AppData\Local\Temp\ccteJwuU.s:10797  .debug_str:0000000000000150 .LASF36
C:\Users\Jesper\AppData\Local\Temp\ccteJwuU.s:10799  .debug_str:000000000000015a .LASF37
C:\Users\Jesper\AppData\Local\Temp\ccteJwuU.s:11605  .debug_str:0000000000001300 .LASF38
C:\Users\Jesper\AppData\Local\Temp\ccteJwuU.s:11607  .debug_str:0000000000001309 .LASF39
C:\Users\Jesper\AppData\Local\Temp\ccteJwuU.s:11029  .debug_str:00000000000006f5 .LASF40
C:\Users\Jesper\AppData\Local\Temp\ccteJwuU.s:11031  .debug_str:00000000000006fe .LASF41
C:\Users\Jesper\AppData\Local\Temp\ccteJwuU.s:11545  .debug_str:00000000000011b9 .LASF42
GAS LISTING C:\Users\Jesper\AppData\Local\Temp\ccteJwuU.s 			page 80


C:\Users\Jesper\AppData\Local\Temp\ccteJwuU.s:10781  .debug_str:00000000000000ff .LASF43
C:\Users\Jesper\AppData\Local\Temp\ccteJwuU.s:10969  .debug_str:0000000000000593 .LASF44
C:\Users\Jesper\AppData\Local\Temp\ccteJwuU.s:11363  .debug_str:0000000000000e4d .LASF45
C:\Users\Jesper\AppData\Local\Temp\ccteJwuU.s:11163  .debug_str:00000000000009b9 .LASF46
C:\Users\Jesper\AppData\Local\Temp\ccteJwuU.s:11223  .debug_str:0000000000000ae2 .LASF47
C:\Users\Jesper\AppData\Local\Temp\ccteJwuU.s:11225  .debug_str:0000000000000aec .LASF48
C:\Users\Jesper\AppData\Local\Temp\ccteJwuU.s:11227  .debug_str:0000000000000af6 .LASF49
C:\Users\Jesper\AppData\Local\Temp\ccteJwuU.s:11229  .debug_str:0000000000000b00 .LASF50
C:\Users\Jesper\AppData\Local\Temp\ccteJwuU.s:11231  .debug_str:0000000000000b0a .LASF51
C:\Users\Jesper\AppData\Local\Temp\ccteJwuU.s:11213  .debug_str:0000000000000ab2 .LASF52
C:\Users\Jesper\AppData\Local\Temp\ccteJwuU.s:11215  .debug_str:0000000000000abb .LASF53
C:\Users\Jesper\AppData\Local\Temp\ccteJwuU.s:10817  .debug_str:00000000000001c0 .LASF54
C:\Users\Jesper\AppData\Local\Temp\ccteJwuU.s:10955  .debug_str:0000000000000550 .LASF55
C:\Users\Jesper\AppData\Local\Temp\ccteJwuU.s:10839  .debug_str:0000000000000261 .LASF56
C:\Users\Jesper\AppData\Local\Temp\ccteJwuU.s:11355  .debug_str:0000000000000e1e .LASF57
C:\Users\Jesper\AppData\Local\Temp\ccteJwuU.s:11479  .debug_str:000000000000107b .LASF58
C:\Users\Jesper\AppData\Local\Temp\ccteJwuU.s:11627  .debug_str:0000000000001372 .LASF59
C:\Users\Jesper\AppData\Local\Temp\ccteJwuU.s:11383  .debug_str:0000000000000eb0 .LASF60
C:\Users\Jesper\AppData\Local\Temp\ccteJwuU.s:10757  .debug_str:0000000000000076 .LASF61
C:\Users\Jesper\AppData\Local\Temp\ccteJwuU.s:10883  .debug_str:00000000000003b7 .LASF62
C:\Users\Jesper\AppData\Local\Temp\ccteJwuU.s:11385  .debug_str:0000000000000eb8 .LASF63
C:\Users\Jesper\AppData\Local\Temp\ccteJwuU.s:11341  .debug_str:0000000000000db9 .LASF64
C:\Users\Jesper\AppData\Local\Temp\ccteJwuU.s:10763  .debug_str:000000000000009b .LASF65
C:\Users\Jesper\AppData\Local\Temp\ccteJwuU.s:11461  .debug_str:000000000000102a .LASF66
C:\Users\Jesper\AppData\Local\Temp\ccteJwuU.s:11595  .debug_str:00000000000012c6 .LASF67
C:\Users\Jesper\AppData\Local\Temp\ccteJwuU.s:11167  .debug_str:00000000000009cf .LASF68
C:\Users\Jesper\AppData\Local\Temp\ccteJwuU.s:11451  .debug_str:0000000000000ff7 .LASF69
C:\Users\Jesper\AppData\Local\Temp\ccteJwuU.s:11185  .debug_str:0000000000000a28 .LASF74
C:\Users\Jesper\AppData\Local\Temp\ccteJwuU.s:11481  .debug_str:0000000000001082 .LASF70
C:\Users\Jesper\AppData\Local\Temp\ccteJwuU.s:11191  .debug_str:0000000000000a45 .LASF71
C:\Users\Jesper\AppData\Local\Temp\ccteJwuU.s:11265  .debug_str:0000000000000c1b .LASF72
C:\Users\Jesper\AppData\Local\Temp\ccteJwuU.s:11105  .debug_str:0000000000000881 .LASF73
C:\Users\Jesper\AppData\Local\Temp\ccteJwuU.s:10809  .debug_str:000000000000019b .LASF75
C:\Users\Jesper\AppData\Local\Temp\ccteJwuU.s:10815  .debug_str:00000000000001b7 .LASF76
C:\Users\Jesper\AppData\Local\Temp\ccteJwuU.s:11683  .debug_str:0000000000001499 .LASF77
C:\Users\Jesper\AppData\Local\Temp\ccteJwuU.s:11639  .debug_str:00000000000013a9 .LASF78
C:\Users\Jesper\AppData\Local\Temp\ccteJwuU.s:11305  .debug_str:0000000000000d02 .LASF79
C:\Users\Jesper\AppData\Local\Temp\ccteJwuU.s:10941  .debug_str:00000000000004f2 .LASF80
C:\Users\Jesper\AppData\Local\Temp\ccteJwuU.s:11543  .debug_str:00000000000011af .LASF81
C:\Users\Jesper\AppData\Local\Temp\ccteJwuU.s:11353  .debug_str:0000000000000e14 .LASF82
C:\Users\Jesper\AppData\Local\Temp\ccteJwuU.s:11357  .debug_str:0000000000000e2a .LASF83
C:\Users\Jesper\AppData\Local\Temp\ccteJwuU.s:11669  .debug_str:0000000000001462 .LASF84
C:\Users\Jesper\AppData\Local\Temp\ccteJwuU.s:10893  .debug_str:00000000000003e7 .LASF85
C:\Users\Jesper\AppData\Local\Temp\ccteJwuU.s:11667  .debug_str:000000000000145a .LASF86
C:\Users\Jesper\AppData\Local\Temp\ccteJwuU.s:11413  .debug_str:0000000000000f42 .LASF87
C:\Users\Jesper\AppData\Local\Temp\ccteJwuU.s:11535  .debug_str:0000000000001189 .LASF88
C:\Users\Jesper\AppData\Local\Temp\ccteJwuU.s:11573  .debug_str:0000000000001232 .LASF89
C:\Users\Jesper\AppData\Local\Temp\ccteJwuU.s:11331  .debug_str:0000000000000d82 .LASF90
C:\Users\Jesper\AppData\Local\Temp\ccteJwuU.s:11567  .debug_str:000000000000121f .LASF91
C:\Users\Jesper\AppData\Local\Temp\ccteJwuU.s:11047  .debug_str:0000000000000768 .LASF92
C:\Users\Jesper\AppData\Local\Temp\ccteJwuU.s:11569  .debug_str:0000000000001224 .LASF93
C:\Users\Jesper\AppData\Local\Temp\ccteJwuU.s:11439  .debug_str:0000000000000fb8 .LASF94
C:\Users\Jesper\AppData\Local\Temp\ccteJwuU.s:10921  .debug_str:000000000000047a .LASF95
C:\Users\Jesper\AppData\Local\Temp\ccteJwuU.s:11151  .debug_str:000000000000097f .LASF96
C:\Users\Jesper\AppData\Local\Temp\ccteJwuU.s:11327  .debug_str:0000000000000d6c .LASF97
C:\Users\Jesper\AppData\Local\Temp\ccteJwuU.s:10891  .debug_str:00000000000003e1 .LASF98
C:\Users\Jesper\AppData\Local\Temp\ccteJwuU.s:11563  .debug_str:0000000000001211 .LASF99
GAS LISTING C:\Users\Jesper\AppData\Local\Temp\ccteJwuU.s 			page 81


C:\Users\Jesper\AppData\Local\Temp\ccteJwuU.s:11097  .debug_str:0000000000000862 .LASF100
C:\Users\Jesper\AppData\Local\Temp\ccteJwuU.s:10775  .debug_str:00000000000000cb .LASF101
C:\Users\Jesper\AppData\Local\Temp\ccteJwuU.s:10783  .debug_str:0000000000000107 .LASF102
C:\Users\Jesper\AppData\Local\Temp\ccteJwuU.s:11375  .debug_str:0000000000000e84 .LASF103
C:\Users\Jesper\AppData\Local\Temp\ccteJwuU.s:11051  .debug_str:0000000000000774 .LASF104
C:\Users\Jesper\AppData\Local\Temp\ccteJwuU.s:11313  .debug_str:0000000000000d24 .LASF105
C:\Users\Jesper\AppData\Local\Temp\ccteJwuU.s:10813  .debug_str:00000000000001b1 .LASF106
C:\Users\Jesper\AppData\Local\Temp\ccteJwuU.s:11431  .debug_str:0000000000000f9b .LASF107
C:\Users\Jesper\AppData\Local\Temp\ccteJwuU.s:11121  .debug_str:00000000000008cd .LASF108
C:\Users\Jesper\AppData\Local\Temp\ccteJwuU.s:11485  .debug_str:0000000000001090 .LASF109
C:\Users\Jesper\AppData\Local\Temp\ccteJwuU.s:10849  .debug_str:0000000000000292 .LASF110
C:\Users\Jesper\AppData\Local\Temp\ccteJwuU.s:11319  .debug_str:0000000000000d40 .LASF111
C:\Users\Jesper\AppData\Local\Temp\ccteJwuU.s:11155  .debug_str:0000000000000992 .LASF112
C:\Users\Jesper\AppData\Local\Temp\ccteJwuU.s:11009  .debug_str:0000000000000680 .LASF113
C:\Users\Jesper\AppData\Local\Temp\ccteJwuU.s:11173  .debug_str:00000000000009ec .LASF114
C:\Users\Jesper\AppData\Local\Temp\ccteJwuU.s:11059  .debug_str:00000000000007a1 .LASF115
C:\Users\Jesper\AppData\Local\Temp\ccteJwuU.s:11423  .debug_str:0000000000000f6a .LASF116
C:\Users\Jesper\AppData\Local\Temp\ccteJwuU.s:11315  .debug_str:0000000000000d2a .LASF117
C:\Users\Jesper\AppData\Local\Temp\ccteJwuU.s:11565  .debug_str:000000000000121a .LASF118
C:\Users\Jesper\AppData\Local\Temp\ccteJwuU.s:11211  .debug_str:0000000000000aa7 .LASF119
C:\Users\Jesper\AppData\Local\Temp\ccteJwuU.s:11001  .debug_str:000000000000064c .LASF120
C:\Users\Jesper\AppData\Local\Temp\ccteJwuU.s:11593  .debug_str:00000000000012be .LASF121
C:\Users\Jesper\AppData\Local\Temp\ccteJwuU.s:11153  .debug_str:0000000000000987 .LASF122
C:\Users\Jesper\AppData\Local\Temp\ccteJwuU.s:11199  .debug_str:0000000000000a64 .LASF123
C:\Users\Jesper\AppData\Local\Temp\ccteJwuU.s:11613  .debug_str:0000000000001325 .LASF124
C:\Users\Jesper\AppData\Local\Temp\ccteJwuU.s:10919  .debug_str:0000000000000470 .LASF125
C:\Users\Jesper\AppData\Local\Temp\ccteJwuU.s:11141  .debug_str:0000000000000944 .LASF126
C:\Users\Jesper\AppData\Local\Temp\ccteJwuU.s:11257  .debug_str:0000000000000bf7 .LASF127
C:\Users\Jesper\AppData\Local\Temp\ccteJwuU.s:10793  .debug_str:000000000000013f .LASF128
C:\Users\Jesper\AppData\Local\Temp\ccteJwuU.s:11125  .debug_str:00000000000008e0 .LASF129
C:\Users\Jesper\AppData\Local\Temp\ccteJwuU.s:11311  .debug_str:0000000000000d1f .LASF130
C:\Users\Jesper\AppData\Local\Temp\ccteJwuU.s:11201  .debug_str:0000000000000a6e .LASF131
C:\Users\Jesper\AppData\Local\Temp\ccteJwuU.s:11115  .debug_str:00000000000008aa .LASF132
C:\Users\Jesper\AppData\Local\Temp\ccteJwuU.s:11239  .debug_str:0000000000000b93 .LASF133
C:\Users\Jesper\AppData\Local\Temp\ccteJwuU.s:10769  .debug_str:00000000000000b7 .LASF134
C:\Users\Jesper\AppData\Local\Temp\ccteJwuU.s:11041  .debug_str:000000000000073f .LASF135
C:\Users\Jesper\AppData\Local\Temp\ccteJwuU.s:11455  .debug_str:000000000000100b .LASF136
C:\Users\Jesper\AppData\Local\Temp\ccteJwuU.s:11263  .debug_str:0000000000000c15 .LASF137
C:\Users\Jesper\AppData\Local\Temp\ccteJwuU.s:11233  .debug_str:0000000000000b14 .LASF138
C:\Users\Jesper\AppData\Local\Temp\ccteJwuU.s:11259  .debug_str:0000000000000c01 .LASF139
C:\Users\Jesper\AppData\Local\Temp\ccteJwuU.s:11419  .debug_str:0000000000000f5b .LASF140
C:\Users\Jesper\AppData\Local\Temp\ccteJwuU.s:11369  .debug_str:0000000000000e6a .LASF141
C:\Users\Jesper\AppData\Local\Temp\ccteJwuU.s:10861  .debug_str:0000000000000340 .LASF142
C:\Users\Jesper\AppData\Local\Temp\ccteJwuU.s:11629  .debug_str:0000000000001379 .LASF143
C:\Users\Jesper\AppData\Local\Temp\ccteJwuU.s:10963  .debug_str:0000000000000572 .LASF144
C:\Users\Jesper\AppData\Local\Temp\ccteJwuU.s:11443  .debug_str:0000000000000fc8 .LASF145
C:\Users\Jesper\AppData\Local\Temp\ccteJwuU.s:10791  .debug_str:0000000000000132 .LASF146
C:\Users\Jesper\AppData\Local\Temp\ccteJwuU.s:10931  .debug_str:00000000000004c4 .LASF147
C:\Users\Jesper\AppData\Local\Temp\ccteJwuU.s:11251  .debug_str:0000000000000bd4 .LASF148
C:\Users\Jesper\AppData\Local\Temp\ccteJwuU.s:11323  .debug_str:0000000000000d58 .LASF149
C:\Users\Jesper\AppData\Local\Temp\ccteJwuU.s:11469  .debug_str:0000000000001055 .LASF150
C:\Users\Jesper\AppData\Local\Temp\ccteJwuU.s:11519  .debug_str:0000000000001136 .LASF151
C:\Users\Jesper\AppData\Local\Temp\ccteJwuU.s:11389  .debug_str:0000000000000ec9 .LASF152
C:\Users\Jesper\AppData\Local\Temp\ccteJwuU.s:11317  .debug_str:0000000000000d32 .LASF153
C:\Users\Jesper\AppData\Local\Temp\ccteJwuU.s:11387  .debug_str:0000000000000ebf .LASF154
C:\Users\Jesper\AppData\Local\Temp\ccteJwuU.s:11177  .debug_str:0000000000000a03 .LASF155
C:\Users\Jesper\AppData\Local\Temp\ccteJwuU.s:11687  .debug_str:00000000000014b0 .LASF156
GAS LISTING C:\Users\Jesper\AppData\Local\Temp\ccteJwuU.s 			page 82


C:\Users\Jesper\AppData\Local\Temp\ccteJwuU.s:10911  .debug_str:0000000000000447 .LASF157
C:\Users\Jesper\AppData\Local\Temp\ccteJwuU.s:11447  .debug_str:0000000000000fdf .LASF158
C:\Users\Jesper\AppData\Local\Temp\ccteJwuU.s:11651  .debug_str:00000000000013ec .LASF159
C:\Users\Jesper\AppData\Local\Temp\ccteJwuU.s:11301  .debug_str:0000000000000cea .LASF160
C:\Users\Jesper\AppData\Local\Temp\ccteJwuU.s:10811  .debug_str:00000000000001a0 .LASF161
C:\Users\Jesper\AppData\Local\Temp\ccteJwuU.s:11287  .debug_str:0000000000000c98 .LASF162
C:\Users\Jesper\AppData\Local\Temp\ccteJwuU.s:11581  .debug_str:000000000000125e .LASF163
C:\Users\Jesper\AppData\Local\Temp\ccteJwuU.s:11243  .debug_str:0000000000000ba8 .LASF164
C:\Users\Jesper\AppData\Local\Temp\ccteJwuU.s:10807  .debug_str:0000000000000193 .LASF165
C:\Users\Jesper\AppData\Local\Temp\ccteJwuU.s:10761  .debug_str:0000000000000090 .LASF476
C:\Users\Jesper\AppData\Local\Temp\ccteJwuU.s:10915  .debug_str:000000000000045e .LASF167
C:\Users\Jesper\AppData\Local\Temp\ccteJwuU.s:11011  .debug_str:0000000000000687 .LASF168
C:\Users\Jesper\AppData\Local\Temp\ccteJwuU.s:11533  .debug_str:000000000000117f .LASF169
C:\Users\Jesper\AppData\Local\Temp\ccteJwuU.s:11071  .debug_str:00000000000007ed .LASF170
C:\Users\Jesper\AppData\Local\Temp\ccteJwuU.s:11675  .debug_str:000000000000147b .LASF171
C:\Users\Jesper\AppData\Local\Temp\ccteJwuU.s:11091  .debug_str:0000000000000848 .LASF172
C:\Users\Jesper\AppData\Local\Temp\ccteJwuU.s:11591  .debug_str:00000000000012b6 .LASF173
C:\Users\Jesper\AppData\Local\Temp\ccteJwuU.s:11531  .debug_str:0000000000001175 .LASF174
C:\Users\Jesper\AppData\Local\Temp\ccteJwuU.s:10865  .debug_str:0000000000000359 .LASF175
C:\Users\Jesper\AppData\Local\Temp\ccteJwuU.s:11381  .debug_str:0000000000000ea7 .LASF176
C:\Users\Jesper\AppData\Local\Temp\ccteJwuU.s:10983  .debug_str:00000000000005f7 .LASF177
C:\Users\Jesper\AppData\Local\Temp\ccteJwuU.s:11217  .debug_str:0000000000000ac4 .LASF178
C:\Users\Jesper\AppData\Local\Temp\ccteJwuU.s:11429  .debug_str:0000000000000f8e .LASF179
C:\Users\Jesper\AppData\Local\Temp\ccteJwuU.s:10835  .debug_str:0000000000000241 .LASF180
C:\Users\Jesper\AppData\Local\Temp\ccteJwuU.s:10801  .debug_str:0000000000000164 .LASF181
C:\Users\Jesper\AppData\Local\Temp\ccteJwuU.s:11661  .debug_str:000000000000142d .LASF182
C:\Users\Jesper\AppData\Local\Temp\ccteJwuU.s:11527  .debug_str:000000000000115d .LASF183
C:\Users\Jesper\AppData\Local\Temp\ccteJwuU.s:10895  .debug_str:00000000000003f5 .LASF184
C:\Users\Jesper\AppData\Local\Temp\ccteJwuU.s:11329  .debug_str:0000000000000d73 .LASF185
C:\Users\Jesper\AppData\Local\Temp\ccteJwuU.s:10855  .debug_str:00000000000002a6 .LASF186
C:\Users\Jesper\AppData\Local\Temp\ccteJwuU.s:11373  .debug_str:0000000000000e7b .LASF187
C:\Users\Jesper\AppData\Local\Temp\ccteJwuU.s:11061  .debug_str:00000000000007a8 .LASF188
C:\Users\Jesper\AppData\Local\Temp\ccteJwuU.s:11597  .debug_str:00000000000012ce .LASF189
C:\Users\Jesper\AppData\Local\Temp\ccteJwuU.s:11685  .debug_str:00000000000014a2 .LASF190
C:\Users\Jesper\AppData\Local\Temp\ccteJwuU.s:11499  .debug_str:00000000000010d2 .LASF191
C:\Users\Jesper\AppData\Local\Temp\ccteJwuU.s:11615  .debug_str:000000000000132d .LASF192
C:\Users\Jesper\AppData\Local\Temp\ccteJwuU.s:11207  .debug_str:0000000000000a8c .LASF193
C:\Users\Jesper\AppData\Local\Temp\ccteJwuU.s:11361  .debug_str:0000000000000e41 .LASF194
C:\Users\Jesper\AppData\Local\Temp\ccteJwuU.s:11637  .debug_str:00000000000013a3 .LASF195
C:\Users\Jesper\AppData\Local\Temp\ccteJwuU.s:11351  .debug_str:0000000000000e0b .LASF196
C:\Users\Jesper\AppData\Local\Temp\ccteJwuU.s:10875  .debug_str:0000000000000386 .LASF197
C:\Users\Jesper\AppData\Local\Temp\ccteJwuU.s:11033  .debug_str:0000000000000707 .LASF198
C:\Users\Jesper\AppData\Local\Temp\ccteJwuU.s:11145  .debug_str:000000000000095b .LASF199
C:\Users\Jesper\AppData\Local\Temp\ccteJwuU.s:11335  .debug_str:0000000000000d94 .LASF200
C:\Users\Jesper\AppData\Local\Temp\ccteJwuU.s:11149  .debug_str:0000000000000976 .LASF201
C:\Users\Jesper\AppData\Local\Temp\ccteJwuU.s:10869  .debug_str:0000000000000369 .LASF202
C:\Users\Jesper\AppData\Local\Temp\ccteJwuU.s:11307  .debug_str:0000000000000d0c .LASF203
C:\Users\Jesper\AppData\Local\Temp\ccteJwuU.s:11025  .debug_str:00000000000006e1 .LASF204
C:\Users\Jesper\AppData\Local\Temp\ccteJwuU.s:11093  .debug_str:0000000000000850 .LASF205
C:\Users\Jesper\AppData\Local\Temp\ccteJwuU.s:10903  .debug_str:0000000000000419 .LASF206
C:\Users\Jesper\AppData\Local\Temp\ccteJwuU.s:11547  .debug_str:00000000000011c2 .LASF207
C:\Users\Jesper\AppData\Local\Temp\ccteJwuU.s:10897  .debug_str:0000000000000401 .LASF208
C:\Users\Jesper\AppData\Local\Temp\ccteJwuU.s:11189  .debug_str:0000000000000a3a .LASF209
C:\Users\Jesper\AppData\Local\Temp\ccteJwuU.s:11037  .debug_str:000000000000072d .LASF210
C:\Users\Jesper\AppData\Local\Temp\ccteJwuU.s:11557  .debug_str:00000000000011ed .LASF211
C:\Users\Jesper\AppData\Local\Temp\ccteJwuU.s:10899  .debug_str:0000000000000408 .LASF212
C:\Users\Jesper\AppData\Local\Temp\ccteJwuU.s:11677  .debug_str:0000000000001485 .LASF213
GAS LISTING C:\Users\Jesper\AppData\Local\Temp\ccteJwuU.s 			page 83


C:\Users\Jesper\AppData\Local\Temp\ccteJwuU.s:11393  .debug_str:0000000000000ee0 .LASF214
C:\Users\Jesper\AppData\Local\Temp\ccteJwuU.s:11103  .debug_str:000000000000087c .LASF215
C:\Users\Jesper\AppData\Local\Temp\ccteJwuU.s:10997  .debug_str:000000000000063c .LASF216
C:\Users\Jesper\AppData\Local\Temp\ccteJwuU.s:10859  .debug_str:000000000000033b .LASF217
C:\Users\Jesper\AppData\Local\Temp\ccteJwuU.s:11161  .debug_str:00000000000009b2 .LASF218
C:\Users\Jesper\AppData\Local\Temp\ccteJwuU.s:11397  .debug_str:0000000000000eee .LASF219
C:\Users\Jesper\AppData\Local\Temp\ccteJwuU.s:11425  .debug_str:0000000000000f72 .LASF220
C:\Users\Jesper\AppData\Local\Temp\ccteJwuU.s:11101  .debug_str:0000000000000874 .LASF221
C:\Users\Jesper\AppData\Local\Temp\ccteJwuU.s:11171  .debug_str:00000000000009e7 .LASF222
C:\Users\Jesper\AppData\Local\Temp\ccteJwuU.s:10947  .debug_str:0000000000000521 .LASF223
C:\Users\Jesper\AppData\Local\Temp\ccteJwuU.s:10777  .debug_str:00000000000000d1 .LASF224
C:\Users\Jesper\AppData\Local\Temp\ccteJwuU.s:10753  .debug_str:0000000000000056 .LASF225
C:\Users\Jesper\AppData\Local\Temp\ccteJwuU.s:11601  .debug_str:00000000000012e3 .LASF226
C:\Users\Jesper\AppData\Local\Temp\ccteJwuU.s:10999  .debug_str:0000000000000645 .LASF227
C:\Users\Jesper\AppData\Local\Temp\ccteJwuU.s:11221  .debug_str:0000000000000ad9 .LASF228
C:\Users\Jesper\AppData\Local\Temp\ccteJwuU.s:11081  .debug_str:000000000000081e .LASF229
C:\Users\Jesper\AppData\Local\Temp\ccteJwuU.s:11505  .debug_str:00000000000010f3 .LASF230
C:\Users\Jesper\AppData\Local\Temp\ccteJwuU.s:11555  .debug_str:00000000000011e5 .LASF231
C:\Users\Jesper\AppData\Local\Temp\ccteJwuU.s:11655  .debug_str:0000000000001407 .LASF232
C:\Users\Jesper\AppData\Local\Temp\ccteJwuU.s:11525  .debug_str:0000000000001156 .LASF233
C:\Users\Jesper\AppData\Local\Temp\ccteJwuU.s:10981  .debug_str:00000000000005ef .LASF234
C:\Users\Jesper\AppData\Local\Temp\ccteJwuU.s:11665  .debug_str:0000000000001452 .LASF235
C:\Users\Jesper\AppData\Local\Temp\ccteJwuU.s:11491  .debug_str:00000000000010ae .LASF236
C:\Users\Jesper\AppData\Local\Temp\ccteJwuU.s:11663  .debug_str:000000000000143e .LASF237
C:\Users\Jesper\AppData\Local\Temp\ccteJwuU.s:11623  .debug_str:000000000000135a .LASF238
C:\Users\Jesper\AppData\Local\Temp\ccteJwuU.s:11085  .debug_str:000000000000082e .LASF239
C:\Users\Jesper\AppData\Local\Temp\ccteJwuU.s:11079  .debug_str:0000000000000818 .LASF240
C:\Users\Jesper\AppData\Local\Temp\ccteJwuU.s:11119  .debug_str:00000000000008c2 .LASF241
C:\Users\Jesper\AppData\Local\Temp\ccteJwuU.s:11659  .debug_str:0000000000001425 .LASF242
C:\Users\Jesper\AppData\Local\Temp\ccteJwuU.s:10871  .debug_str:0000000000000372 .LASF243
C:\Users\Jesper\AppData\Local\Temp\ccteJwuU.s:11649  .debug_str:00000000000013e5 .LASF244
C:\Users\Jesper\AppData\Local\Temp\ccteJwuU.s:11437  .debug_str:0000000000000fb3 .LASF245
C:\Users\Jesper\AppData\Local\Temp\ccteJwuU.s:10961  .debug_str:000000000000056b .LASF246
C:\Users\Jesper\AppData\Local\Temp\ccteJwuU.s:11367  .debug_str:0000000000000e5e .LASF247
C:\Users\Jesper\AppData\Local\Temp\ccteJwuU.s:11611  .debug_str:000000000000131b .LASF248
C:\Users\Jesper\AppData\Local\Temp\ccteJwuU.s:11483  .debug_str:0000000000001088 .LASF249
C:\Users\Jesper\AppData\Local\Temp\ccteJwuU.s:11647  .debug_str:00000000000013db .LASF250
C:\Users\Jesper\AppData\Local\Temp\ccteJwuU.s:11673  .debug_str:0000000000001474 .LASF251
C:\Users\Jesper\AppData\Local\Temp\ccteJwuU.s:11135  .debug_str:0000000000000921 .LASF252
C:\Users\Jesper\AppData\Local\Temp\ccteJwuU.s:11077  .debug_str:000000000000080f .LASF253
C:\Users\Jesper\AppData\Local\Temp\ccteJwuU.s:11631  .debug_str:000000000000137e .LASF254
C:\Users\Jesper\AppData\Local\Temp\ccteJwuU.s:11497  .debug_str:00000000000010c9 .LASF255
C:\Users\Jesper\AppData\Local\Temp\ccteJwuU.s:11435  .debug_str:0000000000000fac .LASF256
C:\Users\Jesper\AppData\Local\Temp\ccteJwuU.s:10935  .debug_str:00000000000004da .LASF257
C:\Users\Jesper\AppData\Local\Temp\ccteJwuU.s:11303  .debug_str:0000000000000cf9 .LASF258
C:\Users\Jesper\AppData\Local\Temp\ccteJwuU.s:10771  .debug_str:00000000000000bc .LASF259
C:\Users\Jesper\AppData\Local\Temp\ccteJwuU.s:11005  .debug_str:000000000000066c .LASF260
C:\Users\Jesper\AppData\Local\Temp\ccteJwuU.s:11415  .debug_str:0000000000000f4e .LASF261
C:\Users\Jesper\AppData\Local\Temp\ccteJwuU.s:10831  .debug_str:000000000000020d .LASF262
C:\Users\Jesper\AppData\Local\Temp\ccteJwuU.s:11027  .debug_str:00000000000006ea .LASF263
C:\Users\Jesper\AppData\Local\Temp\ccteJwuU.s:11187  .debug_str:0000000000000a30 .LASF264
C:\Users\Jesper\AppData\Local\Temp\ccteJwuU.s:11053  .debug_str:000000000000077b .LASF265
C:\Users\Jesper\AppData\Local\Temp\ccteJwuU.s:11681  .debug_str:0000000000001491 .LASF266
C:\Users\Jesper\AppData\Local\Temp\ccteJwuU.s:10805  .debug_str:0000000000000189 .LASF267
C:\Users\Jesper\AppData\Local\Temp\ccteJwuU.s:11067  .debug_str:00000000000007d7 .LASF268
C:\Users\Jesper\AppData\Local\Temp\ccteJwuU.s:11069  .debug_str:00000000000007e2 .LASF269
C:\Users\Jesper\AppData\Local\Temp\ccteJwuU.s:11619  .debug_str:0000000000001347 .LASF270
GAS LISTING C:\Users\Jesper\AppData\Local\Temp\ccteJwuU.s 			page 84


C:\Users\Jesper\AppData\Local\Temp\ccteJwuU.s:11417  .debug_str:0000000000000f53 .LASF271
C:\Users\Jesper\AppData\Local\Temp\ccteJwuU.s:10907  .debug_str:0000000000000435 .LASF272
C:\Users\Jesper\AppData\Local\Temp\ccteJwuU.s:10767  .debug_str:00000000000000ab .LASF273
C:\Users\Jesper\AppData\Local\Temp\ccteJwuU.s:11433  .debug_str:0000000000000fa4 .LASF274
C:\Users\Jesper\AppData\Local\Temp\ccteJwuU.s:10909  .debug_str:000000000000043d .LASF275
C:\Users\Jesper\AppData\Local\Temp\ccteJwuU.s:11371  .debug_str:0000000000000e70 .LASF276
C:\Users\Jesper\AppData\Local\Temp\ccteJwuU.s:11123  .debug_str:00000000000008d5 .LASF277
C:\Users\Jesper\AppData\Local\Temp\ccteJwuU.s:11689  .debug_str:00000000000014bd .LASF278
C:\Users\Jesper\AppData\Local\Temp\ccteJwuU.s:11539  .debug_str:000000000000119f .LASF279
C:\Users\Jesper\AppData\Local\Temp\ccteJwuU.s:11551  .debug_str:00000000000011d3 .LASF280
C:\Users\Jesper\AppData\Local\Temp\ccteJwuU.s:11019  .debug_str:00000000000006c1 .LASF281
C:\Users\Jesper\AppData\Local\Temp\ccteJwuU.s:10795  .debug_str:0000000000000147 .LASF282
C:\Users\Jesper\AppData\Local\Temp\ccteJwuU.s:10939  .debug_str:00000000000004ea .LASF283
C:\Users\Jesper\AppData\Local\Temp\ccteJwuU.s:10991  .debug_str:0000000000000623 .LASF284
C:\Users\Jesper\AppData\Local\Temp\ccteJwuU.s:11347  .debug_str:0000000000000df1 .LASF285
C:\Users\Jesper\AppData\Local\Temp\ccteJwuU.s:11179  .debug_str:0000000000000a0f .LASF286
C:\Users\Jesper\AppData\Local\Temp\ccteJwuU.s:10949  .debug_str:0000000000000527 .LASF287
C:\Users\Jesper\AppData\Local\Temp\ccteJwuU.s:11083  .debug_str:0000000000000825 .LASF288
C:\Users\Jesper\AppData\Local\Temp\ccteJwuU.s:11253  .debug_str:0000000000000be3 .LASF289
C:\Users\Jesper\AppData\Local\Temp\ccteJwuU.s:11529  .debug_str:0000000000001169 .LASF290
C:\Users\Jesper\AppData\Local\Temp\ccteJwuU.s:10925  .debug_str:000000000000048a .LASF291
C:\Users\Jesper\AppData\Local\Temp\ccteJwuU.s:11095  .debug_str:0000000000000858 .LASF292
C:\Users\Jesper\AppData\Local\Temp\ccteJwuU.s:10917  .debug_str:000000000000046a .LASF293
C:\Users\Jesper\AppData\Local\Temp\ccteJwuU.s:11507  .debug_str:00000000000010fa .LASF294
C:\Users\Jesper\AppData\Local\Temp\ccteJwuU.s:11501  .debug_str:00000000000010e1 .LASF295
C:\Users\Jesper\AppData\Local\Temp\ccteJwuU.s:11169  .debug_str:00000000000009e1 .LASF296
C:\Users\Jesper\AppData\Local\Temp\ccteJwuU.s:10873  .debug_str:000000000000037c .LASF297
C:\Users\Jesper\AppData\Local\Temp\ccteJwuU.s:11377  .debug_str:0000000000000e8a .LASF298
C:\Users\Jesper\AppData\Local\Temp\ccteJwuU.s:11495  .debug_str:00000000000010bf .LASF299
C:\Users\Jesper\AppData\Local\Temp\ccteJwuU.s:11109  .debug_str:000000000000088e .LASF300
C:\Users\Jesper\AppData\Local\Temp\ccteJwuU.s:10989  .debug_str:0000000000000615 .LASF301
C:\Users\Jesper\AppData\Local\Temp\ccteJwuU.s:11325  .debug_str:0000000000000d63 .LASF302
C:\Users\Jesper\AppData\Local\Temp\ccteJwuU.s:11003  .debug_str:0000000000000665 .LASF303
C:\Users\Jesper\AppData\Local\Temp\ccteJwuU.s:11407  .debug_str:0000000000000f2a .LASF304
C:\Users\Jesper\AppData\Local\Temp\ccteJwuU.s:11111  .debug_str:0000000000000897 .LASF305
C:\Users\Jesper\AppData\Local\Temp\ccteJwuU.s:11197  .debug_str:0000000000000a5c .LASF306
C:\Users\Jesper\AppData\Local\Temp\ccteJwuU.s:10887  .debug_str:00000000000003c7 .LASF307
C:\Users\Jesper\AppData\Local\Temp\ccteJwuU.s:11395  .debug_str:0000000000000ee6 .LASF308
C:\Users\Jesper\AppData\Local\Temp\ccteJwuU.s:11129  .debug_str:00000000000008f9 .LASF309
C:\Users\Jesper\AppData\Local\Temp\ccteJwuU.s:11063  .debug_str:00000000000007b2 .LASF310
C:\Users\Jesper\AppData\Local\Temp\ccteJwuU.s:11023  .debug_str:00000000000006d3 .LASF311
C:\Users\Jesper\AppData\Local\Temp\ccteJwuU.s:11021  .debug_str:00000000000006cc .LASF312
C:\Users\Jesper\AppData\Local\Temp\ccteJwuU.s:10867  .debug_str:0000000000000362 .LASF313
C:\Users\Jesper\AppData\Local\Temp\ccteJwuU.s:11503  .debug_str:00000000000010e6 .LASF314
C:\Users\Jesper\AppData\Local\Temp\ccteJwuU.s:10789  .debug_str:0000000000000122 .LASF315
C:\Users\Jesper\AppData\Local\Temp\ccteJwuU.s:10905  .debug_str:0000000000000425 .LASF316
C:\Users\Jesper\AppData\Local\Temp\ccteJwuU.s:11147  .debug_str:0000000000000966 .LASF317
C:\Users\Jesper\AppData\Local\Temp\ccteJwuU.s:11449  .debug_str:0000000000000fee .LASF318
C:\Users\Jesper\AppData\Local\Temp\ccteJwuU.s:11441  .debug_str:0000000000000fbe .LASF319
C:\Users\Jesper\AppData\Local\Temp\ccteJwuU.s:10985  .debug_str:00000000000005fd .LASF320
C:\Users\Jesper\AppData\Local\Temp\ccteJwuU.s:11261  .debug_str:0000000000000c07 .LASF321
C:\Users\Jesper\AppData\Local\Temp\ccteJwuU.s:10739  .debug_str:0000000000000000 .LASF322
C:\Users\Jesper\AppData\Local\Temp\ccteJwuU.s:11645  .debug_str:00000000000013cd .LASF323
C:\Users\Jesper\AppData\Local\Temp\ccteJwuU.s:11697  .debug_str:00000000000014e2 .LASF324
C:\Users\Jesper\AppData\Local\Temp\ccteJwuU.s:11241  .debug_str:0000000000000b9b .LASF325
C:\Users\Jesper\AppData\Local\Temp\ccteJwuU.s:11045  .debug_str:0000000000000757 .LASF326
C:\Users\Jesper\AppData\Local\Temp\ccteJwuU.s:11359  .debug_str:0000000000000e34 .LASF327
GAS LISTING C:\Users\Jesper\AppData\Local\Temp\ccteJwuU.s 			page 85


C:\Users\Jesper\AppData\Local\Temp\ccteJwuU.s:11289  .debug_str:0000000000000ca1 .LASF328
C:\Users\Jesper\AppData\Local\Temp\ccteJwuU.s:11297  .debug_str:0000000000000cce .LASF329
C:\Users\Jesper\AppData\Local\Temp\ccteJwuU.s:11321  .debug_str:0000000000000d49 .LASF330
C:\Users\Jesper\AppData\Local\Temp\ccteJwuU.s:11203  .debug_str:0000000000000a77 .LASF331
C:\Users\Jesper\AppData\Local\Temp\ccteJwuU.s:11617  .debug_str:000000000000133d .LASF332
C:\Users\Jesper\AppData\Local\Temp\ccteJwuU.s:11175  .debug_str:00000000000009f3 .LASF333
C:\Users\Jesper\AppData\Local\Temp\ccteJwuU.s:10979  .debug_str:00000000000005e1 .LASF334
C:\Users\Jesper\AppData\Local\Temp\ccteJwuU.s:11517  .debug_str:0000000000001125 .LASF335
C:\Users\Jesper\AppData\Local\Temp\ccteJwuU.s:10743  .debug_str:0000000000000015 .LASF336
C:\Users\Jesper\AppData\Local\Temp\ccteJwuU.s:11579  .debug_str:0000000000001250 .LASF337
C:\Users\Jesper\AppData\Local\Temp\ccteJwuU.s:11295  .debug_str:0000000000000cbe .LASF338
C:\Users\Jesper\AppData\Local\Temp\ccteJwuU.s:11487  .debug_str:0000000000001096 .LASF339
C:\Users\Jesper\AppData\Local\Temp\ccteJwuU.s:10951  .debug_str:000000000000052f .LASF340
C:\Users\Jesper\AppData\Local\Temp\ccteJwuU.s:11463  .debug_str:0000000000001035 .LASF341
C:\Users\Jesper\AppData\Local\Temp\ccteJwuU.s:10751  .debug_str:0000000000000049 .LASF342
C:\Users\Jesper\AppData\Local\Temp\ccteJwuU.s:11625  .debug_str:0000000000001365 .LASF343
C:\Users\Jesper\AppData\Local\Temp\ccteJwuU.s:10759  .debug_str:000000000000007f .LASF344
C:\Users\Jesper\AppData\Local\Temp\ccteJwuU.s:11249  .debug_str:0000000000000bc5 .LASF345
C:\Users\Jesper\AppData\Local\Temp\ccteJwuU.s:10923  .debug_str:0000000000000480 .LASF346
C:\Users\Jesper\AppData\Local\Temp\ccteJwuU.s:11137  .debug_str:0000000000000928 .LASF347
C:\Users\Jesper\AppData\Local\Temp\ccteJwuU.s:11633  .debug_str:0000000000001386 .LASF348
C:\Users\Jesper\AppData\Local\Temp\ccteJwuU.s:11181  .debug_str:0000000000000a18 .LASF349
C:\Users\Jesper\AppData\Local\Temp\ccteJwuU.s:11521  .debug_str:0000000000001143 .LASF350
C:\Users\Jesper\AppData\Local\Temp\ccteJwuU.s:10933  .debug_str:00000000000004d3 .LASF351
C:\Users\Jesper\AppData\Local\Temp\ccteJwuU.s:10747  .debug_str:0000000000000034 .LASF352
C:\Users\Jesper\AppData\Local\Temp\ccteJwuU.s:11087  .debug_str:0000000000000839 .LASF353
C:\Users\Jesper\AppData\Local\Temp\ccteJwuU.s:11695  .debug_str:00000000000014d7 .LASF354
C:\Users\Jesper\AppData\Local\Temp\ccteJwuU.s:11553  .debug_str:00000000000011db .LASF355
C:\Users\Jesper\AppData\Local\Temp\ccteJwuU.s:11349  .debug_str:0000000000000dfc .LASF356
C:\Users\Jesper\AppData\Local\Temp\ccteJwuU.s:11493  .debug_str:00000000000010b5 .LASF357
C:\Users\Jesper\AppData\Local\Temp\ccteJwuU.s:11457  .debug_str:0000000000001012 .LASF358
C:\Users\Jesper\AppData\Local\Temp\ccteJwuU.s:11283  .debug_str:0000000000000c84 .LASF359
C:\Users\Jesper\AppData\Local\Temp\ccteJwuU.s:11511  .debug_str:0000000000001109 .LASF360
C:\Users\Jesper\AppData\Local\Temp\ccteJwuU.s:10901  .debug_str:0000000000000411 .LASF361
C:\Users\Jesper\AppData\Local\Temp\ccteJwuU.s:11365  .debug_str:0000000000000e55 .LASF362
C:\Users\Jesper\AppData\Local\Temp\ccteJwuU.s:10765  .debug_str:00000000000000a3 .LASF363
C:\Users\Jesper\AppData\Local\Temp\ccteJwuU.s:11235  .debug_str:0000000000000b1b .LASF364
C:\Users\Jesper\AppData\Local\Temp\ccteJwuU.s:11513  .debug_str:0000000000001112 .LASF365
C:\Users\Jesper\AppData\Local\Temp\ccteJwuU.s:11603  .debug_str:00000000000012ee .LASF366
C:\Users\Jesper\AppData\Local\Temp\ccteJwuU.s:11073  .debug_str:00000000000007f7 .LASF367
C:\Users\Jesper\AppData\Local\Temp\ccteJwuU.s:10995  .debug_str:0000000000000635 .LASF368
C:\Users\Jesper\AppData\Local\Temp\ccteJwuU.s:11247  .debug_str:0000000000000bb8 .LASF369
C:\Users\Jesper\AppData\Local\Temp\ccteJwuU.s:11333  .debug_str:0000000000000d8a .LASF370
C:\Users\Jesper\AppData\Local\Temp\ccteJwuU.s:11205  .debug_str:0000000000000a84 .LASF371
C:\Users\Jesper\AppData\Local\Temp\ccteJwuU.s:10741  .debug_str:0000000000000009 .LASF372
C:\Users\Jesper\AppData\Local\Temp\ccteJwuU.s:11509  .debug_str:0000000000001101 .LASF373
C:\Users\Jesper\AppData\Local\Temp\ccteJwuU.s:10773  .debug_str:00000000000000c3 .LASF374
C:\Users\Jesper\AppData\Local\Temp\ccteJwuU.s:11609  .debug_str:0000000000001312 .LASF375
C:\Users\Jesper\AppData\Local\Temp\ccteJwuU.s:11039  .debug_str:0000000000000735 .LASF376
C:\Users\Jesper\AppData\Local\Temp\ccteJwuU.s:11159  .debug_str:00000000000009aa .LASF377
C:\Users\Jesper\AppData\Local\Temp\ccteJwuU.s:10851  .debug_str:0000000000000298 .LASF378
C:\Users\Jesper\AppData\Local\Temp\ccteJwuU.s:11291  .debug_str:0000000000000cb0 .LASF379
C:\Users\Jesper\AppData\Local\Temp\ccteJwuU.s:11621  .debug_str:000000000000134f .LASF380
C:\Users\Jesper\AppData\Local\Temp\ccteJwuU.s:11017  .debug_str:00000000000006b6 .LASF381
C:\Users\Jesper\AppData\Local\Temp\ccteJwuU.s:10845  .debug_str:0000000000000282 .LASF382
C:\Users\Jesper\AppData\Local\Temp\ccteJwuU.s:11113  .debug_str:000000000000089f .LASF383
C:\Users\Jesper\AppData\Local\Temp\ccteJwuU.s:11693  .debug_str:00000000000014cf .LASF384
GAS LISTING C:\Users\Jesper\AppData\Local\Temp\ccteJwuU.s 			page 86


C:\Users\Jesper\AppData\Local\Temp\ccteJwuU.s:11339  .debug_str:0000000000000da8 .LASF385
C:\Users\Jesper\AppData\Local\Temp\ccteJwuU.s:11477  .debug_str:0000000000001076 .LASF386
C:\Users\Jesper\AppData\Local\Temp\ccteJwuU.s:11467  .debug_str:0000000000001045 .LASF387
C:\Users\Jesper\AppData\Local\Temp\ccteJwuU.s:11409  .debug_str:0000000000000f31 .LASF388
C:\Users\Jesper\AppData\Local\Temp\ccteJwuU.s:10945  .debug_str:0000000000000517 .LASF389
C:\Users\Jesper\AppData\Local\Temp\ccteJwuU.s:11489  .debug_str:00000000000010a9 .LASF390
C:\Users\Jesper\AppData\Local\Temp\ccteJwuU.s:11075  .debug_str:0000000000000808 .LASF391
C:\Users\Jesper\AppData\Local\Temp\ccteJwuU.s:10889  .debug_str:00000000000003d8 .LASF392
C:\Users\Jesper\AppData\Local\Temp\ccteJwuU.s:10879  .debug_str:000000000000039f .LASF393
C:\Users\Jesper\AppData\Local\Temp\ccteJwuU.s:11015  .debug_str:00000000000006ad .LASF394
C:\Users\Jesper\AppData\Local\Temp\ccteJwuU.s:11043  .debug_str:0000000000000744 .LASF395
C:\Users\Jesper\AppData\Local\Temp\ccteJwuU.s:11279  .debug_str:0000000000000c63 .LASF396
C:\Users\Jesper\AppData\Local\Temp\ccteJwuU.s:11459  .debug_str:000000000000101b .LASF397
C:\Users\Jesper\AppData\Local\Temp\ccteJwuU.s:11117  .debug_str:00000000000008b4 .LASF398
C:\Users\Jesper\AppData\Local\Temp\ccteJwuU.s:10847  .debug_str:000000000000028b .LASF399
C:\Users\Jesper\AppData\Local\Temp\ccteJwuU.s:11273  .debug_str:0000000000000c49 .LASF400
C:\Users\Jesper\AppData\Local\Temp\ccteJwuU.s:11277  .debug_str:0000000000000c58 .LASF401
C:\Users\Jesper\AppData\Local\Temp\ccteJwuU.s:11405  .debug_str:0000000000000f1c .LASF402
C:\Users\Jesper\AppData\Local\Temp\ccteJwuU.s:11445  .debug_str:0000000000000fd5 .LASF403
C:\Users\Jesper\AppData\Local\Temp\ccteJwuU.s:11453  .debug_str:0000000000001000 .LASF404
C:\Users\Jesper\AppData\Local\Temp\ccteJwuU.s:11465  .debug_str:0000000000001040 .LASF405
C:\Users\Jesper\AppData\Local\Temp\ccteJwuU.s:11267  .debug_str:0000000000000c21 .LASF406
C:\Users\Jesper\AppData\Local\Temp\ccteJwuU.s:11309  .debug_str:0000000000000d14 .LASF407
C:\Users\Jesper\AppData\Local\Temp\ccteJwuU.s:11537  .debug_str:0000000000001192 .LASF408
C:\Users\Jesper\AppData\Local\Temp\ccteJwuU.s:10881  .debug_str:00000000000003a7 .LASF409
C:\Users\Jesper\AppData\Local\Temp\ccteJwuU.s:11013  .debug_str:000000000000069a .LASF410
C:\Users\Jesper\AppData\Local\Temp\ccteJwuU.s:11671  .debug_str:000000000000146d .LASF411
C:\Users\Jesper\AppData\Local\Temp\ccteJwuU.s:11583  .debug_str:0000000000001265 .LASF412
C:\Users\Jesper\AppData\Local\Temp\ccteJwuU.s:10973  .debug_str:00000000000005c0 .LASF413
C:\Users\Jesper\AppData\Local\Temp\ccteJwuU.s:11007  .debug_str:0000000000000671 .LASF414
C:\Users\Jesper\AppData\Local\Temp\ccteJwuU.s:10833  .debug_str:0000000000000213 .LASF415
C:\Users\Jesper\AppData\Local\Temp\ccteJwuU.s:11343  .debug_str:0000000000000dc1 .LASF416
C:\Users\Jesper\AppData\Local\Temp\ccteJwuU.s:11589  .debug_str:00000000000012a5 .LASF417
C:\Users\Jesper\AppData\Local\Temp\ccteJwuU.s:11057  .debug_str:0000000000000790 .LASF418
C:\Users\Jesper\AppData\Local\Temp\ccteJwuU.s:10971  .debug_str:000000000000059b .LASF419
C:\Users\Jesper\AppData\Local\Temp\ccteJwuU.s:10929  .debug_str:00000000000004ad .LASF420
C:\Users\Jesper\AppData\Local\Temp\ccteJwuU.s:11561  .debug_str:00000000000011fd .LASF421
C:\Users\Jesper\AppData\Local\Temp\ccteJwuU.s:10943  .debug_str:00000000000004fb .LASF422
C:\Users\Jesper\AppData\Local\Temp\ccteJwuU.s:11127  .debug_str:00000000000008e8 .LASF423
C:\Users\Jesper\AppData\Local\Temp\ccteJwuU.s:10863  .debug_str:0000000000000346 .LASF424
C:\Users\Jesper\AppData\Local\Temp\ccteJwuU.s:10803  .debug_str:000000000000016f .LASF425
C:\Users\Jesper\AppData\Local\Temp\ccteJwuU.s:11035  .debug_str:0000000000000711 .LASF426
C:\Users\Jesper\AppData\Local\Temp\ccteJwuU.s:11269  .debug_str:0000000000000c29 .LASF427
C:\Users\Jesper\AppData\Local\Temp\ccteJwuU.s:10755  .debug_str:000000000000005d .LASF428
C:\Users\Jesper\AppData\Local\Temp\ccteJwuU.s:10779  .debug_str:00000000000000d7 .LASF429
C:\Users\Jesper\AppData\Local\Temp\ccteJwuU.s:11575  .debug_str:000000000000123a .LASF430
C:\Users\Jesper\AppData\Local\Temp\ccteJwuU.s:11587  .debug_str:0000000000001293 .LASF431
C:\Users\Jesper\AppData\Local\Temp\ccteJwuU.s:10927  .debug_str:0000000000000494 .LASF432
C:\Users\Jesper\AppData\Local\Temp\ccteJwuU.s:10785  .debug_str:000000000000010e .LASF433
C:\Users\Jesper\AppData\Local\Temp\ccteJwuU.s:11255  .debug_str:0000000000000beb .LASF434
C:\Users\Jesper\AppData\Local\Temp\ccteJwuU.s:10837  .debug_str:0000000000000252 .LASF435
C:\Users\Jesper\AppData\Local\Temp\ccteJwuU.s:11133  .debug_str:0000000000000912 .LASF436
C:\Users\Jesper\AppData\Local\Temp\ccteJwuU.s:11643  .debug_str:00000000000013c1 .LASF437
C:\Users\Jesper\AppData\Local\Temp\ccteJwuU.s:11541  .debug_str:00000000000011a6 .LASF438
C:\Users\Jesper\AppData\Local\Temp\ccteJwuU.s:11399  .debug_str:0000000000000ef3 .LASF439
C:\Users\Jesper\AppData\Local\Temp\ccteJwuU.s:10937  .debug_str:00000000000004e5 .LASF477
C:\Users\Jesper\AppData\Local\Temp\ccteJwuU.s:241    .text.startup.main:0000000000000000 .LFB33
GAS LISTING C:\Users\Jesper\AppData\Local\Temp\ccteJwuU.s 			page 87


C:\Users\Jesper\AppData\Local\Temp\ccteJwuU.s:582    .text.startup.main:000000000000026c .LFE33
C:\Users\Jesper\AppData\Local\Temp\ccteJwuU.s:10383  .debug_loc:0000000000000000 .LLST11
C:\Users\Jesper\AppData\Local\Temp\ccteJwuU.s:11183  .debug_str:0000000000000a23 .LASF440
C:\Users\Jesper\AppData\Local\Temp\ccteJwuU.s:10406  .debug_loc:000000000000003a .LLST12
C:\Users\Jesper\AppData\Local\Temp\ccteJwuU.s:11195  .debug_str:0000000000000a57 .LASF441
C:\Users\Jesper\AppData\Local\Temp\ccteJwuU.s:10420  .debug_loc:000000000000005b .LLST13
C:\Users\Jesper\AppData\Local\Temp\ccteJwuU.s:11275  .debug_str:0000000000000c52 .LASF444
C:\Users\Jesper\AppData\Local\Temp\ccteJwuU.s:11139  .debug_str:0000000000000934 .LASF442
C:\Users\Jesper\AppData\Local\Temp\ccteJwuU.s:10745  .debug_str:0000000000000027 .LASF443
C:\Users\Jesper\AppData\Local\Temp\ccteJwuU.s:11691  .debug_str:00000000000014c8 .LASF445
C:\Users\Jesper\AppData\Local\Temp\ccteJwuU.s:10434  .debug_loc:000000000000007c .LLST14
C:\Users\Jesper\AppData\Local\Temp\ccteJwuU.s:11585  .debug_str:000000000000128b .LASF446
C:\Users\Jesper\AppData\Local\Temp\ccteJwuU.s:10445  .debug_loc:000000000000009a .LLST15
C:\Users\Jesper\AppData\Local\Temp\ccteJwuU.s:10993  .debug_str:000000000000062f .LASF447
C:\Users\Jesper\AppData\Local\Temp\ccteJwuU.s:10452  .debug_loc:00000000000000ad .LLST16
C:\Users\Jesper\AppData\Local\Temp\ccteJwuU.s:10975  .debug_str:00000000000005cf .LASF448
C:\Users\Jesper\AppData\Local\Temp\ccteJwuU.s:11293  .debug_str:0000000000000cb9 .LASF449
C:\Users\Jesper\AppData\Local\Temp\ccteJwuU.s:10473  .debug_loc:00000000000000d1 .LLST17
C:\Users\Jesper\AppData\Local\Temp\ccteJwuU.s:10492  .debug_loc:0000000000000105 .LLST18
C:\Users\Jesper\AppData\Local\Temp\ccteJwuU.s:350    .text.startup.main:00000000000000ba .LVL35
C:\Users\Jesper\AppData\Local\Temp\ccteJwuU.s:354    .text.startup.main:00000000000000c4 .LVL36
C:\Users\Jesper\AppData\Local\Temp\ccteJwuU.s:364    .text.startup.main:00000000000000d8 .LVL37
C:\Users\Jesper\AppData\Local\Temp\ccteJwuU.s:373    .text.startup.main:00000000000000e4 .LVL39
C:\Users\Jesper\AppData\Local\Temp\ccteJwuU.s:273    .text.startup.main:000000000000001c .LVL23
C:\Users\Jesper\AppData\Local\Temp\ccteJwuU.s:277    .text.startup.main:0000000000000026 .LVL24
C:\Users\Jesper\AppData\Local\Temp\ccteJwuU.s:282    .text.startup.main:000000000000002e .LVL25
C:\Users\Jesper\AppData\Local\Temp\ccteJwuU.s:290    .text.startup.main:0000000000000046 .LVL26
C:\Users\Jesper\AppData\Local\Temp\ccteJwuU.s:294    .text.startup.main:0000000000000050 .LVL27
C:\Users\Jesper\AppData\Local\Temp\ccteJwuU.s:298    .text.startup.main:0000000000000058 .LVL28
C:\Users\Jesper\AppData\Local\Temp\ccteJwuU.s:302    .text.startup.main:0000000000000062 .LVL29
C:\Users\Jesper\AppData\Local\Temp\ccteJwuU.s:305    .text.startup.main:000000000000006a .LVL30
C:\Users\Jesper\AppData\Local\Temp\ccteJwuU.s:310    .text.startup.main:0000000000000072 .LVL31
C:\Users\Jesper\AppData\Local\Temp\ccteJwuU.s:315    .text.startup.main:000000000000007e .LVL32
C:\Users\Jesper\AppData\Local\Temp\ccteJwuU.s:324    .text.startup.main:000000000000008c .LVL33
C:\Users\Jesper\AppData\Local\Temp\ccteJwuU.s:384    .text.startup.main:00000000000000f8 .LVL40
C:\Users\Jesper\AppData\Local\Temp\ccteJwuU.s:391    .text.startup.main:0000000000000108 .LVL41
C:\Users\Jesper\AppData\Local\Temp\ccteJwuU.s:399    .text.startup.main:0000000000000118 .LVL43
C:\Users\Jesper\AppData\Local\Temp\ccteJwuU.s:409    .text.startup.main:0000000000000132 .LVL44
C:\Users\Jesper\AppData\Local\Temp\ccteJwuU.s:419    .text.startup.main:0000000000000142 .LVL47
C:\Users\Jesper\AppData\Local\Temp\ccteJwuU.s:423    .text.startup.main:000000000000014c .LVL48
C:\Users\Jesper\AppData\Local\Temp\ccteJwuU.s:459    .text.startup.main:0000000000000170 .LVL49
C:\Users\Jesper\AppData\Local\Temp\ccteJwuU.s:471    .text.startup.main:0000000000000182 .LVL52
C:\Users\Jesper\AppData\Local\Temp\ccteJwuU.s:474    .text.startup.main:000000000000018a .LVL53
C:\Users\Jesper\AppData\Local\Temp\ccteJwuU.s:486    .text.startup.main:000000000000019e .LVL56
C:\Users\Jesper\AppData\Local\Temp\ccteJwuU.s:490    .text.startup.main:00000000000001a8 .LVL57
C:\Users\Jesper\AppData\Local\Temp\ccteJwuU.s:499    .text.startup.main:00000000000001b6 .LVL58
C:\Users\Jesper\AppData\Local\Temp\ccteJwuU.s:508    .text.startup.main:00000000000001c6 .LVL60
C:\Users\Jesper\AppData\Local\Temp\ccteJwuU.s:512    .text.startup.main:00000000000001d0 .LVL61
C:\Users\Jesper\AppData\Local\Temp\ccteJwuU.s:517    .text.startup.main:00000000000001d8 .LVL62
C:\Users\Jesper\AppData\Local\Temp\ccteJwuU.s:535    .text.startup.main:0000000000000210 .LVL67
C:\Users\Jesper\AppData\Local\Temp\ccteJwuU.s:539    .text.startup.main:000000000000021a .LVL68
C:\Users\Jesper\AppData\Local\Temp\ccteJwuU.s:543    .text.startup.main:0000000000000222 .LVL69
C:\Users\Jesper\AppData\Local\Temp\ccteJwuU.s:551    .text.startup.main:000000000000022e .LVL70
C:\Users\Jesper\AppData\Local\Temp\ccteJwuU.s:556    .text.startup.main:0000000000000238 .LVL71
C:\Users\Jesper\AppData\Local\Temp\ccteJwuU.s:561    .text.startup.main:0000000000000242 .LVL72
C:\Users\Jesper\AppData\Local\Temp\ccteJwuU.s:565    .text.startup.main:000000000000024e .LVL73
C:\Users\Jesper\AppData\Local\Temp\ccteJwuU.s:569    .text.startup.main:0000000000000258 .LVL74
GAS LISTING C:\Users\Jesper\AppData\Local\Temp\ccteJwuU.s 			page 88


C:\Users\Jesper\AppData\Local\Temp\ccteJwuU.s:579    .text.startup.main:000000000000026a .LVL75
C:\Users\Jesper\AppData\Local\Temp\ccteJwuU.s:11515  .debug_str:000000000000111c .LASF450
C:\Users\Jesper\AppData\Local\Temp\ccteJwuU.s:219    .text.ledOnOff:0000000000000000 .LFB32
C:\Users\Jesper\AppData\Local\Temp\ccteJwuU.s:232    .text.ledOnOff:0000000000000014 .LFE32
C:\Users\Jesper\AppData\Local\Temp\ccteJwuU.s:10514  .debug_loc:000000000000013c .LLST10
C:\Users\Jesper\AppData\Local\Temp\ccteJwuU.s:230    .text.ledOnOff:0000000000000014 .LVL21
C:\Users\Jesper\AppData\Local\Temp\ccteJwuU.s:11401  .debug_str:0000000000000efd .LASF451
C:\Users\Jesper\AppData\Local\Temp\ccteJwuU.s:176    .text.ledInit:0000000000000000 .LFB31
C:\Users\Jesper\AppData\Local\Temp\ccteJwuU.s:212    .text.ledInit:000000000000002a .LFE31
C:\Users\Jesper\AppData\Local\Temp\ccteJwuU.s:10532  .debug_loc:0000000000000168 .LLST9
C:\Users\Jesper\AppData\Local\Temp\ccteJwuU.s:191    .text.ledInit:0000000000000010 .LVL17
C:\Users\Jesper\AppData\Local\Temp\ccteJwuU.s:210    .text.ledInit:000000000000002a .LVL18
C:\Users\Jesper\AppData\Local\Temp\ccteJwuU.s:11345  .debug_str:0000000000000de4 .LASF478
C:\Users\Jesper\AppData\Local\Temp\ccteJwuU.s:38     .text.parse_output:0000000000000000 .LFB30
C:\Users\Jesper\AppData\Local\Temp\ccteJwuU.s:169    .text.parse_output:00000000000000a0 .LFE30
C:\Users\Jesper\AppData\Local\Temp\ccteJwuU.s:10550  .debug_loc:0000000000000194 .LLST2
C:\Users\Jesper\AppData\Local\Temp\ccteJwuU.s:10568  .debug_loc:00000000000001c0 .LLST3
C:\Users\Jesper\AppData\Local\Temp\ccteJwuU.s:10582  .debug_loc:00000000000001e1 .LLST4
C:\Users\Jesper\AppData\Local\Temp\ccteJwuU.s:10594  .debug_loc:00000000000001f9 .LLST5
C:\Users\Jesper\AppData\Local\Temp\ccteJwuU.s:11559  .debug_str:00000000000011f8 .LASF452
C:\Users\Jesper\AppData\Local\Temp\ccteJwuU.s:10602  .debug_loc:000000000000020d .LLST6
C:\Users\Jesper\AppData\Local\Temp\ccteJwuU.s:11549  .debug_str:00000000000011ce .LASF453
C:\Users\Jesper\AppData\Local\Temp\ccteJwuU.s:10615  .debug_loc:0000000000000230 .LLST7
C:\Users\Jesper\AppData\Local\Temp\ccteJwuU.s:10632  .debug_loc:000000000000025b .LLST8
C:\Users\Jesper\AppData\Local\Temp\ccteJwuU.s:102    .text.parse_output:0000000000000042 .LVL6
C:\Users\Jesper\AppData\Local\Temp\ccteJwuU.s:135    .text.parse_output:0000000000000082 .LVL12
C:\Users\Jesper\AppData\Local\Temp\ccteJwuU.s:167    .text.parse_output:00000000000000a0 .LVL16
C:\Users\Jesper\AppData\Local\Temp\ccteJwuU.s:10977  .debug_str:00000000000005d8 .LASF479
C:\Users\Jesper\AppData\Local\Temp\ccteJwuU.s:15     .text.layer_cb:0000000000000000 .LFB29
C:\Users\Jesper\AppData\Local\Temp\ccteJwuU.s:30     .text.layer_cb:0000000000000004 .LFE29
C:\Users\Jesper\AppData\Local\Temp\ccteJwuU.s:10644  .debug_loc:000000000000027a .LLST0
C:\Users\Jesper\AppData\Local\Temp\ccteJwuU.s:11049  .debug_str:000000000000076d .LASF454
C:\Users\Jesper\AppData\Local\Temp\ccteJwuU.s:10658  .debug_loc:000000000000029b .LLST1
C:\Users\Jesper\AppData\Local\Temp\ccteJwuU.s:11089  .debug_str:0000000000000841 .LASF455
C:\Users\Jesper\AppData\Local\Temp\ccteJwuU.s:11679  .debug_str:000000000000148a .LASF456
C:\Users\Jesper\AppData\Local\Temp\ccteJwuU.s:10853  .debug_str:00000000000002a1 .LASF461
C:\Users\Jesper\AppData\Local\Temp\ccteJwuU.s:11379  .debug_str:0000000000000e98 .LASF463
C:\Users\Jesper\AppData\Local\Temp\ccteJwuU.s:11065  .debug_str:00000000000007c2 .LASF457
C:\Users\Jesper\AppData\Local\Temp\ccteJwuU.s:10953  .debug_str:0000000000000542 .LASF458
C:\Users\Jesper\AppData\Local\Temp\ccteJwuU.s:11427  .debug_str:0000000000000f79 .LASF459
C:\Users\Jesper\AppData\Local\Temp\ccteJwuU.s:11131  .debug_str:0000000000000909 .LASF460
C:\Users\Jesper\AppData\Local\Temp\ccteJwuU.s:11571  .debug_str:000000000000122b .LASF462
C:\Users\Jesper\AppData\Local\Temp\ccteJwuU.s:10877  .debug_str:000000000000038e .LASF464
C:\Users\Jesper\AppData\Local\Temp\ccteJwuU.s:11299  .debug_str:0000000000000ce2 .LASF465
C:\Users\Jesper\AppData\Local\Temp\ccteJwuU.s:11107  .debug_str:0000000000000886 .LASF466
C:\Users\Jesper\AppData\Local\Temp\ccteJwuU.s:11641  .debug_str:00000000000013b3 .LASF467
C:\Users\Jesper\AppData\Local\Temp\ccteJwuU.s:11421  .debug_str:0000000000000f63 .LASF468
C:\Users\Jesper\AppData\Local\Temp\ccteJwuU.s:11099  .debug_str:000000000000086a .LASF469
C:\Users\Jesper\AppData\Local\Temp\ccteJwuU.s:11165  .debug_str:00000000000009c0 .LASF470
C:\Users\Jesper\AppData\Local\Temp\ccteJwuU.s:11657  .debug_str:000000000000140d .LASF471
C:\Users\Jesper\AppData\Local\Temp\ccteJwuU.s:11475  .debug_str:000000000000106c .LASF472
C:\Users\Jesper\AppData\Local\Temp\ccteJwuU.s:251    .text.startup.main:0000000000000002 .LCFI4
C:\Users\Jesper\AppData\Local\Temp\ccteJwuU.s:450    .text.startup.main:0000000000000162 .LCFI5
C:\Users\Jesper\AppData\Local\Temp\ccteJwuU.s:454    .text.startup.main:0000000000000164 .LCFI6
C:\Users\Jesper\AppData\Local\Temp\ccteJwuU.s:244    .text.startup.main:0000000000000000 .LVL22
C:\Users\Jesper\AppData\Local\Temp\ccteJwuU.s:480    .text.startup.main:0000000000000194 .LVL54
C:\Users\Jesper\AppData\Local\Temp\ccteJwuU.s:484    .text.startup.main:0000000000000196 .LVL55
GAS LISTING C:\Users\Jesper\AppData\Local\Temp\ccteJwuU.s 			page 89


C:\Users\Jesper\AppData\Local\Temp\ccteJwuU.s:521    .text.startup.main:00000000000001dc .LVL63
C:\Users\Jesper\AppData\Local\Temp\ccteJwuU.s:411    .text.startup.main:0000000000000134 .LVL45
C:\Users\Jesper\AppData\Local\Temp\ccteJwuU.s:417    .text.startup.main:000000000000013a .LVL46
C:\Users\Jesper\AppData\Local\Temp\ccteJwuU.s:461    .text.startup.main:0000000000000172 .LVL50
C:\Users\Jesper\AppData\Local\Temp\ccteJwuU.s:469    .text.startup.main:000000000000017a .LVL51
C:\Users\Jesper\AppData\Local\Temp\ccteJwuU.s:504    .text.startup.main:00000000000001bc .LVL59
C:\Users\Jesper\AppData\Local\Temp\ccteJwuU.s:343    .text.startup.main:00000000000000a6 .LVL34
C:\Users\Jesper\AppData\Local\Temp\ccteJwuU.s:370    .text.startup.main:00000000000000dc .LVL38
C:\Users\Jesper\AppData\Local\Temp\ccteJwuU.s:396    .text.startup.main:000000000000010c .LVL42
C:\Users\Jesper\AppData\Local\Temp\ccteJwuU.s:222    .text.ledOnOff:0000000000000000 .LVL19
C:\Users\Jesper\AppData\Local\Temp\ccteJwuU.s:226    .text.ledOnOff:0000000000000006 .LVL20
C:\Users\Jesper\AppData\Local\Temp\ccteJwuU.s:182    .text.ledInit:0000000000000002 .LCFI2
C:\Users\Jesper\AppData\Local\Temp\ccteJwuU.s:206    .text.ledInit:0000000000000022 .LCFI3
C:\Users\Jesper\AppData\Local\Temp\ccteJwuU.s:52     .text.parse_output:0000000000000002 .LCFI0
C:\Users\Jesper\AppData\Local\Temp\ccteJwuU.s:163    .text.parse_output:0000000000000098 .LCFI1
C:\Users\Jesper\AppData\Local\Temp\ccteJwuU.s:41     .text.parse_output:0000000000000000 .LVL2
C:\Users\Jesper\AppData\Local\Temp\ccteJwuU.s:91     .text.parse_output:0000000000000026 .LVL4
C:\Users\Jesper\AppData\Local\Temp\ccteJwuU.s:55     .text.parse_output:0000000000000004 .LVL3
C:\Users\Jesper\AppData\Local\Temp\ccteJwuU.s:149    .text.parse_output:000000000000008c .LVL14
C:\Users\Jesper\AppData\Local\Temp\ccteJwuU.s:113    .text.parse_output:0000000000000058 .LVL8
C:\Users\Jesper\AppData\Local\Temp\ccteJwuU.s:116    .text.parse_output:000000000000005a .LVL9
C:\Users\Jesper\AppData\Local\Temp\ccteJwuU.s:152    .text.parse_output:000000000000008e .LVL15
C:\Users\Jesper\AppData\Local\Temp\ccteJwuU.s:140    .text.parse_output:0000000000000084 .LVL13
C:\Users\Jesper\AppData\Local\Temp\ccteJwuU.s:19     .text.layer_cb:0000000000000000 .LVL0
C:\Users\Jesper\AppData\Local\Temp\ccteJwuU.s:27     .text.layer_cb:0000000000000002 .LVL1
C:\Users\Jesper\AppData\Local\Temp\ccteJwuU.s:3864   .debug_info:0000000000000000 .Ldebug_info0
C:\Users\Jesper\AppData\Local\Temp\ccteJwuU.s:47     .text.parse_output:0000000000000000 .LBB2
C:\Users\Jesper\AppData\Local\Temp\ccteJwuU.s:49     .text.parse_output:0000000000000000 .LBE2
C:\Users\Jesper\AppData\Local\Temp\ccteJwuU.s:60     .text.parse_output:0000000000000008 .LBB3
C:\Users\Jesper\AppData\Local\Temp\ccteJwuU.s:63     .text.parse_output:000000000000000c .LBE3
C:\Users\Jesper\AppData\Local\Temp\ccteJwuU.s:79     .text.parse_output:000000000000001a .LBB4
C:\Users\Jesper\AppData\Local\Temp\ccteJwuU.s:82     .text.parse_output:000000000000001c .LBE4
C:\Users\Jesper\AppData\Local\Temp\ccteJwuU.s:88     .text.parse_output:0000000000000024 .LBB5
C:\Users\Jesper\AppData\Local\Temp\ccteJwuU.s:124    .text.parse_output:0000000000000062 .LBE5
C:\Users\Jesper\AppData\Local\Temp\ccteJwuU.s:318    .text.startup.main:0000000000000080 .LBB6
C:\Users\Jesper\AppData\Local\Temp\ccteJwuU.s:321    .text.startup.main:0000000000000084 .LBE6
C:\Users\Jesper\AppData\Local\Temp\ccteJwuU.s:327    .text.startup.main:000000000000008c .LBB7
C:\Users\Jesper\AppData\Local\Temp\ccteJwuU.s:377    .text.startup.main:00000000000000e8 .LBE7

UNDEFINED SYMBOLS
__extendsfdf2
__gtsf2
printf
fflush
rcu_periph_clock_enable
gpio_init
gpio_bit_write
__floatunsisf
__divsf3
configure_usb_serial
usb_delay_1ms
usb_serial_available
puts
get_time
memcpy
tm_stat
tm_load
GAS LISTING C:\Users\Jesper\AppData\Local\Temp\ccteJwuU.s 			page 90


tm_preprocess
tm_run
tm_unload
