GAS LISTING C:\Users\Jesper\AppData\Local\Temp\ccfkv2jT.s 			page 1


   1              		.file	"main.c"
   2              		.option nopic
   3              		.attribute arch, "rv32i2p0_m2p0_a2p0_c2p0"
   4              		.attribute unaligned_access, 0
   5              		.attribute stack_align, 16
   6              		.text
   7              	.Ltext0:
   8              		.cfi_sections	.debug_frame
   9              		.globl	mdl_data
  10              		.globl	mnist_pic
  11              		.section	.text.layer_cb,"ax",@progbits
  12              		.align	1
  14              	layer_cb:
  15              	.LFB29:
  16              		.file 1 "main.c"
   1:main.c        **** /* Copyright 2022 Sipeed Technology Co., Ltd. All Rights Reserved.
   2:main.c        **** Licensed under the Apache License, Version 2.0 (the "License");
   3:main.c        **** you may not use this file except in compliance with the License.
   4:main.c        **** You may obtain a copy of the License at
   5:main.c        ****     http://www.apache.org/licenses/LICENSE-2.0
   6:main.c        **** Unless required by applicable law or agreed to in writing, software
   7:main.c        **** distributed under the License is distributed on an "AS IS" BASIS,
   8:main.c        **** WITHOUT WARRANTIES OR CONDITIONS OF ANY KIND, either express or implied.
   9:main.c        **** See the License for the specific language governing permissions and
  10:main.c        **** limitations under the License.
  11:main.c        **** ==============================================================================*/
  12:main.c        **** 
  13:main.c        **** #include "gd32vf103.h"
  14:main.c        **** #include "stdio.h"
  15:main.c        **** #include "tinymaix.h"
  16:main.c        **** #include "usb_serial_if.h"
  17:main.c        **** #include "usb_delay.h"
  18:main.c        **** #include "usart.h"
  19:main.c        **** #include "get_time.h"
  20:main.c        **** 
  21:main.c        **** #if TM_MDL_TYPE == TM_MDL_INT8
  22:main.c        **** #include "mnist_valid_q.h"
  23:main.c        **** //#include "../../tools/tmdl/mnist_resnet_q.h"
  24:main.c        **** #elif TM_MDL_TYPE == TM_MDL_FP32
  25:main.c        **** #include "/tools/tmdl/mnist_valid_f.h"
  26:main.c        **** //#include "../../tools/tmdl/mnist_resnet_f.h"
  27:main.c        **** #elif TM_MDL_TYPE == TM_MDL_FP16
  28:main.c        **** #include "/tools/tmdl/mnist_valid_fp16.h"
  29:main.c        **** #elif TM_MDL_TYPE == TM_MDL_FP8_143
  30:main.c        **** #include "/tools/tmdl/mnist_fp8_143.h"
  31:main.c        **** #elif TM_MDL_TYPE == TM_MDL_FP8_152
  32:main.c        **** #include "/tools/tmdl/mnist_fp8_152.h"
  33:main.c        **** #endif
  34:main.c        **** 
  35:main.c        **** #if 0
  36:main.c        **** uint8_t mnist_pic[28*28]={
  37:main.c        ****   0,  0,  0,  0,  0,  0,  0,  0,  0,  0,  0,  0,  0,  0,  0,  0,  0,  0,  0,  0,  0,  0,  0,  0,  0
  38:main.c        ****   0,  0,  0,  0,  0,  0,  0,  0,  0,  0,  0,  0,  0,  0,  0,  0,  0,  0,  0,  0,  0,  0,  0,  0,  0
  39:main.c        ****   0,  0,  0,  0,  0,  0,  0,  0,  0,  0,  0,  0,  0,  0,  0,  0,  0,  0,  0,  0,  0,  0,  0,  0,  0
  40:main.c        ****   0,  0,  0,  0,  0,  0,  0,  0,  0,  0,116,125,171,255,255,150, 93,  0,  0,  0,  0,  0,  0,  0,  0
  41:main.c        ****   0,  0,  0,  0,  0,  0,  0,  0,  0,169,253,253,253,253,253,253,218, 30,  0,  0,  0,  0,  0,  0,  0
  42:main.c        ****   0,  0,  0,  0,  0,  0,  0,  0,169,253,253,253,213,142,176,253,253,122,  0,  0,  0,  0,  0,  0,  0
GAS LISTING C:\Users\Jesper\AppData\Local\Temp\ccfkv2jT.s 			page 2


  43:main.c        ****   0,  0,  0,  0,  0,  0,  0, 52,250,253,210, 32, 12,  0,  6,206,253,140,  0,  0,  0,  0,  0,  0,  0
  44:main.c        ****   0,  0,  0,  0,  0,  0,  0, 77,251,210, 25,  0,  0,  0,122,248,253, 65,  0,  0,  0,  0,  0,  0,  0
  45:main.c        ****   0,  0,  0,  0,  0,  0,  0,  0, 31, 18,  0,  0,  0,  0,209,253,253, 65,  0,  0,  0,  0,  0,  0,  0
  46:main.c        ****   0,  0,  0,  0,  0,  0,  0,  0,  0,  0,  0,  0,  0,117,247,253,198, 10,  0,  0,  0,  0,  0,  0,  0
  47:main.c        ****   0,  0,  0,  0,  0,  0,  0,  0,  0,  0,  0,  0, 76,247,253,231, 63,  0,  0,  0,  0,  0,  0,  0,  0
  48:main.c        ****   0,  0,  0,  0,  0,  0,  0,  0,  0,  0,  0,  0,128,253,253,144,  0,  0,  0,  0,  0,  0,  0,  0,  0
  49:main.c        ****   0,  0,  0,  0,  0,  0,  0,  0,  0,  0,  0,176,246,253,159, 12,  0,  0,  0,  0,  0,  0,  0,  0,  0
  50:main.c        ****   0,  0,  0,  0,  0,  0,  0,  0,  0,  0, 25,234,253,233, 35,  0,  0,  0,  0,  0,  0,  0,  0,  0,  0
  51:main.c        ****   0,  0,  0,  0,  0,  0,  0,  0,  0,  0,198,253,253,141,  0,  0,  0,  0,  0,  0,  0,  0,  0,  0,  0
  52:main.c        ****   0,  0,  0,  0,  0,  0,  0,  0,  0, 78,248,253,189, 12,  0,  0,  0,  0,  0,  0,  0,  0,  0,  0,  0
  53:main.c        ****   0,  0,  0,  0,  0,  0,  0,  0, 19,200,253,253,141,  0,  0,  0,  0,  0,  0,  0,  0,  0,  0,  0,  0
  54:main.c        ****   0,  0,  0,  0,  0,  0,  0,  0,134,253,253,173, 12,  0,  0,  0,  0,  0,  0,  0,  0,  0,  0,  0,  0
  55:main.c        ****   0,  0,  0,  0,  0,  0,  0,  0,248,253,253, 25,  0,  0,  0,  0,  0,  0,  0,  0,  0,  0,  0,  0,  0
  56:main.c        ****   0,  0,  0,  0,  0,  0,  0,  0,248,253,253, 43, 20, 20, 20, 20,  5,  0,  5, 20, 20, 37,150,150,150
  57:main.c        ****   0,  0,  0,  0,  0,  0,  0,  0,248,253,253,253,253,253,253,253,168,143,166,253,253,253,253,253,253
  58:main.c        ****   0,  0,  0,  0,  0,  0,  0,  0,174,253,253,253,253,253,253,253,253,253,253,253,249,247,247,169,117
  59:main.c        ****   0,  0,  0,  0,  0,  0,  0,  0,  0,118,123,123,123,166,253,253,253,155,123,123, 41,  0,  0,  0,  0
  60:main.c        ****   0,  0,  0,  0,  0,  0,  0,  0,  0,  0,  0,  0,  0,  0,  0,  0,  0,  0,  0,  0,  0,  0,  0,  0,  0
  61:main.c        ****   0,  0,  0,  0,  0,  0,  0,  0,  0,  0,  0,  0,  0,  0,  0,  0,  0,  0,  0,  0,  0,  0,  0,  0,  0
  62:main.c        ****   0,  0,  0,  0,  0,  0,  0,  0,  0,  0,  0,  0,  0,  0,  0,  0,  0,  0,  0,  0,  0,  0,  0,  0,  0
  63:main.c        ****   0,  0,  0,  0,  0,  0,  0,  0,  0,  0,  0,  0,  0,  0,  0,  0,  0,  0,  0,  0,  0,  0,  0,  0,  0
  64:main.c        ****   0,  0,  0,  0,  0,  0,  0,  0,  0,  0,  0,  0,  0,  0,  0,  0,  0,  0,  0,  0,  0,  0,  0,  0,  0
  65:main.c        **** };
  66:main.c        **** #elif 0
  67:main.c        **** uint8_t mnist_pic[28*28]={
  68:main.c        ****   0,  0,  0,  0,  0,  0,  0,  0,  0,  0,  0,  0,  0,  0,  0,  0,  0,  0,  0,  0,  0,  0,  0,  0,  0
  69:main.c        ****   0,  0,  0,  0,  0,  0,  0,  0,  0,  0,  0,  0,  0,  0,  0,  0,  0,  0,  0,  0,  0,  0,  0,  0,  0
  70:main.c        ****   0,  0,  0,  0,  0,  0,  0,  0,  0,  0,  0,  0,  0,  0,  0,  0,  0,  0,  0,  0,  0,  0,  0,  0,  0
  71:main.c        ****   0,  0,  0,  0,  0,  0,  0,  0,  0,  0,  0,  0,  0,  0,  0,  0,  0,  0,  0,  0,  0,  0,  0,  0,  0
  72:main.c        ****   0,  0,  0,  0,  0,  0,  0,  0,  0,  0,  0,  0,  0,  0,  0,  0,  0,  0,  0,  0,  0,  0,  0,  0,  0
  73:main.c        ****   0,  0,  0,  0,  0,  0,  0,  0,  0,  0,  0,  0,  0,  0,  0,  0,  0,  0,  0,  0,  0,  0,  0,  0,  0
  74:main.c        ****   0,  0,  0,  0,  0,  0,  0,  0,  0,  0,  0,  0,  0,  0,  0,  0,  0,  0,  0,  0,  0,  0,  0,  0,  0
  75:main.c        ****   0,  0,  0,  0,  0,  0,  0,  0,  0,  0,  0,  0,  0, 36, 56,137,201,199, 95, 37,  0,  0,  0,  0,  0
  76:main.c        ****   0,  0,  0,  0,  0,  0,  0,  0,  0,  0,  0, 45,152,234,254,254,254,254,254,250,211,151,  6,  0,  0
  77:main.c        ****   0,  0,  0,  0,  0,  0,  0,  0,  0, 46,153,240,254,254,227,166,133,251,200,254,229,225,104,  0,  0
  78:main.c        ****   0,  0,  0,  0,  0,  0,  0,  0,153,234,254,254,187,142,  8,  0,  0,191, 40,198,246,223,253, 21,  0
  79:main.c        ****   0,  0,  0,  0,  0,  0,  8,126,253,254,233,128, 11,  0,  0,  0,  0,210, 43, 70,254,254,254, 21,  0
  80:main.c        ****   0,  0,  0,  0,  0,  0, 72,243,254,228, 54,  0,  0,  0,  0,  3, 32,116,225,242,254,255,162,  5,  0
  81:main.c        ****   0,  0,  0,  0,  0,  0, 75,240,254,223,109,138,178,178,169,210,251,231,254,254,254,232, 38,  0,  0
  82:main.c        ****   0,  0,  0,  0,  0,  0,  9,175,244,253,255,254,254,251,254,254,254,254,254,252,171, 25,  0,  0,  0
  83:main.c        ****   0,  0,  0,  0,  0,  0,  0,  0, 16,136,195,176,146,153,200,254,254,254,254,150, 16,  0,  0,  0,  0
  84:main.c        ****   0,  0,  0,  0,  0,  0,  0,  0,  0,  0,  0,  0,  0,  0,162,254,254,241, 99,  3,  0,  0,  0,  0,  0
  85:main.c        ****   0,  0,  0,  0,  0,  0,  0,  0,  0,  0,  0,  0,  0,118,250,254,254, 90,  0,  0,  0,  0,  0,  0,  0
  86:main.c        ****   0,  0,  0,  0,  0,  0,  0,  0,  0,  0,  0,  0,100,242,254,254,211,  7,  0,  0,  0,  0,  0,  0,  0
  87:main.c        ****   0,  0,  0,  0,  0,  0,  0,  0,  0,  0,  0, 54,241,254,254,242, 59,  0,  0,  0,  0,  0,  0,  0,  0
  88:main.c        ****   0,  0,  0,  0,  0,  0,  0,  0,  0,  0,  0,131,254,254,244, 64,  0,  0,  0,  0,  0,  0,  0,  0,  0
  89:main.c        ****   0,  0,  0,  0,  0,  0,  0,  0,  0,  0, 13,249,254,254,152,  0,  0,  0,  0,  0,  0,  0,  0,  0,  0
  90:main.c        ****   0,  0,  0,  0,  0,  0,  0,  0,  0, 12,228,254,254,208,  8,  0,  0,  0,  0,  0,  0,  0,  0,  0,  0
  91:main.c        ****   0,  0,  0,  0,  0,  0,  0,  0,  0, 78,255,254,254, 66,  0,  0,  0,  0,  0,  0,  0,  0,  0,  0,  0
  92:main.c        ****   0,  0,  0,  0,  0,  0,  0,  0,  0,209,254,254,137,  0,  0,  0,  0,  0,  0,  0,  0,  0,  0,  0,  0
  93:main.c        ****   0,  0,  0,  0,  0,  0,  0,  0,  0,227,255,233, 25,  0,  0,  0,  0,  0,  0,  0,  0,  0,  0,  0,  0
  94:main.c        ****   0,  0,  0,  0,  0,  0,  0,  0,  0,113,255,108,  0,  0,  0,  0,  0,  0,  0,  0,  0,  0,  0,  0,  0
  95:main.c        ****   0,  0,  0,  0,  0,  0,  0,  0,  0,  0,  0,  0,  0,  0,  0,  0,  0,  0,  0,  0,  0,  0,  0,  0,  0
  96:main.c        **** };
  97:main.c        **** #else
  98:main.c        **** uint8_t mnist_pic[28*28] = {
  99:main.c        ****   0,  0,  0,  0,  0,  0,  0,  0,  0,  0,  0,  0,  0,  0,  0,  0,  0,  0,  0,  0,  0,  0,  0,  0,  0
GAS LISTING C:\Users\Jesper\AppData\Local\Temp\ccfkv2jT.s 			page 3


 100:main.c        ****   0,  0,  0,  0,  0,  0,  0,  0,  0,  0,  0,  0,  0,  0,  0,  0,  0,  0,  0,  0,  0,  0,  0,  0,  0
 101:main.c        ****   0,  0,  0,  0,  0,  0,  0,  0,  0,  0,  0,  0,  0,  0,  0,  0,  0,  0,  0,  0,  0,  0,  0,  0,  0
 102:main.c        ****   0,  0,  0,  0,  0,  0,  0,  0,  0,  0,  0,  0,  0,  0,  0,  0,  0,  0,  0,  0,  0,  0,  0,  0,  0
 103:main.c        ****   0,  0,  0,  0,  0,  0,  0,  0,  0,  0,  0,  0,  0,  0,  0,  0,  0,  0,  0,  0,  0,  0,  0,  0,  0
 104:main.c        ****   0,  0,  0,  0,  0,  0,  0,  0,  0,  0,  0,  0,  0,  0,  0,  0,  0,  0,  0,  0,  0,  0,  0,  0,  0
 105:main.c        ****   0,  0,  0,  0,  0,  0,  0,  0,  0,  0,  0,  0,  0,  0,  0,  0,  0,  0,  0,  0,  0,  0,  0,  0,  0
 106:main.c        ****   0,  0,  0,  0,  0,  0,  0,  0,  0,  0,  0,  0,  0, 36, 52,103,130,133, 97, 35,  0,  0,  0,  0,  0
 107:main.c        ****   0,  0,  0,  0,  0,  0,  0,  0,  0,  0,  0,  8, 84,178,231,252,254,253,228,201, 93,  0,  0,  0,  0
 108:main.c        ****   0,  0,  0,  0,  0,  0,  0,  0,  0,  0, 21,171,244,254,254,252,253,254,254,254,166, 26,  0,  0,  0
 109:main.c        ****   0,  0,  0,  0,  0,  0,  0,  0,  0, 78,243,254,253,253,165,163,244,253,254,254,254, 79,  0,  0,  0
 110:main.c        ****   0,  0,  0,  0,  0,  0,  0,  0,  0,178,254,254,246,104,  0,  0,103,240,254,254,254,254, 79,  0,  0
 111:main.c        ****   0,  0,  0,  0,  0,  0,  0,  0,  0,177,254,254,252, 48,  0,  0,  0,  0,159,253,254,254,252, 79,  0
 112:main.c        ****   0,  0,  0,  0,  0,  0,  0,  0,  0, 49,196,252,254,239, 70,  0,  0,  0,  0, 79,254,254,254,248, 79
 113:main.c        ****   0,  0,  0,  0,  0,  0,  0,  0,  0,  0, 26,248,254,254,103,  0,  0,  0,  0,  0,103,254,254,254,208
 114:main.c        ****   0,  0,  0,  0,  0,  0,  0,  0,  0,  0, 36,250,254,245, 50,  0,  0,  0,  0,  0,  0,231,254,254, 83
 115:main.c        ****   0,  0,  0,  0,  0,  0,  0,  0,  0,  0, 36,250,254,253,156, 36,  0,  0,  0,  0,  0,152,254,254, 83
 116:main.c        ****   0,  0,  0,  0,  0,  0,  0,  0,  0,  0,  8,223,254,254,254,193,  0,  0,  0,  0,  0, 79,254,254,245
 117:main.c        ****   0,  0,  0,  0,  0,  0,  0,  0,  0,  0,  0, 52,253,254,254,255,177, 21,  0,  0, 31,243,254,254,193
 118:main.c        ****   0,  0,  0,  0,  0,  0,  0,  0,  0,  0,  0,  0, 79,254,254,254,254,236,170,177,223,252,254,254, 79
 119:main.c        ****   0,  0,  0,  0,   0,  0,  0,  0,  0,  0,  0,  0,  0,177,254,254,254,254,253,254,254,254,242,103,  
 120:main.c        ****   0,  0,  0,  0,  0,  0,  0,  0,  0,  0,  0,  0,  0, 36, 79,159,223,242,242,254,246,171, 83,  0,  0
 121:main.c        ****   0,  0,  0,  0,  0,  0,  0,  0,  0,  0,  0,  0,  0,  0,  0,  0,  0,  0,  0,  0,  0,  0,  0,  0,  0
 122:main.c        ****   0,  0,  0,  0,  0,  0,  0,  0,  0,  0,  0,  0,  0,  0,  0,  0,  0,  0,  0,  0,  0,  0,  0,  0,  0
 123:main.c        ****   0,  0,  0,  0,  0,  0,  0,  0,  0,  0,  0,  0,  0,  0,  0,  0,  0,  0,  0,  0,  0,  0,  0,  0,  0
 124:main.c        ****   0,  0,  0,  0,  0,  0,  0,  0,  0,  0,  0,  0,  0,  0,  0,  0,  0,  0,  0,  0,  0,  0,  0,  0,  0
 125:main.c        ****   0,  0,  0,  0,  0,  0,  0,  0,  0,  0,  0,  0,  0,  0,  0,  0,  0,  0,  0,  0,  0,  0,  0,  0,  0
 126:main.c        **** };
 127:main.c        **** 
 128:main.c        **** #endif
 129:main.c        **** 
 130:main.c        **** static tm_err_t layer_cb(tm_mdl_t* mdl, tml_head_t* lh)
 131:main.c        **** {   //dump middle result
  17              		.loc 1 131 1
  18              		.cfi_startproc
  19              	.LVL0:
 132:main.c        ****     int h = lh->out_dims[1];
  20              		.loc 1 132 5
 133:main.c        ****     int w = lh->out_dims[2];
  21              		.loc 1 133 5
 134:main.c        ****     int ch= lh->out_dims[3];
  22              		.loc 1 134 5
 135:main.c        ****     mtype_t* output = TML_GET_OUTPUT(mdl, lh);
  23              		.loc 1 135 5
 136:main.c        ****     return TM_OK;
  24              		.loc 1 136 5
 137:main.c        ****     TM_PRINTF("Layer %d callback ========\r\n", mdl->layer_i);
 138:main.c        ****     #if 1
 139:main.c        ****     for(int y=0; y<h; y++){
 140:main.c        ****         TM_PRINTF("[");
 141:main.c        ****         for(int x=0; x<w; x++){
 142:main.c        ****             TM_PRINTF("[");
 143:main.c        ****             for(int c=0; c<ch; c++){
 144:main.c        ****             #if TM_MDL_TYPE == TM_MDL_FP32
 145:main.c        ****                 TM_PRINTF("%.3f,", output[(y*w+x)*ch+c]);
 146:main.c        ****             #else
 147:main.c        ****                 TM_PRINTF("%.3f,", TML_DEQUANT(lh,output[(y*w+x)*ch+c]));
 148:main.c        ****             #endif
GAS LISTING C:\Users\Jesper\AppData\Local\Temp\ccfkv2jT.s 			page 4


 149:main.c        ****             }
 150:main.c        ****             TM_PRINTF("],");
 151:main.c        ****         }
 152:main.c        ****         TM_PRINTF("],\r\n");
 153:main.c        ****     }
 154:main.c        ****     TM_PRINTF("\r\n");
 155:main.c        ****     #endif
 156:main.c        ****     return TM_OK;
 157:main.c        **** }
  25              		.loc 1 157 1 is_stmt 0
  26 0000 0145     		li	a0,0
  27              	.LVL1:
  28 0002 8280     		ret
  29              		.cfi_endproc
  30              	.LFE29:
  32              		.globl	__fixsfsi
  33              		.globl	__floatsisf
  34              		.globl	__subsf3
  35              		.globl	__mulsf3
  36              		.globl	__gtsf2
  37              		.globl	__extendsfdf2
  38              		.globl	__muldf3
  39              		.globl	__fixunsdfsi
  40              		.section	.text.parse_output,"ax",@progbits
  41              		.align	1
  43              	parse_output:
  44              	.LFB30:
 158:main.c        **** 
 159:main.c        **** static void parse_output(tm_mat_t* outs)
 160:main.c        **** {
  45              		.loc 1 160 1 is_stmt 1
  46              		.cfi_startproc
  47              	.LVL2:
 161:main.c        ****     tm_mat_t out = outs[0];
  48              		.loc 1 161 5
 162:main.c        ****     float* data  = out.dataf;
  49              		.loc 1 162 5
 163:main.c        ****     float maxp = 0;
  50              		.loc 1 163 5
 164:main.c        ****     int maxi = -1;
  51              		.loc 1 164 5
 165:main.c        ****     for(int i=0; i<10; i++){
  52              		.loc 1 165 5
  53              	.LBB2:
  54              		.loc 1 165 9
  55              	.LBE2:
 160:main.c        ****     tm_mat_t out = outs[0];
  56              		.loc 1 160 1 is_stmt 0
  57 0000 3971     		addi	sp,sp,-64
  58              	.LCFI0:
  59              		.cfi_def_cfa_offset 64
  60 0002 22DC     		sw	s0,56(sp)
  61              	.LVL3:
  62              		.cfi_offset 8, -8
  63              	.LBB3:
 166:main.c        ****         printf("%d: %d.%03d\r\n", i, (int)data[i], (int)((data[i] - (int)data[i]) * 1000));
  64              		.loc 1 166 83
GAS LISTING C:\Users\Jesper\AppData\Local\Temp\ccfkv2jT.s 			page 5


  65 0004 37040000 		lui	s0,%hi(.LANCHOR0)
  66 0008 13040400 		addi	s0,s0,%lo(.LANCHOR0)
  67              	.LBE3:
 160:main.c        ****     tm_mat_t out = outs[0];
  68              		.loc 1 160 1
  69 000c 4AD8     		sw	s2,48(sp)
  70 000e 62CC     		sw	s8,24(sp)
  71              		.cfi_offset 18, -16
  72              		.cfi_offset 24, -40
  73 0010 03298500 		lw	s2,8(a0)
  74              	.LBB4:
  75              		.loc 1 166 83
  76 0014 032C0400 		lw	s8,0(s0)
  77              	.LBE4:
 160:main.c        ****     tm_mat_t out = outs[0];
  78              		.loc 1 160 1
  79 0018 26DA     		sw	s1,52(sp)
  80 001a 4ED6     		sw	s3,44(sp)
  81 001c 52D4     		sw	s4,40(sp)
  82 001e 5AD0     		sw	s6,32(sp)
  83 0020 5ECE     		sw	s7,28(sp)
  84 0022 06DE     		sw	ra,60(sp)
  85 0024 56D2     		sw	s5,36(sp)
  86              		.cfi_offset 9, -12
  87              		.cfi_offset 19, -20
  88              		.cfi_offset 20, -24
  89              		.cfi_offset 22, -32
  90              		.cfi_offset 23, -36
  91              		.cfi_offset 1, -4
  92              		.cfi_offset 21, -28
  93              	.LBB5:
 165:main.c        ****     for(int i=0; i<10; i++){
  94              		.loc 1 165 13
  95 0026 8144     		li	s1,0
  96              	.LBE5:
 164:main.c        ****     for(int i=0; i<10; i++){
  97              		.loc 1 164 9
  98 0028 7D5A     		li	s4,-1
 163:main.c        ****     int maxi = -1;
  99              		.loc 1 163 11
 100 002a 93090000 		mv	s3,zero
 101              	.LBB6:
 102              		.loc 1 166 9
 103 002e 930B4400 		addi	s7,s0,4
 165:main.c        ****         printf("%d: %d.%03d\r\n", i, (int)data[i], (int)((data[i] - (int)data[i]) * 1000));
 104              		.loc 1 165 5
 105 0032 294B     		li	s6,10
 106              	.LVL4:
 107              	.L5:
 108              		.loc 1 166 9 is_stmt 1
 109              		.loc 1 166 47 is_stmt 0
 110 0034 832A0900 		lw	s5,0(s2)
 111              		.loc 1 166 9
 112 0038 5685     		mv	a0,s5
 113 003a 97000000 		call	__fixsfsi
 113      E7800000 
 114              	.LVL5:
GAS LISTING C:\Users\Jesper\AppData\Local\Temp\ccfkv2jT.s 			page 6


 115 0042 2AC6     		sw	a0,12(sp)
 116              		.loc 1 166 67
 117 0044 97000000 		call	__floatsisf
 117      E7800000 
 118              	.LVL6:
 119 004c AA85     		mv	a1,a0
 120 004e 5685     		mv	a0,s5
 121 0050 97000000 		call	__subsf3
 121      E7800000 
 122              	.LVL7:
 123              		.loc 1 166 83
 124 0058 E285     		mv	a1,s8
 125 005a 97000000 		call	__mulsf3
 125      E7800000 
 126              	.LVL8:
 127              		.loc 1 166 9
 128 0062 97000000 		call	__fixsfsi
 128      E7800000 
 129              	.LVL9:
 130 006a 3246     		lw	a2,12(sp)
 131 006c AA86     		mv	a3,a0
 132 006e A685     		mv	a1,s1
 133 0070 5E85     		mv	a0,s7
 134 0072 97000000 		call	printf
 134      E7800000 
 135              	.LVL10:
 167:main.c        ****         if(data[i] > maxp) {
 136              		.loc 1 167 9 is_stmt 1
 137              		.loc 1 167 16 is_stmt 0
 138 007a 832A0900 		lw	s5,0(s2)
 139              		.loc 1 167 11
 140 007e CE85     		mv	a1,s3
 141 0080 5685     		mv	a0,s5
 142 0082 97000000 		call	__gtsf2
 142      E7800000 
 143              	.LVL11:
 144 008a 6354A000 		ble	a0,zero,.L3
 145 008e 268A     		mv	s4,s1
 146              	.LVL12:
 168:main.c        ****             maxi = i;
 169:main.c        ****             maxp = data[i];
 147              		.loc 1 169 18
 148 0090 D689     		mv	s3,s5
 149              	.LVL13:
 150              	.L3:
 165:main.c        ****         printf("%d: %d.%03d\r\n", i, (int)data[i], (int)((data[i] - (int)data[i]) * 1000));
 151              		.loc 1 165 25 discriminator 2
 152 0092 8504     		addi	s1,s1,1
 153              	.LVL14:
 154 0094 1109     		addi	s2,s2,4
 165:main.c        ****         printf("%d: %d.%03d\r\n", i, (int)data[i], (int)((data[i] - (int)data[i]) * 1000));
 155              		.loc 1 165 5 discriminator 2
 156 0096 E39F64F9 		bne	s1,s6,.L5
 157              	.LBE6:
 170:main.c        ****         }
 171:main.c        ****     }
 172:main.c        ****     TM_PRINTF("### Predict output is: Number %d, prob 0.%d\r\n", maxi, (uint32_t)(maxp*1000.0));
GAS LISTING C:\Users\Jesper\AppData\Local\Temp\ccfkv2jT.s 			page 7


 158              		.loc 1 172 5 is_stmt 1
 159 009a 4E85     		mv	a0,s3
 160 009c 97000000 		call	__extendsfdf2
 160      E7800000 
 161              	.LVL15:
 162 00a4 104C     		lw	a2,24(s0)
 163 00a6 544C     		lw	a3,28(s0)
 164 00a8 97000000 		call	__muldf3
 164      E7800000 
 165              	.LVL16:
 166 00b0 97000000 		call	__fixunsdfsi
 166      E7800000 
 167              	.LVL17:
 168 00b8 2A86     		mv	a2,a0
 169 00ba D285     		mv	a1,s4
 170 00bc 13050402 		addi	a0,s0,32
 171 00c0 97000000 		call	printf
 171      E7800000 
 172              	.LVL18:
 173              		.loc 1 172 5
 173:main.c        ****     return;
 174:main.c        **** }
 174              		.loc 1 174 1 is_stmt 0
 175 00c8 6254     		lw	s0,56(sp)
 176              		.cfi_restore 8
 177 00ca F250     		lw	ra,60(sp)
 178              		.cfi_restore 1
 179 00cc D254     		lw	s1,52(sp)
 180              		.cfi_restore 9
 181              	.LVL19:
 182 00ce 4259     		lw	s2,48(sp)
 183              		.cfi_restore 18
 184 00d0 B259     		lw	s3,44(sp)
 185              		.cfi_restore 19
 186              	.LVL20:
 187 00d2 225A     		lw	s4,40(sp)
 188              		.cfi_restore 20
 189              	.LVL21:
 190 00d4 925A     		lw	s5,36(sp)
 191              		.cfi_restore 21
 192 00d6 025B     		lw	s6,32(sp)
 193              		.cfi_restore 22
 194 00d8 F24B     		lw	s7,28(sp)
 195              		.cfi_restore 23
 196 00da 624C     		lw	s8,24(sp)
 197              		.cfi_restore 24
 172:main.c        ****     return;
 198              		.loc 1 172 5
 199 00dc 0145     		li	a0,0
 200              		.loc 1 174 1
 201 00de 2161     		addi	sp,sp,64
 202              	.LCFI1:
 203              		.cfi_def_cfa_offset 0
 172:main.c        ****     return;
 204              		.loc 1 172 5
 205 00e0 17030000 		tail	fflush
 205      67000300 
GAS LISTING C:\Users\Jesper\AppData\Local\Temp\ccfkv2jT.s 			page 8


 206              	.LVL22:
 207              		.cfi_endproc
 208              	.LFE30:
 210              		.section	.text.ledInit,"ax",@progbits
 211              		.align	1
 212              		.globl	ledInit
 214              	ledInit:
 215              	.LFB31:
 175:main.c        **** 
 176:main.c        **** void ledInit (void){
 216              		.loc 1 176 20 is_stmt 1
 217              		.cfi_startproc
 177:main.c        ****     rcu_periph_clock_enable(RCU_GPIOB);
 218              		.loc 1 177 5
 176:main.c        ****     rcu_periph_clock_enable(RCU_GPIOB);
 219              		.loc 1 176 20 is_stmt 0
 220 0000 4111     		addi	sp,sp,-16
 221              	.LCFI2:
 222              		.cfi_def_cfa_offset 16
 223              		.loc 1 177 5
 224 0002 13053060 		li	a0,1539
 176:main.c        ****     rcu_periph_clock_enable(RCU_GPIOB);
 225              		.loc 1 176 20
 226 0006 06C6     		sw	ra,12(sp)
 227              		.cfi_offset 1, -4
 228              		.loc 1 177 5
 229 0008 97000000 		call	rcu_periph_clock_enable
 229      E7800000 
 230              	.LVL23:
 178:main.c        **** 	gpio_init(GPIOB, GPIO_MODE_OUT_PP, GPIO_OSPEED_50MHZ, GPIO_PIN_0 | GPIO_PIN_1);
 231              		.loc 1 178 2 is_stmt 1
 179:main.c        **** }
 232              		.loc 1 179 1 is_stmt 0
 233 0010 B240     		lw	ra,12(sp)
 234              		.cfi_restore 1
 178:main.c        **** 	gpio_init(GPIOB, GPIO_MODE_OUT_PP, GPIO_OSPEED_50MHZ, GPIO_PIN_0 | GPIO_PIN_1);
 235              		.loc 1 178 2
 236 0012 37150140 		li	a0,1073811456
 237              		.loc 1 179 1
 178:main.c        **** 	gpio_init(GPIOB, GPIO_MODE_OUT_PP, GPIO_OSPEED_50MHZ, GPIO_PIN_0 | GPIO_PIN_1);
 238              		.loc 1 178 2
 239 0016 8D46     		li	a3,3
 240 0018 0D46     		li	a2,3
 241 001a C145     		li	a1,16
 242 001c 130505C0 		addi	a0,a0,-1024
 243              		.loc 1 179 1
 244 0020 4101     		addi	sp,sp,16
 245              	.LCFI3:
 246              		.cfi_def_cfa_offset 0
 178:main.c        **** 	gpio_init(GPIOB, GPIO_MODE_OUT_PP, GPIO_OSPEED_50MHZ, GPIO_PIN_0 | GPIO_PIN_1);
 247              		.loc 1 178 2
 248 0022 17030000 		tail	gpio_init
 248      67000300 
 249              	.LVL24:
 250              		.cfi_endproc
 251              	.LFE31:
 253              		.section	.text.ledOnOff,"ax",@progbits
GAS LISTING C:\Users\Jesper\AppData\Local\Temp\ccfkv2jT.s 			page 9


 254              		.align	1
 255              		.globl	ledOnOff
 257              	ledOnOff:
 258              	.LFB32:
 180:main.c        **** 
 181:main.c        **** void ledOnOff(int set){
 259              		.loc 1 181 23 is_stmt 1
 260              		.cfi_startproc
 261              	.LVL25:
 182:main.c        ****     gpio_bit_write(GPIOB, GPIO_PIN_0, set);
 262              		.loc 1 182 5
 263 0000 2A86     		mv	a2,a0
 264 0002 37150140 		li	a0,1073811456
 265              	.LVL26:
 266 0006 8545     		li	a1,1
 267 0008 130505C0 		addi	a0,a0,-1024
 268 000c 17030000 		tail	gpio_bit_write
 268      67000300 
 269              	.LVL27:
 270              		.cfi_endproc
 271              	.LFE32:
 273              		.globl	__floatunsisf
 274              		.globl	__divsf3
 275              		.section	.text.startup.main,"ax",@progbits
 276              		.align	1
 277              		.globl	main
 279              	main:
 280              	.LFB33:
 183:main.c        **** }
 184:main.c        **** 
 185:main.c        **** int main(int argc, char** argv)
 186:main.c        **** {   
 281              		.loc 1 186 1
 282              		.cfi_startproc
 283              	.LVL28:
 187:main.c        ****     uint32_t count = 0;
 284              		.loc 1 187 5
 188:main.c        ****     char usb_data_buffer[512] = {'\0'};
 285              		.loc 1 188 5
 189:main.c        ****     char usb_read_buf[80] = {'\0'};
 286              		.loc 1 189 5
 190:main.c        **** 
 191:main.c        ****     configure_usb_serial();
 287              		.loc 1 191 5
 186:main.c        ****     uint32_t count = 0;
 288              		.loc 1 186 1 is_stmt 0
 289 0000 1971     		addi	sp,sp,-128
 290              	.LCFI4:
 291              		.cfi_def_cfa_offset 128
 292 0002 86DE     		sw	ra,124(sp)
 293 0004 A2DC     		sw	s0,120(sp)
 294 0006 A6DA     		sw	s1,116(sp)
 295 0008 CAD8     		sw	s2,112(sp)
 296 000a CED6     		sw	s3,108(sp)
 297 000c D2D4     		sw	s4,104(sp)
 298 000e D6D2     		sw	s5,100(sp)
 299 0010 DAD0     		sw	s6,96(sp)
GAS LISTING C:\Users\Jesper\AppData\Local\Temp\ccfkv2jT.s 			page 10


 300 0012 DECE     		sw	s7,92(sp)
 301              		.cfi_offset 1, -4
 302              		.cfi_offset 8, -8
 303              		.cfi_offset 9, -12
 304              		.cfi_offset 18, -16
 305              		.cfi_offset 19, -20
 306              		.cfi_offset 20, -24
 307              		.cfi_offset 21, -28
 308              		.cfi_offset 22, -32
 309              		.cfi_offset 23, -36
 310              		.loc 1 191 5
 311 0014 97000000 		call	configure_usb_serial
 311      E7800000 
 312              	.LVL29:
 192:main.c        ****     usb_delay_1ms(1);
 313              		.loc 1 192 5 is_stmt 1
 314 001c 0545     		li	a0,1
 315 001e 97000000 		call	usb_delay_1ms
 315      E7800000 
 316              	.LVL30:
 193:main.c        **** 
 194:main.c        ****     while (!usb_serial_available()) {
 317              		.loc 1 194 5
 318              	.L13:
 319              		.loc 1 194 13 is_stmt 0
 320 0026 97000000 		call	usb_serial_available
 320      E7800000 
 321              	.LVL31:
 322              		.loc 1 194 11
 323 002e 63030510 		beq	a0,zero,.L14
 195:main.c        ****         usb_delay_1ms(100);
 196:main.c        ****     }
 197:main.c        **** 
 198:main.c        ****     TM_DBGT_INIT();
 324              		.loc 1 198 5 is_stmt 1
 325              		.loc 1 198 5
 326              		.loc 1 198 5
 327 0032 97000000 		call	get_time
 327      E7800000 
 328              	.LVL32:
 329              		.loc 1 198 19
 199:main.c        ****     TM_PRINTF("mnist demo\r\n");
 330              		.loc 1 199 5
 331 003a 37040000 		lui	s0,%hi(.LANCHOR0)
 332 003e 13050400 		addi	a0,s0,%lo(.LANCHOR0)
 333 0042 13050505 		addi	a0,a0,80
 334 0046 97000000 		call	puts
 334      E7800000 
 335              	.LVL33:
 336              		.loc 1 199 5
 337 004e 0145     		li	a0,0
 338              	.LBB7:
 200:main.c        ****     tm_mdl_t mdl;
 201:main.c        **** 
 202:main.c        ****     for(int i=0; i<28*28; i++){
 203:main.c        ****         TM_PRINTF("%3d,", mnist_pic[i]);
 339              		.loc 1 203 9 is_stmt 0
GAS LISTING C:\Users\Jesper\AppData\Local\Temp\ccfkv2jT.s 			page 11


 340 0050 37090000 		lui	s2,%hi(.LANCHOR1)
 341              	.LBE7:
 199:main.c        ****     TM_PRINTF("mnist demo\r\n");
 342              		.loc 1 199 5
 343 0054 97000000 		call	fflush
 343      E7800000 
 344              	.LVL34:
 199:main.c        ****     TM_PRINTF("mnist demo\r\n");
 345              		.loc 1 199 32 is_stmt 1
 200:main.c        ****     tm_mdl_t mdl;
 346              		.loc 1 200 5
 202:main.c        ****         TM_PRINTF("%3d,", mnist_pic[i]);
 347              		.loc 1 202 5
 348              	.LBB8:
 202:main.c        ****         TM_PRINTF("%3d,", mnist_pic[i]);
 349              		.loc 1 202 9
 202:main.c        ****         TM_PRINTF("%3d,", mnist_pic[i]);
 350              		.loc 1 202 13 is_stmt 0
 351 005c 8144     		li	s1,0
 352 005e 13040400 		addi	s0,s0,%lo(.LANCHOR0)
 353              		.loc 1 203 9
 354 0062 13090900 		addi	s2,s2,%lo(.LANCHOR1)
 355 0066 370A0000 		lui	s4,%hi(.LC7)
 204:main.c        ****         if(i%28==27)TM_PRINTF("\r\n");
 356              		.loc 1 204 13
 357 006a F14A     		li	s5,28
 358              		.loc 1 204 11
 359 006c 6D4B     		li	s6,27
 360              		.loc 1 204 21
 361 006e B70B0000 		lui	s7,%hi(.LC8)
 202:main.c        ****         TM_PRINTF("%3d,", mnist_pic[i]);
 362              		.loc 1 202 5
 363 0072 93090031 		li	s3,784
 364              	.LVL35:
 365              	.L16:
 203:main.c        ****         if(i%28==27)TM_PRINTF("\r\n");
 366              		.loc 1 203 9 is_stmt 1
 367 0076 B3079900 		add	a5,s2,s1
 368 007a 83C50700 		lbu	a1,0(a5)
 369 007e 13050A00 		addi	a0,s4,%lo(.LC7)
 370 0082 97000000 		call	printf
 370      E7800000 
 371              	.LVL36:
 203:main.c        ****         if(i%28==27)TM_PRINTF("\r\n");
 372              		.loc 1 203 9
 373 008a 0145     		li	a0,0
 374 008c 97000000 		call	fflush
 374      E7800000 
 375              	.LVL37:
 203:main.c        ****         if(i%28==27)TM_PRINTF("\r\n");
 376              		.loc 1 203 40
 377              		.loc 1 204 9
 378              		.loc 1 204 13 is_stmt 0
 379 0094 B3E75403 		rem	a5,s1,s5
 380              		.loc 1 204 11
 381 0098 63986701 		bne	a5,s6,.L15
 382              		.loc 1 204 21 is_stmt 1 discriminator 1
GAS LISTING C:\Users\Jesper\AppData\Local\Temp\ccfkv2jT.s 			page 12


 383 009c 13850B00 		addi	a0,s7,%lo(.LC8)
 384 00a0 97000000 		call	puts
 384      E7800000 
 385              	.LVL38:
 386              	.L15:
 387              		.loc 1 204 21 discriminator 3
 388 00a8 0145     		li	a0,0
 202:main.c        ****         TM_PRINTF("%3d,", mnist_pic[i]);
 389              		.loc 1 202 28 is_stmt 0 discriminator 3
 390 00aa 8504     		addi	s1,s1,1
 391              	.LVL39:
 392              		.loc 1 204 21 discriminator 3
 393 00ac 97000000 		call	fflush
 393      E7800000 
 394              	.LVL40:
 395              		.loc 1 204 38 is_stmt 1 discriminator 3
 202:main.c        ****         TM_PRINTF("%3d,", mnist_pic[i]);
 396              		.loc 1 202 5 is_stmt 0 discriminator 3
 397 00b4 E39134FD 		bne	s1,s3,.L16
 398              	.LBE8:
 205:main.c        ****     }
 206:main.c        **** 
 207:main.c        ****     tm_mat_t in_uint8 = {3,28,28,1, {(mtype_t*)mnist_pic}};
 399              		.loc 1 207 5 is_stmt 1
 400              		.loc 1 207 14 is_stmt 0
 401 00b8 3146     		li	a2,12
 402 00ba 93058406 		addi	a1,s0,104
 403 00be 4808     		addi	a0,sp,20
 404 00c0 97000000 		call	memcpy
 404      E7800000 
 405              	.LVL41:
 208:main.c        ****     tm_mat_t in = {3,28,28,1, {NULL}};
 406              		.loc 1 208 5 is_stmt 1
 407              		.loc 1 208 14 is_stmt 0
 408 00c8 3146     		li	a2,12
 409 00ca 93054407 		addi	a1,s0,116
 410 00ce 0810     		addi	a0,sp,32
 411 00d0 97000000 		call	memcpy
 411      E7800000 
 412              	.LVL42:
 209:main.c        ****     tm_mat_t outs[1];
 413              		.loc 1 209 5 is_stmt 1
 210:main.c        ****     tm_err_t res;
 414              		.loc 1 210 5
 211:main.c        ****     tm_stat((tm_mdlbin_t*)mdl_data); 
 415              		.loc 1 211 5
 416 00d8 B7040000 		lui	s1,%hi(mdl_data)
 417              	.LVL43:
 418 00dc 13850400 		addi	a0,s1,%lo(mdl_data)
 419 00e0 97000000 		call	tm_stat
 419      E7800000 
 420              	.LVL44:
 212:main.c        **** 
 213:main.c        ****     res = tm_load(&mdl, mdl_data, NULL, layer_cb, &in);
 421              		.loc 1 213 5
 422              		.loc 1 213 11 is_stmt 0
 423 00e8 B7060000 		lui	a3,%hi(layer_cb)
GAS LISTING C:\Users\Jesper\AppData\Local\Temp\ccfkv2jT.s 			page 13


 424 00ec 93850400 		addi	a1,s1,%lo(mdl_data)
 425 00f0 1810     		addi	a4,sp,32
 426 00f2 93860600 		addi	a3,a3,%lo(layer_cb)
 427 00f6 0146     		li	a2,0
 428 00f8 2818     		addi	a0,sp,56
 429 00fa 97000000 		call	tm_load
 429      E7800000 
 430              	.LVL45:
 431 0102 AA85     		mv	a1,a0
 432              	.LVL46:
 214:main.c        ****     if(res != TM_OK) {
 433              		.loc 1 214 5 is_stmt 1
 434              		.loc 1 214 7 is_stmt 0
 435 0104 1DCD     		beq	a0,zero,.L17
 215:main.c        ****         TM_PRINTF("tm model load err %d\n", res);
 436              		.loc 1 215 9 is_stmt 1
 437 0106 13050408 		addi	a0,s0,128
 438              	.LVL47:
 439 010a 97000000 		call	printf
 439      E7800000 
 440              	.LVL48:
 441              		.loc 1 215 9
 442 0112 0145     		li	a0,0
 443 0114 97000000 		call	fflush
 443      E7800000 
 444              	.LVL49:
 445              		.loc 1 215 49
 216:main.c        ****         return -1;
 446              		.loc 1 216 9
 447              		.loc 1 216 16 is_stmt 0
 448 011c 7D55     		li	a0,-1
 449              	.L12:
 217:main.c        ****     }
 218:main.c        **** 
 219:main.c        **** #if (TM_MDL_TYPE == TM_MDL_INT8) || (TM_MDL_TYPE == TM_MDL_INT16) 
 220:main.c        ****     res = tm_preprocess(&mdl, TMPP_UINT2INT, &in_uint8, &in); 
 221:main.c        **** #else
 222:main.c        ****     res = tm_preprocess(&mdl, TMPP_UINT2FP01, &in_uint8, &in); 
 223:main.c        **** #endif
 224:main.c        ****     TM_DBGT_START();
 225:main.c        ****     res = tm_run(&mdl, &in, outs);
 226:main.c        ****     TM_DBGT("tm_run");
 227:main.c        ****     if(res==TM_OK) parse_output(outs);  
 228:main.c        ****     else TM_PRINTF("tm run error: %d\r\n", res);
 229:main.c        ****     tm_unload(&mdl);                 
 230:main.c        ****     return 0;
 231:main.c        **** }
 450              		.loc 1 231 1
 451 011e F650     		lw	ra,124(sp)
 452              		.cfi_remember_state
 453              		.cfi_restore 1
 454 0120 6654     		lw	s0,120(sp)
 455              		.cfi_restore 8
 456 0122 D654     		lw	s1,116(sp)
 457              		.cfi_restore 9
 458 0124 4659     		lw	s2,112(sp)
 459              		.cfi_restore 18
GAS LISTING C:\Users\Jesper\AppData\Local\Temp\ccfkv2jT.s 			page 14


 460 0126 B659     		lw	s3,108(sp)
 461              		.cfi_restore 19
 462 0128 265A     		lw	s4,104(sp)
 463              		.cfi_restore 20
 464 012a 965A     		lw	s5,100(sp)
 465              		.cfi_restore 21
 466 012c 065B     		lw	s6,96(sp)
 467              		.cfi_restore 22
 468 012e F64B     		lw	s7,92(sp)
 469              		.cfi_restore 23
 470 0130 0961     		addi	sp,sp,128
 471              	.LCFI5:
 472              		.cfi_def_cfa_offset 0
 473 0132 8280     		jr	ra
 474              	.L14:
 475              	.LCFI6:
 476              		.cfi_restore_state
 195:main.c        ****     }
 477              		.loc 1 195 9 is_stmt 1
 478 0134 13054006 		li	a0,100
 479 0138 97000000 		call	usb_delay_1ms
 479      E7800000 
 480              	.LVL50:
 481 0140 DDB5     		j	.L13
 482              	.LVL51:
 483              	.L17:
 220:main.c        **** #else
 484              		.loc 1 220 5
 220:main.c        **** #else
 485              		.loc 1 220 11 is_stmt 0
 486 0142 1410     		addi	a3,sp,32
 487 0144 5008     		addi	a2,sp,20
 488 0146 8945     		li	a1,2
 489 0148 2818     		addi	a0,sp,56
 490              	.LVL52:
 491 014a 97000000 		call	tm_preprocess
 491      E7800000 
 492              	.LVL53:
 224:main.c        ****     res = tm_run(&mdl, &in, outs);
 493              		.loc 1 224 5 is_stmt 1
 494 0152 97000000 		call	get_time
 494      E7800000 
 495              	.LVL54:
 225:main.c        ****     TM_DBGT("tm_run");
 496              		.loc 1 225 11 is_stmt 0
 497 015a 7010     		addi	a2,sp,44
 498 015c 0C10     		addi	a1,sp,32
 224:main.c        ****     res = tm_run(&mdl, &in, outs);
 499              		.loc 1 224 5
 500 015e 2A89     		mv	s2,a0
 501              	.LVL55:
 224:main.c        ****     res = tm_run(&mdl, &in, outs);
 502              		.loc 1 224 20 is_stmt 1
 225:main.c        ****     TM_DBGT("tm_run");
 503              		.loc 1 225 5
 225:main.c        ****     TM_DBGT("tm_run");
 504              		.loc 1 225 11 is_stmt 0
GAS LISTING C:\Users\Jesper\AppData\Local\Temp\ccfkv2jT.s 			page 15


 505 0160 2818     		addi	a0,sp,56
 506              	.LVL56:
 507 0162 97000000 		call	tm_run
 507      E7800000 
 508              	.LVL57:
 509 016a AA84     		mv	s1,a0
 510              	.LVL58:
 226:main.c        ****     if(res==TM_OK) parse_output(outs);  
 511              		.loc 1 226 5 is_stmt 1
 512 016c 97000000 		call	get_time
 512      E7800000 
 513              	.LVL59:
 226:main.c        ****     if(res==TM_OK) parse_output(outs);  
 514              		.loc 1 226 5
 515 0174 33052541 		sub	a0,a0,s2
 516              	.LVL60:
 517 0178 97000000 		call	__floatunsisf
 517      E7800000 
 518              	.LVL61:
 519 0180 0C40     		lw	a1,0(s0)
 520 0182 97000000 		call	__divsf3
 520      E7800000 
 521              	.LVL62:
 522 018a 2A89     		mv	s2,a0
 523              	.LVL63:
 226:main.c        ****     if(res==TM_OK) parse_output(outs);  
 524              		.loc 1 226 5
 525 018c 97000000 		call	__fixsfsi
 525      E7800000 
 526              	.LVL64:
 527 0194 2AC6     		sw	a0,12(sp)
 528 0196 97000000 		call	__floatsisf
 528      E7800000 
 529              	.LVL65:
 530 019e AA85     		mv	a1,a0
 531 01a0 4A85     		mv	a0,s2
 532 01a2 97000000 		call	__subsf3
 532      E7800000 
 533              	.LVL66:
 534 01aa 0C40     		lw	a1,0(s0)
 535 01ac 97000000 		call	__mulsf3
 535      E7800000 
 536              	.LVL67:
 537 01b4 97000000 		call	__fixsfsi
 537      E7800000 
 538              	.LVL68:
 539 01bc 3246     		lw	a2,12(sp)
 540 01be B7050000 		lui	a1,%hi(.LC11)
 541 01c2 AA86     		mv	a3,a0
 542 01c4 93850500 		addi	a1,a1,%lo(.LC11)
 543 01c8 1305040A 		addi	a0,s0,160
 544 01cc 97000000 		call	printf
 544      E7800000 
 545              	.LVL69:
 226:main.c        ****     if(res==TM_OK) parse_output(outs);  
 546              		.loc 1 226 5
 547 01d4 0145     		li	a0,0
GAS LISTING C:\Users\Jesper\AppData\Local\Temp\ccfkv2jT.s 			page 16


 548 01d6 97000000 		call	fflush
 548      E7800000 
 549              	.LVL70:
 226:main.c        ****     if(res==TM_OK) parse_output(outs);  
 550              		.loc 1 226 5
 226:main.c        ****     if(res==TM_OK) parse_output(outs);  
 551              		.loc 1 226 5
 552 01de 97000000 		call	get_time
 552      E7800000 
 553              	.LVL71:
 226:main.c        ****     if(res==TM_OK) parse_output(outs);  
 554              		.loc 1 226 22
 227:main.c        ****     else TM_PRINTF("tm run error: %d\r\n", res);
 555              		.loc 1 227 5
 227:main.c        ****     else TM_PRINTF("tm run error: %d\r\n", res);
 556              		.loc 1 227 7 is_stmt 0
 557 01e6 95E0     		bne	s1,zero,.L19
 227:main.c        ****     else TM_PRINTF("tm run error: %d\r\n", res);
 558              		.loc 1 227 20 is_stmt 1 discriminator 1
 559 01e8 6810     		addi	a0,sp,44
 560 01ea 97000000 		call	parse_output
 560      E7800000 
 561              	.LVL72:
 562              	.L20:
 228:main.c        ****     tm_unload(&mdl);                 
 563              		.loc 1 228 10 discriminator 1
 564 01f2 0145     		li	a0,0
 565 01f4 97000000 		call	fflush
 565      E7800000 
 566              	.LVL73:
 228:main.c        ****     tm_unload(&mdl);                 
 567              		.loc 1 228 48 discriminator 1
 229:main.c        ****     return 0;
 568              		.loc 1 229 5 discriminator 1
 569 01fc 2818     		addi	a0,sp,56
 570 01fe 97000000 		call	tm_unload
 570      E7800000 
 571              	.LVL74:
 230:main.c        **** }
 572              		.loc 1 230 5 discriminator 1
 230:main.c        **** }
 573              		.loc 1 230 12 is_stmt 0 discriminator 1
 574 0206 0145     		li	a0,0
 575 0208 19BF     		j	.L12
 576              	.L19:
 228:main.c        ****     tm_unload(&mdl);                 
 577              		.loc 1 228 10 is_stmt 1
 578 020a A685     		mv	a1,s1
 579 020c 1305840B 		addi	a0,s0,184
 580 0210 97000000 		call	printf
 580      E7800000 
 581              	.LVL75:
 582 0218 E9BF     		j	.L20
 583              		.cfi_endproc
 584              	.LFE33:
 586              		.section	.rodata
 587              		.align	3
GAS LISTING C:\Users\Jesper\AppData\Local\Temp\ccfkv2jT.s 			page 17


 588              		.set	.LANCHOR0,. + 0
 589              	.LC2:
 590 0000 00007A44 		.word	1148846080
 591              	.LC3:
 592 0004 25643A20 		.string	"%d: %d.%03d\r\n"
 592      25642E25 
 592      3033640D 
 592      0A00
 593 0012 00000000 		.zero	6
 593      0000
 594              	.LC4:
 595 0018 00000000 		.word	0
 596 001c 00408F40 		.word	1083129856
 597              	.LC5:
 598 0020 23232320 		.string	"### Predict output is: Number %d, prob 0.%d\r\n"
 598      50726564 
 598      69637420 
 598      6F757470 
 598      75742069 
 599 004e 0000     		.zero	2
 600              	.LC6:
 601 0050 6D6E6973 		.string	"mnist demo\r"
 601      74206465 
 601      6D6F0D00 
 602              	.LC7:
 603 005c 2533642C 		.string	"%3d,"
 603      00
 604 0061 000000   		.zero	3
 605              	.LC8:
 606 0064 0D00     		.string	"\r"
 607 0066 0000     		.zero	2
 608              	.LC9:
 609 0068 0300     		.half	3
 610 006a 1C00     		.half	28
 611 006c 1C00     		.half	28
 612 006e 0100     		.half	1
 613 0070 00000000 		.word	mnist_pic
 614              	.LC1:
 615 0074 0300     		.half	3
 616 0076 1C00     		.half	28
 617 0078 1C00     		.half	28
 618 007a 0100     		.half	1
 619 007c 00000000 		.word	0
 620              	.LC10:
 621 0080 746D206D 		.string	"tm model load err %d\n"
 621      6F64656C 
 621      206C6F61 
 621      64206572 
 621      72202564 
 622 0096 0000     		.zero	2
 623              	.LC11:
 624 0098 746D5F72 		.string	"tm_run"
 624      756E00
 625 009f 00       		.zero	1
 626              	.LC12:
 627 00a0 3D3D3D25 		.string	"===%s use %d.%03d ms\r\n"
 627      73207573 
GAS LISTING C:\Users\Jesper\AppData\Local\Temp\ccfkv2jT.s 			page 18


 627      65202564 
 627      2E253033 
 627      64206D73 
 628 00b7 00       		.zero	1
 629              	.LC13:
 630 00b8 746D2072 		.string	"tm run error: %d\r\n"
 630      756E2065 
 630      72726F72 
 630      3A202564 
 630      0D0A00
 631              		.section	.data.mnist_pic,"aw"
 632              		.align	2
 633              		.set	.LANCHOR1,. + 0
 636              	mnist_pic:
 637 0000 00       		.byte	0
 638 0001 00       		.byte	0
 639 0002 00       		.byte	0
 640 0003 00       		.byte	0
 641 0004 00       		.byte	0
 642 0005 00       		.byte	0
 643 0006 00       		.byte	0
 644 0007 00       		.byte	0
 645 0008 00       		.byte	0
 646 0009 00       		.byte	0
 647 000a 00       		.byte	0
 648 000b 00       		.byte	0
 649 000c 00       		.byte	0
 650 000d 00       		.byte	0
 651 000e 00       		.byte	0
 652 000f 00       		.byte	0
 653 0010 00       		.byte	0
 654 0011 00       		.byte	0
 655 0012 00       		.byte	0
 656 0013 00       		.byte	0
 657 0014 00       		.byte	0
 658 0015 00       		.byte	0
 659 0016 00       		.byte	0
 660 0017 00       		.byte	0
 661 0018 00       		.byte	0
 662 0019 00       		.byte	0
 663 001a 00       		.byte	0
 664 001b 00       		.byte	0
 665 001c 00       		.byte	0
 666 001d 00       		.byte	0
 667 001e 00       		.byte	0
 668 001f 00       		.byte	0
 669 0020 00       		.byte	0
 670 0021 00       		.byte	0
 671 0022 00       		.byte	0
 672 0023 00       		.byte	0
 673 0024 00       		.byte	0
 674 0025 00       		.byte	0
 675 0026 00       		.byte	0
 676 0027 00       		.byte	0
 677 0028 00       		.byte	0
 678 0029 00       		.byte	0
 679 002a 00       		.byte	0
GAS LISTING C:\Users\Jesper\AppData\Local\Temp\ccfkv2jT.s 			page 19


 680 002b 00       		.byte	0
 681 002c 00       		.byte	0
 682 002d 00       		.byte	0
 683 002e 00       		.byte	0
 684 002f 00       		.byte	0
 685 0030 00       		.byte	0
 686 0031 00       		.byte	0
 687 0032 00       		.byte	0
 688 0033 00       		.byte	0
 689 0034 00       		.byte	0
 690 0035 00       		.byte	0
 691 0036 00       		.byte	0
 692 0037 00       		.byte	0
 693 0038 00       		.byte	0
 694 0039 00       		.byte	0
 695 003a 00       		.byte	0
 696 003b 00       		.byte	0
 697 003c 00       		.byte	0
 698 003d 00       		.byte	0
 699 003e 00       		.byte	0
 700 003f 00       		.byte	0
 701 0040 00       		.byte	0
 702 0041 00       		.byte	0
 703 0042 00       		.byte	0
 704 0043 00       		.byte	0
 705 0044 00       		.byte	0
 706 0045 00       		.byte	0
 707 0046 00       		.byte	0
 708 0047 00       		.byte	0
 709 0048 00       		.byte	0
 710 0049 00       		.byte	0
 711 004a 00       		.byte	0
 712 004b 00       		.byte	0
 713 004c 00       		.byte	0
 714 004d 00       		.byte	0
 715 004e 00       		.byte	0
 716 004f 00       		.byte	0
 717 0050 00       		.byte	0
 718 0051 00       		.byte	0
 719 0052 00       		.byte	0
 720 0053 00       		.byte	0
 721 0054 00       		.byte	0
 722 0055 00       		.byte	0
 723 0056 00       		.byte	0
 724 0057 00       		.byte	0
 725 0058 00       		.byte	0
 726 0059 00       		.byte	0
 727 005a 00       		.byte	0
 728 005b 00       		.byte	0
 729 005c 00       		.byte	0
 730 005d 00       		.byte	0
 731 005e 00       		.byte	0
 732 005f 00       		.byte	0
 733 0060 00       		.byte	0
 734 0061 00       		.byte	0
 735 0062 00       		.byte	0
 736 0063 00       		.byte	0
GAS LISTING C:\Users\Jesper\AppData\Local\Temp\ccfkv2jT.s 			page 20


 737 0064 00       		.byte	0
 738 0065 00       		.byte	0
 739 0066 00       		.byte	0
 740 0067 00       		.byte	0
 741 0068 00       		.byte	0
 742 0069 00       		.byte	0
 743 006a 00       		.byte	0
 744 006b 00       		.byte	0
 745 006c 00       		.byte	0
 746 006d 00       		.byte	0
 747 006e 00       		.byte	0
 748 006f 00       		.byte	0
 749 0070 00       		.byte	0
 750 0071 00       		.byte	0
 751 0072 00       		.byte	0
 752 0073 00       		.byte	0
 753 0074 00       		.byte	0
 754 0075 00       		.byte	0
 755 0076 00       		.byte	0
 756 0077 00       		.byte	0
 757 0078 00       		.byte	0
 758 0079 00       		.byte	0
 759 007a 00       		.byte	0
 760 007b 00       		.byte	0
 761 007c 00       		.byte	0
 762 007d 00       		.byte	0
 763 007e 00       		.byte	0
 764 007f 00       		.byte	0
 765 0080 00       		.byte	0
 766 0081 00       		.byte	0
 767 0082 00       		.byte	0
 768 0083 00       		.byte	0
 769 0084 00       		.byte	0
 770 0085 00       		.byte	0
 771 0086 00       		.byte	0
 772 0087 00       		.byte	0
 773 0088 00       		.byte	0
 774 0089 00       		.byte	0
 775 008a 00       		.byte	0
 776 008b 00       		.byte	0
 777 008c 00       		.byte	0
 778 008d 00       		.byte	0
 779 008e 00       		.byte	0
 780 008f 00       		.byte	0
 781 0090 00       		.byte	0
 782 0091 00       		.byte	0
 783 0092 00       		.byte	0
 784 0093 00       		.byte	0
 785 0094 00       		.byte	0
 786 0095 00       		.byte	0
 787 0096 00       		.byte	0
 788 0097 00       		.byte	0
 789 0098 00       		.byte	0
 790 0099 00       		.byte	0
 791 009a 00       		.byte	0
 792 009b 00       		.byte	0
 793 009c 00       		.byte	0
GAS LISTING C:\Users\Jesper\AppData\Local\Temp\ccfkv2jT.s 			page 21


 794 009d 00       		.byte	0
 795 009e 00       		.byte	0
 796 009f 00       		.byte	0
 797 00a0 00       		.byte	0
 798 00a1 00       		.byte	0
 799 00a2 00       		.byte	0
 800 00a3 00       		.byte	0
 801 00a4 00       		.byte	0
 802 00a5 00       		.byte	0
 803 00a6 00       		.byte	0
 804 00a7 00       		.byte	0
 805 00a8 00       		.byte	0
 806 00a9 00       		.byte	0
 807 00aa 00       		.byte	0
 808 00ab 00       		.byte	0
 809 00ac 00       		.byte	0
 810 00ad 00       		.byte	0
 811 00ae 00       		.byte	0
 812 00af 00       		.byte	0
 813 00b0 00       		.byte	0
 814 00b1 00       		.byte	0
 815 00b2 00       		.byte	0
 816 00b3 00       		.byte	0
 817 00b4 00       		.byte	0
 818 00b5 00       		.byte	0
 819 00b6 00       		.byte	0
 820 00b7 00       		.byte	0
 821 00b8 00       		.byte	0
 822 00b9 00       		.byte	0
 823 00ba 00       		.byte	0
 824 00bb 00       		.byte	0
 825 00bc 00       		.byte	0
 826 00bd 00       		.byte	0
 827 00be 00       		.byte	0
 828 00bf 00       		.byte	0
 829 00c0 00       		.byte	0
 830 00c1 00       		.byte	0
 831 00c2 00       		.byte	0
 832 00c3 00       		.byte	0
 833 00c4 00       		.byte	0
 834 00c5 00       		.byte	0
 835 00c6 00       		.byte	0
 836 00c7 00       		.byte	0
 837 00c8 00       		.byte	0
 838 00c9 00       		.byte	0
 839 00ca 00       		.byte	0
 840 00cb 00       		.byte	0
 841 00cc 00       		.byte	0
 842 00cd 00       		.byte	0
 843 00ce 00       		.byte	0
 844 00cf 00       		.byte	0
 845 00d0 00       		.byte	0
 846 00d1 24       		.byte	36
 847 00d2 34       		.byte	52
 848 00d3 67       		.byte	103
 849 00d4 82       		.byte	-126
 850 00d5 85       		.byte	-123
GAS LISTING C:\Users\Jesper\AppData\Local\Temp\ccfkv2jT.s 			page 22


 851 00d6 61       		.byte	97
 852 00d7 23       		.byte	35
 853 00d8 00       		.byte	0
 854 00d9 00       		.byte	0
 855 00da 00       		.byte	0
 856 00db 00       		.byte	0
 857 00dc 00       		.byte	0
 858 00dd 00       		.byte	0
 859 00de 00       		.byte	0
 860 00df 00       		.byte	0
 861 00e0 00       		.byte	0
 862 00e1 00       		.byte	0
 863 00e2 00       		.byte	0
 864 00e3 00       		.byte	0
 865 00e4 00       		.byte	0
 866 00e5 00       		.byte	0
 867 00e6 00       		.byte	0
 868 00e7 00       		.byte	0
 869 00e8 00       		.byte	0
 870 00e9 00       		.byte	0
 871 00ea 00       		.byte	0
 872 00eb 08       		.byte	8
 873 00ec 54       		.byte	84
 874 00ed B2       		.byte	-78
 875 00ee E7       		.byte	-25
 876 00ef FC       		.byte	-4
 877 00f0 FE       		.byte	-2
 878 00f1 FD       		.byte	-3
 879 00f2 E4       		.byte	-28
 880 00f3 C9       		.byte	-55
 881 00f4 5D       		.byte	93
 882 00f5 00       		.byte	0
 883 00f6 00       		.byte	0
 884 00f7 00       		.byte	0
 885 00f8 00       		.byte	0
 886 00f9 00       		.byte	0
 887 00fa 00       		.byte	0
 888 00fb 00       		.byte	0
 889 00fc 00       		.byte	0
 890 00fd 00       		.byte	0
 891 00fe 00       		.byte	0
 892 00ff 00       		.byte	0
 893 0100 00       		.byte	0
 894 0101 00       		.byte	0
 895 0102 00       		.byte	0
 896 0103 00       		.byte	0
 897 0104 00       		.byte	0
 898 0105 00       		.byte	0
 899 0106 15       		.byte	21
 900 0107 AB       		.byte	-85
 901 0108 F4       		.byte	-12
 902 0109 FE       		.byte	-2
 903 010a FE       		.byte	-2
 904 010b FC       		.byte	-4
 905 010c FD       		.byte	-3
 906 010d FE       		.byte	-2
 907 010e FE       		.byte	-2
GAS LISTING C:\Users\Jesper\AppData\Local\Temp\ccfkv2jT.s 			page 23


 908 010f FE       		.byte	-2
 909 0110 A6       		.byte	-90
 910 0111 1A       		.byte	26
 911 0112 00       		.byte	0
 912 0113 00       		.byte	0
 913 0114 00       		.byte	0
 914 0115 00       		.byte	0
 915 0116 00       		.byte	0
 916 0117 00       		.byte	0
 917 0118 00       		.byte	0
 918 0119 00       		.byte	0
 919 011a 00       		.byte	0
 920 011b 00       		.byte	0
 921 011c 00       		.byte	0
 922 011d 00       		.byte	0
 923 011e 00       		.byte	0
 924 011f 00       		.byte	0
 925 0120 00       		.byte	0
 926 0121 4E       		.byte	78
 927 0122 F3       		.byte	-13
 928 0123 FE       		.byte	-2
 929 0124 FD       		.byte	-3
 930 0125 FD       		.byte	-3
 931 0126 A5       		.byte	-91
 932 0127 A3       		.byte	-93
 933 0128 F4       		.byte	-12
 934 0129 FD       		.byte	-3
 935 012a FE       		.byte	-2
 936 012b FE       		.byte	-2
 937 012c FE       		.byte	-2
 938 012d 4F       		.byte	79
 939 012e 00       		.byte	0
 940 012f 00       		.byte	0
 941 0130 00       		.byte	0
 942 0131 00       		.byte	0
 943 0132 00       		.byte	0
 944 0133 00       		.byte	0
 945 0134 00       		.byte	0
 946 0135 00       		.byte	0
 947 0136 00       		.byte	0
 948 0137 00       		.byte	0
 949 0138 00       		.byte	0
 950 0139 00       		.byte	0
 951 013a 00       		.byte	0
 952 013b 00       		.byte	0
 953 013c 00       		.byte	0
 954 013d B2       		.byte	-78
 955 013e FE       		.byte	-2
 956 013f FE       		.byte	-2
 957 0140 F6       		.byte	-10
 958 0141 68       		.byte	104
 959 0142 00       		.byte	0
 960 0143 00       		.byte	0
 961 0144 67       		.byte	103
 962 0145 F0       		.byte	-16
 963 0146 FE       		.byte	-2
 964 0147 FE       		.byte	-2
GAS LISTING C:\Users\Jesper\AppData\Local\Temp\ccfkv2jT.s 			page 24


 965 0148 FE       		.byte	-2
 966 0149 FE       		.byte	-2
 967 014a 4F       		.byte	79
 968 014b 00       		.byte	0
 969 014c 00       		.byte	0
 970 014d 00       		.byte	0
 971 014e 00       		.byte	0
 972 014f 00       		.byte	0
 973 0150 00       		.byte	0
 974 0151 00       		.byte	0
 975 0152 00       		.byte	0
 976 0153 00       		.byte	0
 977 0154 00       		.byte	0
 978 0155 00       		.byte	0
 979 0156 00       		.byte	0
 980 0157 00       		.byte	0
 981 0158 00       		.byte	0
 982 0159 B1       		.byte	-79
 983 015a FE       		.byte	-2
 984 015b FE       		.byte	-2
 985 015c FC       		.byte	-4
 986 015d 30       		.byte	48
 987 015e 00       		.byte	0
 988 015f 00       		.byte	0
 989 0160 00       		.byte	0
 990 0161 00       		.byte	0
 991 0162 9F       		.byte	-97
 992 0163 FD       		.byte	-3
 993 0164 FE       		.byte	-2
 994 0165 FE       		.byte	-2
 995 0166 FC       		.byte	-4
 996 0167 4F       		.byte	79
 997 0168 00       		.byte	0
 998 0169 00       		.byte	0
 999 016a 00       		.byte	0
 1000 016b 00       		.byte	0
 1001 016c 00       		.byte	0
 1002 016d 00       		.byte	0
 1003 016e 00       		.byte	0
 1004 016f 00       		.byte	0
 1005 0170 00       		.byte	0
 1006 0171 00       		.byte	0
 1007 0172 00       		.byte	0
 1008 0173 00       		.byte	0
 1009 0174 00       		.byte	0
 1010 0175 31       		.byte	49
 1011 0176 C4       		.byte	-60
 1012 0177 FC       		.byte	-4
 1013 0178 FE       		.byte	-2
 1014 0179 EF       		.byte	-17
 1015 017a 46       		.byte	70
 1016 017b 00       		.byte	0
 1017 017c 00       		.byte	0
 1018 017d 00       		.byte	0
 1019 017e 00       		.byte	0
 1020 017f 4F       		.byte	79
 1021 0180 FE       		.byte	-2
GAS LISTING C:\Users\Jesper\AppData\Local\Temp\ccfkv2jT.s 			page 25


 1022 0181 FE       		.byte	-2
 1023 0182 FE       		.byte	-2
 1024 0183 F8       		.byte	-8
 1025 0184 4F       		.byte	79
 1026 0185 00       		.byte	0
 1027 0186 00       		.byte	0
 1028 0187 00       		.byte	0
 1029 0188 00       		.byte	0
 1030 0189 00       		.byte	0
 1031 018a 00       		.byte	0
 1032 018b 00       		.byte	0
 1033 018c 00       		.byte	0
 1034 018d 00       		.byte	0
 1035 018e 00       		.byte	0
 1036 018f 00       		.byte	0
 1037 0190 00       		.byte	0
 1038 0191 00       		.byte	0
 1039 0192 1A       		.byte	26
 1040 0193 F8       		.byte	-8
 1041 0194 FE       		.byte	-2
 1042 0195 FE       		.byte	-2
 1043 0196 67       		.byte	103
 1044 0197 00       		.byte	0
 1045 0198 00       		.byte	0
 1046 0199 00       		.byte	0
 1047 019a 00       		.byte	0
 1048 019b 00       		.byte	0
 1049 019c 67       		.byte	103
 1050 019d FE       		.byte	-2
 1051 019e FE       		.byte	-2
 1052 019f FE       		.byte	-2
 1053 01a0 D0       		.byte	-48
 1054 01a1 1F       		.byte	31
 1055 01a2 00       		.byte	0
 1056 01a3 00       		.byte	0
 1057 01a4 00       		.byte	0
 1058 01a5 00       		.byte	0
 1059 01a6 00       		.byte	0
 1060 01a7 00       		.byte	0
 1061 01a8 00       		.byte	0
 1062 01a9 00       		.byte	0
 1063 01aa 00       		.byte	0
 1064 01ab 00       		.byte	0
 1065 01ac 00       		.byte	0
 1066 01ad 00       		.byte	0
 1067 01ae 24       		.byte	36
 1068 01af FA       		.byte	-6
 1069 01b0 FE       		.byte	-2
 1070 01b1 F5       		.byte	-11
 1071 01b2 32       		.byte	50
 1072 01b3 00       		.byte	0
 1073 01b4 00       		.byte	0
 1074 01b5 00       		.byte	0
 1075 01b6 00       		.byte	0
 1076 01b7 00       		.byte	0
 1077 01b8 00       		.byte	0
 1078 01b9 E7       		.byte	-25
GAS LISTING C:\Users\Jesper\AppData\Local\Temp\ccfkv2jT.s 			page 26


 1079 01ba FE       		.byte	-2
 1080 01bb FE       		.byte	-2
 1081 01bc 53       		.byte	83
 1082 01bd 00       		.byte	0
 1083 01be 00       		.byte	0
 1084 01bf 00       		.byte	0
 1085 01c0 00       		.byte	0
 1086 01c1 00       		.byte	0
 1087 01c2 00       		.byte	0
 1088 01c3 00       		.byte	0
 1089 01c4 00       		.byte	0
 1090 01c5 00       		.byte	0
 1091 01c6 00       		.byte	0
 1092 01c7 00       		.byte	0
 1093 01c8 00       		.byte	0
 1094 01c9 00       		.byte	0
 1095 01ca 24       		.byte	36
 1096 01cb FA       		.byte	-6
 1097 01cc FE       		.byte	-2
 1098 01cd FD       		.byte	-3
 1099 01ce 9C       		.byte	-100
 1100 01cf 24       		.byte	36
 1101 01d0 00       		.byte	0
 1102 01d1 00       		.byte	0
 1103 01d2 00       		.byte	0
 1104 01d3 00       		.byte	0
 1105 01d4 00       		.byte	0
 1106 01d5 98       		.byte	-104
 1107 01d6 FE       		.byte	-2
 1108 01d7 FE       		.byte	-2
 1109 01d8 53       		.byte	83
 1110 01d9 00       		.byte	0
 1111 01da 00       		.byte	0
 1112 01db 00       		.byte	0
 1113 01dc 00       		.byte	0
 1114 01dd 00       		.byte	0
 1115 01de 00       		.byte	0
 1116 01df 00       		.byte	0
 1117 01e0 00       		.byte	0
 1118 01e1 00       		.byte	0
 1119 01e2 00       		.byte	0
 1120 01e3 00       		.byte	0
 1121 01e4 00       		.byte	0
 1122 01e5 00       		.byte	0
 1123 01e6 08       		.byte	8
 1124 01e7 DF       		.byte	-33
 1125 01e8 FE       		.byte	-2
 1126 01e9 FE       		.byte	-2
 1127 01ea FE       		.byte	-2
 1128 01eb C1       		.byte	-63
 1129 01ec 00       		.byte	0
 1130 01ed 00       		.byte	0
 1131 01ee 00       		.byte	0
 1132 01ef 00       		.byte	0
 1133 01f0 00       		.byte	0
 1134 01f1 4F       		.byte	79
 1135 01f2 FE       		.byte	-2
GAS LISTING C:\Users\Jesper\AppData\Local\Temp\ccfkv2jT.s 			page 27


 1136 01f3 FE       		.byte	-2
 1137 01f4 F5       		.byte	-11
 1138 01f5 32       		.byte	50
 1139 01f6 00       		.byte	0
 1140 01f7 00       		.byte	0
 1141 01f8 00       		.byte	0
 1142 01f9 00       		.byte	0
 1143 01fa 00       		.byte	0
 1144 01fb 00       		.byte	0
 1145 01fc 00       		.byte	0
 1146 01fd 00       		.byte	0
 1147 01fe 00       		.byte	0
 1148 01ff 00       		.byte	0
 1149 0200 00       		.byte	0
 1150 0201 00       		.byte	0
 1151 0202 00       		.byte	0
 1152 0203 34       		.byte	52
 1153 0204 FD       		.byte	-3
 1154 0205 FE       		.byte	-2
 1155 0206 FE       		.byte	-2
 1156 0207 FF       		.byte	-1
 1157 0208 B1       		.byte	-79
 1158 0209 15       		.byte	21
 1159 020a 00       		.byte	0
 1160 020b 00       		.byte	0
 1161 020c 1F       		.byte	31
 1162 020d F3       		.byte	-13
 1163 020e FE       		.byte	-2
 1164 020f FE       		.byte	-2
 1165 0210 C1       		.byte	-63
 1166 0211 00       		.byte	0
 1167 0212 00       		.byte	0
 1168 0213 00       		.byte	0
 1169 0214 00       		.byte	0
 1170 0215 00       		.byte	0
 1171 0216 00       		.byte	0
 1172 0217 00       		.byte	0
 1173 0218 00       		.byte	0
 1174 0219 00       		.byte	0
 1175 021a 00       		.byte	0
 1176 021b 00       		.byte	0
 1177 021c 00       		.byte	0
 1178 021d 00       		.byte	0
 1179 021e 00       		.byte	0
 1180 021f 00       		.byte	0
 1181 0220 4F       		.byte	79
 1182 0221 FE       		.byte	-2
 1183 0222 FE       		.byte	-2
 1184 0223 FE       		.byte	-2
 1185 0224 FE       		.byte	-2
 1186 0225 EC       		.byte	-20
 1187 0226 AA       		.byte	-86
 1188 0227 B1       		.byte	-79
 1189 0228 DF       		.byte	-33
 1190 0229 FC       		.byte	-4
 1191 022a FE       		.byte	-2
 1192 022b FE       		.byte	-2
GAS LISTING C:\Users\Jesper\AppData\Local\Temp\ccfkv2jT.s 			page 28


 1193 022c 4F       		.byte	79
 1194 022d 00       		.byte	0
 1195 022e 00       		.byte	0
 1196 022f 00       		.byte	0
 1197 0230 00       		.byte	0
 1198 0231 00       		.byte	0
 1199 0232 00       		.byte	0
 1200 0233 00       		.byte	0
 1201 0234 00       		.byte	0
 1202 0235 00       		.byte	0
 1203 0236 00       		.byte	0
 1204 0237 00       		.byte	0
 1205 0238 00       		.byte	0
 1206 0239 00       		.byte	0
 1207 023a 00       		.byte	0
 1208 023b 00       		.byte	0
 1209 023c 00       		.byte	0
 1210 023d B1       		.byte	-79
 1211 023e FE       		.byte	-2
 1212 023f FE       		.byte	-2
 1213 0240 FE       		.byte	-2
 1214 0241 FE       		.byte	-2
 1215 0242 FD       		.byte	-3
 1216 0243 FE       		.byte	-2
 1217 0244 FE       		.byte	-2
 1218 0245 FE       		.byte	-2
 1219 0246 F2       		.byte	-14
 1220 0247 67       		.byte	103
 1221 0248 00       		.byte	0
 1222 0249 00       		.byte	0
 1223 024a 00       		.byte	0
 1224 024b 00       		.byte	0
 1225 024c 00       		.byte	0
 1226 024d 00       		.byte	0
 1227 024e 00       		.byte	0
 1228 024f 00       		.byte	0
 1229 0250 00       		.byte	0
 1230 0251 00       		.byte	0
 1231 0252 00       		.byte	0
 1232 0253 00       		.byte	0
 1233 0254 00       		.byte	0
 1234 0255 00       		.byte	0
 1235 0256 00       		.byte	0
 1236 0257 00       		.byte	0
 1237 0258 00       		.byte	0
 1238 0259 24       		.byte	36
 1239 025a 4F       		.byte	79
 1240 025b 9F       		.byte	-97
 1241 025c DF       		.byte	-33
 1242 025d F2       		.byte	-14
 1243 025e F2       		.byte	-14
 1244 025f FE       		.byte	-2
 1245 0260 F6       		.byte	-10
 1246 0261 AB       		.byte	-85
 1247 0262 53       		.byte	83
 1248 0263 00       		.byte	0
 1249 0264 00       		.byte	0
GAS LISTING C:\Users\Jesper\AppData\Local\Temp\ccfkv2jT.s 			page 29


 1250 0265 00       		.byte	0
 1251 0266 00       		.byte	0
 1252 0267 00       		.byte	0
 1253 0268 00       		.byte	0
 1254 0269 00       		.byte	0
 1255 026a 00       		.byte	0
 1256 026b 00       		.byte	0
 1257 026c 00       		.byte	0
 1258 026d 00       		.byte	0
 1259 026e 00       		.byte	0
 1260 026f 00       		.byte	0
 1261 0270 00       		.byte	0
 1262 0271 00       		.byte	0
 1263 0272 00       		.byte	0
 1264 0273 00       		.byte	0
 1265 0274 00       		.byte	0
 1266 0275 00       		.byte	0
 1267 0276 00       		.byte	0
 1268 0277 00       		.byte	0
 1269 0278 00       		.byte	0
 1270 0279 00       		.byte	0
 1271 027a 00       		.byte	0
 1272 027b 00       		.byte	0
 1273 027c 00       		.byte	0
 1274 027d 00       		.byte	0
 1275 027e 00       		.byte	0
 1276 027f 00       		.byte	0
 1277 0280 00       		.byte	0
 1278 0281 00       		.byte	0
 1279 0282 00       		.byte	0
 1280 0283 00       		.byte	0
 1281 0284 00       		.byte	0
 1282 0285 00       		.byte	0
 1283 0286 00       		.byte	0
 1284 0287 00       		.byte	0
 1285 0288 00       		.byte	0
 1286 0289 00       		.byte	0
 1287 028a 00       		.byte	0
 1288 028b 00       		.byte	0
 1289 028c 00       		.byte	0
 1290 028d 00       		.byte	0
 1291 028e 00       		.byte	0
 1292 028f 00       		.byte	0
 1293 0290 00       		.byte	0
 1294 0291 00       		.byte	0
 1295 0292 00       		.byte	0
 1296 0293 00       		.byte	0
 1297 0294 00       		.byte	0
 1298 0295 00       		.byte	0
 1299 0296 00       		.byte	0
 1300 0297 00       		.byte	0
 1301 0298 00       		.byte	0
 1302 0299 00       		.byte	0
 1303 029a 00       		.byte	0
 1304 029b 00       		.byte	0
 1305 029c 00       		.byte	0
 1306 029d 00       		.byte	0
GAS LISTING C:\Users\Jesper\AppData\Local\Temp\ccfkv2jT.s 			page 30


 1307 029e 00       		.byte	0
 1308 029f 00       		.byte	0
 1309 02a0 00       		.byte	0
 1310 02a1 00       		.byte	0
 1311 02a2 00       		.byte	0
 1312 02a3 00       		.byte	0
 1313 02a4 00       		.byte	0
 1314 02a5 00       		.byte	0
 1315 02a6 00       		.byte	0
 1316 02a7 00       		.byte	0
 1317 02a8 00       		.byte	0
 1318 02a9 00       		.byte	0
 1319 02aa 00       		.byte	0
 1320 02ab 00       		.byte	0
 1321 02ac 00       		.byte	0
 1322 02ad 00       		.byte	0
 1323 02ae 00       		.byte	0
 1324 02af 00       		.byte	0
 1325 02b0 00       		.byte	0
 1326 02b1 00       		.byte	0
 1327 02b2 00       		.byte	0
 1328 02b3 00       		.byte	0
 1329 02b4 00       		.byte	0
 1330 02b5 00       		.byte	0
 1331 02b6 00       		.byte	0
 1332 02b7 00       		.byte	0
 1333 02b8 00       		.byte	0
 1334 02b9 00       		.byte	0
 1335 02ba 00       		.byte	0
 1336 02bb 00       		.byte	0
 1337 02bc 00       		.byte	0
 1338 02bd 00       		.byte	0
 1339 02be 00       		.byte	0
 1340 02bf 00       		.byte	0
 1341 02c0 00       		.byte	0
 1342 02c1 00       		.byte	0
 1343 02c2 00       		.byte	0
 1344 02c3 00       		.byte	0
 1345 02c4 00       		.byte	0
 1346 02c5 00       		.byte	0
 1347 02c6 00       		.byte	0
 1348 02c7 00       		.byte	0
 1349 02c8 00       		.byte	0
 1350 02c9 00       		.byte	0
 1351 02ca 00       		.byte	0
 1352 02cb 00       		.byte	0
 1353 02cc 00       		.byte	0
 1354 02cd 00       		.byte	0
 1355 02ce 00       		.byte	0
 1356 02cf 00       		.byte	0
 1357 02d0 00       		.byte	0
 1358 02d1 00       		.byte	0
 1359 02d2 00       		.byte	0
 1360 02d3 00       		.byte	0
 1361 02d4 00       		.byte	0
 1362 02d5 00       		.byte	0
 1363 02d6 00       		.byte	0
GAS LISTING C:\Users\Jesper\AppData\Local\Temp\ccfkv2jT.s 			page 31


 1364 02d7 00       		.byte	0
 1365 02d8 00       		.byte	0
 1366 02d9 00       		.byte	0
 1367 02da 00       		.byte	0
 1368 02db 00       		.byte	0
 1369 02dc 00       		.byte	0
 1370 02dd 00       		.byte	0
 1371 02de 00       		.byte	0
 1372 02df 00       		.byte	0
 1373 02e0 00       		.byte	0
 1374 02e1 00       		.byte	0
 1375 02e2 00       		.byte	0
 1376 02e3 00       		.byte	0
 1377 02e4 00       		.byte	0
 1378 02e5 00       		.byte	0
 1379 02e6 00       		.byte	0
 1380 02e7 00       		.byte	0
 1381 02e8 00       		.byte	0
 1382 02e9 00       		.byte	0
 1383 02ea 00       		.byte	0
 1384 02eb 00       		.byte	0
 1385 02ec 00       		.byte	0
 1386 02ed 00       		.byte	0
 1387 02ee 00       		.byte	0
 1388 02ef 00       		.byte	0
 1389 02f0 00       		.byte	0
 1390 02f1 00       		.byte	0
 1391 02f2 00       		.byte	0
 1392 02f3 00       		.byte	0
 1393 02f4 00000000 		.zero	28
 1393      00000000 
 1393      00000000 
 1393      00000000 
 1393      00000000 
 1394              		.section	.rodata.mdl_data,"a"
 1395              		.align	2
 1398              	mdl_data:
 1399 0000 4D       		.byte	77
 1400 0001 41       		.byte	65
 1401 0002 49       		.byte	73
 1402 0003 58       		.byte	88
 1403 0004 00       		.byte	0
 1404 0005 01       		.byte	1
 1405 0006 01       		.byte	1
 1406 0007 00       		.byte	0
 1407 0008 01       		.byte	1
 1408 0009 00       		.byte	0
 1409 000a 06       		.byte	6
 1410 000b 00       		.byte	0
 1411 000c B8       		.byte	-72
 1412 000d 05       		.byte	5
 1413 000e 00       		.byte	0
 1414 000f 00       		.byte	0
 1415 0010 00       		.byte	0
 1416 0011 00       		.byte	0
 1417 0012 00       		.byte	0
 1418 0013 00       		.byte	0
GAS LISTING C:\Users\Jesper\AppData\Local\Temp\ccfkv2jT.s 			page 32


 1419 0014 03       		.byte	3
 1420 0015 00       		.byte	0
 1421 0016 1C       		.byte	28
 1422 0017 00       		.byte	0
 1423 0018 1C       		.byte	28
 1424 0019 00       		.byte	0
 1425 001a 01       		.byte	1
 1426 001b 00       		.byte	0
 1427 001c 01       		.byte	1
 1428 001d 00       		.byte	0
 1429 001e 01       		.byte	1
 1430 001f 00       		.byte	0
 1431 0020 01       		.byte	1
 1432 0021 00       		.byte	0
 1433 0022 0A       		.byte	10
 1434 0023 00       		.byte	0
 1435 0024 00       		.byte	0
 1436 0025 00       		.byte	0
 1437 0026 00       		.byte	0
 1438 0027 00       		.byte	0
 1439 0028 00       		.byte	0
 1440 0029 00       		.byte	0
 1441 002a 00       		.byte	0
 1442 002b 00       		.byte	0
 1443 002c 00       		.byte	0
 1444 002d 00       		.byte	0
 1445 002e 00       		.byte	0
 1446 002f 00       		.byte	0
 1447 0030 00       		.byte	0
 1448 0031 00       		.byte	0
 1449 0032 00       		.byte	0
 1450 0033 00       		.byte	0
 1451 0034 00       		.byte	0
 1452 0035 00       		.byte	0
 1453 0036 00       		.byte	0
 1454 0037 00       		.byte	0
 1455 0038 00       		.byte	0
 1456 0039 00       		.byte	0
 1457 003a 00       		.byte	0
 1458 003b 00       		.byte	0
 1459 003c 00       		.byte	0
 1460 003d 00       		.byte	0
 1461 003e 00       		.byte	0
 1462 003f 00       		.byte	0
 1463 0040 00       		.byte	0
 1464 0041 00       		.byte	0
 1465 0042 00       		.byte	0
 1466 0043 00       		.byte	0
 1467 0044 98       		.byte	-104
 1468 0045 00       		.byte	0
 1469 0046 00       		.byte	0
 1470 0047 00       		.byte	0
 1471 0048 00       		.byte	0
 1472 0049 00       		.byte	0
 1473 004a 00       		.byte	0
 1474 004b 00       		.byte	0
 1475 004c 10       		.byte	16
GAS LISTING C:\Users\Jesper\AppData\Local\Temp\ccfkv2jT.s 			page 33


 1476 004d 03       		.byte	3
 1477 004e 00       		.byte	0
 1478 004f 00       		.byte	0
 1479 0050 03       		.byte	3
 1480 0051 00       		.byte	0
 1481 0052 1C       		.byte	28
 1482 0053 00       		.byte	0
 1483 0054 1C       		.byte	28
 1484 0055 00       		.byte	0
 1485 0056 01       		.byte	1
 1486 0057 00       		.byte	0
 1487 0058 03       		.byte	3
 1488 0059 00       		.byte	0
 1489 005a 0D       		.byte	13
 1490 005b 00       		.byte	0
 1491 005c 0D       		.byte	13
 1492 005d 00       		.byte	0
 1493 005e 04       		.byte	4
 1494 005f 00       		.byte	0
 1495 0060 81       		.byte	-127
 1496 0061 80       		.byte	-128
 1497 0062 80       		.byte	-128
 1498 0063 3B       		.byte	59
 1499 0064 80       		.byte	-128
 1500 0065 FF       		.byte	-1
 1501 0066 FF       		.byte	-1
 1502 0067 FF       		.byte	-1
 1503 0068 31       		.byte	49
 1504 0069 E9       		.byte	-23
 1505 006a 84       		.byte	-124
 1506 006b 3C       		.byte	60
 1507 006c 80       		.byte	-128
 1508 006d FF       		.byte	-1
 1509 006e FF       		.byte	-1
 1510 006f FF       		.byte	-1
 1511 0070 03       		.byte	3
 1512 0071 03       		.byte	3
 1513 0072 02       		.byte	2
 1514 0073 02       		.byte	2
 1515 0074 01       		.byte	1
 1516 0075 01       		.byte	1
 1517 0076 01       		.byte	1
 1518 0077 00       		.byte	0
 1519 0078 00       		.byte	0
 1520 0079 00       		.byte	0
 1521 007a 00       		.byte	0
 1522 007b 00       		.byte	0
 1523 007c 00       		.byte	0
 1524 007d 00       		.byte	0
 1525 007e 00       		.byte	0
 1526 007f 00       		.byte	0
 1527 0080 00       		.byte	0
 1528 0081 00       		.byte	0
 1529 0082 00       		.byte	0
 1530 0083 00       		.byte	0
 1531 0084 50       		.byte	80
 1532 0085 00       		.byte	0
GAS LISTING C:\Users\Jesper\AppData\Local\Temp\ccfkv2jT.s 			page 34


 1533 0086 00       		.byte	0
 1534 0087 00       		.byte	0
 1535 0088 60       		.byte	96
 1536 0089 00       		.byte	0
 1537 008a 00       		.byte	0
 1538 008b 00       		.byte	0
 1539 008c 88       		.byte	-120
 1540 008d 00       		.byte	0
 1541 008e 00       		.byte	0
 1542 008f 00       		.byte	0
 1543 0090 7D       		.byte	125
 1544 0091 77       		.byte	119
 1545 0092 4A       		.byte	74
 1546 0093 3C       		.byte	60
 1547 0094 85       		.byte	-123
 1548 0095 AD       		.byte	-83
 1549 0096 87       		.byte	-121
 1550 0097 3C       		.byte	60
 1551 0098 26       		.byte	38
 1552 0099 92       		.byte	-110
 1553 009a C5       		.byte	-59
 1554 009b 3B       		.byte	59
 1555 009c B9       		.byte	-71
 1556 009d C9       		.byte	-55
 1557 009e 48       		.byte	72
 1558 009f 3C       		.byte	60
 1559 00a0 2F       		.byte	47
 1560 00a1 5E       		.byte	94
 1561 00a2 5B       		.byte	91
 1562 00a3 46       		.byte	70
 1563 00a4 14       		.byte	20
 1564 00a5 C0       		.byte	-64
 1565 00a6 B0       		.byte	-80
 1566 00a7 81       		.byte	-127
 1567 00a8 C8       		.byte	-56
 1568 00a9 32       		.byte	50
 1569 00aa 0A       		.byte	10
 1570 00ab D8       		.byte	-40
 1571 00ac 6F       		.byte	111
 1572 00ad 09       		.byte	9
 1573 00ae 81       		.byte	-127
 1574 00af 27       		.byte	39
 1575 00b0 F6       		.byte	-10
 1576 00b1 D6       		.byte	-42
 1577 00b2 7F       		.byte	127
 1578 00b3 79       		.byte	121
 1579 00b4 50       		.byte	80
 1580 00b5 F9       		.byte	-7
 1581 00b6 16       		.byte	22
 1582 00b7 2B       		.byte	43
 1583 00b8 2B       		.byte	43
 1584 00b9 5E       		.byte	94
 1585 00ba 60       		.byte	96
 1586 00bb F3       		.byte	-13
 1587 00bc 85       		.byte	-123
 1588 00bd 99       		.byte	-103
 1589 00be 7A       		.byte	122
GAS LISTING C:\Users\Jesper\AppData\Local\Temp\ccfkv2jT.s 			page 35


 1590 00bf 0A       		.byte	10
 1591 00c0 81       		.byte	-127
 1592 00c1 67       		.byte	103
 1593 00c2 65       		.byte	101
 1594 00c3 19       		.byte	25
 1595 00c4 00       		.byte	0
 1596 00c5 00       		.byte	0
 1597 00c6 00       		.byte	0
 1598 00c7 00       		.byte	0
 1599 00c8 94       		.byte	-108
 1600 00c9 FB       		.byte	-5
 1601 00ca FF       		.byte	-1
 1602 00cb FF       		.byte	-1
 1603 00cc 94       		.byte	-108
 1604 00cd FC       		.byte	-4
 1605 00ce FF       		.byte	-1
 1606 00cf FF       		.byte	-1
 1607 00d0 94       		.byte	-108
 1608 00d1 41       		.byte	65
 1609 00d2 01       		.byte	1
 1610 00d3 00       		.byte	0
 1611 00d4 AB       		.byte	-85
 1612 00d5 FA       		.byte	-6
 1613 00d6 FF       		.byte	-1
 1614 00d7 FF       		.byte	-1
 1615 00d8 00       		.byte	0
 1616 00d9 00       		.byte	0
 1617 00da 00       		.byte	0
 1618 00db 00       		.byte	0
 1619 00dc B0       		.byte	-80
 1620 00dd 01       		.byte	1
 1621 00de 00       		.byte	0
 1622 00df 00       		.byte	0
 1623 00e0 10       		.byte	16
 1624 00e1 03       		.byte	3
 1625 00e2 00       		.byte	0
 1626 00e3 00       		.byte	0
 1627 00e4 00       		.byte	0
 1628 00e5 00       		.byte	0
 1629 00e6 00       		.byte	0
 1630 00e7 00       		.byte	0
 1631 00e8 03       		.byte	3
 1632 00e9 00       		.byte	0
 1633 00ea 0D       		.byte	13
 1634 00eb 00       		.byte	0
 1635 00ec 0D       		.byte	13
 1636 00ed 00       		.byte	0
 1637 00ee 04       		.byte	4
 1638 00ef 00       		.byte	0
 1639 00f0 03       		.byte	3
 1640 00f1 00       		.byte	0
 1641 00f2 06       		.byte	6
 1642 00f3 00       		.byte	0
 1643 00f4 06       		.byte	6
 1644 00f5 00       		.byte	0
 1645 00f6 08       		.byte	8
 1646 00f7 00       		.byte	0
GAS LISTING C:\Users\Jesper\AppData\Local\Temp\ccfkv2jT.s 			page 36


 1647 00f8 31       		.byte	49
 1648 00f9 E9       		.byte	-23
 1649 00fa 84       		.byte	-124
 1650 00fb 3C       		.byte	60
 1651 00fc 80       		.byte	-128
 1652 00fd FF       		.byte	-1
 1653 00fe FF       		.byte	-1
 1654 00ff FF       		.byte	-1
 1655 0100 A0       		.byte	-96
 1656 0101 2A       		.byte	42
 1657 0102 84       		.byte	-124
 1658 0103 3C       		.byte	60
 1659 0104 80       		.byte	-128
 1660 0105 FF       		.byte	-1
 1661 0106 FF       		.byte	-1
 1662 0107 FF       		.byte	-1
 1663 0108 03       		.byte	3
 1664 0109 03       		.byte	3
 1665 010a 02       		.byte	2
 1666 010b 02       		.byte	2
 1667 010c 01       		.byte	1
 1668 010d 01       		.byte	1
 1669 010e 01       		.byte	1
 1670 010f 00       		.byte	0
 1671 0110 00       		.byte	0
 1672 0111 00       		.byte	0
 1673 0112 00       		.byte	0
 1674 0113 00       		.byte	0
 1675 0114 00       		.byte	0
 1676 0115 00       		.byte	0
 1677 0116 00       		.byte	0
 1678 0117 00       		.byte	0
 1679 0118 00       		.byte	0
 1680 0119 00       		.byte	0
 1681 011a 00       		.byte	0
 1682 011b 00       		.byte	0
 1683 011c 50       		.byte	80
 1684 011d 00       		.byte	0
 1685 011e 00       		.byte	0
 1686 011f 00       		.byte	0
 1687 0120 70       		.byte	112
 1688 0121 00       		.byte	0
 1689 0122 00       		.byte	0
 1690 0123 00       		.byte	0
 1691 0124 90       		.byte	-112
 1692 0125 01       		.byte	1
 1693 0126 00       		.byte	0
 1694 0127 00       		.byte	0
 1695 0128 B6       		.byte	-74
 1696 0129 E0       		.byte	-32
 1697 012a 8A       		.byte	-118
 1698 012b 3B       		.byte	59
 1699 012c E0       		.byte	-32
 1700 012d A8       		.byte	-88
 1701 012e 36       		.byte	54
 1702 012f 3B       		.byte	59
 1703 0130 50       		.byte	80
GAS LISTING C:\Users\Jesper\AppData\Local\Temp\ccfkv2jT.s 			page 37


 1704 0131 3D       		.byte	61
 1705 0132 C9       		.byte	-55
 1706 0133 3B       		.byte	59
 1707 0134 3E       		.byte	62
 1708 0135 4F       		.byte	79
 1709 0136 91       		.byte	-111
 1710 0137 3B       		.byte	59
 1711 0138 88       		.byte	-120
 1712 0139 9E       		.byte	-98
 1713 013a 57       		.byte	87
 1714 013b 3B       		.byte	59
 1715 013c 22       		.byte	34
 1716 013d A8       		.byte	-88
 1717 013e 6C       		.byte	108
 1718 013f 3B       		.byte	59
 1719 0140 1F       		.byte	31
 1720 0141 25       		.byte	37
 1721 0142 9F       		.byte	-97
 1722 0143 3B       		.byte	59
 1723 0144 F2       		.byte	-14
 1724 0145 40       		.byte	64
 1725 0146 71       		.byte	113
 1726 0147 3B       		.byte	59
 1727 0148 F1       		.byte	-15
 1728 0149 0D       		.byte	13
 1729 014a 28       		.byte	40
 1730 014b 3E       		.byte	62
 1731 014c 71       		.byte	113
 1732 014d 3E       		.byte	62
 1733 014e A8       		.byte	-88
 1734 014f DA       		.byte	-38
 1735 0150 EF       		.byte	-17
 1736 0151 AD       		.byte	-83
 1737 0152 3D       		.byte	61
 1738 0153 2C       		.byte	44
 1739 0154 81       		.byte	-127
 1740 0155 B5       		.byte	-75
 1741 0156 CC       		.byte	-52
 1742 0157 0F       		.byte	15
 1743 0158 F2       		.byte	-14
 1744 0159 DF       		.byte	-33
 1745 015a DC       		.byte	-36
 1746 015b DC       		.byte	-36
 1747 015c BF       		.byte	-65
 1748 015d 9F       		.byte	-97
 1749 015e D1       		.byte	-47
 1750 015f E9       		.byte	-23
 1751 0160 EA       		.byte	-22
 1752 0161 E9       		.byte	-23
 1753 0162 D0       		.byte	-48
 1754 0163 C3       		.byte	-61
 1755 0164 C1       		.byte	-63
 1756 0165 99       		.byte	-103
 1757 0166 F2       		.byte	-14
 1758 0167 53       		.byte	83
 1759 0168 48       		.byte	72
 1760 0169 E8       		.byte	-24
GAS LISTING C:\Users\Jesper\AppData\Local\Temp\ccfkv2jT.s 			page 38


 1761 016a 1B       		.byte	27
 1762 016b 34       		.byte	52
 1763 016c DD       		.byte	-35
 1764 016d C3       		.byte	-61
 1765 016e BA       		.byte	-70
 1766 016f AF       		.byte	-81
 1767 0170 81       		.byte	-127
 1768 0171 DB       		.byte	-37
 1769 0172 AC       		.byte	-84
 1770 0173 B1       		.byte	-79
 1771 0174 EB       		.byte	-21
 1772 0175 2B       		.byte	43
 1773 0176 13       		.byte	19
 1774 0177 09       		.byte	9
 1775 0178 18       		.byte	24
 1776 0179 1C       		.byte	28
 1777 017a 20       		.byte	32
 1778 017b 2F       		.byte	47
 1779 017c 34       		.byte	52
 1780 017d 20       		.byte	32
 1781 017e 56       		.byte	86
 1782 017f 46       		.byte	70
 1783 0180 3D       		.byte	61
 1784 0181 12       		.byte	18
 1785 0182 D6       		.byte	-42
 1786 0183 DB       		.byte	-37
 1787 0184 D4       		.byte	-44
 1788 0185 FB       		.byte	-5
 1789 0186 00       		.byte	0
 1790 0187 3E       		.byte	62
 1791 0188 5B       		.byte	91
 1792 0189 3F       		.byte	63
 1793 018a 48       		.byte	72
 1794 018b 5D       		.byte	93
 1795 018c 33       		.byte	51
 1796 018d 55       		.byte	85
 1797 018e 3F       		.byte	63
 1798 018f 10       		.byte	16
 1799 0190 81       		.byte	-127
 1800 0191 C0       		.byte	-64
 1801 0192 D3       		.byte	-45
 1802 0193 D6       		.byte	-42
 1803 0194 93       		.byte	-109
 1804 0195 BF       		.byte	-65
 1805 0196 D5       		.byte	-43
 1806 0197 D7       		.byte	-41
 1807 0198 CA       		.byte	-54
 1808 0199 C9       		.byte	-55
 1809 019a F2       		.byte	-14
 1810 019b 1B       		.byte	27
 1811 019c 02       		.byte	2
 1812 019d 24       		.byte	36
 1813 019e F8       		.byte	-8
 1814 019f 1B       		.byte	27
 1815 01a0 F9       		.byte	-7
 1816 01a1 F7       		.byte	-9
 1817 01a2 DF       		.byte	-33
GAS LISTING C:\Users\Jesper\AppData\Local\Temp\ccfkv2jT.s 			page 39


 1818 01a3 F8       		.byte	-8
 1819 01a4 07       		.byte	7
 1820 01a5 FF       		.byte	-1
 1821 01a6 50       		.byte	80
 1822 01a7 1C       		.byte	28
 1823 01a8 E6       		.byte	-26
 1824 01a9 B8       		.byte	-72
 1825 01aa C7       		.byte	-57
 1826 01ab 1A       		.byte	26
 1827 01ac D2       		.byte	-46
 1828 01ad CE       		.byte	-50
 1829 01ae 0C       		.byte	12
 1830 01af 09       		.byte	9
 1831 01b0 11       		.byte	17
 1832 01b1 E1       		.byte	-31
 1833 01b2 F6       		.byte	-10
 1834 01b3 0E       		.byte	14
 1835 01b4 1F       		.byte	31
 1836 01b5 2F       		.byte	47
 1837 01b6 20       		.byte	32
 1838 01b7 FA       		.byte	-6
 1839 01b8 2E       		.byte	46
 1840 01b9 2B       		.byte	43
 1841 01ba C7       		.byte	-57
 1842 01bb F8       		.byte	-8
 1843 01bc 0E       		.byte	14
 1844 01bd 49       		.byte	73
 1845 01be 47       		.byte	71
 1846 01bf 19       		.byte	25
 1847 01c0 2B       		.byte	43
 1848 01c1 11       		.byte	17
 1849 01c2 F7       		.byte	-9
 1850 01c3 37       		.byte	55
 1851 01c4 06       		.byte	6
 1852 01c5 E9       		.byte	-23
 1853 01c6 B9       		.byte	-71
 1854 01c7 B9       		.byte	-71
 1855 01c8 E7       		.byte	-25
 1856 01c9 7F       		.byte	127
 1857 01ca 42       		.byte	66
 1858 01cb 14       		.byte	20
 1859 01cc A1       		.byte	-95
 1860 01cd F4       		.byte	-12
 1861 01ce 29       		.byte	41
 1862 01cf D1       		.byte	-47
 1863 01d0 D5       		.byte	-43
 1864 01d1 07       		.byte	7
 1865 01d2 F9       		.byte	-7
 1866 01d3 FC       		.byte	-4
 1867 01d4 0C       		.byte	12
 1868 01d5 1B       		.byte	27
 1869 01d6 2F       		.byte	47
 1870 01d7 2F       		.byte	47
 1871 01d8 25       		.byte	37
 1872 01d9 1E       		.byte	30
 1873 01da 07       		.byte	7
 1874 01db 02       		.byte	2
GAS LISTING C:\Users\Jesper\AppData\Local\Temp\ccfkv2jT.s 			page 40


 1875 01dc EB       		.byte	-21
 1876 01dd DD       		.byte	-35
 1877 01de 08       		.byte	8
 1878 01df A8       		.byte	-88
 1879 01e0 B4       		.byte	-76
 1880 01e1 2B       		.byte	43
 1881 01e2 1D       		.byte	29
 1882 01e3 E4       		.byte	-28
 1883 01e4 16       		.byte	22
 1884 01e5 31       		.byte	49
 1885 01e6 16       		.byte	22
 1886 01e7 1F       		.byte	31
 1887 01e8 F7       		.byte	-9
 1888 01e9 5C       		.byte	92
 1889 01ea 17       		.byte	23
 1890 01eb E0       		.byte	-32
 1891 01ec 0A       		.byte	10
 1892 01ed 15       		.byte	21
 1893 01ee 08       		.byte	8
 1894 01ef 25       		.byte	37
 1895 01f0 A4       		.byte	-92
 1896 01f1 D9       		.byte	-39
 1897 01f2 1A       		.byte	26
 1898 01f3 19       		.byte	25
 1899 01f4 F9       		.byte	-7
 1900 01f5 F7       		.byte	-9
 1901 01f6 F9       		.byte	-7
 1902 01f7 8D       		.byte	-115
 1903 01f8 A9       		.byte	-87
 1904 01f9 CB       		.byte	-53
 1905 01fa 81       		.byte	-127
 1906 01fb C0       		.byte	-64
 1907 01fc EC       		.byte	-20
 1908 01fd 18       		.byte	24
 1909 01fe 51       		.byte	81
 1910 01ff C4       		.byte	-60
 1911 0200 0C       		.byte	12
 1912 0201 40       		.byte	64
 1913 0202 0C       		.byte	12
 1914 0203 65       		.byte	101
 1915 0204 24       		.byte	36
 1916 0205 CD       		.byte	-51
 1917 0206 CD       		.byte	-51
 1918 0207 CD       		.byte	-51
 1919 0208 87       		.byte	-121
 1920 0209 81       		.byte	-127
 1921 020a CD       		.byte	-51
 1922 020b C2       		.byte	-62
 1923 020c 9F       		.byte	-97
 1924 020d E4       		.byte	-28
 1925 020e 75       		.byte	117
 1926 020f 52       		.byte	82
 1927 0210 F8       		.byte	-8
 1928 0211 08       		.byte	8
 1929 0212 08       		.byte	8
 1930 0213 0C       		.byte	12
 1931 0214 8E       		.byte	-114
GAS LISTING C:\Users\Jesper\AppData\Local\Temp\ccfkv2jT.s 			page 41


 1932 0215 8A       		.byte	-118
 1933 0216 90       		.byte	-112
 1934 0217 3A       		.byte	58
 1935 0218 1C       		.byte	28
 1936 0219 03       		.byte	3
 1937 021a 77       		.byte	119
 1938 021b 3B       		.byte	59
 1939 021c F1       		.byte	-15
 1940 021d 45       		.byte	69
 1941 021e 4B       		.byte	75
 1942 021f 06       		.byte	6
 1943 0220 48       		.byte	72
 1944 0221 41       		.byte	65
 1945 0222 10       		.byte	16
 1946 0223 1A       		.byte	26
 1947 0224 05       		.byte	5
 1948 0225 FE       		.byte	-2
 1949 0226 00       		.byte	0
 1950 0227 FF       		.byte	-1
 1951 0228 EA       		.byte	-22
 1952 0229 AC       		.byte	-84
 1953 022a 81       		.byte	-127
 1954 022b AD       		.byte	-83
 1955 022c DA       		.byte	-38
 1956 022d B6       		.byte	-74
 1957 022e CB       		.byte	-53
 1958 022f 13       		.byte	19
 1959 0230 EF       		.byte	-17
 1960 0231 EA       		.byte	-22
 1961 0232 D5       		.byte	-43
 1962 0233 C8       		.byte	-56
 1963 0234 B3       		.byte	-77
 1964 0235 0F       		.byte	15
 1965 0236 FD       		.byte	-3
 1966 0237 F4       		.byte	-12
 1967 0238 FA       		.byte	-6
 1968 0239 FE       		.byte	-2
 1969 023a 0D       		.byte	13
 1970 023b 04       		.byte	4
 1971 023c 4B       		.byte	75
 1972 023d 4C       		.byte	76
 1973 023e 1C       		.byte	28
 1974 023f 4B       		.byte	75
 1975 0240 44       		.byte	68
 1976 0241 09       		.byte	9
 1977 0242 38       		.byte	56
 1978 0243 33       		.byte	51
 1979 0244 B0       		.byte	-80
 1980 0245 D2       		.byte	-46
 1981 0246 17       		.byte	23
 1982 0247 8D       		.byte	-115
 1983 0248 AF       		.byte	-81
 1984 0249 E6       		.byte	-26
 1985 024a DA       		.byte	-38
 1986 024b CB       		.byte	-53
 1987 024c DD       		.byte	-35
 1988 024d 2E       		.byte	46
GAS LISTING C:\Users\Jesper\AppData\Local\Temp\ccfkv2jT.s 			page 42


 1989 024e 0F       		.byte	15
 1990 024f 04       		.byte	4
 1991 0250 3C       		.byte	60
 1992 0251 7F       		.byte	127
 1993 0252 3D       		.byte	61
 1994 0253 24       		.byte	36
 1995 0254 53       		.byte	83
 1996 0255 32       		.byte	50
 1997 0256 B0       		.byte	-80
 1998 0257 C7       		.byte	-57
 1999 0258 E1       		.byte	-31
 2000 0259 F1       		.byte	-15
 2001 025a 2D       		.byte	45
 2002 025b 13       		.byte	19
 2003 025c E7       		.byte	-25
 2004 025d 4D       		.byte	77
 2005 025e 24       		.byte	36
 2006 025f A1       		.byte	-95
 2007 0260 D8       		.byte	-40
 2008 0261 F1       		.byte	-15
 2009 0262 B1       		.byte	-79
 2010 0263 83       		.byte	-125
 2011 0264 D0       		.byte	-48
 2012 0265 C5       		.byte	-59
 2013 0266 C0       		.byte	-64
 2014 0267 E2       		.byte	-30
 2015 0268 24       		.byte	36
 2016 0269 1F       		.byte	31
 2017 026a FF       		.byte	-1
 2018 026b FF       		.byte	-1
 2019 026c DE       		.byte	-34
 2020 026d D1       		.byte	-47
 2021 026e 00       		.byte	0
 2022 026f 00       		.byte	0
 2023 0270 57       		.byte	87
 2024 0271 C8       		.byte	-56
 2025 0272 FE       		.byte	-2
 2026 0273 FF       		.byte	-1
 2027 0274 53       		.byte	83
 2028 0275 CC       		.byte	-52
 2029 0276 00       		.byte	0
 2030 0277 00       		.byte	0
 2031 0278 F3       		.byte	-13
 2032 0279 76       		.byte	118
 2033 027a FF       		.byte	-1
 2034 027b FF       		.byte	-1
 2035 027c 99       		.byte	-103
 2036 027d FC       		.byte	-4
 2037 027e FF       		.byte	-1
 2038 027f FF       		.byte	-1
 2039 0280 A0       		.byte	-96
 2040 0281 12       		.byte	18
 2041 0282 00       		.byte	0
 2042 0283 00       		.byte	0
 2043 0284 5E       		.byte	94
 2044 0285 1B       		.byte	27
 2045 0286 FF       		.byte	-1
GAS LISTING C:\Users\Jesper\AppData\Local\Temp\ccfkv2jT.s 			page 43


 2046 0287 FF       		.byte	-1
 2047 0288 00       		.byte	0
 2048 0289 00       		.byte	0
 2049 028a 00       		.byte	0
 2050 028b 00       		.byte	0
 2051 028c 50       		.byte	80
 2052 028d 05       		.byte	5
 2053 028e 00       		.byte	0
 2054 028f 00       		.byte	0
 2055 0290 00       		.byte	0
 2056 0291 00       		.byte	0
 2057 0292 00       		.byte	0
 2058 0293 00       		.byte	0
 2059 0294 78       		.byte	120
 2060 0295 05       		.byte	5
 2061 0296 00       		.byte	0
 2062 0297 00       		.byte	0
 2063 0298 03       		.byte	3
 2064 0299 00       		.byte	0
 2065 029a 06       		.byte	6
 2066 029b 00       		.byte	0
 2067 029c 06       		.byte	6
 2068 029d 00       		.byte	0
 2069 029e 08       		.byte	8
 2070 029f 00       		.byte	0
 2071 02a0 03       		.byte	3
 2072 02a1 00       		.byte	0
 2073 02a2 02       		.byte	2
 2074 02a3 00       		.byte	0
 2075 02a4 02       		.byte	2
 2076 02a5 00       		.byte	0
 2077 02a6 10       		.byte	16
 2078 02a7 00       		.byte	0
 2079 02a8 A0       		.byte	-96
 2080 02a9 2A       		.byte	42
 2081 02aa 84       		.byte	-124
 2082 02ab 3C       		.byte	60
 2083 02ac 80       		.byte	-128
 2084 02ad FF       		.byte	-1
 2085 02ae FF       		.byte	-1
 2086 02af FF       		.byte	-1
 2087 02b0 05       		.byte	5
 2088 02b1 09       		.byte	9
 2089 02b2 68       		.byte	104
 2090 02b3 3D       		.byte	61
 2091 02b4 80       		.byte	-128
 2092 02b5 FF       		.byte	-1
 2093 02b6 FF       		.byte	-1
 2094 02b7 FF       		.byte	-1
 2095 02b8 03       		.byte	3
 2096 02b9 03       		.byte	3
 2097 02ba 02       		.byte	2
 2098 02bb 02       		.byte	2
 2099 02bc 01       		.byte	1
 2100 02bd 01       		.byte	1
 2101 02be 01       		.byte	1
 2102 02bf 00       		.byte	0
GAS LISTING C:\Users\Jesper\AppData\Local\Temp\ccfkv2jT.s 			page 44


 2103 02c0 00       		.byte	0
 2104 02c1 00       		.byte	0
 2105 02c2 00       		.byte	0
 2106 02c3 00       		.byte	0
 2107 02c4 00       		.byte	0
 2108 02c5 00       		.byte	0
 2109 02c6 00       		.byte	0
 2110 02c7 00       		.byte	0
 2111 02c8 00       		.byte	0
 2112 02c9 00       		.byte	0
 2113 02ca 00       		.byte	0
 2114 02cb 00       		.byte	0
 2115 02cc 50       		.byte	80
 2116 02cd 00       		.byte	0
 2117 02ce 00       		.byte	0
 2118 02cf 00       		.byte	0
 2119 02d0 90       		.byte	-112
 2120 02d1 00       		.byte	0
 2121 02d2 00       		.byte	0
 2122 02d3 00       		.byte	0
 2123 02d4 10       		.byte	16
 2124 02d5 05       		.byte	5
 2125 02d6 00       		.byte	0
 2126 02d7 00       		.byte	0
 2127 02d8 E3       		.byte	-29
 2128 02d9 93       		.byte	-109
 2129 02da AD       		.byte	-83
 2130 02db 3C       		.byte	60
 2131 02dc 61       		.byte	97
 2132 02dd 96       		.byte	-106
 2133 02de 68       		.byte	104
 2134 02df 3C       		.byte	60
 2135 02e0 71       		.byte	113
 2136 02e1 D9       		.byte	-39
 2137 02e2 96       		.byte	-106
 2138 02e3 3C       		.byte	60
 2139 02e4 CA       		.byte	-54
 2140 02e5 A1       		.byte	-95
 2141 02e6 4F       		.byte	79
 2142 02e7 3C       		.byte	60
 2143 02e8 7B       		.byte	123
 2144 02e9 9B       		.byte	-101
 2145 02ea 6D       		.byte	109
 2146 02eb 3C       		.byte	60
 2147 02ec 35       		.byte	53
 2148 02ed 94       		.byte	-108
 2149 02ee A4       		.byte	-92
 2150 02ef 3C       		.byte	60
 2151 02f0 C1       		.byte	-63
 2152 02f1 F4       		.byte	-12
 2153 02f2 A1       		.byte	-95
 2154 02f3 3C       		.byte	60
 2155 02f4 36       		.byte	54
 2156 02f5 E6       		.byte	-26
 2157 02f6 83       		.byte	-125
 2158 02f7 3C       		.byte	60
 2159 02f8 93       		.byte	-109
GAS LISTING C:\Users\Jesper\AppData\Local\Temp\ccfkv2jT.s 			page 45


 2160 02f9 D4       		.byte	-44
 2161 02fa 45       		.byte	69
 2162 02fb 3C       		.byte	60
 2163 02fc 16       		.byte	22
 2164 02fd 82       		.byte	-126
 2165 02fe 5F       		.byte	95
 2166 02ff 3C       		.byte	60
 2167 0300 39       		.byte	57
 2168 0301 F8       		.byte	-8
 2169 0302 56       		.byte	86
 2170 0303 3C       		.byte	60
 2171 0304 8B       		.byte	-117
 2172 0305 F0       		.byte	-16
 2173 0306 AA       		.byte	-86
 2174 0307 3C       		.byte	60
 2175 0308 68       		.byte	104
 2176 0309 39       		.byte	57
 2177 030a 66       		.byte	102
 2178 030b 3C       		.byte	60
 2179 030c 58       		.byte	88
 2180 030d 1E       		.byte	30
 2181 030e A3       		.byte	-93
 2182 030f 3C       		.byte	60
 2183 0310 D8       		.byte	-40
 2184 0311 1B       		.byte	27
 2185 0312 86       		.byte	-122
 2186 0313 3C       		.byte	60
 2187 0314 38       		.byte	56
 2188 0315 AD       		.byte	-83
 2189 0316 9A       		.byte	-102
 2190 0317 3C       		.byte	60
 2191 0318 FB       		.byte	-5
 2192 0319 F8       		.byte	-8
 2193 031a 49       		.byte	73
 2194 031b 99       		.byte	-103
 2195 031c FB       		.byte	-5
 2196 031d D6       		.byte	-42
 2197 031e 82       		.byte	-126
 2198 031f FF       		.byte	-1
 2199 0320 07       		.byte	7
 2200 0321 DF       		.byte	-33
 2201 0322 FD       		.byte	-3
 2202 0323 16       		.byte	22
 2203 0324 49       		.byte	73
 2204 0325 28       		.byte	40
 2205 0326 FD       		.byte	-3
 2206 0327 03       		.byte	3
 2207 0328 10       		.byte	16
 2208 0329 10       		.byte	16
 2209 032a 0E       		.byte	14
 2210 032b 13       		.byte	19
 2211 032c FE       		.byte	-2
 2212 032d 19       		.byte	25
 2213 032e 31       		.byte	49
 2214 032f 23       		.byte	35
 2215 0330 0D       		.byte	13
 2216 0331 81       		.byte	-127
GAS LISTING C:\Users\Jesper\AppData\Local\Temp\ccfkv2jT.s 			page 46


 2217 0332 A5       		.byte	-91
 2218 0333 01       		.byte	1
 2219 0334 DE       		.byte	-34
 2220 0335 FB       		.byte	-5
 2221 0336 18       		.byte	24
 2222 0337 F8       		.byte	-8
 2223 0338 CA       		.byte	-54
 2224 0339 F6       		.byte	-10
 2225 033a E1       		.byte	-31
 2226 033b F2       		.byte	-14
 2227 033c 14       		.byte	20
 2228 033d F9       		.byte	-7
 2229 033e FF       		.byte	-1
 2230 033f 3D       		.byte	61
 2231 0340 49       		.byte	73
 2232 0341 1F       		.byte	31
 2233 0342 2D       		.byte	45
 2234 0343 F8       		.byte	-8
 2235 0344 04       		.byte	4
 2236 0345 42       		.byte	66
 2237 0346 05       		.byte	5
 2238 0347 13       		.byte	19
 2239 0348 F1       		.byte	-15
 2240 0349 1B       		.byte	27
 2241 034a 03       		.byte	3
 2242 034b 2A       		.byte	42
 2243 034c FB       		.byte	-5
 2244 034d 17       		.byte	23
 2245 034e DE       		.byte	-34
 2246 034f ED       		.byte	-19
 2247 0350 FB       		.byte	-5
 2248 0351 E6       		.byte	-26
 2249 0352 F6       		.byte	-10
 2250 0353 C8       		.byte	-56
 2251 0354 16       		.byte	22
 2252 0355 05       		.byte	5
 2253 0356 D5       		.byte	-43
 2254 0357 32       		.byte	50
 2255 0358 43       		.byte	67
 2256 0359 10       		.byte	16
 2257 035a 13       		.byte	19
 2258 035b 38       		.byte	56
 2259 035c 40       		.byte	64
 2260 035d E9       		.byte	-23
 2261 035e 05       		.byte	5
 2262 035f 29       		.byte	41
 2263 0360 A4       		.byte	-92
 2264 0361 AE       		.byte	-82
 2265 0362 2D       		.byte	45
 2266 0363 AB       		.byte	-85
 2267 0364 A1       		.byte	-95
 2268 0365 05       		.byte	5
 2269 0366 CA       		.byte	-54
 2270 0367 81       		.byte	-127
 2271 0368 4A       		.byte	74
 2272 0369 D0       		.byte	-48
 2273 036a BA       		.byte	-70
GAS LISTING C:\Users\Jesper\AppData\Local\Temp\ccfkv2jT.s 			page 47


 2274 036b E5       		.byte	-27
 2275 036c 3D       		.byte	61
 2276 036d C8       		.byte	-56
 2277 036e BC       		.byte	-68
 2278 036f 06       		.byte	6
 2279 0370 EB       		.byte	-21
 2280 0371 2B       		.byte	43
 2281 0372 32       		.byte	50
 2282 0373 F9       		.byte	-7
 2283 0374 12       		.byte	18
 2284 0375 40       		.byte	64
 2285 0376 2E       		.byte	46
 2286 0377 CC       		.byte	-52
 2287 0378 10       		.byte	16
 2288 0379 E4       		.byte	-28
 2289 037a 04       		.byte	4
 2290 037b 5E       		.byte	94
 2291 037c 58       		.byte	88
 2292 037d 03       		.byte	3
 2293 037e 2F       		.byte	47
 2294 037f 1A       		.byte	26
 2295 0380 33       		.byte	51
 2296 0381 D2       		.byte	-46
 2297 0382 F5       		.byte	-11
 2298 0383 F4       		.byte	-12
 2299 0384 11       		.byte	17
 2300 0385 2C       		.byte	44
 2301 0386 08       		.byte	8
 2302 0387 FD       		.byte	-3
 2303 0388 DD       		.byte	-35
 2304 0389 17       		.byte	23
 2305 038a 11       		.byte	17
 2306 038b EC       		.byte	-20
 2307 038c 48       		.byte	72
 2308 038d 82       		.byte	-126
 2309 038e F2       		.byte	-14
 2310 038f 3E       		.byte	62
 2311 0390 E4       		.byte	-28
 2312 0391 22       		.byte	34
 2313 0392 11       		.byte	17
 2314 0393 2A       		.byte	42
 2315 0394 C8       		.byte	-56
 2316 0395 0E       		.byte	14
 2317 0396 2A       		.byte	42
 2318 0397 0C       		.byte	12
 2319 0398 53       		.byte	83
 2320 0399 B0       		.byte	-80
 2321 039a 4B       		.byte	75
 2322 039b 0A       		.byte	10
 2323 039c CB       		.byte	-53
 2324 039d 09       		.byte	9
 2325 039e F9       		.byte	-7
 2326 039f 42       		.byte	66
 2327 03a0 47       		.byte	71
 2328 03a1 09       		.byte	9
 2329 03a2 6A       		.byte	106
 2330 03a3 30       		.byte	48
GAS LISTING C:\Users\Jesper\AppData\Local\Temp\ccfkv2jT.s 			page 48


 2331 03a4 E2       		.byte	-30
 2332 03a5 FC       		.byte	-4
 2333 03a6 02       		.byte	2
 2334 03a7 BB       		.byte	-69
 2335 03a8 48       		.byte	72
 2336 03a9 0A       		.byte	10
 2337 03aa F4       		.byte	-12
 2338 03ab DC       		.byte	-36
 2339 03ac 7F       		.byte	127
 2340 03ad D6       		.byte	-42
 2341 03ae 9D       		.byte	-99
 2342 03af FD       		.byte	-3
 2343 03b0 B0       		.byte	-80
 2344 03b1 07       		.byte	7
 2345 03b2 12       		.byte	18
 2346 03b3 61       		.byte	97
 2347 03b4 34       		.byte	52
 2348 03b5 11       		.byte	17
 2349 03b6 CE       		.byte	-50
 2350 03b7 44       		.byte	68
 2351 03b8 C0       		.byte	-64
 2352 03b9 FD       		.byte	-3
 2353 03ba 0D       		.byte	13
 2354 03bb 19       		.byte	25
 2355 03bc 29       		.byte	41
 2356 03bd CF       		.byte	-49
 2357 03be FB       		.byte	-5
 2358 03bf CD       		.byte	-51
 2359 03c0 E0       		.byte	-32
 2360 03c1 ED       		.byte	-19
 2361 03c2 AE       		.byte	-82
 2362 03c3 DE       		.byte	-34
 2363 03c4 E9       		.byte	-23
 2364 03c5 F7       		.byte	-9
 2365 03c6 22       		.byte	34
 2366 03c7 19       		.byte	25
 2367 03c8 11       		.byte	17
 2368 03c9 E9       		.byte	-23
 2369 03ca 19       		.byte	25
 2370 03cb 18       		.byte	24
 2371 03cc D0       		.byte	-48
 2372 03cd 52       		.byte	82
 2373 03ce 17       		.byte	23
 2374 03cf DA       		.byte	-38
 2375 03d0 1F       		.byte	31
 2376 03d1 B4       		.byte	-76
 2377 03d2 10       		.byte	16
 2378 03d3 23       		.byte	35
 2379 03d4 36       		.byte	54
 2380 03d5 EF       		.byte	-17
 2381 03d6 08       		.byte	8
 2382 03d7 DD       		.byte	-35
 2383 03d8 C2       		.byte	-62
 2384 03d9 E8       		.byte	-24
 2385 03da 30       		.byte	48
 2386 03db D3       		.byte	-45
 2387 03dc 08       		.byte	8
GAS LISTING C:\Users\Jesper\AppData\Local\Temp\ccfkv2jT.s 			page 49


 2388 03dd 23       		.byte	35
 2389 03de 02       		.byte	2
 2390 03df 24       		.byte	36
 2391 03e0 99       		.byte	-103
 2392 03e1 1D       		.byte	29
 2393 03e2 ED       		.byte	-19
 2394 03e3 12       		.byte	18
 2395 03e4 03       		.byte	3
 2396 03e5 11       		.byte	17
 2397 03e6 EE       		.byte	-18
 2398 03e7 E5       		.byte	-27
 2399 03e8 DC       		.byte	-36
 2400 03e9 F2       		.byte	-14
 2401 03ea 13       		.byte	19
 2402 03eb 0A       		.byte	10
 2403 03ec 26       		.byte	38
 2404 03ed 1A       		.byte	26
 2405 03ee F2       		.byte	-14
 2406 03ef 02       		.byte	2
 2407 03f0 F8       		.byte	-8
 2408 03f1 FC       		.byte	-4
 2409 03f2 CB       		.byte	-53
 2410 03f3 84       		.byte	-124
 2411 03f4 5C       		.byte	92
 2412 03f5 ED       		.byte	-19
 2413 03f6 1D       		.byte	29
 2414 03f7 99       		.byte	-103
 2415 03f8 F2       		.byte	-14
 2416 03f9 57       		.byte	87
 2417 03fa 3E       		.byte	62
 2418 03fb F3       		.byte	-13
 2419 03fc 8A       		.byte	-118
 2420 03fd D6       		.byte	-42
 2421 03fe D6       		.byte	-42
 2422 03ff C1       		.byte	-63
 2423 0400 16       		.byte	22
 2424 0401 05       		.byte	5
 2425 0402 81       		.byte	-127
 2426 0403 00       		.byte	0
 2427 0404 FD       		.byte	-3
 2428 0405 92       		.byte	-110
 2429 0406 D9       		.byte	-39
 2430 0407 36       		.byte	54
 2431 0408 E7       		.byte	-25
 2432 0409 25       		.byte	37
 2433 040a 17       		.byte	23
 2434 040b E8       		.byte	-24
 2435 040c 05       		.byte	5
 2436 040d 19       		.byte	25
 2437 040e 33       		.byte	51
 2438 040f 0D       		.byte	13
 2439 0410 48       		.byte	72
 2440 0411 AC       		.byte	-84
 2441 0412 DF       		.byte	-33
 2442 0413 15       		.byte	21
 2443 0414 E9       		.byte	-23
 2444 0415 F5       		.byte	-11
GAS LISTING C:\Users\Jesper\AppData\Local\Temp\ccfkv2jT.s 			page 50


 2445 0416 BD       		.byte	-67
 2446 0417 F7       		.byte	-9
 2447 0418 F0       		.byte	-16
 2448 0419 31       		.byte	49
 2449 041a 72       		.byte	114
 2450 041b 23       		.byte	35
 2451 041c 16       		.byte	22
 2452 041d 65       		.byte	101
 2453 041e E2       		.byte	-30
 2454 041f B5       		.byte	-75
 2455 0420 F4       		.byte	-12
 2456 0421 0D       		.byte	13
 2457 0422 EA       		.byte	-22
 2458 0423 BC       		.byte	-68
 2459 0424 F3       		.byte	-13
 2460 0425 3B       		.byte	59
 2461 0426 5A       		.byte	90
 2462 0427 DF       		.byte	-33
 2463 0428 91       		.byte	-111
 2464 0429 10       		.byte	16
 2465 042a E9       		.byte	-23
 2466 042b F7       		.byte	-9
 2467 042c 20       		.byte	32
 2468 042d B2       		.byte	-78
 2469 042e FB       		.byte	-5
 2470 042f E9       		.byte	-23
 2471 0430 FC       		.byte	-4
 2472 0431 0F       		.byte	15
 2473 0432 B6       		.byte	-74
 2474 0433 3B       		.byte	59
 2475 0434 04       		.byte	4
 2476 0435 04       		.byte	4
 2477 0436 1B       		.byte	27
 2478 0437 25       		.byte	37
 2479 0438 95       		.byte	-107
 2480 0439 C6       		.byte	-58
 2481 043a D5       		.byte	-43
 2482 043b FA       		.byte	-6
 2483 043c A1       		.byte	-95
 2484 043d 90       		.byte	-112
 2485 043e DE       		.byte	-34
 2486 043f B9       		.byte	-71
 2487 0440 8B       		.byte	-117
 2488 0441 39       		.byte	57
 2489 0442 E8       		.byte	-24
 2490 0443 C1       		.byte	-63
 2491 0444 09       		.byte	9
 2492 0445 F9       		.byte	-7
 2493 0446 05       		.byte	5
 2494 0447 1D       		.byte	29
 2495 0448 1B       		.byte	27
 2496 0449 0F       		.byte	15
 2497 044a 39       		.byte	57
 2498 044b FF       		.byte	-1
 2499 044c D5       		.byte	-43
 2500 044d 46       		.byte	70
 2501 044e F7       		.byte	-9
GAS LISTING C:\Users\Jesper\AppData\Local\Temp\ccfkv2jT.s 			page 51


 2502 044f 29       		.byte	41
 2503 0450 7A       		.byte	122
 2504 0451 6A       		.byte	106
 2505 0452 FA       		.byte	-6
 2506 0453 F7       		.byte	-9
 2507 0454 08       		.byte	8
 2508 0455 3D       		.byte	61
 2509 0456 AF       		.byte	-81
 2510 0457 07       		.byte	7
 2511 0458 56       		.byte	86
 2512 0459 41       		.byte	65
 2513 045a 02       		.byte	2
 2514 045b D7       		.byte	-41
 2515 045c EC       		.byte	-20
 2516 045d E7       		.byte	-25
 2517 045e 01       		.byte	1
 2518 045f E0       		.byte	-32
 2519 0460 D1       		.byte	-47
 2520 0461 B9       		.byte	-71
 2521 0462 C1       		.byte	-63
 2522 0463 94       		.byte	-108
 2523 0464 D4       		.byte	-44
 2524 0465 EB       		.byte	-21
 2525 0466 CA       		.byte	-54
 2526 0467 DD       		.byte	-35
 2527 0468 D6       		.byte	-42
 2528 0469 B2       		.byte	-78
 2529 046a E1       		.byte	-31
 2530 046b E1       		.byte	-31
 2531 046c 0C       		.byte	12
 2532 046d FC       		.byte	-4
 2533 046e 38       		.byte	56
 2534 046f 11       		.byte	17
 2535 0470 01       		.byte	1
 2536 0471 EA       		.byte	-22
 2537 0472 DD       		.byte	-35
 2538 0473 23       		.byte	35
 2539 0474 81       		.byte	-127
 2540 0475 E4       		.byte	-28
 2541 0476 10       		.byte	16
 2542 0477 FF       		.byte	-1
 2543 0478 00       		.byte	0
 2544 0479 20       		.byte	32
 2545 047a 1A       		.byte	26
 2546 047b C7       		.byte	-57
 2547 047c F4       		.byte	-12
 2548 047d 3B       		.byte	59
 2549 047e F9       		.byte	-7
 2550 047f E5       		.byte	-27
 2551 0480 81       		.byte	-127
 2552 0481 E7       		.byte	-25
 2553 0482 12       		.byte	18
 2554 0483 E0       		.byte	-32
 2555 0484 EB       		.byte	-21
 2556 0485 07       		.byte	7
 2557 0486 0E       		.byte	14
 2558 0487 37       		.byte	55
GAS LISTING C:\Users\Jesper\AppData\Local\Temp\ccfkv2jT.s 			page 52


 2559 0488 F6       		.byte	-10
 2560 0489 36       		.byte	54
 2561 048a F6       		.byte	-10
 2562 048b ED       		.byte	-19
 2563 048c 27       		.byte	39
 2564 048d 09       		.byte	9
 2565 048e 38       		.byte	56
 2566 048f 0C       		.byte	12
 2567 0490 0D       		.byte	13
 2568 0491 E9       		.byte	-23
 2569 0492 14       		.byte	20
 2570 0493 EE       		.byte	-18
 2571 0494 DE       		.byte	-34
 2572 0495 16       		.byte	22
 2573 0496 1E       		.byte	30
 2574 0497 2C       		.byte	44
 2575 0498 22       		.byte	34
 2576 0499 22       		.byte	34
 2577 049a E3       		.byte	-29
 2578 049b FB       		.byte	-5
 2579 049c 14       		.byte	20
 2580 049d 45       		.byte	69
 2581 049e 08       		.byte	8
 2582 049f F2       		.byte	-14
 2583 04a0 C7       		.byte	-57
 2584 04a1 F8       		.byte	-8
 2585 04a2 F9       		.byte	-7
 2586 04a3 F4       		.byte	-12
 2587 04a4 13       		.byte	19
 2588 04a5 DB       		.byte	-37
 2589 04a6 DE       		.byte	-34
 2590 04a7 10       		.byte	16
 2591 04a8 21       		.byte	33
 2592 04a9 DD       		.byte	-35
 2593 04aa 04       		.byte	4
 2594 04ab 06       		.byte	6
 2595 04ac 22       		.byte	34
 2596 04ad 0F       		.byte	15
 2597 04ae 1A       		.byte	26
 2598 04af 23       		.byte	35
 2599 04b0 18       		.byte	24
 2600 04b1 EF       		.byte	-17
 2601 04b2 EC       		.byte	-20
 2602 04b3 00       		.byte	0
 2603 04b4 DE       		.byte	-34
 2604 04b5 D9       		.byte	-39
 2605 04b6 C4       		.byte	-60
 2606 04b7 CF       		.byte	-49
 2607 04b8 0B       		.byte	11
 2608 04b9 F0       		.byte	-16
 2609 04ba FE       		.byte	-2
 2610 04bb 37       		.byte	55
 2611 04bc F2       		.byte	-14
 2612 04bd EE       		.byte	-18
 2613 04be F4       		.byte	-12
 2614 04bf 4C       		.byte	76
 2615 04c0 48       		.byte	72
GAS LISTING C:\Users\Jesper\AppData\Local\Temp\ccfkv2jT.s 			page 53


 2616 04c1 EC       		.byte	-20
 2617 04c2 BD       		.byte	-67
 2618 04c3 27       		.byte	39
 2619 04c4 FB       		.byte	-5
 2620 04c5 C4       		.byte	-60
 2621 04c6 EA       		.byte	-22
 2622 04c7 09       		.byte	9
 2623 04c8 29       		.byte	41
 2624 04c9 00       		.byte	0
 2625 04ca 0C       		.byte	12
 2626 04cb 2A       		.byte	42
 2627 04cc 2E       		.byte	46
 2628 04cd DC       		.byte	-36
 2629 04ce F8       		.byte	-8
 2630 04cf 03       		.byte	3
 2631 04d0 D1       		.byte	-47
 2632 04d1 B3       		.byte	-77
 2633 04d2 16       		.byte	22
 2634 04d3 04       		.byte	4
 2635 04d4 81       		.byte	-127
 2636 04d5 D3       		.byte	-45
 2637 04d6 09       		.byte	9
 2638 04d7 F7       		.byte	-9
 2639 04d8 D3       		.byte	-45
 2640 04d9 FA       		.byte	-6
 2641 04da F5       		.byte	-11
 2642 04db D3       		.byte	-45
 2643 04dc E0       		.byte	-32
 2644 04dd E0       		.byte	-32
 2645 04de C6       		.byte	-58
 2646 04df FF       		.byte	-1
 2647 04e0 19       		.byte	25
 2648 04e1 F6       		.byte	-10
 2649 04e2 2F       		.byte	47
 2650 04e3 01       		.byte	1
 2651 04e4 F7       		.byte	-9
 2652 04e5 0A       		.byte	10
 2653 04e6 26       		.byte	38
 2654 04e7 02       		.byte	2
 2655 04e8 F5       		.byte	-11
 2656 04e9 2C       		.byte	44
 2657 04ea 11       		.byte	17
 2658 04eb 0B       		.byte	11
 2659 04ec 22       		.byte	34
 2660 04ed FF       		.byte	-1
 2661 04ee FC       		.byte	-4
 2662 04ef 06       		.byte	6
 2663 04f0 DD       		.byte	-35
 2664 04f1 FD       		.byte	-3
 2665 04f2 16       		.byte	22
 2666 04f3 D9       		.byte	-39
 2667 04f4 EB       		.byte	-21
 2668 04f5 4F       		.byte	79
 2669 04f6 1C       		.byte	28
 2670 04f7 E0       		.byte	-32
 2671 04f8 E1       		.byte	-31
 2672 04f9 E3       		.byte	-29
GAS LISTING C:\Users\Jesper\AppData\Local\Temp\ccfkv2jT.s 			page 54


 2673 04fa D5       		.byte	-43
 2674 04fb 15       		.byte	21
 2675 04fc E8       		.byte	-24
 2676 04fd F6       		.byte	-10
 2677 04fe 64       		.byte	100
 2678 04ff 29       		.byte	41
 2679 0500 3D       		.byte	61
 2680 0501 C3       		.byte	-61
 2681 0502 23       		.byte	35
 2682 0503 49       		.byte	73
 2683 0504 E1       		.byte	-31
 2684 0505 CE       		.byte	-50
 2685 0506 DB       		.byte	-37
 2686 0507 BC       		.byte	-68
 2687 0508 DE       		.byte	-34
 2688 0509 D9       		.byte	-39
 2689 050a E3       		.byte	-29
 2690 050b D3       		.byte	-45
 2691 050c B0       		.byte	-80
 2692 050d 0C       		.byte	12
 2693 050e 22       		.byte	34
 2694 050f 2A       		.byte	42
 2695 0510 2C       		.byte	44
 2696 0511 08       		.byte	8
 2697 0512 0D       		.byte	13
 2698 0513 0C       		.byte	12
 2699 0514 7F       		.byte	127
 2700 0515 F6       		.byte	-10
 2701 0516 1B       		.byte	27
 2702 0517 D3       		.byte	-45
 2703 0518 17       		.byte	23
 2704 0519 E0       		.byte	-32
 2705 051a 11       		.byte	17
 2706 051b F6       		.byte	-10
 2707 051c DC       		.byte	-36
 2708 051d FD       		.byte	-3
 2709 051e 08       		.byte	8
 2710 051f CA       		.byte	-54
 2711 0520 F6       		.byte	-10
 2712 0521 28       		.byte	40
 2713 0522 F3       		.byte	-13
 2714 0523 E3       		.byte	-29
 2715 0524 B7       		.byte	-73
 2716 0525 31       		.byte	49
 2717 0526 09       		.byte	9
 2718 0527 20       		.byte	32
 2719 0528 14       		.byte	20
 2720 0529 A8       		.byte	-88
 2721 052a 18       		.byte	24
 2722 052b F2       		.byte	-14
 2723 052c E3       		.byte	-29
 2724 052d 25       		.byte	37
 2725 052e 3B       		.byte	59
 2726 052f D7       		.byte	-41
 2727 0530 1A       		.byte	26
 2728 0531 C5       		.byte	-59
 2729 0532 B8       		.byte	-72
GAS LISTING C:\Users\Jesper\AppData\Local\Temp\ccfkv2jT.s 			page 55


 2730 0533 E2       		.byte	-30
 2731 0534 F2       		.byte	-14
 2732 0535 0B       		.byte	11
 2733 0536 F8       		.byte	-8
 2734 0537 1E       		.byte	30
 2735 0538 B9       		.byte	-71
 2736 0539 FA       		.byte	-6
 2737 053a 3F       		.byte	63
 2738 053b D1       		.byte	-47
 2739 053c F4       		.byte	-12
 2740 053d CD       		.byte	-51
 2741 053e 24       		.byte	36
 2742 053f DE       		.byte	-34
 2743 0540 03       		.byte	3
 2744 0541 41       		.byte	65
 2745 0542 11       		.byte	17
 2746 0543 08       		.byte	8
 2747 0544 FD       		.byte	-3
 2748 0545 E6       		.byte	-26
 2749 0546 DD       		.byte	-35
 2750 0547 FC       		.byte	-4
 2751 0548 22       		.byte	34
 2752 0549 14       		.byte	20
 2753 054a 0F       		.byte	15
 2754 054b 07       		.byte	7
 2755 054c 0E       		.byte	14
 2756 054d 25       		.byte	37
 2757 054e 01       		.byte	1
 2758 054f D8       		.byte	-40
 2759 0550 02       		.byte	2
 2760 0551 2B       		.byte	43
 2761 0552 F9       		.byte	-7
 2762 0553 94       		.byte	-108
 2763 0554 DC       		.byte	-36
 2764 0555 1F       		.byte	31
 2765 0556 FA       		.byte	-6
 2766 0557 FA       		.byte	-6
 2767 0558 7C       		.byte	124
 2768 0559 71       		.byte	113
 2769 055a EF       		.byte	-17
 2770 055b 09       		.byte	9
 2771 055c 4D       		.byte	77
 2772 055d 9F       		.byte	-97
 2773 055e B9       		.byte	-71
 2774 055f 81       		.byte	-127
 2775 0560 E8       		.byte	-24
 2776 0561 20       		.byte	32
 2777 0562 E6       		.byte	-26
 2778 0563 49       		.byte	73
 2779 0564 43       		.byte	67
 2780 0565 16       		.byte	22
 2781 0566 D0       		.byte	-48
 2782 0567 49       		.byte	73
 2783 0568 37       		.byte	55
 2784 0569 DF       		.byte	-33
 2785 056a 00       		.byte	0
 2786 056b F2       		.byte	-14
GAS LISTING C:\Users\Jesper\AppData\Local\Temp\ccfkv2jT.s 			page 56


 2787 056c 9A       		.byte	-102
 2788 056d 15       		.byte	21
 2789 056e 9A       		.byte	-102
 2790 056f 8F       		.byte	-113
 2791 0570 D8       		.byte	-40
 2792 0571 D3       		.byte	-45
 2793 0572 46       		.byte	70
 2794 0573 D0       		.byte	-48
 2795 0574 DF       		.byte	-33
 2796 0575 C8       		.byte	-56
 2797 0576 D7       		.byte	-41
 2798 0577 F0       		.byte	-16
 2799 0578 24       		.byte	36
 2800 0579 12       		.byte	18
 2801 057a FF       		.byte	-1
 2802 057b 12       		.byte	18
 2803 057c F9       		.byte	-7
 2804 057d 42       		.byte	66
 2805 057e 15       		.byte	21
 2806 057f F0       		.byte	-16
 2807 0580 10       		.byte	16
 2808 0581 13       		.byte	19
 2809 0582 AE       		.byte	-82
 2810 0583 E4       		.byte	-28
 2811 0584 33       		.byte	51
 2812 0585 A6       		.byte	-90
 2813 0586 20       		.byte	32
 2814 0587 1E       		.byte	30
 2815 0588 B2       		.byte	-78
 2816 0589 DF       		.byte	-33
 2817 058a 24       		.byte	36
 2818 058b DA       		.byte	-38
 2819 058c 06       		.byte	6
 2820 058d 71       		.byte	113
 2821 058e 62       		.byte	98
 2822 058f 2A       		.byte	42
 2823 0590 0A       		.byte	10
 2824 0591 2C       		.byte	44
 2825 0592 34       		.byte	52
 2826 0593 CC       		.byte	-52
 2827 0594 27       		.byte	39
 2828 0595 EB       		.byte	-21
 2829 0596 3A       		.byte	58
 2830 0597 62       		.byte	98
 2831 0598 F0       		.byte	-16
 2832 0599 14       		.byte	20
 2833 059a 1F       		.byte	31
 2834 059b 56       		.byte	86
 2835 059c 2C       		.byte	44
 2836 059d CC       		.byte	-52
 2837 059e 4E       		.byte	78
 2838 059f 36       		.byte	54
 2839 05a0 48       		.byte	72
 2840 05a1 FC       		.byte	-4
 2841 05a2 90       		.byte	-112
 2842 05a3 1C       		.byte	28
 2843 05a4 0D       		.byte	13
GAS LISTING C:\Users\Jesper\AppData\Local\Temp\ccfkv2jT.s 			page 57


 2844 05a5 CA       		.byte	-54
 2845 05a6 1D       		.byte	29
 2846 05a7 58       		.byte	88
 2847 05a8 16       		.byte	22
 2848 05a9 44       		.byte	68
 2849 05aa 1A       		.byte	26
 2850 05ab EB       		.byte	-21
 2851 05ac 88       		.byte	-120
 2852 05ad 0F       		.byte	15
 2853 05ae 21       		.byte	33
 2854 05af F9       		.byte	-7
 2855 05b0 FB       		.byte	-5
 2856 05b1 1E       		.byte	30
 2857 05b2 5A       		.byte	90
 2858 05b3 2E       		.byte	46
 2859 05b4 A7       		.byte	-89
 2860 05b5 0D       		.byte	13
 2861 05b6 FB       		.byte	-5
 2862 05b7 10       		.byte	16
 2863 05b8 BF       		.byte	-65
 2864 05b9 D1       		.byte	-47
 2865 05ba 3B       		.byte	59
 2866 05bb E7       		.byte	-25
 2867 05bc 11       		.byte	17
 2868 05bd 2B       		.byte	43
 2869 05be 3C       		.byte	60
 2870 05bf DD       		.byte	-35
 2871 05c0 FB       		.byte	-5
 2872 05c1 08       		.byte	8
 2873 05c2 E2       		.byte	-30
 2874 05c3 A2       		.byte	-94
 2875 05c4 81       		.byte	-127
 2876 05c5 D2       		.byte	-46
 2877 05c6 01       		.byte	1
 2878 05c7 C3       		.byte	-61
 2879 05c8 E6       		.byte	-26
 2880 05c9 29       		.byte	41
 2881 05ca AE       		.byte	-82
 2882 05cb DE       		.byte	-34
 2883 05cc 33       		.byte	51
 2884 05cd F1       		.byte	-15
 2885 05ce 05       		.byte	5
 2886 05cf 72       		.byte	114
 2887 05d0 29       		.byte	41
 2888 05d1 E0       		.byte	-32
 2889 05d2 07       		.byte	7
 2890 05d3 05       		.byte	5
 2891 05d4 C1       		.byte	-63
 2892 05d5 CF       		.byte	-49
 2893 05d6 B7       		.byte	-73
 2894 05d7 F2       		.byte	-14
 2895 05d8 EC       		.byte	-20
 2896 05d9 18       		.byte	24
 2897 05da 51       		.byte	81
 2898 05db FF       		.byte	-1
 2899 05dc E2       		.byte	-30
 2900 05dd 3D       		.byte	61
GAS LISTING C:\Users\Jesper\AppData\Local\Temp\ccfkv2jT.s 			page 58


 2901 05de 35       		.byte	53
 2902 05df 0C       		.byte	12
 2903 05e0 B3       		.byte	-77
 2904 05e1 06       		.byte	6
 2905 05e2 32       		.byte	50
 2906 05e3 A5       		.byte	-91
 2907 05e4 AD       		.byte	-83
 2908 05e5 22       		.byte	34
 2909 05e6 3D       		.byte	61
 2910 05e7 EB       		.byte	-21
 2911 05e8 7F       		.byte	127
 2912 05e9 45       		.byte	69
 2913 05ea 92       		.byte	-110
 2914 05eb 89       		.byte	-119
 2915 05ec 0C       		.byte	12
 2916 05ed C7       		.byte	-57
 2917 05ee 20       		.byte	32
 2918 05ef 12       		.byte	18
 2919 05f0 3B       		.byte	59
 2920 05f1 00       		.byte	0
 2921 05f2 52       		.byte	82
 2922 05f3 1D       		.byte	29
 2923 05f4 08       		.byte	8
 2924 05f5 B0       		.byte	-80
 2925 05f6 A3       		.byte	-93
 2926 05f7 EE       		.byte	-18
 2927 05f8 DC       		.byte	-36
 2928 05f9 0F       		.byte	15
 2929 05fa 1C       		.byte	28
 2930 05fb FA       		.byte	-6
 2931 05fc 2B       		.byte	43
 2932 05fd 06       		.byte	6
 2933 05fe FA       		.byte	-6
 2934 05ff 03       		.byte	3
 2935 0600 04       		.byte	4
 2936 0601 E1       		.byte	-31
 2937 0602 D2       		.byte	-46
 2938 0603 16       		.byte	22
 2939 0604 F8       		.byte	-8
 2940 0605 DE       		.byte	-34
 2941 0606 E9       		.byte	-23
 2942 0607 39       		.byte	57
 2943 0608 22       		.byte	34
 2944 0609 30       		.byte	48
 2945 060a 3F       		.byte	63
 2946 060b 36       		.byte	54
 2947 060c 14       		.byte	20
 2948 060d 1F       		.byte	31
 2949 060e 1E       		.byte	30
 2950 060f CB       		.byte	-53
 2951 0610 3E       		.byte	62
 2952 0611 2B       		.byte	43
 2953 0612 D4       		.byte	-44
 2954 0613 A7       		.byte	-89
 2955 0614 8C       		.byte	-116
 2956 0615 F1       		.byte	-15
 2957 0616 BD       		.byte	-67
GAS LISTING C:\Users\Jesper\AppData\Local\Temp\ccfkv2jT.s 			page 59


 2958 0617 D0       		.byte	-48
 2959 0618 E0       		.byte	-32
 2960 0619 32       		.byte	50
 2961 061a 21       		.byte	33
 2962 061b FF       		.byte	-1
 2963 061c 46       		.byte	70
 2964 061d 6B       		.byte	107
 2965 061e F5       		.byte	-11
 2966 061f FD       		.byte	-3
 2967 0620 51       		.byte	81
 2968 0621 35       		.byte	53
 2969 0622 C8       		.byte	-56
 2970 0623 CE       		.byte	-50
 2971 0624 A7       		.byte	-89
 2972 0625 06       		.byte	6
 2973 0626 EF       		.byte	-17
 2974 0627 BA       		.byte	-70
 2975 0628 F8       		.byte	-8
 2976 0629 54       		.byte	84
 2977 062a 1E       		.byte	30
 2978 062b 1D       		.byte	29
 2979 062c 37       		.byte	55
 2980 062d 27       		.byte	39
 2981 062e D6       		.byte	-42
 2982 062f D2       		.byte	-46
 2983 0630 81       		.byte	-127
 2984 0631 F6       		.byte	-10
 2985 0632 F9       		.byte	-7
 2986 0633 E0       		.byte	-32
 2987 0634 EA       		.byte	-22
 2988 0635 C4       		.byte	-60
 2989 0636 FD       		.byte	-3
 2990 0637 FA       		.byte	-6
 2991 0638 E4       		.byte	-28
 2992 0639 4C       		.byte	76
 2993 063a 29       		.byte	41
 2994 063b FB       		.byte	-5
 2995 063c 2A       		.byte	42
 2996 063d D6       		.byte	-42
 2997 063e C5       		.byte	-59
 2998 063f C6       		.byte	-58
 2999 0640 0C       		.byte	12
 3000 0641 31       		.byte	49
 3001 0642 24       		.byte	36
 3002 0643 3C       		.byte	60
 3003 0644 FC       		.byte	-4
 3004 0645 0E       		.byte	14
 3005 0646 02       		.byte	2
 3006 0647 94       		.byte	-108
 3007 0648 F0       		.byte	-16
 3008 0649 EA       		.byte	-22
 3009 064a 40       		.byte	64
 3010 064b 37       		.byte	55
 3011 064c 22       		.byte	34
 3012 064d 1F       		.byte	31
 3013 064e CE       		.byte	-50
 3014 064f C3       		.byte	-61
GAS LISTING C:\Users\Jesper\AppData\Local\Temp\ccfkv2jT.s 			page 60


 3015 0650 E2       		.byte	-30
 3016 0651 F0       		.byte	-16
 3017 0652 2A       		.byte	42
 3018 0653 24       		.byte	36
 3019 0654 F6       		.byte	-10
 3020 0655 ED       		.byte	-19
 3021 0656 DD       		.byte	-35
 3022 0657 D5       		.byte	-43
 3023 0658 E8       		.byte	-24
 3024 0659 2A       		.byte	42
 3025 065a 4D       		.byte	77
 3026 065b 59       		.byte	89
 3027 065c 2E       		.byte	46
 3028 065d 16       		.byte	22
 3029 065e 11       		.byte	17
 3030 065f 1C       		.byte	28
 3031 0660 15       		.byte	21
 3032 0661 2D       		.byte	45
 3033 0662 18       		.byte	24
 3034 0663 C5       		.byte	-59
 3035 0664 FA       		.byte	-6
 3036 0665 FD       		.byte	-3
 3037 0666 1F       		.byte	31
 3038 0667 F8       		.byte	-8
 3039 0668 D3       		.byte	-45
 3040 0669 2B       		.byte	43
 3041 066a EB       		.byte	-21
 3042 066b E7       		.byte	-25
 3043 066c F6       		.byte	-10
 3044 066d C9       		.byte	-55
 3045 066e DC       		.byte	-36
 3046 066f 34       		.byte	52
 3047 0670 F8       		.byte	-8
 3048 0671 D7       		.byte	-41
 3049 0672 EE       		.byte	-18
 3050 0673 D7       		.byte	-41
 3051 0674 1C       		.byte	28
 3052 0675 0F       		.byte	15
 3053 0676 1D       		.byte	29
 3054 0677 1F       		.byte	31
 3055 0678 9B       		.byte	-101
 3056 0679 9F       		.byte	-97
 3057 067a D8       		.byte	-40
 3058 067b 03       		.byte	3
 3059 067c 30       		.byte	48
 3060 067d 3A       		.byte	58
 3061 067e B4       		.byte	-76
 3062 067f 02       		.byte	2
 3063 0680 CE       		.byte	-50
 3064 0681 1A       		.byte	26
 3065 0682 08       		.byte	8
 3066 0683 43       		.byte	67
 3067 0684 E5       		.byte	-27
 3068 0685 F8       		.byte	-8
 3069 0686 DF       		.byte	-33
 3070 0687 28       		.byte	40
 3071 0688 BF       		.byte	-65
GAS LISTING C:\Users\Jesper\AppData\Local\Temp\ccfkv2jT.s 			page 61


 3072 0689 D8       		.byte	-40
 3073 068a A9       		.byte	-87
 3074 068b 92       		.byte	-110
 3075 068c E7       		.byte	-25
 3076 068d BE       		.byte	-66
 3077 068e 18       		.byte	24
 3078 068f E9       		.byte	-23
 3079 0690 6E       		.byte	110
 3080 0691 60       		.byte	96
 3081 0692 97       		.byte	-105
 3082 0693 02       		.byte	2
 3083 0694 2A       		.byte	42
 3084 0695 FB       		.byte	-5
 3085 0696 CF       		.byte	-49
 3086 0697 07       		.byte	7
 3087 0698 0B       		.byte	11
 3088 0699 E8       		.byte	-24
 3089 069a DC       		.byte	-36
 3090 069b 05       		.byte	5
 3091 069c 2D       		.byte	45
 3092 069d 43       		.byte	67
 3093 069e 3C       		.byte	60
 3094 069f 34       		.byte	52
 3095 06a0 47       		.byte	71
 3096 06a1 26       		.byte	38
 3097 06a2 09       		.byte	9
 3098 06a3 97       		.byte	-105
 3099 06a4 99       		.byte	-103
 3100 06a5 F2       		.byte	-14
 3101 06a6 B7       		.byte	-73
 3102 06a7 15       		.byte	21
 3103 06a8 9E       		.byte	-98
 3104 06a9 B4       		.byte	-76
 3105 06aa D6       		.byte	-42
 3106 06ab 8B       		.byte	-117
 3107 06ac 0B       		.byte	11
 3108 06ad BA       		.byte	-70
 3109 06ae BA       		.byte	-70
 3110 06af EA       		.byte	-22
 3111 06b0 D1       		.byte	-47
 3112 06b1 02       		.byte	2
 3113 06b2 7F       		.byte	127
 3114 06b3 38       		.byte	56
 3115 06b4 F1       		.byte	-15
 3116 06b5 30       		.byte	48
 3117 06b6 29       		.byte	41
 3118 06b7 33       		.byte	51
 3119 06b8 4C       		.byte	76
 3120 06b9 30       		.byte	48
 3121 06ba 52       		.byte	82
 3122 06bb 1D       		.byte	29
 3123 06bc 01       		.byte	1
 3124 06bd 53       		.byte	83
 3125 06be 32       		.byte	50
 3126 06bf BF       		.byte	-65
 3127 06c0 C9       		.byte	-55
 3128 06c1 E8       		.byte	-24
GAS LISTING C:\Users\Jesper\AppData\Local\Temp\ccfkv2jT.s 			page 62


 3129 06c2 08       		.byte	8
 3130 06c3 D7       		.byte	-41
 3131 06c4 C9       		.byte	-55
 3132 06c5 E0       		.byte	-32
 3133 06c6 F9       		.byte	-7
 3134 06c7 C8       		.byte	-56
 3135 06c8 2A       		.byte	42
 3136 06c9 CF       		.byte	-49
 3137 06ca E2       		.byte	-30
 3138 06cb 3E       		.byte	62
 3139 06cc 08       		.byte	8
 3140 06cd 17       		.byte	23
 3141 06ce FD       		.byte	-3
 3142 06cf 05       		.byte	5
 3143 06d0 C9       		.byte	-55
 3144 06d1 EE       		.byte	-18
 3145 06d2 F3       		.byte	-13
 3146 06d3 D3       		.byte	-45
 3147 06d4 05       		.byte	5
 3148 06d5 1A       		.byte	26
 3149 06d6 FF       		.byte	-1
 3150 06d7 16       		.byte	22
 3151 06d8 03       		.byte	3
 3152 06d9 10       		.byte	16
 3153 06da E2       		.byte	-30
 3154 06db 3D       		.byte	61
 3155 06dc 20       		.byte	32
 3156 06dd EE       		.byte	-18
 3157 06de FF       		.byte	-1
 3158 06df F9       		.byte	-7
 3159 06e0 0A       		.byte	10
 3160 06e1 EF       		.byte	-17
 3161 06e2 09       		.byte	9
 3162 06e3 0A       		.byte	10
 3163 06e4 02       		.byte	2
 3164 06e5 F9       		.byte	-7
 3165 06e6 FD       		.byte	-3
 3166 06e7 DA       		.byte	-38
 3167 06e8 DE       		.byte	-34
 3168 06e9 2A       		.byte	42
 3169 06ea 09       		.byte	9
 3170 06eb 08       		.byte	8
 3171 06ec 07       		.byte	7
 3172 06ed D0       		.byte	-48
 3173 06ee 02       		.byte	2
 3174 06ef D3       		.byte	-45
 3175 06f0 7F       		.byte	127
 3176 06f1 DF       		.byte	-33
 3177 06f2 EE       		.byte	-18
 3178 06f3 2C       		.byte	44
 3179 06f4 27       		.byte	39
 3180 06f5 FF       		.byte	-1
 3181 06f6 E0       		.byte	-32
 3182 06f7 F6       		.byte	-10
 3183 06f8 F7       		.byte	-9
 3184 06f9 0F       		.byte	15
 3185 06fa E9       		.byte	-23
GAS LISTING C:\Users\Jesper\AppData\Local\Temp\ccfkv2jT.s 			page 63


 3186 06fb F2       		.byte	-14
 3187 06fc 22       		.byte	34
 3188 06fd FB       		.byte	-5
 3189 06fe F5       		.byte	-11
 3190 06ff FF       		.byte	-1
 3191 0700 3D       		.byte	61
 3192 0701 53       		.byte	83
 3193 0702 14       		.byte	20
 3194 0703 EB       		.byte	-21
 3195 0704 15       		.byte	21
 3196 0705 FE       		.byte	-2
 3197 0706 E4       		.byte	-28
 3198 0707 06       		.byte	6
 3199 0708 DC       		.byte	-36
 3200 0709 27       		.byte	39
 3201 070a 11       		.byte	17
 3202 070b E3       		.byte	-29
 3203 070c 1B       		.byte	27
 3204 070d 9D       		.byte	-99
 3205 070e D8       		.byte	-40
 3206 070f 07       		.byte	7
 3207 0710 EC       		.byte	-20
 3208 0711 CD       		.byte	-51
 3209 0712 B0       		.byte	-80
 3210 0713 EE       		.byte	-18
 3211 0714 F8       		.byte	-8
 3212 0715 05       		.byte	5
 3213 0716 0D       		.byte	13
 3214 0717 2C       		.byte	44
 3215 0718 24       		.byte	36
 3216 0719 F8       		.byte	-8
 3217 071a DF       		.byte	-33
 3218 071b FE       		.byte	-2
 3219 071c EC       		.byte	-20
 3220 071d 1B       		.byte	27
 3221 071e 69       		.byte	105
 3222 071f E6       		.byte	-26
 3223 0720 04       		.byte	4
 3224 0721 DB       		.byte	-37
 3225 0722 04       		.byte	4
 3226 0723 3B       		.byte	59
 3227 0724 53       		.byte	83
 3228 0725 1B       		.byte	27
 3229 0726 3D       		.byte	61
 3230 0727 20       		.byte	32
 3231 0728 07       		.byte	7
 3232 0729 00       		.byte	0
 3233 072a C8       		.byte	-56
 3234 072b DB       		.byte	-37
 3235 072c 47       		.byte	71
 3236 072d D7       		.byte	-41
 3237 072e E0       		.byte	-32
 3238 072f D8       		.byte	-40
 3239 0730 C7       		.byte	-57
 3240 0731 DE       		.byte	-34
 3241 0732 DC       		.byte	-36
 3242 0733 E6       		.byte	-26
GAS LISTING C:\Users\Jesper\AppData\Local\Temp\ccfkv2jT.s 			page 64


 3243 0734 19       		.byte	25
 3244 0735 DC       		.byte	-36
 3245 0736 F7       		.byte	-9
 3246 0737 EF       		.byte	-17
 3247 0738 14       		.byte	20
 3248 0739 33       		.byte	51
 3249 073a F3       		.byte	-13
 3250 073b 2D       		.byte	45
 3251 073c EE       		.byte	-18
 3252 073d AC       		.byte	-84
 3253 073e E1       		.byte	-31
 3254 073f 9C       		.byte	-100
 3255 0740 FB       		.byte	-5
 3256 0741 D5       		.byte	-43
 3257 0742 FE       		.byte	-2
 3258 0743 FF       		.byte	-1
 3259 0744 14       		.byte	20
 3260 0745 2D       		.byte	45
 3261 0746 81       		.byte	-127
 3262 0747 FC       		.byte	-4
 3263 0748 F0       		.byte	-16
 3264 0749 03       		.byte	3
 3265 074a 06       		.byte	6
 3266 074b CC       		.byte	-52
 3267 074c E3       		.byte	-29
 3268 074d 1E       		.byte	30
 3269 074e DF       		.byte	-33
 3270 074f A2       		.byte	-94
 3271 0750 EF       		.byte	-17
 3272 0751 ED       		.byte	-19
 3273 0752 EB       		.byte	-21
 3274 0753 21       		.byte	33
 3275 0754 06       		.byte	6
 3276 0755 3C       		.byte	60
 3277 0756 3C       		.byte	60
 3278 0757 7F       		.byte	127
 3279 0758 43       		.byte	67
 3280 0759 F7       		.byte	-9
 3281 075a 16       		.byte	22
 3282 075b 01       		.byte	1
 3283 075c 37       		.byte	55
 3284 075d 2C       		.byte	44
 3285 075e 4D       		.byte	77
 3286 075f C4       		.byte	-60
 3287 0760 F9       		.byte	-7
 3288 0761 F5       		.byte	-11
 3289 0762 10       		.byte	16
 3290 0763 2B       		.byte	43
 3291 0764 FB       		.byte	-5
 3292 0765 02       		.byte	2
 3293 0766 D1       		.byte	-47
 3294 0767 0C       		.byte	12
 3295 0768 08       		.byte	8
 3296 0769 99       		.byte	-103
 3297 076a 2B       		.byte	43
 3298 076b FB       		.byte	-5
 3299 076c B4       		.byte	-76
GAS LISTING C:\Users\Jesper\AppData\Local\Temp\ccfkv2jT.s 			page 65


 3300 076d FC       		.byte	-4
 3301 076e E3       		.byte	-29
 3302 076f D5       		.byte	-43
 3303 0770 D4       		.byte	-44
 3304 0771 37       		.byte	55
 3305 0772 CC       		.byte	-52
 3306 0773 04       		.byte	4
 3307 0774 29       		.byte	41
 3308 0775 FA       		.byte	-6
 3309 0776 51       		.byte	81
 3310 0777 16       		.byte	22
 3311 0778 18       		.byte	24
 3312 0779 19       		.byte	25
 3313 077a 03       		.byte	3
 3314 077b 01       		.byte	1
 3315 077c 0A       		.byte	10
 3316 077d E7       		.byte	-25
 3317 077e 44       		.byte	68
 3318 077f BF       		.byte	-65
 3319 0780 01       		.byte	1
 3320 0781 F4       		.byte	-12
 3321 0782 F7       		.byte	-9
 3322 0783 F7       		.byte	-9
 3323 0784 E5       		.byte	-27
 3324 0785 2A       		.byte	42
 3325 0786 6F       		.byte	111
 3326 0787 36       		.byte	54
 3327 0788 1F       		.byte	31
 3328 0789 4C       		.byte	76
 3329 078a 03       		.byte	3
 3330 078b 93       		.byte	-109
 3331 078c DB       		.byte	-37
 3332 078d D8       		.byte	-40
 3333 078e E0       		.byte	-32
 3334 078f 3A       		.byte	58
 3335 0790 18       		.byte	24
 3336 0791 F8       		.byte	-8
 3337 0792 08       		.byte	8
 3338 0793 0E       		.byte	14
 3339 0794 46       		.byte	70
 3340 0795 07       		.byte	7
 3341 0796 E3       		.byte	-29
 3342 0797 CE       		.byte	-50
 3343 0798 E8       		.byte	-24
 3344 0799 58       		.byte	88
 3345 079a 00       		.byte	0
 3346 079b 00       		.byte	0
 3347 079c 38       		.byte	56
 3348 079d 27       		.byte	39
 3349 079e 00       		.byte	0
 3350 079f 00       		.byte	0
 3351 07a0 0C       		.byte	12
 3352 07a1 E2       		.byte	-30
 3353 07a2 FF       		.byte	-1
 3354 07a3 FF       		.byte	-1
 3355 07a4 DC       		.byte	-36
 3356 07a5 6A       		.byte	106
GAS LISTING C:\Users\Jesper\AppData\Local\Temp\ccfkv2jT.s 			page 66


 3357 07a6 FF       		.byte	-1
 3358 07a7 FF       		.byte	-1
 3359 07a8 7E       		.byte	126
 3360 07a9 85       		.byte	-123
 3361 07aa FE       		.byte	-2
 3362 07ab FF       		.byte	-1
 3363 07ac 76       		.byte	118
 3364 07ad 17       		.byte	23
 3365 07ae 00       		.byte	0
 3366 07af 00       		.byte	0
 3367 07b0 EB       		.byte	-21
 3368 07b1 5A       		.byte	90
 3369 07b2 FF       		.byte	-1
 3370 07b3 FF       		.byte	-1
 3371 07b4 46       		.byte	70
 3372 07b5 CB       		.byte	-53
 3373 07b6 FF       		.byte	-1
 3374 07b7 FF       		.byte	-1
 3375 07b8 B6       		.byte	-74
 3376 07b9 80       		.byte	-128
 3377 07ba 00       		.byte	0
 3378 07bb 00       		.byte	0
 3379 07bc 31       		.byte	49
 3380 07bd AF       		.byte	-81
 3381 07be FF       		.byte	-1
 3382 07bf FF       		.byte	-1
 3383 07c0 DB       		.byte	-37
 3384 07c1 36       		.byte	54
 3385 07c2 00       		.byte	0
 3386 07c3 00       		.byte	0
 3387 07c4 F6       		.byte	-10
 3388 07c5 EF       		.byte	-17
 3389 07c6 FF       		.byte	-1
 3390 07c7 FF       		.byte	-1
 3391 07c8 0C       		.byte	12
 3392 07c9 82       		.byte	-126
 3393 07ca FF       		.byte	-1
 3394 07cb FF       		.byte	-1
 3395 07cc 82       		.byte	-126
 3396 07cd E2       		.byte	-30
 3397 07ce FF       		.byte	-1
 3398 07cf FF       		.byte	-1
 3399 07d0 55       		.byte	85
 3400 07d1 12       		.byte	18
 3401 07d2 FF       		.byte	-1
 3402 07d3 FF       		.byte	-1
 3403 07d4 F1       		.byte	-15
 3404 07d5 BF       		.byte	-65
 3405 07d6 00       		.byte	0
 3406 07d7 00       		.byte	0
 3407 07d8 01       		.byte	1
 3408 07d9 00       		.byte	0
 3409 07da 00       		.byte	0
 3410 07db 00       		.byte	0
 3411 07dc 30       		.byte	48
 3412 07dd 00       		.byte	0
 3413 07de 00       		.byte	0
GAS LISTING C:\Users\Jesper\AppData\Local\Temp\ccfkv2jT.s 			page 67


 3414 07df 00       		.byte	0
 3415 07e0 78       		.byte	120
 3416 07e1 05       		.byte	5
 3417 07e2 00       		.byte	0
 3418 07e3 00       		.byte	0
 3419 07e4 00       		.byte	0
 3420 07e5 00       		.byte	0
 3421 07e6 00       		.byte	0
 3422 07e7 00       		.byte	0
 3423 07e8 03       		.byte	3
 3424 07e9 00       		.byte	0
 3425 07ea 02       		.byte	2
 3426 07eb 00       		.byte	0
 3427 07ec 02       		.byte	2
 3428 07ed 00       		.byte	0
 3429 07ee 10       		.byte	16
 3430 07ef 00       		.byte	0
 3431 07f0 01       		.byte	1
 3432 07f1 00       		.byte	0
 3433 07f2 01       		.byte	1
 3434 07f3 00       		.byte	0
 3435 07f4 01       		.byte	1
 3436 07f5 00       		.byte	0
 3437 07f6 10       		.byte	16
 3438 07f7 00       		.byte	0
 3439 07f8 05       		.byte	5
 3440 07f9 09       		.byte	9
 3441 07fa 68       		.byte	104
 3442 07fb 3D       		.byte	61
 3443 07fc 80       		.byte	-128
 3444 07fd FF       		.byte	-1
 3445 07fe FF       		.byte	-1
 3446 07ff FF       		.byte	-1
 3447 0800 21       		.byte	33
 3448 0801 1A       		.byte	26
 3449 0802 B7       		.byte	-73
 3450 0803 3C       		.byte	60
 3451 0804 80       		.byte	-128
 3452 0805 FF       		.byte	-1
 3453 0806 FF       		.byte	-1
 3454 0807 FF       		.byte	-1
 3455 0808 02       		.byte	2
 3456 0809 00       		.byte	0
 3457 080a 00       		.byte	0
 3458 080b 00       		.byte	0
 3459 080c 30       		.byte	48
 3460 080d 01       		.byte	1
 3461 080e 00       		.byte	0
 3462 080f 00       		.byte	0
 3463 0810 00       		.byte	0
 3464 0811 00       		.byte	0
 3465 0812 00       		.byte	0
 3466 0813 00       		.byte	0
 3467 0814 A8       		.byte	-88
 3468 0815 05       		.byte	5
 3469 0816 00       		.byte	0
 3470 0817 00       		.byte	0
GAS LISTING C:\Users\Jesper\AppData\Local\Temp\ccfkv2jT.s 			page 68


 3471 0818 01       		.byte	1
 3472 0819 00       		.byte	0
 3473 081a 01       		.byte	1
 3474 081b 00       		.byte	0
 3475 081c 01       		.byte	1
 3476 081d 00       		.byte	0
 3477 081e 10       		.byte	16
 3478 081f 00       		.byte	0
 3479 0820 01       		.byte	1
 3480 0821 00       		.byte	0
 3481 0822 01       		.byte	1
 3482 0823 00       		.byte	0
 3483 0824 01       		.byte	1
 3484 0825 00       		.byte	0
 3485 0826 0A       		.byte	10
 3486 0827 00       		.byte	0
 3487 0828 21       		.byte	33
 3488 0829 1A       		.byte	26
 3489 082a B7       		.byte	-73
 3490 082b 3C       		.byte	60
 3491 082c 80       		.byte	-128
 3492 082d FF       		.byte	-1
 3493 082e FF       		.byte	-1
 3494 082f FF       		.byte	-1
 3495 0830 FD       		.byte	-3
 3496 0831 06       		.byte	6
 3497 0832 1B       		.byte	27
 3498 0833 3E       		.byte	62
 3499 0834 2A       		.byte	42
 3500 0835 00       		.byte	0
 3501 0836 00       		.byte	0
 3502 0837 00       		.byte	0
 3503 0838 40       		.byte	64
 3504 0839 00       		.byte	0
 3505 083a 00       		.byte	0
 3506 083b 00       		.byte	0
 3507 083c 68       		.byte	104
 3508 083d 00       		.byte	0
 3509 083e 00       		.byte	0
 3510 083f 00       		.byte	0
 3511 0840 08       		.byte	8
 3512 0841 01       		.byte	1
 3513 0842 00       		.byte	0
 3514 0843 00       		.byte	0
 3515 0844 00       		.byte	0
 3516 0845 00       		.byte	0
 3517 0846 00       		.byte	0
 3518 0847 00       		.byte	0
 3519 0848 E9       		.byte	-23
 3520 0849 E2       		.byte	-30
 3521 084a AF       		.byte	-81
 3522 084b 3C       		.byte	60
 3523 084c 00       		.byte	0
 3524 084d 00       		.byte	0
 3525 084e 00       		.byte	0
 3526 084f 00       		.byte	0
 3527 0850 00       		.byte	0
GAS LISTING C:\Users\Jesper\AppData\Local\Temp\ccfkv2jT.s 			page 69


 3528 0851 00       		.byte	0
 3529 0852 00       		.byte	0
 3530 0853 00       		.byte	0
 3531 0854 00       		.byte	0
 3532 0855 00       		.byte	0
 3533 0856 00       		.byte	0
 3534 0857 00       		.byte	0
 3535 0858 00       		.byte	0
 3536 0859 00       		.byte	0
 3537 085a 00       		.byte	0
 3538 085b 00       		.byte	0
 3539 085c 00       		.byte	0
 3540 085d 00       		.byte	0
 3541 085e 00       		.byte	0
 3542 085f 00       		.byte	0
 3543 0860 00       		.byte	0
 3544 0861 00       		.byte	0
 3545 0862 00       		.byte	0
 3546 0863 00       		.byte	0
 3547 0864 00       		.byte	0
 3548 0865 00       		.byte	0
 3549 0866 00       		.byte	0
 3550 0867 00       		.byte	0
 3551 0868 00       		.byte	0
 3552 0869 00       		.byte	0
 3553 086a 00       		.byte	0
 3554 086b 00       		.byte	0
 3555 086c 00       		.byte	0
 3556 086d 00       		.byte	0
 3557 086e 00       		.byte	0
 3558 086f 00       		.byte	0
 3559 0870 2A       		.byte	42
 3560 0871 E2       		.byte	-30
 3561 0872 29       		.byte	41
 3562 0873 BF       		.byte	-65
 3563 0874 0B       		.byte	11
 3564 0875 DD       		.byte	-35
 3565 0876 09       		.byte	9
 3566 0877 FA       		.byte	-6
 3567 0878 42       		.byte	66
 3568 0879 B1       		.byte	-79
 3569 087a F9       		.byte	-7
 3570 087b C2       		.byte	-62
 3571 087c 46       		.byte	70
 3572 087d D2       		.byte	-46
 3573 087e 0F       		.byte	15
 3574 087f B5       		.byte	-75
 3575 0880 34       		.byte	52
 3576 0881 EA       		.byte	-22
 3577 0882 B3       		.byte	-77
 3578 0883 17       		.byte	23
 3579 0884 DB       		.byte	-37
 3580 0885 FB       		.byte	-5
 3581 0886 BC       		.byte	-68
 3582 0887 0F       		.byte	15
 3583 0888 24       		.byte	36
 3584 0889 DF       		.byte	-33
GAS LISTING C:\Users\Jesper\AppData\Local\Temp\ccfkv2jT.s 			page 70


 3585 088a CE       		.byte	-50
 3586 088b F9       		.byte	-7
 3587 088c 1C       		.byte	28
 3588 088d E0       		.byte	-32
 3589 088e BB       		.byte	-69
 3590 088f 38       		.byte	56
 3591 0890 B7       		.byte	-73
 3592 0891 E2       		.byte	-30
 3593 0892 28       		.byte	40
 3594 0893 0C       		.byte	12
 3595 0894 04       		.byte	4
 3596 0895 93       		.byte	-109
 3597 0896 39       		.byte	57
 3598 0897 E3       		.byte	-29
 3599 0898 F5       		.byte	-11
 3600 0899 EE       		.byte	-18
 3601 089a 3C       		.byte	60
 3602 089b C6       		.byte	-58
 3603 089c 37       		.byte	55
 3604 089d F6       		.byte	-10
 3605 089e B6       		.byte	-74
 3606 089f 41       		.byte	65
 3607 08a0 CA       		.byte	-54
 3608 08a1 BA       		.byte	-70
 3609 08a2 D7       		.byte	-41
 3610 08a3 ED       		.byte	-19
 3611 08a4 C3       		.byte	-61
 3612 08a5 FD       		.byte	-3
 3613 08a6 3A       		.byte	58
 3614 08a7 0D       		.byte	13
 3615 08a8 D2       		.byte	-46
 3616 08a9 1D       		.byte	29
 3617 08aa 07       		.byte	7
 3618 08ab A9       		.byte	-87
 3619 08ac E9       		.byte	-23
 3620 08ad 06       		.byte	6
 3621 08ae 53       		.byte	83
 3622 08af 25       		.byte	37
 3623 08b0 25       		.byte	37
 3624 08b1 D7       		.byte	-41
 3625 08b2 1A       		.byte	26
 3626 08b3 31       		.byte	49
 3627 08b4 F0       		.byte	-16
 3628 08b5 0E       		.byte	14
 3629 08b6 81       		.byte	-127
 3630 08b7 19       		.byte	25
 3631 08b8 EF       		.byte	-17
 3632 08b9 C0       		.byte	-64
 3633 08ba 0A       		.byte	10
 3634 08bb 2D       		.byte	45
 3635 08bc B5       		.byte	-75
 3636 08bd 33       		.byte	51
 3637 08be FB       		.byte	-5
 3638 08bf E6       		.byte	-26
 3639 08c0 DC       		.byte	-36
 3640 08c1 1D       		.byte	29
 3641 08c2 03       		.byte	3
GAS LISTING C:\Users\Jesper\AppData\Local\Temp\ccfkv2jT.s 			page 71


 3642 08c3 83       		.byte	-125
 3643 08c4 E2       		.byte	-30
 3644 08c5 48       		.byte	72
 3645 08c6 D9       		.byte	-39
 3646 08c7 28       		.byte	40
 3647 08c8 23       		.byte	35
 3648 08c9 31       		.byte	49
 3649 08ca 34       		.byte	52
 3650 08cb E6       		.byte	-26
 3651 08cc EB       		.byte	-21
 3652 08cd DB       		.byte	-37
 3653 08ce DD       		.byte	-35
 3654 08cf DC       		.byte	-36
 3655 08d0 E7       		.byte	-25
 3656 08d1 4E       		.byte	78
 3657 08d2 C0       		.byte	-64
 3658 08d3 CF       		.byte	-49
 3659 08d4 25       		.byte	37
 3660 08d5 3C       		.byte	60
 3661 08d6 98       		.byte	-104
 3662 08d7 B5       		.byte	-75
 3663 08d8 EC       		.byte	-20
 3664 08d9 CC       		.byte	-52
 3665 08da 36       		.byte	54
 3666 08db C3       		.byte	-61
 3667 08dc 3C       		.byte	60
 3668 08dd 08       		.byte	8
 3669 08de F2       		.byte	-14
 3670 08df E3       		.byte	-29
 3671 08e0 0D       		.byte	13
 3672 08e1 F7       		.byte	-9
 3673 08e2 41       		.byte	65
 3674 08e3 44       		.byte	68
 3675 08e4 90       		.byte	-112
 3676 08e5 1F       		.byte	31
 3677 08e6 22       		.byte	34
 3678 08e7 07       		.byte	7
 3679 08e8 CB       		.byte	-53
 3680 08e9 0B       		.byte	11
 3681 08ea B8       		.byte	-72
 3682 08eb 09       		.byte	9
 3683 08ec FE       		.byte	-2
 3684 08ed C8       		.byte	-56
 3685 08ee BF       		.byte	-65
 3686 08ef 0B       		.byte	11
 3687 08f0 BD       		.byte	-67
 3688 08f1 F5       		.byte	-11
 3689 08f2 06       		.byte	6
 3690 08f3 D2       		.byte	-46
 3691 08f4 4D       		.byte	77
 3692 08f5 CC       		.byte	-52
 3693 08f6 07       		.byte	7
 3694 08f7 DF       		.byte	-33
 3695 08f8 1F       		.byte	31
 3696 08f9 FB       		.byte	-5
 3697 08fa F9       		.byte	-7
 3698 08fb 2F       		.byte	47
GAS LISTING C:\Users\Jesper\AppData\Local\Temp\ccfkv2jT.s 			page 72


 3699 08fc E6       		.byte	-26
 3700 08fd A2       		.byte	-94
 3701 08fe 26       		.byte	38
 3702 08ff 00       		.byte	0
 3703 0900 F0       		.byte	-16
 3704 0901 36       		.byte	54
 3705 0902 FC       		.byte	-4
 3706 0903 E9       		.byte	-23
 3707 0904 F3       		.byte	-13
 3708 0905 EB       		.byte	-21
 3709 0906 0E       		.byte	14
 3710 0907 B0       		.byte	-80
 3711 0908 BD       		.byte	-67
 3712 0909 3F       		.byte	63
 3713 090a C6       		.byte	-58
 3714 090b 1C       		.byte	28
 3715 090c CA       		.byte	-54
 3716 090d 4D       		.byte	77
 3717 090e 02       		.byte	2
 3718 090f F4       		.byte	-12
 3719 0910 BC       		.byte	-68
 3720 0911 B2       		.byte	-78
 3721 0912 FF       		.byte	-1
 3722 0913 FF       		.byte	-1
 3723 0914 1A       		.byte	26
 3724 0915 A5       		.byte	-91
 3725 0916 FF       		.byte	-1
 3726 0917 FF       		.byte	-1
 3727 0918 C5       		.byte	-59
 3728 0919 C3       		.byte	-61
 3729 091a FF       		.byte	-1
 3730 091b FF       		.byte	-1
 3731 091c 1C       		.byte	28
 3732 091d AA       		.byte	-86
 3733 091e FF       		.byte	-1
 3734 091f FF       		.byte	-1
 3735 0920 44       		.byte	68
 3736 0921 C4       		.byte	-60
 3737 0922 FF       		.byte	-1
 3738 0923 FF       		.byte	-1
 3739 0924 64       		.byte	100
 3740 0925 CC       		.byte	-52
 3741 0926 FF       		.byte	-1
 3742 0927 FF       		.byte	-1
 3743 0928 FB       		.byte	-5
 3744 0929 9C       		.byte	-100
 3745 092a FF       		.byte	-1
 3746 092b FF       		.byte	-1
 3747 092c 62       		.byte	98
 3748 092d C3       		.byte	-61
 3749 092e FF       		.byte	-1
 3750 092f FF       		.byte	-1
 3751 0930 97       		.byte	-105
 3752 0931 BD       		.byte	-67
 3753 0932 FF       		.byte	-1
 3754 0933 FF       		.byte	-1
 3755 0934 E6       		.byte	-26
GAS LISTING C:\Users\Jesper\AppData\Local\Temp\ccfkv2jT.s 			page 73


 3756 0935 C9       		.byte	-55
 3757 0936 FF       		.byte	-1
 3758 0937 FF       		.byte	-1
 3759 0938 03       		.byte	3
 3760 0939 00       		.byte	0
 3761 093a 01       		.byte	1
 3762 093b 00       		.byte	0
 3763 093c 30       		.byte	48
 3764 093d 00       		.byte	0
 3765 093e 00       		.byte	0
 3766 093f 00       		.byte	0
 3767 0940 A8       		.byte	-88
 3768 0941 05       		.byte	5
 3769 0942 00       		.byte	0
 3770 0943 00       		.byte	0
 3771 0944 00       		.byte	0
 3772 0945 00       		.byte	0
 3773 0946 00       		.byte	0
 3774 0947 00       		.byte	0
 3775 0948 01       		.byte	1
 3776 0949 00       		.byte	0
 3777 094a 01       		.byte	1
 3778 094b 00       		.byte	0
 3779 094c 01       		.byte	1
 3780 094d 00       		.byte	0
 3781 094e 0A       		.byte	10
 3782 094f 00       		.byte	0
 3783 0950 01       		.byte	1
 3784 0951 00       		.byte	0
 3785 0952 01       		.byte	1
 3786 0953 00       		.byte	0
 3787 0954 01       		.byte	1
 3788 0955 00       		.byte	0
 3789 0956 0A       		.byte	10
 3790 0957 00       		.byte	0
 3791 0958 FD       		.byte	-3
 3792 0959 06       		.byte	6
 3793 095a 1B       		.byte	27
 3794 095b 3E       		.byte	62
 3795 095c 2A       		.byte	42
 3796 095d 00       		.byte	0
 3797 095e 00       		.byte	0
 3798 095f 00       		.byte	0
 3799 0960 00       		.byte	0
 3800 0961 00       		.byte	0
 3801 0962 80       		.byte	-128
 3802 0963 3B       		.byte	59
 3803 0964 80       		.byte	-128
 3804 0965 FF       		.byte	-1
 3805 0966 FF       		.byte	-1
 3806 0967 FF       		.byte	-1
 3807              		.text
 3808              	.Letext0:
 3809              		.file 2 "c:\\users\\jesper\\documents\\ml_sommarjobb\\toolchain-gd32v-v201-win\\toolchain-gd32v-v2
 3810              		.file 3 "c:\\users\\jesper\\documents\\ml_sommarjobb\\toolchain-gd32v-v201-win\\toolchain-gd32v-v2
 3811              		.file 4 "c:\\users\\jesper\\documents\\ml_sommarjobb\\toolchain-gd32v-v201-win\\toolchain-gd32v-v2
 3812              		.file 5 "c:\\users\\jesper\\documents\\ml_sommarjobb\\toolchain-gd32v-v201-win\\toolchain-gd32v-v2
GAS LISTING C:\Users\Jesper\AppData\Local\Temp\ccfkv2jT.s 			page 74


 3813              		.file 6 "c:\\users\\jesper\\documents\\ml_sommarjobb\\toolchain-gd32v-v201-win\\toolchain-gd32v-v2
 3814              		.file 7 "c:\\users\\jesper\\documents\\ml_sommarjobb\\toolchain-gd32v-v201-win\\toolchain-gd32v-v2
 3815              		.file 8 "./../../firmware/GD32VF103_standard_peripheral/system_gd32vf103.h"
 3816              		.file 9 "c:\\users\\jesper\\documents\\ml_sommarjobb\\toolchain-gd32v-v201-win\\toolchain-gd32v-v2
 3817              		.file 10 "c:\\users\\jesper\\documents\\ml_sommarjobb\\toolchain-gd32v-v201-win\\toolchain-gd32v-v
 3818              		.file 11 "lib/tinymaix/include/tinymaix.h"
 3819              		.file 12 "./../../firmware/GD32VF103_standard_peripheral/Include/gd32vf103_rcu.h"
 3820              		.file 13 "lib/usbcdc/include/drv_usb_regs.h"
 3821              		.file 14 "lib/usbcdc/include/usb_ch9_std.h"
 3822              		.file 15 "lib/usbcdc/include/drv_usb_core.h"
 3823              		.file 16 "lib/usbcdc/include/drv_usb_dev.h"
 3824              		.file 17 "lib/usbcdc/include/cdc_acm_core.h"
 3825              		.file 18 "lib/usbcdc/include/usb_serial_if.h"
 3826              		.file 19 "lib/mnist/include/mnist_valid_q.h"
 3827              		.file 20 "c:\\users\\jesper\\documents\\ml_sommarjobb\\toolchain-gd32v-v201-win\\toolchain-gd32v-v
 3828              		.file 21 "lib/usbcdc/include/usb_delay.h"
 3829              		.file 22 "lib/tinymaix/include/get_time.h"
 3830              		.file 23 "<built-in>"
 3831              		.file 24 "./../../firmware/GD32VF103_standard_peripheral/Include/gd32vf103_gpio.h"
GAS LISTING C:\Users\Jesper\AppData\Local\Temp\ccfkv2jT.s 			page 75


DEFINED SYMBOLS
                            *ABS*:0000000000000000 main.c
C:\Users\Jesper\AppData\Local\Temp\ccfkv2jT.s:1398   .rodata.mdl_data:0000000000000000 mdl_data
C:\Users\Jesper\AppData\Local\Temp\ccfkv2jT.s:636    .data.mnist_pic:0000000000000000 mnist_pic
C:\Users\Jesper\AppData\Local\Temp\ccfkv2jT.s:14     .text.layer_cb:0000000000000000 layer_cb
C:\Users\Jesper\AppData\Local\Temp\ccfkv2jT.s:18     .text.layer_cb:0000000000000000 .L0 
C:\Users\Jesper\AppData\Local\Temp\ccfkv2jT.s:20     .text.layer_cb:0000000000000000 .L0 
C:\Users\Jesper\AppData\Local\Temp\ccfkv2jT.s:21     .text.layer_cb:0000000000000000 .L0 
C:\Users\Jesper\AppData\Local\Temp\ccfkv2jT.s:22     .text.layer_cb:0000000000000000 .L0 
C:\Users\Jesper\AppData\Local\Temp\ccfkv2jT.s:23     .text.layer_cb:0000000000000000 .L0 
C:\Users\Jesper\AppData\Local\Temp\ccfkv2jT.s:24     .text.layer_cb:0000000000000000 .L0 
C:\Users\Jesper\AppData\Local\Temp\ccfkv2jT.s:25     .text.layer_cb:0000000000000000 .L0 
C:\Users\Jesper\AppData\Local\Temp\ccfkv2jT.s:26     .text.layer_cb:0000000000000000 .L0 
C:\Users\Jesper\AppData\Local\Temp\ccfkv2jT.s:29     .text.layer_cb:0000000000000004 .L0 
C:\Users\Jesper\AppData\Local\Temp\ccfkv2jT.s:43     .text.parse_output:0000000000000000 parse_output
C:\Users\Jesper\AppData\Local\Temp\ccfkv2jT.s:46     .text.parse_output:0000000000000000 .L0 
C:\Users\Jesper\AppData\Local\Temp\ccfkv2jT.s:48     .text.parse_output:0000000000000000 .L0 
C:\Users\Jesper\AppData\Local\Temp\ccfkv2jT.s:49     .text.parse_output:0000000000000000 .L0 
C:\Users\Jesper\AppData\Local\Temp\ccfkv2jT.s:50     .text.parse_output:0000000000000000 .L0 
C:\Users\Jesper\AppData\Local\Temp\ccfkv2jT.s:51     .text.parse_output:0000000000000000 .L0 
C:\Users\Jesper\AppData\Local\Temp\ccfkv2jT.s:52     .text.parse_output:0000000000000000 .L0 
C:\Users\Jesper\AppData\Local\Temp\ccfkv2jT.s:54     .text.parse_output:0000000000000000 .L0 
C:\Users\Jesper\AppData\Local\Temp\ccfkv2jT.s:56     .text.parse_output:0000000000000000 .L0 
C:\Users\Jesper\AppData\Local\Temp\ccfkv2jT.s:57     .text.parse_output:0000000000000000 .L0 
C:\Users\Jesper\AppData\Local\Temp\ccfkv2jT.s:59     .text.parse_output:0000000000000002 .L0 
C:\Users\Jesper\AppData\Local\Temp\ccfkv2jT.s:62     .text.parse_output:0000000000000004 .L0 
C:\Users\Jesper\AppData\Local\Temp\ccfkv2jT.s:65     .text.parse_output:0000000000000004 .L0 
C:\Users\Jesper\AppData\Local\Temp\ccfkv2jT.s:69     .text.parse_output:000000000000000c .L0 
C:\Users\Jesper\AppData\Local\Temp\ccfkv2jT.s:71     .text.parse_output:0000000000000010 .L0 
C:\Users\Jesper\AppData\Local\Temp\ccfkv2jT.s:72     .text.parse_output:0000000000000010 .L0 
C:\Users\Jesper\AppData\Local\Temp\ccfkv2jT.s:76     .text.parse_output:0000000000000014 .L0 
C:\Users\Jesper\AppData\Local\Temp\ccfkv2jT.s:79     .text.parse_output:0000000000000018 .L0 
C:\Users\Jesper\AppData\Local\Temp\ccfkv2jT.s:86     .text.parse_output:0000000000000026 .L0 
C:\Users\Jesper\AppData\Local\Temp\ccfkv2jT.s:87     .text.parse_output:0000000000000026 .L0 
C:\Users\Jesper\AppData\Local\Temp\ccfkv2jT.s:88     .text.parse_output:0000000000000026 .L0 
C:\Users\Jesper\AppData\Local\Temp\ccfkv2jT.s:89     .text.parse_output:0000000000000026 .L0 
C:\Users\Jesper\AppData\Local\Temp\ccfkv2jT.s:90     .text.parse_output:0000000000000026 .L0 
C:\Users\Jesper\AppData\Local\Temp\ccfkv2jT.s:91     .text.parse_output:0000000000000026 .L0 
C:\Users\Jesper\AppData\Local\Temp\ccfkv2jT.s:92     .text.parse_output:0000000000000026 .L0 
C:\Users\Jesper\AppData\Local\Temp\ccfkv2jT.s:95     .text.parse_output:0000000000000026 .L0 
C:\Users\Jesper\AppData\Local\Temp\ccfkv2jT.s:98     .text.parse_output:0000000000000028 .L0 
C:\Users\Jesper\AppData\Local\Temp\ccfkv2jT.s:100    .text.parse_output:000000000000002a .L0 
C:\Users\Jesper\AppData\Local\Temp\ccfkv2jT.s:103    .text.parse_output:000000000000002e .L0 
C:\Users\Jesper\AppData\Local\Temp\ccfkv2jT.s:105    .text.parse_output:0000000000000032 .L0 
C:\Users\Jesper\AppData\Local\Temp\ccfkv2jT.s:109    .text.parse_output:0000000000000034 .L0 
C:\Users\Jesper\AppData\Local\Temp\ccfkv2jT.s:110    .text.parse_output:0000000000000034 .L0 
C:\Users\Jesper\AppData\Local\Temp\ccfkv2jT.s:112    .text.parse_output:0000000000000038 .L0 
C:\Users\Jesper\AppData\Local\Temp\ccfkv2jT.s:117    .text.parse_output:0000000000000044 .L0 
C:\Users\Jesper\AppData\Local\Temp\ccfkv2jT.s:124    .text.parse_output:0000000000000058 .L0 
C:\Users\Jesper\AppData\Local\Temp\ccfkv2jT.s:128    .text.parse_output:0000000000000062 .L0 
C:\Users\Jesper\AppData\Local\Temp\ccfkv2jT.s:137    .text.parse_output:000000000000007a .L0 
C:\Users\Jesper\AppData\Local\Temp\ccfkv2jT.s:138    .text.parse_output:000000000000007a .L0 
C:\Users\Jesper\AppData\Local\Temp\ccfkv2jT.s:140    .text.parse_output:000000000000007e .L0 
C:\Users\Jesper\AppData\Local\Temp\ccfkv2jT.s:148    .text.parse_output:0000000000000090 .L0 
C:\Users\Jesper\AppData\Local\Temp\ccfkv2jT.s:152    .text.parse_output:0000000000000092 .L0 
C:\Users\Jesper\AppData\Local\Temp\ccfkv2jT.s:156    .text.parse_output:0000000000000096 .L0 
C:\Users\Jesper\AppData\Local\Temp\ccfkv2jT.s:159    .text.parse_output:000000000000009a .L0 
GAS LISTING C:\Users\Jesper\AppData\Local\Temp\ccfkv2jT.s 			page 76


C:\Users\Jesper\AppData\Local\Temp\ccfkv2jT.s:174    .text.parse_output:00000000000000c8 .L0 
C:\Users\Jesper\AppData\Local\Temp\ccfkv2jT.s:175    .text.parse_output:00000000000000c8 .L0 
C:\Users\Jesper\AppData\Local\Temp\ccfkv2jT.s:176    .text.parse_output:00000000000000ca .L0 
C:\Users\Jesper\AppData\Local\Temp\ccfkv2jT.s:178    .text.parse_output:00000000000000cc .L0 
C:\Users\Jesper\AppData\Local\Temp\ccfkv2jT.s:180    .text.parse_output:00000000000000ce .L0 
C:\Users\Jesper\AppData\Local\Temp\ccfkv2jT.s:183    .text.parse_output:00000000000000d0 .L0 
C:\Users\Jesper\AppData\Local\Temp\ccfkv2jT.s:185    .text.parse_output:00000000000000d2 .L0 
C:\Users\Jesper\AppData\Local\Temp\ccfkv2jT.s:188    .text.parse_output:00000000000000d4 .L0 
C:\Users\Jesper\AppData\Local\Temp\ccfkv2jT.s:191    .text.parse_output:00000000000000d6 .L0 
C:\Users\Jesper\AppData\Local\Temp\ccfkv2jT.s:193    .text.parse_output:00000000000000d8 .L0 
C:\Users\Jesper\AppData\Local\Temp\ccfkv2jT.s:195    .text.parse_output:00000000000000da .L0 
C:\Users\Jesper\AppData\Local\Temp\ccfkv2jT.s:197    .text.parse_output:00000000000000dc .L0 
C:\Users\Jesper\AppData\Local\Temp\ccfkv2jT.s:199    .text.parse_output:00000000000000dc .L0 
C:\Users\Jesper\AppData\Local\Temp\ccfkv2jT.s:201    .text.parse_output:00000000000000de .L0 
C:\Users\Jesper\AppData\Local\Temp\ccfkv2jT.s:203    .text.parse_output:00000000000000e0 .L0 
C:\Users\Jesper\AppData\Local\Temp\ccfkv2jT.s:205    .text.parse_output:00000000000000e0 .L0 
C:\Users\Jesper\AppData\Local\Temp\ccfkv2jT.s:207    .text.parse_output:00000000000000e8 .L0 
C:\Users\Jesper\AppData\Local\Temp\ccfkv2jT.s:214    .text.ledInit:0000000000000000 ledInit
C:\Users\Jesper\AppData\Local\Temp\ccfkv2jT.s:217    .text.ledInit:0000000000000000 .L0 
C:\Users\Jesper\AppData\Local\Temp\ccfkv2jT.s:218    .text.ledInit:0000000000000000 .L0 
C:\Users\Jesper\AppData\Local\Temp\ccfkv2jT.s:219    .text.ledInit:0000000000000000 .L0 
C:\Users\Jesper\AppData\Local\Temp\ccfkv2jT.s:220    .text.ledInit:0000000000000000 .L0 
C:\Users\Jesper\AppData\Local\Temp\ccfkv2jT.s:222    .text.ledInit:0000000000000002 .L0 
C:\Users\Jesper\AppData\Local\Temp\ccfkv2jT.s:224    .text.ledInit:0000000000000002 .L0 
C:\Users\Jesper\AppData\Local\Temp\ccfkv2jT.s:226    .text.ledInit:0000000000000006 .L0 
C:\Users\Jesper\AppData\Local\Temp\ccfkv2jT.s:227    .text.ledInit:0000000000000008 .L0 
C:\Users\Jesper\AppData\Local\Temp\ccfkv2jT.s:229    .text.ledInit:0000000000000008 .L0 
C:\Users\Jesper\AppData\Local\Temp\ccfkv2jT.s:232    .text.ledInit:0000000000000010 .L0 
C:\Users\Jesper\AppData\Local\Temp\ccfkv2jT.s:233    .text.ledInit:0000000000000010 .L0 
C:\Users\Jesper\AppData\Local\Temp\ccfkv2jT.s:234    .text.ledInit:0000000000000012 .L0 
C:\Users\Jesper\AppData\Local\Temp\ccfkv2jT.s:236    .text.ledInit:0000000000000012 .L0 
C:\Users\Jesper\AppData\Local\Temp\ccfkv2jT.s:238    .text.ledInit:0000000000000016 .L0 
C:\Users\Jesper\AppData\Local\Temp\ccfkv2jT.s:239    .text.ledInit:0000000000000016 .L0 
C:\Users\Jesper\AppData\Local\Temp\ccfkv2jT.s:244    .text.ledInit:0000000000000020 .L0 
C:\Users\Jesper\AppData\Local\Temp\ccfkv2jT.s:246    .text.ledInit:0000000000000022 .L0 
C:\Users\Jesper\AppData\Local\Temp\ccfkv2jT.s:248    .text.ledInit:0000000000000022 .L0 
C:\Users\Jesper\AppData\Local\Temp\ccfkv2jT.s:250    .text.ledInit:000000000000002a .L0 
C:\Users\Jesper\AppData\Local\Temp\ccfkv2jT.s:257    .text.ledOnOff:0000000000000000 ledOnOff
C:\Users\Jesper\AppData\Local\Temp\ccfkv2jT.s:260    .text.ledOnOff:0000000000000000 .L0 
C:\Users\Jesper\AppData\Local\Temp\ccfkv2jT.s:262    .text.ledOnOff:0000000000000000 .L0 
C:\Users\Jesper\AppData\Local\Temp\ccfkv2jT.s:263    .text.ledOnOff:0000000000000000 .L0 
C:\Users\Jesper\AppData\Local\Temp\ccfkv2jT.s:270    .text.ledOnOff:0000000000000014 .L0 
C:\Users\Jesper\AppData\Local\Temp\ccfkv2jT.s:279    .text.startup.main:0000000000000000 main
C:\Users\Jesper\AppData\Local\Temp\ccfkv2jT.s:282    .text.startup.main:0000000000000000 .L0 
C:\Users\Jesper\AppData\Local\Temp\ccfkv2jT.s:284    .text.startup.main:0000000000000000 .L0 
C:\Users\Jesper\AppData\Local\Temp\ccfkv2jT.s:285    .text.startup.main:0000000000000000 .L0 
C:\Users\Jesper\AppData\Local\Temp\ccfkv2jT.s:286    .text.startup.main:0000000000000000 .L0 
C:\Users\Jesper\AppData\Local\Temp\ccfkv2jT.s:287    .text.startup.main:0000000000000000 .L0 
C:\Users\Jesper\AppData\Local\Temp\ccfkv2jT.s:288    .text.startup.main:0000000000000000 .L0 
C:\Users\Jesper\AppData\Local\Temp\ccfkv2jT.s:289    .text.startup.main:0000000000000000 .L0 
C:\Users\Jesper\AppData\Local\Temp\ccfkv2jT.s:291    .text.startup.main:0000000000000002 .L0 
C:\Users\Jesper\AppData\Local\Temp\ccfkv2jT.s:301    .text.startup.main:0000000000000014 .L0 
C:\Users\Jesper\AppData\Local\Temp\ccfkv2jT.s:302    .text.startup.main:0000000000000014 .L0 
C:\Users\Jesper\AppData\Local\Temp\ccfkv2jT.s:303    .text.startup.main:0000000000000014 .L0 
C:\Users\Jesper\AppData\Local\Temp\ccfkv2jT.s:304    .text.startup.main:0000000000000014 .L0 
C:\Users\Jesper\AppData\Local\Temp\ccfkv2jT.s:305    .text.startup.main:0000000000000014 .L0 
C:\Users\Jesper\AppData\Local\Temp\ccfkv2jT.s:306    .text.startup.main:0000000000000014 .L0 
GAS LISTING C:\Users\Jesper\AppData\Local\Temp\ccfkv2jT.s 			page 77


C:\Users\Jesper\AppData\Local\Temp\ccfkv2jT.s:307    .text.startup.main:0000000000000014 .L0 
C:\Users\Jesper\AppData\Local\Temp\ccfkv2jT.s:308    .text.startup.main:0000000000000014 .L0 
C:\Users\Jesper\AppData\Local\Temp\ccfkv2jT.s:309    .text.startup.main:0000000000000014 .L0 
C:\Users\Jesper\AppData\Local\Temp\ccfkv2jT.s:311    .text.startup.main:0000000000000014 .L0 
C:\Users\Jesper\AppData\Local\Temp\ccfkv2jT.s:314    .text.startup.main:000000000000001c .L0 
C:\Users\Jesper\AppData\Local\Temp\ccfkv2jT.s:319    .text.startup.main:0000000000000026 .L0 
C:\Users\Jesper\AppData\Local\Temp\ccfkv2jT.s:320    .text.startup.main:0000000000000026 .L0 
C:\Users\Jesper\AppData\Local\Temp\ccfkv2jT.s:323    .text.startup.main:000000000000002e .L0 
C:\Users\Jesper\AppData\Local\Temp\ccfkv2jT.s:325    .text.startup.main:0000000000000032 .L0 
C:\Users\Jesper\AppData\Local\Temp\ccfkv2jT.s:326    .text.startup.main:0000000000000032 .L0 
C:\Users\Jesper\AppData\Local\Temp\ccfkv2jT.s:327    .text.startup.main:0000000000000032 .L0 
C:\Users\Jesper\AppData\Local\Temp\ccfkv2jT.s:330    .text.startup.main:000000000000003a .L0 
C:\Users\Jesper\AppData\Local\Temp\ccfkv2jT.s:331    .text.startup.main:000000000000003a .L0 
C:\Users\Jesper\AppData\Local\Temp\ccfkv2jT.s:337    .text.startup.main:000000000000004e .L0 
C:\Users\Jesper\AppData\Local\Temp\ccfkv2jT.s:340    .text.startup.main:0000000000000050 .L0 
C:\Users\Jesper\AppData\Local\Temp\ccfkv2jT.s:343    .text.startup.main:0000000000000054 .L0 
C:\Users\Jesper\AppData\Local\Temp\ccfkv2jT.s:346    .text.startup.main:000000000000005c .L0 
C:\Users\Jesper\AppData\Local\Temp\ccfkv2jT.s:347    .text.startup.main:000000000000005c .L0 
C:\Users\Jesper\AppData\Local\Temp\ccfkv2jT.s:349    .text.startup.main:000000000000005c .L0 
C:\Users\Jesper\AppData\Local\Temp\ccfkv2jT.s:350    .text.startup.main:000000000000005c .L0 
C:\Users\Jesper\AppData\Local\Temp\ccfkv2jT.s:351    .text.startup.main:000000000000005c .L0 
C:\Users\Jesper\AppData\Local\Temp\ccfkv2jT.s:354    .text.startup.main:0000000000000062 .L0 
C:\Users\Jesper\AppData\Local\Temp\ccfkv2jT.s:357    .text.startup.main:000000000000006a .L0 
C:\Users\Jesper\AppData\Local\Temp\ccfkv2jT.s:359    .text.startup.main:000000000000006c .L0 
C:\Users\Jesper\AppData\Local\Temp\ccfkv2jT.s:361    .text.startup.main:000000000000006e .L0 
C:\Users\Jesper\AppData\Local\Temp\ccfkv2jT.s:363    .text.startup.main:0000000000000072 .L0 
C:\Users\Jesper\AppData\Local\Temp\ccfkv2jT.s:367    .text.startup.main:0000000000000076 .L0 
C:\Users\Jesper\AppData\Local\Temp\ccfkv2jT.s:373    .text.startup.main:000000000000008a .L0 
C:\Users\Jesper\AppData\Local\Temp\ccfkv2jT.s:377    .text.startup.main:0000000000000094 .L0 
C:\Users\Jesper\AppData\Local\Temp\ccfkv2jT.s:378    .text.startup.main:0000000000000094 .L0 
C:\Users\Jesper\AppData\Local\Temp\ccfkv2jT.s:379    .text.startup.main:0000000000000094 .L0 
C:\Users\Jesper\AppData\Local\Temp\ccfkv2jT.s:381    .text.startup.main:0000000000000098 .L0 
C:\Users\Jesper\AppData\Local\Temp\ccfkv2jT.s:383    .text.startup.main:000000000000009c .L0 
C:\Users\Jesper\AppData\Local\Temp\ccfkv2jT.s:388    .text.startup.main:00000000000000a8 .L0 
C:\Users\Jesper\AppData\Local\Temp\ccfkv2jT.s:390    .text.startup.main:00000000000000aa .L0 
C:\Users\Jesper\AppData\Local\Temp\ccfkv2jT.s:393    .text.startup.main:00000000000000ac .L0 
C:\Users\Jesper\AppData\Local\Temp\ccfkv2jT.s:396    .text.startup.main:00000000000000b4 .L0 
C:\Users\Jesper\AppData\Local\Temp\ccfkv2jT.s:397    .text.startup.main:00000000000000b4 .L0 
C:\Users\Jesper\AppData\Local\Temp\ccfkv2jT.s:400    .text.startup.main:00000000000000b8 .L0 
C:\Users\Jesper\AppData\Local\Temp\ccfkv2jT.s:401    .text.startup.main:00000000000000b8 .L0 
C:\Users\Jesper\AppData\Local\Temp\ccfkv2jT.s:407    .text.startup.main:00000000000000c8 .L0 
C:\Users\Jesper\AppData\Local\Temp\ccfkv2jT.s:408    .text.startup.main:00000000000000c8 .L0 
C:\Users\Jesper\AppData\Local\Temp\ccfkv2jT.s:414    .text.startup.main:00000000000000d8 .L0 
C:\Users\Jesper\AppData\Local\Temp\ccfkv2jT.s:415    .text.startup.main:00000000000000d8 .L0 
C:\Users\Jesper\AppData\Local\Temp\ccfkv2jT.s:416    .text.startup.main:00000000000000d8 .L0 
C:\Users\Jesper\AppData\Local\Temp\ccfkv2jT.s:422    .text.startup.main:00000000000000e8 .L0 
C:\Users\Jesper\AppData\Local\Temp\ccfkv2jT.s:423    .text.startup.main:00000000000000e8 .L0 
C:\Users\Jesper\AppData\Local\Temp\ccfkv2jT.s:434    .text.startup.main:0000000000000104 .L0 
C:\Users\Jesper\AppData\Local\Temp\ccfkv2jT.s:435    .text.startup.main:0000000000000104 .L0 
C:\Users\Jesper\AppData\Local\Temp\ccfkv2jT.s:437    .text.startup.main:0000000000000106 .L0 
C:\Users\Jesper\AppData\Local\Temp\ccfkv2jT.s:442    .text.startup.main:0000000000000112 .L0 
C:\Users\Jesper\AppData\Local\Temp\ccfkv2jT.s:446    .text.startup.main:000000000000011c .L0 
C:\Users\Jesper\AppData\Local\Temp\ccfkv2jT.s:447    .text.startup.main:000000000000011c .L0 
C:\Users\Jesper\AppData\Local\Temp\ccfkv2jT.s:448    .text.startup.main:000000000000011c .L0 
C:\Users\Jesper\AppData\Local\Temp\ccfkv2jT.s:451    .text.startup.main:000000000000011e .L0 
C:\Users\Jesper\AppData\Local\Temp\ccfkv2jT.s:452    .text.startup.main:0000000000000120 .L0 
C:\Users\Jesper\AppData\Local\Temp\ccfkv2jT.s:453    .text.startup.main:0000000000000120 .L0 
GAS LISTING C:\Users\Jesper\AppData\Local\Temp\ccfkv2jT.s 			page 78


C:\Users\Jesper\AppData\Local\Temp\ccfkv2jT.s:455    .text.startup.main:0000000000000122 .L0 
C:\Users\Jesper\AppData\Local\Temp\ccfkv2jT.s:457    .text.startup.main:0000000000000124 .L0 
C:\Users\Jesper\AppData\Local\Temp\ccfkv2jT.s:459    .text.startup.main:0000000000000126 .L0 
C:\Users\Jesper\AppData\Local\Temp\ccfkv2jT.s:461    .text.startup.main:0000000000000128 .L0 
C:\Users\Jesper\AppData\Local\Temp\ccfkv2jT.s:463    .text.startup.main:000000000000012a .L0 
C:\Users\Jesper\AppData\Local\Temp\ccfkv2jT.s:465    .text.startup.main:000000000000012c .L0 
C:\Users\Jesper\AppData\Local\Temp\ccfkv2jT.s:467    .text.startup.main:000000000000012e .L0 
C:\Users\Jesper\AppData\Local\Temp\ccfkv2jT.s:469    .text.startup.main:0000000000000130 .L0 
C:\Users\Jesper\AppData\Local\Temp\ccfkv2jT.s:472    .text.startup.main:0000000000000132 .L0 
C:\Users\Jesper\AppData\Local\Temp\ccfkv2jT.s:476    .text.startup.main:0000000000000134 .L0 
C:\Users\Jesper\AppData\Local\Temp\ccfkv2jT.s:478    .text.startup.main:0000000000000134 .L0 
C:\Users\Jesper\AppData\Local\Temp\ccfkv2jT.s:485    .text.startup.main:0000000000000142 .L0 
C:\Users\Jesper\AppData\Local\Temp\ccfkv2jT.s:486    .text.startup.main:0000000000000142 .L0 
C:\Users\Jesper\AppData\Local\Temp\ccfkv2jT.s:494    .text.startup.main:0000000000000152 .L0 
C:\Users\Jesper\AppData\Local\Temp\ccfkv2jT.s:497    .text.startup.main:000000000000015a .L0 
C:\Users\Jesper\AppData\Local\Temp\ccfkv2jT.s:500    .text.startup.main:000000000000015e .L0 
C:\Users\Jesper\AppData\Local\Temp\ccfkv2jT.s:503    .text.startup.main:0000000000000160 .L0 
C:\Users\Jesper\AppData\Local\Temp\ccfkv2jT.s:504    .text.startup.main:0000000000000160 .L0 
C:\Users\Jesper\AppData\Local\Temp\ccfkv2jT.s:505    .text.startup.main:0000000000000160 .L0 
C:\Users\Jesper\AppData\Local\Temp\ccfkv2jT.s:512    .text.startup.main:000000000000016c .L0 
C:\Users\Jesper\AppData\Local\Temp\ccfkv2jT.s:515    .text.startup.main:0000000000000174 .L0 
C:\Users\Jesper\AppData\Local\Temp\ccfkv2jT.s:525    .text.startup.main:000000000000018c .L0 
C:\Users\Jesper\AppData\Local\Temp\ccfkv2jT.s:547    .text.startup.main:00000000000001d4 .L0 
C:\Users\Jesper\AppData\Local\Temp\ccfkv2jT.s:551    .text.startup.main:00000000000001de .L0 
C:\Users\Jesper\AppData\Local\Temp\ccfkv2jT.s:552    .text.startup.main:00000000000001de .L0 
C:\Users\Jesper\AppData\Local\Temp\ccfkv2jT.s:555    .text.startup.main:00000000000001e6 .L0 
C:\Users\Jesper\AppData\Local\Temp\ccfkv2jT.s:556    .text.startup.main:00000000000001e6 .L0 
C:\Users\Jesper\AppData\Local\Temp\ccfkv2jT.s:557    .text.startup.main:00000000000001e6 .L0 
C:\Users\Jesper\AppData\Local\Temp\ccfkv2jT.s:559    .text.startup.main:00000000000001e8 .L0 
C:\Users\Jesper\AppData\Local\Temp\ccfkv2jT.s:564    .text.startup.main:00000000000001f2 .L0 
C:\Users\Jesper\AppData\Local\Temp\ccfkv2jT.s:568    .text.startup.main:00000000000001fc .L0 
C:\Users\Jesper\AppData\Local\Temp\ccfkv2jT.s:569    .text.startup.main:00000000000001fc .L0 
C:\Users\Jesper\AppData\Local\Temp\ccfkv2jT.s:573    .text.startup.main:0000000000000206 .L0 
C:\Users\Jesper\AppData\Local\Temp\ccfkv2jT.s:574    .text.startup.main:0000000000000206 .L0 
C:\Users\Jesper\AppData\Local\Temp\ccfkv2jT.s:578    .text.startup.main:000000000000020a .L0 
C:\Users\Jesper\AppData\Local\Temp\ccfkv2jT.s:583    .text.startup.main:000000000000021a .L0 
C:\Users\Jesper\AppData\Local\Temp\ccfkv2jT.s:588    .rodata:0000000000000000 .LANCHOR0
C:\Users\Jesper\AppData\Local\Temp\ccfkv2jT.s:633    .data.mnist_pic:0000000000000000 .LANCHOR1
C:\Users\Jesper\AppData\Local\Temp\ccfkv2jT.s:40     .text.layer_cb:0000000000000004 .L0 
C:\Users\Jesper\AppData\Local\Temp\ccfkv2jT.s:210    .text.parse_output:00000000000000e8 .L0 
C:\Users\Jesper\AppData\Local\Temp\ccfkv2jT.s:253    .text.ledInit:000000000000002a .L0 
C:\Users\Jesper\AppData\Local\Temp\ccfkv2jT.s:275    .text.ledOnOff:0000000000000014 .L0 
C:\Users\Jesper\AppData\Local\Temp\ccfkv2jT.s:586    .text.startup.main:000000000000021a .L0 
                     .debug_frame:0000000000000000 .L0 
C:\Users\Jesper\AppData\Local\Temp\ccfkv2jT.s:150    .text.parse_output:0000000000000092 .L3
C:\Users\Jesper\AppData\Local\Temp\ccfkv2jT.s:107    .text.parse_output:0000000000000034 .L5
C:\Users\Jesper\AppData\Local\Temp\ccfkv2jT.s:602    .rodata:000000000000005c .LC7
C:\Users\Jesper\AppData\Local\Temp\ccfkv2jT.s:605    .rodata:0000000000000064 .LC8
C:\Users\Jesper\AppData\Local\Temp\ccfkv2jT.s:623    .rodata:0000000000000098 .LC11
C:\Users\Jesper\AppData\Local\Temp\ccfkv2jT.s:474    .text.startup.main:0000000000000134 .L14
C:\Users\Jesper\AppData\Local\Temp\ccfkv2jT.s:386    .text.startup.main:00000000000000a8 .L15
C:\Users\Jesper\AppData\Local\Temp\ccfkv2jT.s:365    .text.startup.main:0000000000000076 .L16
C:\Users\Jesper\AppData\Local\Temp\ccfkv2jT.s:483    .text.startup.main:0000000000000142 .L17
C:\Users\Jesper\AppData\Local\Temp\ccfkv2jT.s:318    .text.startup.main:0000000000000026 .L13
C:\Users\Jesper\AppData\Local\Temp\ccfkv2jT.s:576    .text.startup.main:000000000000020a .L19
C:\Users\Jesper\AppData\Local\Temp\ccfkv2jT.s:449    .text.startup.main:000000000000011e .L12
C:\Users\Jesper\AppData\Local\Temp\ccfkv2jT.s:562    .text.startup.main:00000000000001f2 .L20
GAS LISTING C:\Users\Jesper\AppData\Local\Temp\ccfkv2jT.s 			page 79


C:\Users\Jesper\AppData\Local\Temp\ccfkv2jT.s:9279   .debug_abbrev:0000000000000000 .Ldebug_abbrev0
C:\Users\Jesper\AppData\Local\Temp\ccfkv2jT.s:10722  .debug_str:00000000000002b3 .LASF473
C:\Users\Jesper\AppData\Local\Temp\ccfkv2jT.s:11110  .debug_str:0000000000000bb1 .LASF474
C:\Users\Jesper\AppData\Local\Temp\ccfkv2jT.s:11102  .debug_str:0000000000000b26 .LASF475
C:\Users\Jesper\AppData\Local\Temp\ccfkv2jT.s:10570  .debug_ranges:0000000000000000 .Ldebug_ranges0
C:\Users\Jesper\AppData\Local\Temp\ccfkv2jT.s:10602  .debug_line:0000000000000000 .Ldebug_line0
C:\Users\Jesper\AppData\Local\Temp\ccfkv2jT.s:11146  .debug_str:0000000000000c77 .LASF0
C:\Users\Jesper\AppData\Local\Temp\ccfkv2jT.s:11256  .debug_str:0000000000000ed7 .LASF2
C:\Users\Jesper\AppData\Local\Temp\ccfkv2jT.s:10830  .debug_str:000000000000057f .LASF1
C:\Users\Jesper\AppData\Local\Temp\ccfkv2jT.s:10750  .debug_str:00000000000003bd .LASF3
C:\Users\Jesper\AppData\Local\Temp\ccfkv2jT.s:10852  .debug_str:0000000000000607 .LASF4
C:\Users\Jesper\AppData\Local\Temp\ccfkv2jT.s:11388  .debug_str:000000000000114c .LASF5
C:\Users\Jesper\AppData\Local\Temp\ccfkv2jT.s:10920  .debug_str:0000000000000785 .LASF6
C:\Users\Jesper\AppData\Local\Temp\ccfkv2jT.s:11500  .debug_str:0000000000001390 .LASF7
C:\Users\Jesper\AppData\Local\Temp\ccfkv2jT.s:11518  .debug_str:00000000000013fd .LASF8
C:\Users\Jesper\AppData\Local\Temp\ccfkv2jT.s:10778  .debug_str:0000000000000455 .LASF9
C:\Users\Jesper\AppData\Local\Temp\ccfkv2jT.s:11074  .debug_str:0000000000000a9c .LASF10
C:\Users\Jesper\AppData\Local\Temp\ccfkv2jT.s:11008  .debug_str:0000000000000949 .LASF11
C:\Users\Jesper\AppData\Local\Temp\ccfkv2jT.s:11084  .debug_str:0000000000000acb .LASF12
C:\Users\Jesper\AppData\Local\Temp\ccfkv2jT.s:11268  .debug_str:0000000000000f05 .LASF13
C:\Users\Jesper\AppData\Local\Temp\ccfkv2jT.s:10614  .debug_str:0000000000000042 .LASF14
C:\Users\Jesper\AppData\Local\Temp\ccfkv2jT.s:10832  .debug_str:000000000000058b .LASF15
C:\Users\Jesper\AppData\Local\Temp\ccfkv2jT.s:11276  .debug_str:0000000000000f39 .LASF16
C:\Users\Jesper\AppData\Local\Temp\ccfkv2jT.s:10652  .debug_str:000000000000011a .LASF17
C:\Users\Jesper\AppData\Local\Temp\ccfkv2jT.s:11464  .debug_str:00000000000012da .LASF18
C:\Users\Jesper\AppData\Local\Temp\ccfkv2jT.s:11022  .debug_str:000000000000099a .LASF165
C:\Users\Jesper\AppData\Local\Temp\ccfkv2jT.s:11336  .debug_str:000000000000105a .LASF19
C:\Users\Jesper\AppData\Local\Temp\ccfkv2jT.s:11338  .debug_str:0000000000001063 .LASF20
C:\Users\Jesper\AppData\Local\Temp\ccfkv2jT.s:11150  .debug_str:0000000000000c90 .LASF21
C:\Users\Jesper\AppData\Local\Temp\ccfkv2jT.s:11442  .debug_str:0000000000001247 .LASF22
C:\Users\Jesper\AppData\Local\Temp\ccfkv2jT.s:11058  .debug_str:0000000000000a4d .LASF23
C:\Users\Jesper\AppData\Local\Temp\ccfkv2jT.s:10684  .debug_str:00000000000001cb .LASF24
C:\Users\Jesper\AppData\Local\Temp\ccfkv2jT.s:10686  .debug_str:00000000000001d6 .LASF25
C:\Users\Jesper\AppData\Local\Temp\ccfkv2jT.s:10688  .debug_str:00000000000001e1 .LASF26
C:\Users\Jesper\AppData\Local\Temp\ccfkv2jT.s:10690  .debug_str:00000000000001ec .LASF27
C:\Users\Jesper\AppData\Local\Temp\ccfkv2jT.s:10692  .debug_str:00000000000001f7 .LASF28
C:\Users\Jesper\AppData\Local\Temp\ccfkv2jT.s:10694  .debug_str:0000000000000202 .LASF29
C:\Users\Jesper\AppData\Local\Temp\ccfkv2jT.s:11202  .debug_str:0000000000000d9e .LASF30
C:\Users\Jesper\AppData\Local\Temp\ccfkv2jT.s:10822  .debug_str:0000000000000559 .LASF31
C:\Users\Jesper\AppData\Local\Temp\ccfkv2jT.s:10824  .debug_str:0000000000000562 .LASF32
C:\Users\Jesper\AppData\Local\Temp\ccfkv2jT.s:10706  .debug_str:000000000000026c .LASF33
C:\Users\Jesper\AppData\Local\Temp\ccfkv2jT.s:10708  .debug_str:0000000000000277 .LASF34
C:\Users\Jesper\AppData\Local\Temp\ccfkv2jT.s:10662  .debug_str:0000000000000150 .LASF35
C:\Users\Jesper\AppData\Local\Temp\ccfkv2jT.s:10664  .debug_str:000000000000015a .LASF36
C:\Users\Jesper\AppData\Local\Temp\ccfkv2jT.s:11470  .debug_str:0000000000001300 .LASF37
C:\Users\Jesper\AppData\Local\Temp\ccfkv2jT.s:11472  .debug_str:0000000000001309 .LASF38
C:\Users\Jesper\AppData\Local\Temp\ccfkv2jT.s:10894  .debug_str:00000000000006f5 .LASF39
C:\Users\Jesper\AppData\Local\Temp\ccfkv2jT.s:10896  .debug_str:00000000000006fe .LASF40
C:\Users\Jesper\AppData\Local\Temp\ccfkv2jT.s:11410  .debug_str:00000000000011b9 .LASF41
C:\Users\Jesper\AppData\Local\Temp\ccfkv2jT.s:10646  .debug_str:00000000000000ff .LASF42
C:\Users\Jesper\AppData\Local\Temp\ccfkv2jT.s:10834  .debug_str:0000000000000593 .LASF43
C:\Users\Jesper\AppData\Local\Temp\ccfkv2jT.s:11228  .debug_str:0000000000000e4d .LASF44
C:\Users\Jesper\AppData\Local\Temp\ccfkv2jT.s:11028  .debug_str:00000000000009b9 .LASF45
C:\Users\Jesper\AppData\Local\Temp\ccfkv2jT.s:11088  .debug_str:0000000000000ae2 .LASF46
C:\Users\Jesper\AppData\Local\Temp\ccfkv2jT.s:11090  .debug_str:0000000000000aec .LASF47
C:\Users\Jesper\AppData\Local\Temp\ccfkv2jT.s:11092  .debug_str:0000000000000af6 .LASF48
C:\Users\Jesper\AppData\Local\Temp\ccfkv2jT.s:11094  .debug_str:0000000000000b00 .LASF49
GAS LISTING C:\Users\Jesper\AppData\Local\Temp\ccfkv2jT.s 			page 80


C:\Users\Jesper\AppData\Local\Temp\ccfkv2jT.s:11096  .debug_str:0000000000000b0a .LASF50
C:\Users\Jesper\AppData\Local\Temp\ccfkv2jT.s:11078  .debug_str:0000000000000ab2 .LASF51
C:\Users\Jesper\AppData\Local\Temp\ccfkv2jT.s:11080  .debug_str:0000000000000abb .LASF52
C:\Users\Jesper\AppData\Local\Temp\ccfkv2jT.s:10682  .debug_str:00000000000001c0 .LASF53
C:\Users\Jesper\AppData\Local\Temp\ccfkv2jT.s:10820  .debug_str:0000000000000550 .LASF54
C:\Users\Jesper\AppData\Local\Temp\ccfkv2jT.s:10704  .debug_str:0000000000000261 .LASF55
C:\Users\Jesper\AppData\Local\Temp\ccfkv2jT.s:11220  .debug_str:0000000000000e1e .LASF56
C:\Users\Jesper\AppData\Local\Temp\ccfkv2jT.s:11344  .debug_str:000000000000107b .LASF57
C:\Users\Jesper\AppData\Local\Temp\ccfkv2jT.s:11492  .debug_str:0000000000001372 .LASF58
C:\Users\Jesper\AppData\Local\Temp\ccfkv2jT.s:11248  .debug_str:0000000000000eb0 .LASF59
C:\Users\Jesper\AppData\Local\Temp\ccfkv2jT.s:10622  .debug_str:0000000000000076 .LASF60
C:\Users\Jesper\AppData\Local\Temp\ccfkv2jT.s:10748  .debug_str:00000000000003b7 .LASF61
C:\Users\Jesper\AppData\Local\Temp\ccfkv2jT.s:11250  .debug_str:0000000000000eb8 .LASF62
C:\Users\Jesper\AppData\Local\Temp\ccfkv2jT.s:11206  .debug_str:0000000000000db9 .LASF63
C:\Users\Jesper\AppData\Local\Temp\ccfkv2jT.s:10628  .debug_str:000000000000009b .LASF64
C:\Users\Jesper\AppData\Local\Temp\ccfkv2jT.s:11326  .debug_str:000000000000102a .LASF65
C:\Users\Jesper\AppData\Local\Temp\ccfkv2jT.s:11460  .debug_str:00000000000012c6 .LASF66
C:\Users\Jesper\AppData\Local\Temp\ccfkv2jT.s:11032  .debug_str:00000000000009cf .LASF67
C:\Users\Jesper\AppData\Local\Temp\ccfkv2jT.s:11316  .debug_str:0000000000000ff7 .LASF68
C:\Users\Jesper\AppData\Local\Temp\ccfkv2jT.s:11050  .debug_str:0000000000000a28 .LASF73
C:\Users\Jesper\AppData\Local\Temp\ccfkv2jT.s:11346  .debug_str:0000000000001082 .LASF69
C:\Users\Jesper\AppData\Local\Temp\ccfkv2jT.s:11056  .debug_str:0000000000000a45 .LASF70
C:\Users\Jesper\AppData\Local\Temp\ccfkv2jT.s:11130  .debug_str:0000000000000c1b .LASF71
C:\Users\Jesper\AppData\Local\Temp\ccfkv2jT.s:10970  .debug_str:0000000000000881 .LASF72
C:\Users\Jesper\AppData\Local\Temp\ccfkv2jT.s:10674  .debug_str:000000000000019b .LASF74
C:\Users\Jesper\AppData\Local\Temp\ccfkv2jT.s:10680  .debug_str:00000000000001b7 .LASF75
C:\Users\Jesper\AppData\Local\Temp\ccfkv2jT.s:11548  .debug_str:0000000000001499 .LASF76
C:\Users\Jesper\AppData\Local\Temp\ccfkv2jT.s:11504  .debug_str:00000000000013a9 .LASF77
C:\Users\Jesper\AppData\Local\Temp\ccfkv2jT.s:11170  .debug_str:0000000000000d02 .LASF78
C:\Users\Jesper\AppData\Local\Temp\ccfkv2jT.s:10806  .debug_str:00000000000004f2 .LASF79
C:\Users\Jesper\AppData\Local\Temp\ccfkv2jT.s:11408  .debug_str:00000000000011af .LASF80
C:\Users\Jesper\AppData\Local\Temp\ccfkv2jT.s:11218  .debug_str:0000000000000e14 .LASF81
C:\Users\Jesper\AppData\Local\Temp\ccfkv2jT.s:11222  .debug_str:0000000000000e2a .LASF82
C:\Users\Jesper\AppData\Local\Temp\ccfkv2jT.s:11534  .debug_str:0000000000001462 .LASF83
C:\Users\Jesper\AppData\Local\Temp\ccfkv2jT.s:10758  .debug_str:00000000000003e7 .LASF84
C:\Users\Jesper\AppData\Local\Temp\ccfkv2jT.s:11532  .debug_str:000000000000145a .LASF85
C:\Users\Jesper\AppData\Local\Temp\ccfkv2jT.s:11278  .debug_str:0000000000000f42 .LASF86
C:\Users\Jesper\AppData\Local\Temp\ccfkv2jT.s:11400  .debug_str:0000000000001189 .LASF87
C:\Users\Jesper\AppData\Local\Temp\ccfkv2jT.s:11438  .debug_str:0000000000001232 .LASF88
C:\Users\Jesper\AppData\Local\Temp\ccfkv2jT.s:11196  .debug_str:0000000000000d82 .LASF89
C:\Users\Jesper\AppData\Local\Temp\ccfkv2jT.s:11432  .debug_str:000000000000121f .LASF90
C:\Users\Jesper\AppData\Local\Temp\ccfkv2jT.s:10912  .debug_str:0000000000000768 .LASF91
C:\Users\Jesper\AppData\Local\Temp\ccfkv2jT.s:11434  .debug_str:0000000000001224 .LASF92
C:\Users\Jesper\AppData\Local\Temp\ccfkv2jT.s:11304  .debug_str:0000000000000fb8 .LASF93
C:\Users\Jesper\AppData\Local\Temp\ccfkv2jT.s:10786  .debug_str:000000000000047a .LASF94
C:\Users\Jesper\AppData\Local\Temp\ccfkv2jT.s:11016  .debug_str:000000000000097f .LASF95
C:\Users\Jesper\AppData\Local\Temp\ccfkv2jT.s:11192  .debug_str:0000000000000d6c .LASF96
C:\Users\Jesper\AppData\Local\Temp\ccfkv2jT.s:10756  .debug_str:00000000000003e1 .LASF97
C:\Users\Jesper\AppData\Local\Temp\ccfkv2jT.s:11428  .debug_str:0000000000001211 .LASF98
C:\Users\Jesper\AppData\Local\Temp\ccfkv2jT.s:10962  .debug_str:0000000000000862 .LASF99
C:\Users\Jesper\AppData\Local\Temp\ccfkv2jT.s:10640  .debug_str:00000000000000cb .LASF100
C:\Users\Jesper\AppData\Local\Temp\ccfkv2jT.s:10648  .debug_str:0000000000000107 .LASF101
C:\Users\Jesper\AppData\Local\Temp\ccfkv2jT.s:11240  .debug_str:0000000000000e84 .LASF102
C:\Users\Jesper\AppData\Local\Temp\ccfkv2jT.s:10916  .debug_str:0000000000000774 .LASF103
C:\Users\Jesper\AppData\Local\Temp\ccfkv2jT.s:11178  .debug_str:0000000000000d24 .LASF104
C:\Users\Jesper\AppData\Local\Temp\ccfkv2jT.s:10678  .debug_str:00000000000001b1 .LASF105
C:\Users\Jesper\AppData\Local\Temp\ccfkv2jT.s:11296  .debug_str:0000000000000f9b .LASF106
GAS LISTING C:\Users\Jesper\AppData\Local\Temp\ccfkv2jT.s 			page 81


C:\Users\Jesper\AppData\Local\Temp\ccfkv2jT.s:10986  .debug_str:00000000000008cd .LASF107
C:\Users\Jesper\AppData\Local\Temp\ccfkv2jT.s:11350  .debug_str:0000000000001090 .LASF108
C:\Users\Jesper\AppData\Local\Temp\ccfkv2jT.s:10714  .debug_str:0000000000000292 .LASF109
C:\Users\Jesper\AppData\Local\Temp\ccfkv2jT.s:11184  .debug_str:0000000000000d40 .LASF110
C:\Users\Jesper\AppData\Local\Temp\ccfkv2jT.s:11020  .debug_str:0000000000000992 .LASF111
C:\Users\Jesper\AppData\Local\Temp\ccfkv2jT.s:10874  .debug_str:0000000000000680 .LASF112
C:\Users\Jesper\AppData\Local\Temp\ccfkv2jT.s:11038  .debug_str:00000000000009ec .LASF113
C:\Users\Jesper\AppData\Local\Temp\ccfkv2jT.s:10924  .debug_str:00000000000007a1 .LASF114
C:\Users\Jesper\AppData\Local\Temp\ccfkv2jT.s:11288  .debug_str:0000000000000f6a .LASF115
C:\Users\Jesper\AppData\Local\Temp\ccfkv2jT.s:11180  .debug_str:0000000000000d2a .LASF116
C:\Users\Jesper\AppData\Local\Temp\ccfkv2jT.s:11430  .debug_str:000000000000121a .LASF117
C:\Users\Jesper\AppData\Local\Temp\ccfkv2jT.s:11076  .debug_str:0000000000000aa7 .LASF118
C:\Users\Jesper\AppData\Local\Temp\ccfkv2jT.s:10866  .debug_str:000000000000064c .LASF119
C:\Users\Jesper\AppData\Local\Temp\ccfkv2jT.s:11458  .debug_str:00000000000012be .LASF120
C:\Users\Jesper\AppData\Local\Temp\ccfkv2jT.s:11018  .debug_str:0000000000000987 .LASF121
C:\Users\Jesper\AppData\Local\Temp\ccfkv2jT.s:11064  .debug_str:0000000000000a64 .LASF122
C:\Users\Jesper\AppData\Local\Temp\ccfkv2jT.s:11478  .debug_str:0000000000001325 .LASF123
C:\Users\Jesper\AppData\Local\Temp\ccfkv2jT.s:10784  .debug_str:0000000000000470 .LASF124
C:\Users\Jesper\AppData\Local\Temp\ccfkv2jT.s:11006  .debug_str:0000000000000944 .LASF125
C:\Users\Jesper\AppData\Local\Temp\ccfkv2jT.s:11122  .debug_str:0000000000000bf7 .LASF126
C:\Users\Jesper\AppData\Local\Temp\ccfkv2jT.s:10658  .debug_str:000000000000013f .LASF127
C:\Users\Jesper\AppData\Local\Temp\ccfkv2jT.s:10990  .debug_str:00000000000008e0 .LASF128
C:\Users\Jesper\AppData\Local\Temp\ccfkv2jT.s:11176  .debug_str:0000000000000d1f .LASF129
C:\Users\Jesper\AppData\Local\Temp\ccfkv2jT.s:11066  .debug_str:0000000000000a6e .LASF130
C:\Users\Jesper\AppData\Local\Temp\ccfkv2jT.s:10980  .debug_str:00000000000008aa .LASF131
C:\Users\Jesper\AppData\Local\Temp\ccfkv2jT.s:11104  .debug_str:0000000000000b93 .LASF132
C:\Users\Jesper\AppData\Local\Temp\ccfkv2jT.s:10634  .debug_str:00000000000000b7 .LASF133
C:\Users\Jesper\AppData\Local\Temp\ccfkv2jT.s:10906  .debug_str:000000000000073f .LASF134
C:\Users\Jesper\AppData\Local\Temp\ccfkv2jT.s:11320  .debug_str:000000000000100b .LASF135
C:\Users\Jesper\AppData\Local\Temp\ccfkv2jT.s:11128  .debug_str:0000000000000c15 .LASF136
C:\Users\Jesper\AppData\Local\Temp\ccfkv2jT.s:11098  .debug_str:0000000000000b14 .LASF137
C:\Users\Jesper\AppData\Local\Temp\ccfkv2jT.s:11124  .debug_str:0000000000000c01 .LASF138
C:\Users\Jesper\AppData\Local\Temp\ccfkv2jT.s:11284  .debug_str:0000000000000f5b .LASF139
C:\Users\Jesper\AppData\Local\Temp\ccfkv2jT.s:11234  .debug_str:0000000000000e6a .LASF140
C:\Users\Jesper\AppData\Local\Temp\ccfkv2jT.s:10726  .debug_str:0000000000000340 .LASF141
C:\Users\Jesper\AppData\Local\Temp\ccfkv2jT.s:11494  .debug_str:0000000000001379 .LASF142
C:\Users\Jesper\AppData\Local\Temp\ccfkv2jT.s:10828  .debug_str:0000000000000572 .LASF143
C:\Users\Jesper\AppData\Local\Temp\ccfkv2jT.s:11308  .debug_str:0000000000000fc8 .LASF144
C:\Users\Jesper\AppData\Local\Temp\ccfkv2jT.s:10656  .debug_str:0000000000000132 .LASF145
C:\Users\Jesper\AppData\Local\Temp\ccfkv2jT.s:10796  .debug_str:00000000000004c4 .LASF146
C:\Users\Jesper\AppData\Local\Temp\ccfkv2jT.s:11116  .debug_str:0000000000000bd4 .LASF147
C:\Users\Jesper\AppData\Local\Temp\ccfkv2jT.s:11188  .debug_str:0000000000000d58 .LASF148
C:\Users\Jesper\AppData\Local\Temp\ccfkv2jT.s:11334  .debug_str:0000000000001055 .LASF149
C:\Users\Jesper\AppData\Local\Temp\ccfkv2jT.s:11384  .debug_str:0000000000001136 .LASF150
C:\Users\Jesper\AppData\Local\Temp\ccfkv2jT.s:11254  .debug_str:0000000000000ec9 .LASF151
C:\Users\Jesper\AppData\Local\Temp\ccfkv2jT.s:11182  .debug_str:0000000000000d32 .LASF152
C:\Users\Jesper\AppData\Local\Temp\ccfkv2jT.s:11252  .debug_str:0000000000000ebf .LASF153
C:\Users\Jesper\AppData\Local\Temp\ccfkv2jT.s:11042  .debug_str:0000000000000a03 .LASF154
C:\Users\Jesper\AppData\Local\Temp\ccfkv2jT.s:11552  .debug_str:00000000000014b0 .LASF155
C:\Users\Jesper\AppData\Local\Temp\ccfkv2jT.s:10776  .debug_str:0000000000000447 .LASF156
C:\Users\Jesper\AppData\Local\Temp\ccfkv2jT.s:11312  .debug_str:0000000000000fdf .LASF157
C:\Users\Jesper\AppData\Local\Temp\ccfkv2jT.s:11516  .debug_str:00000000000013ec .LASF158
C:\Users\Jesper\AppData\Local\Temp\ccfkv2jT.s:11166  .debug_str:0000000000000cea .LASF159
C:\Users\Jesper\AppData\Local\Temp\ccfkv2jT.s:10676  .debug_str:00000000000001a0 .LASF160
C:\Users\Jesper\AppData\Local\Temp\ccfkv2jT.s:11152  .debug_str:0000000000000c98 .LASF161
C:\Users\Jesper\AppData\Local\Temp\ccfkv2jT.s:11446  .debug_str:000000000000125e .LASF162
C:\Users\Jesper\AppData\Local\Temp\ccfkv2jT.s:11108  .debug_str:0000000000000ba8 .LASF163
GAS LISTING C:\Users\Jesper\AppData\Local\Temp\ccfkv2jT.s 			page 82


C:\Users\Jesper\AppData\Local\Temp\ccfkv2jT.s:10672  .debug_str:0000000000000193 .LASF164
C:\Users\Jesper\AppData\Local\Temp\ccfkv2jT.s:10626  .debug_str:0000000000000090 .LASF476
C:\Users\Jesper\AppData\Local\Temp\ccfkv2jT.s:10780  .debug_str:000000000000045e .LASF166
C:\Users\Jesper\AppData\Local\Temp\ccfkv2jT.s:10876  .debug_str:0000000000000687 .LASF167
C:\Users\Jesper\AppData\Local\Temp\ccfkv2jT.s:11398  .debug_str:000000000000117f .LASF168
C:\Users\Jesper\AppData\Local\Temp\ccfkv2jT.s:10936  .debug_str:00000000000007ed .LASF169
C:\Users\Jesper\AppData\Local\Temp\ccfkv2jT.s:11540  .debug_str:000000000000147b .LASF170
C:\Users\Jesper\AppData\Local\Temp\ccfkv2jT.s:10956  .debug_str:0000000000000848 .LASF171
C:\Users\Jesper\AppData\Local\Temp\ccfkv2jT.s:11456  .debug_str:00000000000012b6 .LASF172
C:\Users\Jesper\AppData\Local\Temp\ccfkv2jT.s:11396  .debug_str:0000000000001175 .LASF173
C:\Users\Jesper\AppData\Local\Temp\ccfkv2jT.s:10730  .debug_str:0000000000000359 .LASF174
C:\Users\Jesper\AppData\Local\Temp\ccfkv2jT.s:11246  .debug_str:0000000000000ea7 .LASF175
C:\Users\Jesper\AppData\Local\Temp\ccfkv2jT.s:11136  .debug_str:0000000000000c43 .LASF176
C:\Users\Jesper\AppData\Local\Temp\ccfkv2jT.s:10848  .debug_str:00000000000005f7 .LASF177
C:\Users\Jesper\AppData\Local\Temp\ccfkv2jT.s:11082  .debug_str:0000000000000ac4 .LASF178
C:\Users\Jesper\AppData\Local\Temp\ccfkv2jT.s:11294  .debug_str:0000000000000f8e .LASF179
C:\Users\Jesper\AppData\Local\Temp\ccfkv2jT.s:10700  .debug_str:0000000000000241 .LASF180
C:\Users\Jesper\AppData\Local\Temp\ccfkv2jT.s:10666  .debug_str:0000000000000164 .LASF181
C:\Users\Jesper\AppData\Local\Temp\ccfkv2jT.s:11526  .debug_str:000000000000142d .LASF182
C:\Users\Jesper\AppData\Local\Temp\ccfkv2jT.s:11392  .debug_str:000000000000115d .LASF183
C:\Users\Jesper\AppData\Local\Temp\ccfkv2jT.s:10760  .debug_str:00000000000003f5 .LASF184
C:\Users\Jesper\AppData\Local\Temp\ccfkv2jT.s:11194  .debug_str:0000000000000d73 .LASF185
C:\Users\Jesper\AppData\Local\Temp\ccfkv2jT.s:10720  .debug_str:00000000000002a6 .LASF186
C:\Users\Jesper\AppData\Local\Temp\ccfkv2jT.s:11238  .debug_str:0000000000000e7b .LASF187
C:\Users\Jesper\AppData\Local\Temp\ccfkv2jT.s:10926  .debug_str:00000000000007a8 .LASF188
C:\Users\Jesper\AppData\Local\Temp\ccfkv2jT.s:11462  .debug_str:00000000000012ce .LASF189
C:\Users\Jesper\AppData\Local\Temp\ccfkv2jT.s:11550  .debug_str:00000000000014a2 .LASF190
C:\Users\Jesper\AppData\Local\Temp\ccfkv2jT.s:11364  .debug_str:00000000000010d2 .LASF191
C:\Users\Jesper\AppData\Local\Temp\ccfkv2jT.s:11480  .debug_str:000000000000132d .LASF192
C:\Users\Jesper\AppData\Local\Temp\ccfkv2jT.s:11072  .debug_str:0000000000000a8c .LASF193
C:\Users\Jesper\AppData\Local\Temp\ccfkv2jT.s:11226  .debug_str:0000000000000e41 .LASF194
C:\Users\Jesper\AppData\Local\Temp\ccfkv2jT.s:11502  .debug_str:00000000000013a3 .LASF195
C:\Users\Jesper\AppData\Local\Temp\ccfkv2jT.s:11216  .debug_str:0000000000000e0b .LASF196
C:\Users\Jesper\AppData\Local\Temp\ccfkv2jT.s:10740  .debug_str:0000000000000386 .LASF197
C:\Users\Jesper\AppData\Local\Temp\ccfkv2jT.s:10898  .debug_str:0000000000000707 .LASF198
C:\Users\Jesper\AppData\Local\Temp\ccfkv2jT.s:11010  .debug_str:000000000000095b .LASF199
C:\Users\Jesper\AppData\Local\Temp\ccfkv2jT.s:11200  .debug_str:0000000000000d94 .LASF200
C:\Users\Jesper\AppData\Local\Temp\ccfkv2jT.s:11014  .debug_str:0000000000000976 .LASF201
C:\Users\Jesper\AppData\Local\Temp\ccfkv2jT.s:10734  .debug_str:0000000000000369 .LASF202
C:\Users\Jesper\AppData\Local\Temp\ccfkv2jT.s:11172  .debug_str:0000000000000d0c .LASF203
C:\Users\Jesper\AppData\Local\Temp\ccfkv2jT.s:10890  .debug_str:00000000000006e1 .LASF204
C:\Users\Jesper\AppData\Local\Temp\ccfkv2jT.s:10958  .debug_str:0000000000000850 .LASF205
C:\Users\Jesper\AppData\Local\Temp\ccfkv2jT.s:10768  .debug_str:0000000000000419 .LASF206
C:\Users\Jesper\AppData\Local\Temp\ccfkv2jT.s:11412  .debug_str:00000000000011c2 .LASF207
C:\Users\Jesper\AppData\Local\Temp\ccfkv2jT.s:10762  .debug_str:0000000000000401 .LASF208
C:\Users\Jesper\AppData\Local\Temp\ccfkv2jT.s:11054  .debug_str:0000000000000a3a .LASF209
C:\Users\Jesper\AppData\Local\Temp\ccfkv2jT.s:10902  .debug_str:000000000000072d .LASF210
C:\Users\Jesper\AppData\Local\Temp\ccfkv2jT.s:11422  .debug_str:00000000000011ed .LASF211
C:\Users\Jesper\AppData\Local\Temp\ccfkv2jT.s:10764  .debug_str:0000000000000408 .LASF212
C:\Users\Jesper\AppData\Local\Temp\ccfkv2jT.s:11542  .debug_str:0000000000001485 .LASF213
C:\Users\Jesper\AppData\Local\Temp\ccfkv2jT.s:11258  .debug_str:0000000000000ee0 .LASF214
C:\Users\Jesper\AppData\Local\Temp\ccfkv2jT.s:10968  .debug_str:000000000000087c .LASF215
C:\Users\Jesper\AppData\Local\Temp\ccfkv2jT.s:10862  .debug_str:000000000000063c .LASF216
C:\Users\Jesper\AppData\Local\Temp\ccfkv2jT.s:10724  .debug_str:000000000000033b .LASF217
C:\Users\Jesper\AppData\Local\Temp\ccfkv2jT.s:11026  .debug_str:00000000000009b2 .LASF218
C:\Users\Jesper\AppData\Local\Temp\ccfkv2jT.s:11262  .debug_str:0000000000000eee .LASF219
C:\Users\Jesper\AppData\Local\Temp\ccfkv2jT.s:11290  .debug_str:0000000000000f72 .LASF220
GAS LISTING C:\Users\Jesper\AppData\Local\Temp\ccfkv2jT.s 			page 83


C:\Users\Jesper\AppData\Local\Temp\ccfkv2jT.s:10966  .debug_str:0000000000000874 .LASF221
C:\Users\Jesper\AppData\Local\Temp\ccfkv2jT.s:11036  .debug_str:00000000000009e7 .LASF222
C:\Users\Jesper\AppData\Local\Temp\ccfkv2jT.s:10812  .debug_str:0000000000000521 .LASF223
C:\Users\Jesper\AppData\Local\Temp\ccfkv2jT.s:10642  .debug_str:00000000000000d1 .LASF224
C:\Users\Jesper\AppData\Local\Temp\ccfkv2jT.s:10618  .debug_str:0000000000000056 .LASF225
C:\Users\Jesper\AppData\Local\Temp\ccfkv2jT.s:11466  .debug_str:00000000000012e3 .LASF226
C:\Users\Jesper\AppData\Local\Temp\ccfkv2jT.s:10864  .debug_str:0000000000000645 .LASF227
C:\Users\Jesper\AppData\Local\Temp\ccfkv2jT.s:11086  .debug_str:0000000000000ad9 .LASF228
C:\Users\Jesper\AppData\Local\Temp\ccfkv2jT.s:10946  .debug_str:000000000000081e .LASF229
C:\Users\Jesper\AppData\Local\Temp\ccfkv2jT.s:11370  .debug_str:00000000000010f3 .LASF230
C:\Users\Jesper\AppData\Local\Temp\ccfkv2jT.s:11420  .debug_str:00000000000011e5 .LASF231
C:\Users\Jesper\AppData\Local\Temp\ccfkv2jT.s:11520  .debug_str:0000000000001407 .LASF232
C:\Users\Jesper\AppData\Local\Temp\ccfkv2jT.s:11390  .debug_str:0000000000001156 .LASF233
C:\Users\Jesper\AppData\Local\Temp\ccfkv2jT.s:10846  .debug_str:00000000000005ef .LASF234
C:\Users\Jesper\AppData\Local\Temp\ccfkv2jT.s:11530  .debug_str:0000000000001452 .LASF235
C:\Users\Jesper\AppData\Local\Temp\ccfkv2jT.s:11356  .debug_str:00000000000010ae .LASF236
C:\Users\Jesper\AppData\Local\Temp\ccfkv2jT.s:11528  .debug_str:000000000000143e .LASF237
C:\Users\Jesper\AppData\Local\Temp\ccfkv2jT.s:11488  .debug_str:000000000000135a .LASF238
C:\Users\Jesper\AppData\Local\Temp\ccfkv2jT.s:10950  .debug_str:000000000000082e .LASF239
C:\Users\Jesper\AppData\Local\Temp\ccfkv2jT.s:10944  .debug_str:0000000000000818 .LASF240
C:\Users\Jesper\AppData\Local\Temp\ccfkv2jT.s:10984  .debug_str:00000000000008c2 .LASF241
C:\Users\Jesper\AppData\Local\Temp\ccfkv2jT.s:11524  .debug_str:0000000000001425 .LASF242
C:\Users\Jesper\AppData\Local\Temp\ccfkv2jT.s:10736  .debug_str:0000000000000372 .LASF243
C:\Users\Jesper\AppData\Local\Temp\ccfkv2jT.s:11514  .debug_str:00000000000013e5 .LASF244
C:\Users\Jesper\AppData\Local\Temp\ccfkv2jT.s:11302  .debug_str:0000000000000fb3 .LASF245
C:\Users\Jesper\AppData\Local\Temp\ccfkv2jT.s:10826  .debug_str:000000000000056b .LASF246
C:\Users\Jesper\AppData\Local\Temp\ccfkv2jT.s:11232  .debug_str:0000000000000e5e .LASF247
C:\Users\Jesper\AppData\Local\Temp\ccfkv2jT.s:11476  .debug_str:000000000000131b .LASF248
C:\Users\Jesper\AppData\Local\Temp\ccfkv2jT.s:11348  .debug_str:0000000000001088 .LASF249
C:\Users\Jesper\AppData\Local\Temp\ccfkv2jT.s:11512  .debug_str:00000000000013db .LASF250
C:\Users\Jesper\AppData\Local\Temp\ccfkv2jT.s:11538  .debug_str:0000000000001474 .LASF251
C:\Users\Jesper\AppData\Local\Temp\ccfkv2jT.s:11000  .debug_str:0000000000000921 .LASF252
C:\Users\Jesper\AppData\Local\Temp\ccfkv2jT.s:10942  .debug_str:000000000000080f .LASF253
C:\Users\Jesper\AppData\Local\Temp\ccfkv2jT.s:11496  .debug_str:000000000000137e .LASF254
C:\Users\Jesper\AppData\Local\Temp\ccfkv2jT.s:11362  .debug_str:00000000000010c9 .LASF255
C:\Users\Jesper\AppData\Local\Temp\ccfkv2jT.s:11300  .debug_str:0000000000000fac .LASF256
C:\Users\Jesper\AppData\Local\Temp\ccfkv2jT.s:10800  .debug_str:00000000000004da .LASF257
C:\Users\Jesper\AppData\Local\Temp\ccfkv2jT.s:11168  .debug_str:0000000000000cf9 .LASF258
C:\Users\Jesper\AppData\Local\Temp\ccfkv2jT.s:10636  .debug_str:00000000000000bc .LASF259
C:\Users\Jesper\AppData\Local\Temp\ccfkv2jT.s:10870  .debug_str:000000000000066c .LASF260
C:\Users\Jesper\AppData\Local\Temp\ccfkv2jT.s:11280  .debug_str:0000000000000f4e .LASF261
C:\Users\Jesper\AppData\Local\Temp\ccfkv2jT.s:10696  .debug_str:000000000000020d .LASF262
C:\Users\Jesper\AppData\Local\Temp\ccfkv2jT.s:10892  .debug_str:00000000000006ea .LASF263
C:\Users\Jesper\AppData\Local\Temp\ccfkv2jT.s:11052  .debug_str:0000000000000a30 .LASF264
C:\Users\Jesper\AppData\Local\Temp\ccfkv2jT.s:10918  .debug_str:000000000000077b .LASF265
C:\Users\Jesper\AppData\Local\Temp\ccfkv2jT.s:11546  .debug_str:0000000000001491 .LASF266
C:\Users\Jesper\AppData\Local\Temp\ccfkv2jT.s:10670  .debug_str:0000000000000189 .LASF267
C:\Users\Jesper\AppData\Local\Temp\ccfkv2jT.s:10932  .debug_str:00000000000007d7 .LASF268
C:\Users\Jesper\AppData\Local\Temp\ccfkv2jT.s:10934  .debug_str:00000000000007e2 .LASF269
C:\Users\Jesper\AppData\Local\Temp\ccfkv2jT.s:11484  .debug_str:0000000000001347 .LASF270
C:\Users\Jesper\AppData\Local\Temp\ccfkv2jT.s:11282  .debug_str:0000000000000f53 .LASF271
C:\Users\Jesper\AppData\Local\Temp\ccfkv2jT.s:10772  .debug_str:0000000000000435 .LASF272
C:\Users\Jesper\AppData\Local\Temp\ccfkv2jT.s:10632  .debug_str:00000000000000ab .LASF273
C:\Users\Jesper\AppData\Local\Temp\ccfkv2jT.s:11298  .debug_str:0000000000000fa4 .LASF274
C:\Users\Jesper\AppData\Local\Temp\ccfkv2jT.s:10774  .debug_str:000000000000043d .LASF275
C:\Users\Jesper\AppData\Local\Temp\ccfkv2jT.s:11236  .debug_str:0000000000000e70 .LASF276
C:\Users\Jesper\AppData\Local\Temp\ccfkv2jT.s:10988  .debug_str:00000000000008d5 .LASF277
GAS LISTING C:\Users\Jesper\AppData\Local\Temp\ccfkv2jT.s 			page 84


C:\Users\Jesper\AppData\Local\Temp\ccfkv2jT.s:11554  .debug_str:00000000000014bd .LASF278
C:\Users\Jesper\AppData\Local\Temp\ccfkv2jT.s:11404  .debug_str:000000000000119f .LASF279
C:\Users\Jesper\AppData\Local\Temp\ccfkv2jT.s:11416  .debug_str:00000000000011d3 .LASF280
C:\Users\Jesper\AppData\Local\Temp\ccfkv2jT.s:10884  .debug_str:00000000000006c1 .LASF281
C:\Users\Jesper\AppData\Local\Temp\ccfkv2jT.s:10660  .debug_str:0000000000000147 .LASF282
C:\Users\Jesper\AppData\Local\Temp\ccfkv2jT.s:10804  .debug_str:00000000000004ea .LASF283
C:\Users\Jesper\AppData\Local\Temp\ccfkv2jT.s:10856  .debug_str:0000000000000623 .LASF284
C:\Users\Jesper\AppData\Local\Temp\ccfkv2jT.s:11212  .debug_str:0000000000000df1 .LASF285
C:\Users\Jesper\AppData\Local\Temp\ccfkv2jT.s:11044  .debug_str:0000000000000a0f .LASF286
C:\Users\Jesper\AppData\Local\Temp\ccfkv2jT.s:10814  .debug_str:0000000000000527 .LASF287
C:\Users\Jesper\AppData\Local\Temp\ccfkv2jT.s:10948  .debug_str:0000000000000825 .LASF288
C:\Users\Jesper\AppData\Local\Temp\ccfkv2jT.s:11118  .debug_str:0000000000000be3 .LASF289
C:\Users\Jesper\AppData\Local\Temp\ccfkv2jT.s:11394  .debug_str:0000000000001169 .LASF290
C:\Users\Jesper\AppData\Local\Temp\ccfkv2jT.s:10790  .debug_str:000000000000048a .LASF291
C:\Users\Jesper\AppData\Local\Temp\ccfkv2jT.s:10960  .debug_str:0000000000000858 .LASF292
C:\Users\Jesper\AppData\Local\Temp\ccfkv2jT.s:10782  .debug_str:000000000000046a .LASF293
C:\Users\Jesper\AppData\Local\Temp\ccfkv2jT.s:11372  .debug_str:00000000000010fa .LASF294
C:\Users\Jesper\AppData\Local\Temp\ccfkv2jT.s:11366  .debug_str:00000000000010e1 .LASF295
C:\Users\Jesper\AppData\Local\Temp\ccfkv2jT.s:11034  .debug_str:00000000000009e1 .LASF296
C:\Users\Jesper\AppData\Local\Temp\ccfkv2jT.s:10738  .debug_str:000000000000037c .LASF297
C:\Users\Jesper\AppData\Local\Temp\ccfkv2jT.s:11242  .debug_str:0000000000000e8a .LASF298
C:\Users\Jesper\AppData\Local\Temp\ccfkv2jT.s:11360  .debug_str:00000000000010bf .LASF299
C:\Users\Jesper\AppData\Local\Temp\ccfkv2jT.s:10974  .debug_str:000000000000088e .LASF300
C:\Users\Jesper\AppData\Local\Temp\ccfkv2jT.s:10854  .debug_str:0000000000000615 .LASF301
C:\Users\Jesper\AppData\Local\Temp\ccfkv2jT.s:11190  .debug_str:0000000000000d63 .LASF302
C:\Users\Jesper\AppData\Local\Temp\ccfkv2jT.s:10868  .debug_str:0000000000000665 .LASF303
C:\Users\Jesper\AppData\Local\Temp\ccfkv2jT.s:11272  .debug_str:0000000000000f2a .LASF304
C:\Users\Jesper\AppData\Local\Temp\ccfkv2jT.s:10976  .debug_str:0000000000000897 .LASF305
C:\Users\Jesper\AppData\Local\Temp\ccfkv2jT.s:11062  .debug_str:0000000000000a5c .LASF306
C:\Users\Jesper\AppData\Local\Temp\ccfkv2jT.s:10752  .debug_str:00000000000003c7 .LASF307
C:\Users\Jesper\AppData\Local\Temp\ccfkv2jT.s:11260  .debug_str:0000000000000ee6 .LASF308
C:\Users\Jesper\AppData\Local\Temp\ccfkv2jT.s:10994  .debug_str:00000000000008f9 .LASF309
C:\Users\Jesper\AppData\Local\Temp\ccfkv2jT.s:10928  .debug_str:00000000000007b2 .LASF310
C:\Users\Jesper\AppData\Local\Temp\ccfkv2jT.s:10888  .debug_str:00000000000006d3 .LASF311
C:\Users\Jesper\AppData\Local\Temp\ccfkv2jT.s:10886  .debug_str:00000000000006cc .LASF312
C:\Users\Jesper\AppData\Local\Temp\ccfkv2jT.s:10732  .debug_str:0000000000000362 .LASF313
C:\Users\Jesper\AppData\Local\Temp\ccfkv2jT.s:11368  .debug_str:00000000000010e6 .LASF314
C:\Users\Jesper\AppData\Local\Temp\ccfkv2jT.s:10654  .debug_str:0000000000000122 .LASF315
C:\Users\Jesper\AppData\Local\Temp\ccfkv2jT.s:10770  .debug_str:0000000000000425 .LASF316
C:\Users\Jesper\AppData\Local\Temp\ccfkv2jT.s:11012  .debug_str:0000000000000966 .LASF317
C:\Users\Jesper\AppData\Local\Temp\ccfkv2jT.s:11314  .debug_str:0000000000000fee .LASF318
C:\Users\Jesper\AppData\Local\Temp\ccfkv2jT.s:11306  .debug_str:0000000000000fbe .LASF319
C:\Users\Jesper\AppData\Local\Temp\ccfkv2jT.s:10850  .debug_str:00000000000005fd .LASF320
C:\Users\Jesper\AppData\Local\Temp\ccfkv2jT.s:11126  .debug_str:0000000000000c07 .LASF321
C:\Users\Jesper\AppData\Local\Temp\ccfkv2jT.s:10604  .debug_str:0000000000000000 .LASF322
C:\Users\Jesper\AppData\Local\Temp\ccfkv2jT.s:11510  .debug_str:00000000000013cd .LASF323
C:\Users\Jesper\AppData\Local\Temp\ccfkv2jT.s:11562  .debug_str:00000000000014e2 .LASF324
C:\Users\Jesper\AppData\Local\Temp\ccfkv2jT.s:11106  .debug_str:0000000000000b9b .LASF325
C:\Users\Jesper\AppData\Local\Temp\ccfkv2jT.s:10910  .debug_str:0000000000000757 .LASF326
C:\Users\Jesper\AppData\Local\Temp\ccfkv2jT.s:11224  .debug_str:0000000000000e34 .LASF327
C:\Users\Jesper\AppData\Local\Temp\ccfkv2jT.s:11154  .debug_str:0000000000000ca1 .LASF328
C:\Users\Jesper\AppData\Local\Temp\ccfkv2jT.s:11162  .debug_str:0000000000000cce .LASF329
C:\Users\Jesper\AppData\Local\Temp\ccfkv2jT.s:11186  .debug_str:0000000000000d49 .LASF330
C:\Users\Jesper\AppData\Local\Temp\ccfkv2jT.s:11068  .debug_str:0000000000000a77 .LASF331
C:\Users\Jesper\AppData\Local\Temp\ccfkv2jT.s:11482  .debug_str:000000000000133d .LASF332
C:\Users\Jesper\AppData\Local\Temp\ccfkv2jT.s:11040  .debug_str:00000000000009f3 .LASF333
C:\Users\Jesper\AppData\Local\Temp\ccfkv2jT.s:10844  .debug_str:00000000000005e1 .LASF334
GAS LISTING C:\Users\Jesper\AppData\Local\Temp\ccfkv2jT.s 			page 85


C:\Users\Jesper\AppData\Local\Temp\ccfkv2jT.s:11382  .debug_str:0000000000001125 .LASF335
C:\Users\Jesper\AppData\Local\Temp\ccfkv2jT.s:10608  .debug_str:0000000000000015 .LASF336
C:\Users\Jesper\AppData\Local\Temp\ccfkv2jT.s:11444  .debug_str:0000000000001250 .LASF337
C:\Users\Jesper\AppData\Local\Temp\ccfkv2jT.s:11160  .debug_str:0000000000000cbe .LASF338
C:\Users\Jesper\AppData\Local\Temp\ccfkv2jT.s:11352  .debug_str:0000000000001096 .LASF339
C:\Users\Jesper\AppData\Local\Temp\ccfkv2jT.s:10816  .debug_str:000000000000052f .LASF340
C:\Users\Jesper\AppData\Local\Temp\ccfkv2jT.s:11328  .debug_str:0000000000001035 .LASF341
C:\Users\Jesper\AppData\Local\Temp\ccfkv2jT.s:10616  .debug_str:0000000000000049 .LASF342
C:\Users\Jesper\AppData\Local\Temp\ccfkv2jT.s:11490  .debug_str:0000000000001365 .LASF343
C:\Users\Jesper\AppData\Local\Temp\ccfkv2jT.s:10624  .debug_str:000000000000007f .LASF344
C:\Users\Jesper\AppData\Local\Temp\ccfkv2jT.s:11114  .debug_str:0000000000000bc5 .LASF345
C:\Users\Jesper\AppData\Local\Temp\ccfkv2jT.s:10788  .debug_str:0000000000000480 .LASF346
C:\Users\Jesper\AppData\Local\Temp\ccfkv2jT.s:11002  .debug_str:0000000000000928 .LASF347
C:\Users\Jesper\AppData\Local\Temp\ccfkv2jT.s:11498  .debug_str:0000000000001386 .LASF348
C:\Users\Jesper\AppData\Local\Temp\ccfkv2jT.s:11046  .debug_str:0000000000000a18 .LASF349
C:\Users\Jesper\AppData\Local\Temp\ccfkv2jT.s:11386  .debug_str:0000000000001143 .LASF350
C:\Users\Jesper\AppData\Local\Temp\ccfkv2jT.s:10798  .debug_str:00000000000004d3 .LASF351
C:\Users\Jesper\AppData\Local\Temp\ccfkv2jT.s:10612  .debug_str:0000000000000034 .LASF352
C:\Users\Jesper\AppData\Local\Temp\ccfkv2jT.s:10952  .debug_str:0000000000000839 .LASF353
C:\Users\Jesper\AppData\Local\Temp\ccfkv2jT.s:11560  .debug_str:00000000000014d7 .LASF354
C:\Users\Jesper\AppData\Local\Temp\ccfkv2jT.s:11418  .debug_str:00000000000011db .LASF355
C:\Users\Jesper\AppData\Local\Temp\ccfkv2jT.s:11214  .debug_str:0000000000000dfc .LASF356
C:\Users\Jesper\AppData\Local\Temp\ccfkv2jT.s:11358  .debug_str:00000000000010b5 .LASF357
C:\Users\Jesper\AppData\Local\Temp\ccfkv2jT.s:11322  .debug_str:0000000000001012 .LASF358
C:\Users\Jesper\AppData\Local\Temp\ccfkv2jT.s:11148  .debug_str:0000000000000c84 .LASF359
C:\Users\Jesper\AppData\Local\Temp\ccfkv2jT.s:11376  .debug_str:0000000000001109 .LASF360
C:\Users\Jesper\AppData\Local\Temp\ccfkv2jT.s:10766  .debug_str:0000000000000411 .LASF361
C:\Users\Jesper\AppData\Local\Temp\ccfkv2jT.s:11230  .debug_str:0000000000000e55 .LASF362
C:\Users\Jesper\AppData\Local\Temp\ccfkv2jT.s:10630  .debug_str:00000000000000a3 .LASF363
C:\Users\Jesper\AppData\Local\Temp\ccfkv2jT.s:11100  .debug_str:0000000000000b1b .LASF364
C:\Users\Jesper\AppData\Local\Temp\ccfkv2jT.s:11378  .debug_str:0000000000001112 .LASF365
C:\Users\Jesper\AppData\Local\Temp\ccfkv2jT.s:11468  .debug_str:00000000000012ee .LASF366
C:\Users\Jesper\AppData\Local\Temp\ccfkv2jT.s:10938  .debug_str:00000000000007f7 .LASF367
C:\Users\Jesper\AppData\Local\Temp\ccfkv2jT.s:10860  .debug_str:0000000000000635 .LASF368
C:\Users\Jesper\AppData\Local\Temp\ccfkv2jT.s:11112  .debug_str:0000000000000bb8 .LASF369
C:\Users\Jesper\AppData\Local\Temp\ccfkv2jT.s:11198  .debug_str:0000000000000d8a .LASF370
C:\Users\Jesper\AppData\Local\Temp\ccfkv2jT.s:11070  .debug_str:0000000000000a84 .LASF371
C:\Users\Jesper\AppData\Local\Temp\ccfkv2jT.s:10606  .debug_str:0000000000000009 .LASF372
C:\Users\Jesper\AppData\Local\Temp\ccfkv2jT.s:11374  .debug_str:0000000000001101 .LASF373
C:\Users\Jesper\AppData\Local\Temp\ccfkv2jT.s:10638  .debug_str:00000000000000c3 .LASF374
C:\Users\Jesper\AppData\Local\Temp\ccfkv2jT.s:11474  .debug_str:0000000000001312 .LASF375
C:\Users\Jesper\AppData\Local\Temp\ccfkv2jT.s:10904  .debug_str:0000000000000735 .LASF376
C:\Users\Jesper\AppData\Local\Temp\ccfkv2jT.s:11024  .debug_str:00000000000009aa .LASF377
C:\Users\Jesper\AppData\Local\Temp\ccfkv2jT.s:10716  .debug_str:0000000000000298 .LASF378
C:\Users\Jesper\AppData\Local\Temp\ccfkv2jT.s:11156  .debug_str:0000000000000cb0 .LASF379
C:\Users\Jesper\AppData\Local\Temp\ccfkv2jT.s:11486  .debug_str:000000000000134f .LASF380
C:\Users\Jesper\AppData\Local\Temp\ccfkv2jT.s:10882  .debug_str:00000000000006b6 .LASF381
C:\Users\Jesper\AppData\Local\Temp\ccfkv2jT.s:10710  .debug_str:0000000000000282 .LASF382
C:\Users\Jesper\AppData\Local\Temp\ccfkv2jT.s:10978  .debug_str:000000000000089f .LASF383
C:\Users\Jesper\AppData\Local\Temp\ccfkv2jT.s:11558  .debug_str:00000000000014cf .LASF384
C:\Users\Jesper\AppData\Local\Temp\ccfkv2jT.s:11204  .debug_str:0000000000000da8 .LASF385
C:\Users\Jesper\AppData\Local\Temp\ccfkv2jT.s:11342  .debug_str:0000000000001076 .LASF386
C:\Users\Jesper\AppData\Local\Temp\ccfkv2jT.s:11332  .debug_str:0000000000001045 .LASF387
C:\Users\Jesper\AppData\Local\Temp\ccfkv2jT.s:11274  .debug_str:0000000000000f31 .LASF388
C:\Users\Jesper\AppData\Local\Temp\ccfkv2jT.s:10810  .debug_str:0000000000000517 .LASF389
C:\Users\Jesper\AppData\Local\Temp\ccfkv2jT.s:11354  .debug_str:00000000000010a9 .LASF390
C:\Users\Jesper\AppData\Local\Temp\ccfkv2jT.s:10940  .debug_str:0000000000000808 .LASF391
GAS LISTING C:\Users\Jesper\AppData\Local\Temp\ccfkv2jT.s 			page 86


C:\Users\Jesper\AppData\Local\Temp\ccfkv2jT.s:10754  .debug_str:00000000000003d8 .LASF392
C:\Users\Jesper\AppData\Local\Temp\ccfkv2jT.s:10744  .debug_str:000000000000039f .LASF393
C:\Users\Jesper\AppData\Local\Temp\ccfkv2jT.s:10880  .debug_str:00000000000006ad .LASF394
C:\Users\Jesper\AppData\Local\Temp\ccfkv2jT.s:10908  .debug_str:0000000000000744 .LASF395
C:\Users\Jesper\AppData\Local\Temp\ccfkv2jT.s:11144  .debug_str:0000000000000c63 .LASF396
C:\Users\Jesper\AppData\Local\Temp\ccfkv2jT.s:11324  .debug_str:000000000000101b .LASF397
C:\Users\Jesper\AppData\Local\Temp\ccfkv2jT.s:10982  .debug_str:00000000000008b4 .LASF398
C:\Users\Jesper\AppData\Local\Temp\ccfkv2jT.s:10712  .debug_str:000000000000028b .LASF399
C:\Users\Jesper\AppData\Local\Temp\ccfkv2jT.s:11138  .debug_str:0000000000000c49 .LASF400
C:\Users\Jesper\AppData\Local\Temp\ccfkv2jT.s:11142  .debug_str:0000000000000c58 .LASF401
C:\Users\Jesper\AppData\Local\Temp\ccfkv2jT.s:11270  .debug_str:0000000000000f1c .LASF402
C:\Users\Jesper\AppData\Local\Temp\ccfkv2jT.s:11310  .debug_str:0000000000000fd5 .LASF403
C:\Users\Jesper\AppData\Local\Temp\ccfkv2jT.s:11318  .debug_str:0000000000001000 .LASF404
C:\Users\Jesper\AppData\Local\Temp\ccfkv2jT.s:11330  .debug_str:0000000000001040 .LASF405
C:\Users\Jesper\AppData\Local\Temp\ccfkv2jT.s:11132  .debug_str:0000000000000c21 .LASF406
C:\Users\Jesper\AppData\Local\Temp\ccfkv2jT.s:11174  .debug_str:0000000000000d14 .LASF407
C:\Users\Jesper\AppData\Local\Temp\ccfkv2jT.s:11402  .debug_str:0000000000001192 .LASF408
C:\Users\Jesper\AppData\Local\Temp\ccfkv2jT.s:10746  .debug_str:00000000000003a7 .LASF409
C:\Users\Jesper\AppData\Local\Temp\ccfkv2jT.s:10878  .debug_str:000000000000069a .LASF410
C:\Users\Jesper\AppData\Local\Temp\ccfkv2jT.s:11536  .debug_str:000000000000146d .LASF411
C:\Users\Jesper\AppData\Local\Temp\ccfkv2jT.s:11448  .debug_str:0000000000001265 .LASF412
C:\Users\Jesper\AppData\Local\Temp\ccfkv2jT.s:10838  .debug_str:00000000000005c0 .LASF413
C:\Users\Jesper\AppData\Local\Temp\ccfkv2jT.s:10872  .debug_str:0000000000000671 .LASF414
C:\Users\Jesper\AppData\Local\Temp\ccfkv2jT.s:10698  .debug_str:0000000000000213 .LASF415
C:\Users\Jesper\AppData\Local\Temp\ccfkv2jT.s:11208  .debug_str:0000000000000dc1 .LASF416
C:\Users\Jesper\AppData\Local\Temp\ccfkv2jT.s:11454  .debug_str:00000000000012a5 .LASF417
C:\Users\Jesper\AppData\Local\Temp\ccfkv2jT.s:10922  .debug_str:0000000000000790 .LASF418
C:\Users\Jesper\AppData\Local\Temp\ccfkv2jT.s:10836  .debug_str:000000000000059b .LASF419
C:\Users\Jesper\AppData\Local\Temp\ccfkv2jT.s:10794  .debug_str:00000000000004ad .LASF420
C:\Users\Jesper\AppData\Local\Temp\ccfkv2jT.s:11426  .debug_str:00000000000011fd .LASF421
C:\Users\Jesper\AppData\Local\Temp\ccfkv2jT.s:10808  .debug_str:00000000000004fb .LASF422
C:\Users\Jesper\AppData\Local\Temp\ccfkv2jT.s:10992  .debug_str:00000000000008e8 .LASF423
C:\Users\Jesper\AppData\Local\Temp\ccfkv2jT.s:10728  .debug_str:0000000000000346 .LASF424
C:\Users\Jesper\AppData\Local\Temp\ccfkv2jT.s:10668  .debug_str:000000000000016f .LASF425
C:\Users\Jesper\AppData\Local\Temp\ccfkv2jT.s:10900  .debug_str:0000000000000711 .LASF426
C:\Users\Jesper\AppData\Local\Temp\ccfkv2jT.s:11134  .debug_str:0000000000000c29 .LASF427
C:\Users\Jesper\AppData\Local\Temp\ccfkv2jT.s:10620  .debug_str:000000000000005d .LASF428
C:\Users\Jesper\AppData\Local\Temp\ccfkv2jT.s:10644  .debug_str:00000000000000d7 .LASF429
C:\Users\Jesper\AppData\Local\Temp\ccfkv2jT.s:11440  .debug_str:000000000000123a .LASF430
C:\Users\Jesper\AppData\Local\Temp\ccfkv2jT.s:11452  .debug_str:0000000000001293 .LASF431
C:\Users\Jesper\AppData\Local\Temp\ccfkv2jT.s:10792  .debug_str:0000000000000494 .LASF432
C:\Users\Jesper\AppData\Local\Temp\ccfkv2jT.s:10650  .debug_str:000000000000010e .LASF433
C:\Users\Jesper\AppData\Local\Temp\ccfkv2jT.s:11120  .debug_str:0000000000000beb .LASF434
C:\Users\Jesper\AppData\Local\Temp\ccfkv2jT.s:10702  .debug_str:0000000000000252 .LASF435
C:\Users\Jesper\AppData\Local\Temp\ccfkv2jT.s:10998  .debug_str:0000000000000912 .LASF436
C:\Users\Jesper\AppData\Local\Temp\ccfkv2jT.s:11508  .debug_str:00000000000013c1 .LASF437
C:\Users\Jesper\AppData\Local\Temp\ccfkv2jT.s:11406  .debug_str:00000000000011a6 .LASF438
C:\Users\Jesper\AppData\Local\Temp\ccfkv2jT.s:11264  .debug_str:0000000000000ef3 .LASF439
C:\Users\Jesper\AppData\Local\Temp\ccfkv2jT.s:10802  .debug_str:00000000000004e5 .LASF477
C:\Users\Jesper\AppData\Local\Temp\ccfkv2jT.s:280    .text.startup.main:0000000000000000 .LFB33
C:\Users\Jesper\AppData\Local\Temp\ccfkv2jT.s:584    .text.startup.main:000000000000021a .LFE33
C:\Users\Jesper\AppData\Local\Temp\ccfkv2jT.s:10256  .debug_loc:0000000000000000 .LLST11
C:\Users\Jesper\AppData\Local\Temp\ccfkv2jT.s:11048  .debug_str:0000000000000a23 .LASF440
C:\Users\Jesper\AppData\Local\Temp\ccfkv2jT.s:10279  .debug_loc:000000000000003a .LLST12
C:\Users\Jesper\AppData\Local\Temp\ccfkv2jT.s:11060  .debug_str:0000000000000a57 .LASF441
C:\Users\Jesper\AppData\Local\Temp\ccfkv2jT.s:10293  .debug_loc:000000000000005b .LLST13
C:\Users\Jesper\AppData\Local\Temp\ccfkv2jT.s:11140  .debug_str:0000000000000c52 .LASF444
GAS LISTING C:\Users\Jesper\AppData\Local\Temp\ccfkv2jT.s 			page 87


C:\Users\Jesper\AppData\Local\Temp\ccfkv2jT.s:11004  .debug_str:0000000000000934 .LASF442
C:\Users\Jesper\AppData\Local\Temp\ccfkv2jT.s:10610  .debug_str:0000000000000027 .LASF443
C:\Users\Jesper\AppData\Local\Temp\ccfkv2jT.s:11556  .debug_str:00000000000014c8 .LASF445
C:\Users\Jesper\AppData\Local\Temp\ccfkv2jT.s:10307  .debug_loc:000000000000007c .LLST14
C:\Users\Jesper\AppData\Local\Temp\ccfkv2jT.s:11450  .debug_str:000000000000128b .LASF446
C:\Users\Jesper\AppData\Local\Temp\ccfkv2jT.s:10318  .debug_loc:000000000000009a .LLST15
C:\Users\Jesper\AppData\Local\Temp\ccfkv2jT.s:10858  .debug_str:000000000000062f .LASF447
C:\Users\Jesper\AppData\Local\Temp\ccfkv2jT.s:10325  .debug_loc:00000000000000ad .LLST16
C:\Users\Jesper\AppData\Local\Temp\ccfkv2jT.s:10840  .debug_str:00000000000005cf .LASF448
C:\Users\Jesper\AppData\Local\Temp\ccfkv2jT.s:11158  .debug_str:0000000000000cb9 .LASF449
C:\Users\Jesper\AppData\Local\Temp\ccfkv2jT.s:10336  .debug_loc:00000000000000cb .LLST17
C:\Users\Jesper\AppData\Local\Temp\ccfkv2jT.s:10355  .debug_loc:00000000000000ff .LLST18
C:\Users\Jesper\AppData\Local\Temp\ccfkv2jT.s:371    .text.startup.main:000000000000008a .LVL36
C:\Users\Jesper\AppData\Local\Temp\ccfkv2jT.s:375    .text.startup.main:0000000000000094 .LVL37
C:\Users\Jesper\AppData\Local\Temp\ccfkv2jT.s:385    .text.startup.main:00000000000000a8 .LVL38
C:\Users\Jesper\AppData\Local\Temp\ccfkv2jT.s:394    .text.startup.main:00000000000000b4 .LVL40
C:\Users\Jesper\AppData\Local\Temp\ccfkv2jT.s:312    .text.startup.main:000000000000001c .LVL29
C:\Users\Jesper\AppData\Local\Temp\ccfkv2jT.s:316    .text.startup.main:0000000000000026 .LVL30
C:\Users\Jesper\AppData\Local\Temp\ccfkv2jT.s:321    .text.startup.main:000000000000002e .LVL31
C:\Users\Jesper\AppData\Local\Temp\ccfkv2jT.s:328    .text.startup.main:000000000000003a .LVL32
C:\Users\Jesper\AppData\Local\Temp\ccfkv2jT.s:335    .text.startup.main:000000000000004e .LVL33
C:\Users\Jesper\AppData\Local\Temp\ccfkv2jT.s:344    .text.startup.main:000000000000005c .LVL34
C:\Users\Jesper\AppData\Local\Temp\ccfkv2jT.s:405    .text.startup.main:00000000000000c8 .LVL41
C:\Users\Jesper\AppData\Local\Temp\ccfkv2jT.s:412    .text.startup.main:00000000000000d8 .LVL42
C:\Users\Jesper\AppData\Local\Temp\ccfkv2jT.s:420    .text.startup.main:00000000000000e8 .LVL44
C:\Users\Jesper\AppData\Local\Temp\ccfkv2jT.s:430    .text.startup.main:0000000000000102 .LVL45
C:\Users\Jesper\AppData\Local\Temp\ccfkv2jT.s:440    .text.startup.main:0000000000000112 .LVL48
C:\Users\Jesper\AppData\Local\Temp\ccfkv2jT.s:444    .text.startup.main:000000000000011c .LVL49
C:\Users\Jesper\AppData\Local\Temp\ccfkv2jT.s:480    .text.startup.main:0000000000000140 .LVL50
C:\Users\Jesper\AppData\Local\Temp\ccfkv2jT.s:492    .text.startup.main:0000000000000152 .LVL53
C:\Users\Jesper\AppData\Local\Temp\ccfkv2jT.s:495    .text.startup.main:000000000000015a .LVL54
C:\Users\Jesper\AppData\Local\Temp\ccfkv2jT.s:508    .text.startup.main:000000000000016a .LVL57
C:\Users\Jesper\AppData\Local\Temp\ccfkv2jT.s:513    .text.startup.main:0000000000000174 .LVL59
C:\Users\Jesper\AppData\Local\Temp\ccfkv2jT.s:545    .text.startup.main:00000000000001d4 .LVL69
C:\Users\Jesper\AppData\Local\Temp\ccfkv2jT.s:549    .text.startup.main:00000000000001de .LVL70
C:\Users\Jesper\AppData\Local\Temp\ccfkv2jT.s:553    .text.startup.main:00000000000001e6 .LVL71
C:\Users\Jesper\AppData\Local\Temp\ccfkv2jT.s:561    .text.startup.main:00000000000001f2 .LVL72
C:\Users\Jesper\AppData\Local\Temp\ccfkv2jT.s:566    .text.startup.main:00000000000001fc .LVL73
C:\Users\Jesper\AppData\Local\Temp\ccfkv2jT.s:571    .text.startup.main:0000000000000206 .LVL74
C:\Users\Jesper\AppData\Local\Temp\ccfkv2jT.s:581    .text.startup.main:0000000000000218 .LVL75
C:\Users\Jesper\AppData\Local\Temp\ccfkv2jT.s:11380  .debug_str:000000000000111c .LASF450
C:\Users\Jesper\AppData\Local\Temp\ccfkv2jT.s:258    .text.ledOnOff:0000000000000000 .LFB32
C:\Users\Jesper\AppData\Local\Temp\ccfkv2jT.s:271    .text.ledOnOff:0000000000000014 .LFE32
C:\Users\Jesper\AppData\Local\Temp\ccfkv2jT.s:10377  .debug_loc:0000000000000136 .LLST10
C:\Users\Jesper\AppData\Local\Temp\ccfkv2jT.s:269    .text.ledOnOff:0000000000000014 .LVL27
C:\Users\Jesper\AppData\Local\Temp\ccfkv2jT.s:11266  .debug_str:0000000000000efd .LASF451
C:\Users\Jesper\AppData\Local\Temp\ccfkv2jT.s:215    .text.ledInit:0000000000000000 .LFB31
C:\Users\Jesper\AppData\Local\Temp\ccfkv2jT.s:251    .text.ledInit:000000000000002a .LFE31
C:\Users\Jesper\AppData\Local\Temp\ccfkv2jT.s:10395  .debug_loc:0000000000000162 .LLST9
C:\Users\Jesper\AppData\Local\Temp\ccfkv2jT.s:230    .text.ledInit:0000000000000010 .LVL23
C:\Users\Jesper\AppData\Local\Temp\ccfkv2jT.s:249    .text.ledInit:000000000000002a .LVL24
C:\Users\Jesper\AppData\Local\Temp\ccfkv2jT.s:11210  .debug_str:0000000000000de4 .LASF478
C:\Users\Jesper\AppData\Local\Temp\ccfkv2jT.s:44     .text.parse_output:0000000000000000 .LFB30
C:\Users\Jesper\AppData\Local\Temp\ccfkv2jT.s:208    .text.parse_output:00000000000000e8 .LFE30
C:\Users\Jesper\AppData\Local\Temp\ccfkv2jT.s:10413  .debug_loc:000000000000018e .LLST2
C:\Users\Jesper\AppData\Local\Temp\ccfkv2jT.s:10431  .debug_loc:00000000000001bb .LLST3
C:\Users\Jesper\AppData\Local\Temp\ccfkv2jT.s:10445  .debug_loc:00000000000001dc .LLST4
GAS LISTING C:\Users\Jesper\AppData\Local\Temp\ccfkv2jT.s 			page 88


C:\Users\Jesper\AppData\Local\Temp\ccfkv2jT.s:10457  .debug_loc:00000000000001f4 .LLST5
C:\Users\Jesper\AppData\Local\Temp\ccfkv2jT.s:11424  .debug_str:00000000000011f8 .LASF452
C:\Users\Jesper\AppData\Local\Temp\ccfkv2jT.s:10465  .debug_loc:0000000000000208 .LLST6
C:\Users\Jesper\AppData\Local\Temp\ccfkv2jT.s:11414  .debug_str:00000000000011ce .LASF453
C:\Users\Jesper\AppData\Local\Temp\ccfkv2jT.s:10478  .debug_loc:000000000000022b .LLST7
C:\Users\Jesper\AppData\Local\Temp\ccfkv2jT.s:10495  .debug_loc:0000000000000256 .LLST8
C:\Users\Jesper\AppData\Local\Temp\ccfkv2jT.s:135    .text.parse_output:000000000000007a .LVL10
C:\Users\Jesper\AppData\Local\Temp\ccfkv2jT.s:172    .text.parse_output:00000000000000c8 .LVL18
C:\Users\Jesper\AppData\Local\Temp\ccfkv2jT.s:206    .text.parse_output:00000000000000e8 .LVL22
C:\Users\Jesper\AppData\Local\Temp\ccfkv2jT.s:10842  .debug_str:00000000000005d8 .LASF479
C:\Users\Jesper\AppData\Local\Temp\ccfkv2jT.s:15     .text.layer_cb:0000000000000000 .LFB29
C:\Users\Jesper\AppData\Local\Temp\ccfkv2jT.s:30     .text.layer_cb:0000000000000004 .LFE29
C:\Users\Jesper\AppData\Local\Temp\ccfkv2jT.s:10507  .debug_loc:0000000000000275 .LLST0
C:\Users\Jesper\AppData\Local\Temp\ccfkv2jT.s:10914  .debug_str:000000000000076d .LASF454
C:\Users\Jesper\AppData\Local\Temp\ccfkv2jT.s:10521  .debug_loc:0000000000000296 .LLST1
C:\Users\Jesper\AppData\Local\Temp\ccfkv2jT.s:10954  .debug_str:0000000000000841 .LASF455
C:\Users\Jesper\AppData\Local\Temp\ccfkv2jT.s:11544  .debug_str:000000000000148a .LASF456
C:\Users\Jesper\AppData\Local\Temp\ccfkv2jT.s:10718  .debug_str:00000000000002a1 .LASF461
C:\Users\Jesper\AppData\Local\Temp\ccfkv2jT.s:11244  .debug_str:0000000000000e98 .LASF463
C:\Users\Jesper\AppData\Local\Temp\ccfkv2jT.s:10930  .debug_str:00000000000007c2 .LASF457
C:\Users\Jesper\AppData\Local\Temp\ccfkv2jT.s:10818  .debug_str:0000000000000542 .LASF458
C:\Users\Jesper\AppData\Local\Temp\ccfkv2jT.s:11292  .debug_str:0000000000000f79 .LASF459
C:\Users\Jesper\AppData\Local\Temp\ccfkv2jT.s:10996  .debug_str:0000000000000909 .LASF460
C:\Users\Jesper\AppData\Local\Temp\ccfkv2jT.s:11436  .debug_str:000000000000122b .LASF462
C:\Users\Jesper\AppData\Local\Temp\ccfkv2jT.s:10742  .debug_str:000000000000038e .LASF464
C:\Users\Jesper\AppData\Local\Temp\ccfkv2jT.s:11164  .debug_str:0000000000000ce2 .LASF465
C:\Users\Jesper\AppData\Local\Temp\ccfkv2jT.s:10972  .debug_str:0000000000000886 .LASF466
C:\Users\Jesper\AppData\Local\Temp\ccfkv2jT.s:11506  .debug_str:00000000000013b3 .LASF467
C:\Users\Jesper\AppData\Local\Temp\ccfkv2jT.s:11286  .debug_str:0000000000000f63 .LASF468
C:\Users\Jesper\AppData\Local\Temp\ccfkv2jT.s:10964  .debug_str:000000000000086a .LASF469
C:\Users\Jesper\AppData\Local\Temp\ccfkv2jT.s:11030  .debug_str:00000000000009c0 .LASF470
C:\Users\Jesper\AppData\Local\Temp\ccfkv2jT.s:11522  .debug_str:000000000000140d .LASF471
C:\Users\Jesper\AppData\Local\Temp\ccfkv2jT.s:11340  .debug_str:000000000000106c .LASF472
C:\Users\Jesper\AppData\Local\Temp\ccfkv2jT.s:290    .text.startup.main:0000000000000002 .LCFI4
C:\Users\Jesper\AppData\Local\Temp\ccfkv2jT.s:471    .text.startup.main:0000000000000132 .LCFI5
C:\Users\Jesper\AppData\Local\Temp\ccfkv2jT.s:475    .text.startup.main:0000000000000134 .LCFI6
C:\Users\Jesper\AppData\Local\Temp\ccfkv2jT.s:283    .text.startup.main:0000000000000000 .LVL28
C:\Users\Jesper\AppData\Local\Temp\ccfkv2jT.s:501    .text.startup.main:0000000000000160 .LVL55
C:\Users\Jesper\AppData\Local\Temp\ccfkv2jT.s:506    .text.startup.main:0000000000000162 .LVL56
C:\Users\Jesper\AppData\Local\Temp\ccfkv2jT.s:523    .text.startup.main:000000000000018c .LVL63
C:\Users\Jesper\AppData\Local\Temp\ccfkv2jT.s:516    .text.startup.main:0000000000000178 .LVL60
C:\Users\Jesper\AppData\Local\Temp\ccfkv2jT.s:526    .text.startup.main:0000000000000194 .LVL64
C:\Users\Jesper\AppData\Local\Temp\ccfkv2jT.s:432    .text.startup.main:0000000000000104 .LVL46
C:\Users\Jesper\AppData\Local\Temp\ccfkv2jT.s:438    .text.startup.main:000000000000010a .LVL47
C:\Users\Jesper\AppData\Local\Temp\ccfkv2jT.s:482    .text.startup.main:0000000000000142 .LVL51
C:\Users\Jesper\AppData\Local\Temp\ccfkv2jT.s:490    .text.startup.main:000000000000014a .LVL52
C:\Users\Jesper\AppData\Local\Temp\ccfkv2jT.s:510    .text.startup.main:000000000000016c .LVL58
C:\Users\Jesper\AppData\Local\Temp\ccfkv2jT.s:364    .text.startup.main:0000000000000076 .LVL35
C:\Users\Jesper\AppData\Local\Temp\ccfkv2jT.s:391    .text.startup.main:00000000000000ac .LVL39
C:\Users\Jesper\AppData\Local\Temp\ccfkv2jT.s:417    .text.startup.main:00000000000000dc .LVL43
C:\Users\Jesper\AppData\Local\Temp\ccfkv2jT.s:261    .text.ledOnOff:0000000000000000 .LVL25
C:\Users\Jesper\AppData\Local\Temp\ccfkv2jT.s:265    .text.ledOnOff:0000000000000006 .LVL26
C:\Users\Jesper\AppData\Local\Temp\ccfkv2jT.s:221    .text.ledInit:0000000000000002 .LCFI2
C:\Users\Jesper\AppData\Local\Temp\ccfkv2jT.s:245    .text.ledInit:0000000000000022 .LCFI3
C:\Users\Jesper\AppData\Local\Temp\ccfkv2jT.s:58     .text.parse_output:0000000000000002 .LCFI0
C:\Users\Jesper\AppData\Local\Temp\ccfkv2jT.s:202    .text.parse_output:00000000000000e0 .LCFI1
C:\Users\Jesper\AppData\Local\Temp\ccfkv2jT.s:47     .text.parse_output:0000000000000000 .LVL2
GAS LISTING C:\Users\Jesper\AppData\Local\Temp\ccfkv2jT.s 			page 89


C:\Users\Jesper\AppData\Local\Temp\ccfkv2jT.s:106    .text.parse_output:0000000000000034 .LVL4
C:\Users\Jesper\AppData\Local\Temp\ccfkv2jT.s:61     .text.parse_output:0000000000000004 .LVL3
C:\Users\Jesper\AppData\Local\Temp\ccfkv2jT.s:186    .text.parse_output:00000000000000d2 .LVL20
C:\Users\Jesper\AppData\Local\Temp\ccfkv2jT.s:146    .text.parse_output:0000000000000090 .LVL12
C:\Users\Jesper\AppData\Local\Temp\ccfkv2jT.s:149    .text.parse_output:0000000000000092 .LVL13
C:\Users\Jesper\AppData\Local\Temp\ccfkv2jT.s:189    .text.parse_output:00000000000000d4 .LVL21
C:\Users\Jesper\AppData\Local\Temp\ccfkv2jT.s:181    .text.parse_output:00000000000000ce .LVL19
C:\Users\Jesper\AppData\Local\Temp\ccfkv2jT.s:19     .text.layer_cb:0000000000000000 .LVL0
C:\Users\Jesper\AppData\Local\Temp\ccfkv2jT.s:27     .text.layer_cb:0000000000000002 .LVL1
C:\Users\Jesper\AppData\Local\Temp\ccfkv2jT.s:3833   .debug_info:0000000000000000 .Ldebug_info0
C:\Users\Jesper\AppData\Local\Temp\ccfkv2jT.s:53     .text.parse_output:0000000000000000 .LBB2
C:\Users\Jesper\AppData\Local\Temp\ccfkv2jT.s:55     .text.parse_output:0000000000000000 .LBE2
C:\Users\Jesper\AppData\Local\Temp\ccfkv2jT.s:63     .text.parse_output:0000000000000004 .LBB3
C:\Users\Jesper\AppData\Local\Temp\ccfkv2jT.s:67     .text.parse_output:000000000000000c .LBE3
C:\Users\Jesper\AppData\Local\Temp\ccfkv2jT.s:74     .text.parse_output:0000000000000014 .LBB4
C:\Users\Jesper\AppData\Local\Temp\ccfkv2jT.s:77     .text.parse_output:0000000000000018 .LBE4
C:\Users\Jesper\AppData\Local\Temp\ccfkv2jT.s:93     .text.parse_output:0000000000000026 .LBB5
C:\Users\Jesper\AppData\Local\Temp\ccfkv2jT.s:96     .text.parse_output:0000000000000028 .LBE5
C:\Users\Jesper\AppData\Local\Temp\ccfkv2jT.s:101    .text.parse_output:000000000000002e .LBB6
C:\Users\Jesper\AppData\Local\Temp\ccfkv2jT.s:157    .text.parse_output:000000000000009a .LBE6
C:\Users\Jesper\AppData\Local\Temp\ccfkv2jT.s:338    .text.startup.main:0000000000000050 .LBB7
C:\Users\Jesper\AppData\Local\Temp\ccfkv2jT.s:341    .text.startup.main:0000000000000054 .LBE7
C:\Users\Jesper\AppData\Local\Temp\ccfkv2jT.s:348    .text.startup.main:000000000000005c .LBB8
C:\Users\Jesper\AppData\Local\Temp\ccfkv2jT.s:398    .text.startup.main:00000000000000b8 .LBE8

UNDEFINED SYMBOLS
__fixsfsi
__floatsisf
__subsf3
__mulsf3
__gtsf2
__extendsfdf2
__muldf3
__fixunsdfsi
printf
fflush
rcu_periph_clock_enable
gpio_init
gpio_bit_write
__floatunsisf
__divsf3
configure_usb_serial
usb_delay_1ms
usb_serial_available
get_time
puts
memcpy
tm_stat
tm_load
tm_preprocess
tm_run
tm_unload
