GAS LISTING C:\Users\Jesper\AppData\Local\Temp\cc9lY2VB.s 			page 1


   1              		.file	"main.c"
   2              		.option nopic
   3              		.attribute arch, "rv32i2p0_m2p0_a2p0_c2p0"
   4              		.attribute unaligned_access, 0
   5              		.attribute stack_align, 16
   6              		.text
   7              	.Ltext0:
   8              		.cfi_sections	.debug_frame
   9              		.globl	mdl_data
  10              		.globl	mnist_pic
  11              		.section	.text.layer_cb,"ax",@progbits
  12              		.align	1
  14              	layer_cb:
  15              	.LFB29:
  16              		.file 1 "main.c"
   1:main.c        **** /* Copyright 2022 Sipeed Technology Co., Ltd. All Rights Reserved.
   2:main.c        **** Licensed under the Apache License, Version 2.0 (the "License");
   3:main.c        **** you may not use this file except in compliance with the License.
   4:main.c        **** You may obtain a copy of the License at
   5:main.c        ****     http://www.apache.org/licenses/LICENSE-2.0
   6:main.c        **** Unless required by applicable law or agreed to in writing, software
   7:main.c        **** distributed under the License is distributed on an "AS IS" BASIS,
   8:main.c        **** WITHOUT WARRANTIES OR CONDITIONS OF ANY KIND, either express or implied.
   9:main.c        **** See the License for the specific language governing permissions and
  10:main.c        **** limitations under the License.
  11:main.c        **** ==============================================================================*/
  12:main.c        **** 
  13:main.c        **** #include "gd32vf103.h"
  14:main.c        **** #include "stdio.h"
  15:main.c        **** #include "tinymaix.h"
  16:main.c        **** #include "usb_serial_if.h"
  17:main.c        **** #include "usb_delay.h"
  18:main.c        **** #include "usart.h"
  19:main.c        **** #include "get_time.h"
  20:main.c        **** 
  21:main.c        **** #if TM_MDL_TYPE == TM_MDL_INT8
  22:main.c        **** #include "mnist_valid_q.h"
  23:main.c        **** //#include "../../tools/tmdl/mnist_resnet_q.h"
  24:main.c        **** #elif TM_MDL_TYPE == TM_MDL_FP32
  25:main.c        **** #include "/tools/tmdl/mnist_valid_f.h"
  26:main.c        **** //#include "../../tools/tmdl/mnist_resnet_f.h"
  27:main.c        **** #elif TM_MDL_TYPE == TM_MDL_FP16
  28:main.c        **** #include "/tools/tmdl/mnist_valid_fp16.h"
  29:main.c        **** #elif TM_MDL_TYPE == TM_MDL_FP8_143
  30:main.c        **** #include "/tools/tmdl/mnist_fp8_143.h"
  31:main.c        **** #elif TM_MDL_TYPE == TM_MDL_FP8_152
  32:main.c        **** #include "/tools/tmdl/mnist_fp8_152.h"
  33:main.c        **** #endif
  34:main.c        **** 
  35:main.c        **** #if 0
  36:main.c        **** uint8_t mnist_pic[28*28]={
  37:main.c        ****   0,  0,  0,  0,  0,  0,  0,  0,  0,  0,  0,  0,  0,  0,  0,  0,  0,  0,  0,  0,  0,  0,  0,  0,  0
  38:main.c        ****   0,  0,  0,  0,  0,  0,  0,  0,  0,  0,  0,  0,  0,  0,  0,  0,  0,  0,  0,  0,  0,  0,  0,  0,  0
  39:main.c        ****   0,  0,  0,  0,  0,  0,  0,  0,  0,  0,  0,  0,  0,  0,  0,  0,  0,  0,  0,  0,  0,  0,  0,  0,  0
  40:main.c        ****   0,  0,  0,  0,  0,  0,  0,  0,  0,  0,116,125,171,255,255,150, 93,  0,  0,  0,  0,  0,  0,  0,  0
  41:main.c        ****   0,  0,  0,  0,  0,  0,  0,  0,  0,169,253,253,253,253,253,253,218, 30,  0,  0,  0,  0,  0,  0,  0
  42:main.c        ****   0,  0,  0,  0,  0,  0,  0,  0,169,253,253,253,213,142,176,253,253,122,  0,  0,  0,  0,  0,  0,  0
GAS LISTING C:\Users\Jesper\AppData\Local\Temp\cc9lY2VB.s 			page 2


  43:main.c        ****   0,  0,  0,  0,  0,  0,  0, 52,250,253,210, 32, 12,  0,  6,206,253,140,  0,  0,  0,  0,  0,  0,  0
  44:main.c        ****   0,  0,  0,  0,  0,  0,  0, 77,251,210, 25,  0,  0,  0,122,248,253, 65,  0,  0,  0,  0,  0,  0,  0
  45:main.c        ****   0,  0,  0,  0,  0,  0,  0,  0, 31, 18,  0,  0,  0,  0,209,253,253, 65,  0,  0,  0,  0,  0,  0,  0
  46:main.c        ****   0,  0,  0,  0,  0,  0,  0,  0,  0,  0,  0,  0,  0,117,247,253,198, 10,  0,  0,  0,  0,  0,  0,  0
  47:main.c        ****   0,  0,  0,  0,  0,  0,  0,  0,  0,  0,  0,  0, 76,247,253,231, 63,  0,  0,  0,  0,  0,  0,  0,  0
  48:main.c        ****   0,  0,  0,  0,  0,  0,  0,  0,  0,  0,  0,  0,128,253,253,144,  0,  0,  0,  0,  0,  0,  0,  0,  0
  49:main.c        ****   0,  0,  0,  0,  0,  0,  0,  0,  0,  0,  0,176,246,253,159, 12,  0,  0,  0,  0,  0,  0,  0,  0,  0
  50:main.c        ****   0,  0,  0,  0,  0,  0,  0,  0,  0,  0, 25,234,253,233, 35,  0,  0,  0,  0,  0,  0,  0,  0,  0,  0
  51:main.c        ****   0,  0,  0,  0,  0,  0,  0,  0,  0,  0,198,253,253,141,  0,  0,  0,  0,  0,  0,  0,  0,  0,  0,  0
  52:main.c        ****   0,  0,  0,  0,  0,  0,  0,  0,  0, 78,248,253,189, 12,  0,  0,  0,  0,  0,  0,  0,  0,  0,  0,  0
  53:main.c        ****   0,  0,  0,  0,  0,  0,  0,  0, 19,200,253,253,141,  0,  0,  0,  0,  0,  0,  0,  0,  0,  0,  0,  0
  54:main.c        ****   0,  0,  0,  0,  0,  0,  0,  0,134,253,253,173, 12,  0,  0,  0,  0,  0,  0,  0,  0,  0,  0,  0,  0
  55:main.c        ****   0,  0,  0,  0,  0,  0,  0,  0,248,253,253, 25,  0,  0,  0,  0,  0,  0,  0,  0,  0,  0,  0,  0,  0
  56:main.c        ****   0,  0,  0,  0,  0,  0,  0,  0,248,253,253, 43, 20, 20, 20, 20,  5,  0,  5, 20, 20, 37,150,150,150
  57:main.c        ****   0,  0,  0,  0,  0,  0,  0,  0,248,253,253,253,253,253,253,253,168,143,166,253,253,253,253,253,253
  58:main.c        ****   0,  0,  0,  0,  0,  0,  0,  0,174,253,253,253,253,253,253,253,253,253,253,253,249,247,247,169,117
  59:main.c        ****   0,  0,  0,  0,  0,  0,  0,  0,  0,118,123,123,123,166,253,253,253,155,123,123, 41,  0,  0,  0,  0
  60:main.c        ****   0,  0,  0,  0,  0,  0,  0,  0,  0,  0,  0,  0,  0,  0,  0,  0,  0,  0,  0,  0,  0,  0,  0,  0,  0
  61:main.c        ****   0,  0,  0,  0,  0,  0,  0,  0,  0,  0,  0,  0,  0,  0,  0,  0,  0,  0,  0,  0,  0,  0,  0,  0,  0
  62:main.c        ****   0,  0,  0,  0,  0,  0,  0,  0,  0,  0,  0,  0,  0,  0,  0,  0,  0,  0,  0,  0,  0,  0,  0,  0,  0
  63:main.c        ****   0,  0,  0,  0,  0,  0,  0,  0,  0,  0,  0,  0,  0,  0,  0,  0,  0,  0,  0,  0,  0,  0,  0,  0,  0
  64:main.c        ****   0,  0,  0,  0,  0,  0,  0,  0,  0,  0,  0,  0,  0,  0,  0,  0,  0,  0,  0,  0,  0,  0,  0,  0,  0
  65:main.c        **** };
  66:main.c        **** #elif 1
  67:main.c        **** uint8_t mnist_pic[28*28]={
  68:main.c        ****   0,  0,  0,  0,  0,  0,  0,  0,  0,  0,  0,  0,  0,  0,  0,  0,  0,  0,  0,  0,  0,  0,  0,  0,  0
  69:main.c        ****   0,  0,  0,  0,  0,  0,  0,  0,  0,  0,  0,  0,  0,  0,  0,  0,  0,  0,  0,  0,  0,  0,  0,  0,  0
  70:main.c        ****   0,  0,  0,  0,  0,  0,  0,  0,  0,  0,  0,  0,  0,  0,  0,  0,  0,  0,  0,  0,  0,  0,  0,  0,  0
  71:main.c        ****   0,  0,  0,  0,  0,  0,  0,  0,  0,  0,  0,  0,  0,  0,  0,  0,  0,  0,  0,  0,  0,  0,  0,  0,  0
  72:main.c        ****   0,  0,  0,  0,  0,  0,  0,  0,  0,  0,  0,  0,  0,  0,  0,  0,  0,  0,  0,  0,  0,  0,  0,  0,  0
  73:main.c        ****   0,  0,  0,  0,  0,  0,  0,  0,  0,  0,  0,  0,  0,  0,  0,  0,  0,  0,  0,  0,  0,  0,  0,  0,  0
  74:main.c        ****   0,  0,  0,  0,  0,  0,  0,  0,  0,  0,  0,  0,  0,  0,  0,  0,  0,  0,  0,  0,  0,  0,  0,  0,  0
  75:main.c        ****   0,  0,  0,  0,  0,  0,  0,  0,  0,  0,  0,  0,  0, 36, 56,137,201,199, 95, 37,  0,  0,  0,  0,  0
  76:main.c        ****   0,  0,  0,  0,  0,  0,  0,  0,  0,  0,  0, 45,152,234,254,254,254,254,254,250,211,151,  6,  0,  0
  77:main.c        ****   0,  0,  0,  0,  0,  0,  0,  0,  0, 46,153,240,254,254,227,166,133,251,200,254,229,225,104,  0,  0
  78:main.c        ****   0,  0,  0,  0,  0,  0,  0,  0,153,234,254,254,187,142,  8,  0,  0,191, 40,198,246,223,253, 21,  0
  79:main.c        ****   0,  0,  0,  0,  0,  0,  8,126,253,254,233,128, 11,  0,  0,  0,  0,210, 43, 70,254,254,254, 21,  0
  80:main.c        ****   0,  0,  0,  0,  0,  0, 72,243,254,228, 54,  0,  0,  0,  0,  3, 32,116,225,242,254,255,162,  5,  0
  81:main.c        ****   0,  0,  0,  0,  0,  0, 75,240,254,223,109,138,178,178,169,210,251,231,254,254,254,232, 38,  0,  0
  82:main.c        ****   0,  0,  0,  0,  0,  0,  9,175,244,253,255,254,254,251,254,254,254,254,254,252,171, 25,  0,  0,  0
  83:main.c        ****   0,  0,  0,  0,  0,  0,  0,  0, 16,136,195,176,146,153,200,254,254,254,254,150, 16,  0,  0,  0,  0
  84:main.c        ****   0,  0,  0,  0,  0,  0,  0,  0,  0,  0,  0,  0,  0,  0,162,254,254,241, 99,  3,  0,  0,  0,  0,  0
  85:main.c        ****   0,  0,  0,  0,  0,  0,  0,  0,  0,  0,  0,  0,  0,118,250,254,254, 90,  0,  0,  0,  0,  0,  0,  0
  86:main.c        ****   0,  0,  0,  0,  0,  0,  0,  0,  0,  0,  0,  0,100,242,254,254,211,  7,  0,  0,  0,  0,  0,  0,  0
  87:main.c        ****   0,  0,  0,  0,  0,  0,  0,  0,  0,  0,  0, 54,241,254,254,242, 59,  0,  0,  0,  0,  0,  0,  0,  0
  88:main.c        ****   0,  0,  0,  0,  0,  0,  0,  0,  0,  0,  0,131,254,254,244, 64,  0,  0,  0,  0,  0,  0,  0,  0,  0
  89:main.c        ****   0,  0,  0,  0,  0,  0,  0,  0,  0,  0, 13,249,254,254,152,  0,  0,  0,  0,  0,  0,  0,  0,  0,  0
  90:main.c        ****   0,  0,  0,  0,  0,  0,  0,  0,  0, 12,228,254,254,208,  8,  0,  0,  0,  0,  0,  0,  0,  0,  0,  0
  91:main.c        ****   0,  0,  0,  0,  0,  0,  0,  0,  0, 78,255,254,254, 66,  0,  0,  0,  0,  0,  0,  0,  0,  0,  0,  0
  92:main.c        ****   0,  0,  0,  0,  0,  0,  0,  0,  0,209,254,254,137,  0,  0,  0,  0,  0,  0,  0,  0,  0,  0,  0,  0
  93:main.c        ****   0,  0,  0,  0,  0,  0,  0,  0,  0,227,255,233, 25,  0,  0,  0,  0,  0,  0,  0,  0,  0,  0,  0,  0
  94:main.c        ****   0,  0,  0,  0,  0,  0,  0,  0,  0,113,255,108,  0,  0,  0,  0,  0,  0,  0,  0,  0,  0,  0,  0,  0
  95:main.c        ****   0,  0,  0,  0,  0,  0,  0,  0,  0,  0,  0,  0,  0,  0,  0,  0,  0,  0,  0,  0,  0,  0,  0,  0,  0
  96:main.c        **** };
  97:main.c        **** #else
  98:main.c        **** uint8_t mnist_pic[28*28] = {
  99:main.c        ****   0,  0,  0,  0,  0,  0,  0,  0,  0,  0,  0,  0,  0,  0,  0,  0,  0,  0,  0,  0,  0,  0,  0,  0,  0
GAS LISTING C:\Users\Jesper\AppData\Local\Temp\cc9lY2VB.s 			page 3


 100:main.c        ****   0,  0,  0,  0,  0,  0,  0,  0,  0,  0,  0,  0,  0,  0,  0,  0,  0,  0,  0,  0,  0,  0,  0,  0,  0
 101:main.c        ****   0,  0,  0,  0,  0,  0,  0,  0,  0,  0,  0,  0,  0,  0,  0,  0,  0,  0,  0,  0,  0,  0,  0,  0,  0
 102:main.c        ****   0,  0,  0,  0,  0,  0,  0,  0,  0,  0,  0,  0,  0,  0,  0,  0,  0,  0,  0,  0,  0,  0,  0,  0,  0
 103:main.c        ****   0,  0,  0,  0,  0,  0,  0,  0,  0,  0,  0,  0,  0,  0,  0,  0,  0,  0,  0,  0,  0,  0,  0,  0,  0
 104:main.c        ****   0,  0,  0,  0,  0,  0,  0,  0,  0,  0,  0,  0,  0,  0,  0,  0,  0,  0,  0,  0,  0,  0,  0,  0,  0
 105:main.c        ****   0,  0,  0,  0,  0,  0,  0,  0,  0,  0,  0,  0,  0,  0,  0,  0,  0,  0,  0,  0,  0,  0,  0,  0,  0
 106:main.c        ****   0,  0,  0,  0,  0,  0,  0,  0,  0,  0,  0,  0,  0, 36, 52,103,130,133, 97, 35,  0,  0,  0,  0,  0
 107:main.c        ****   0,  0,  0,  0,  0,  0,  0,  0,  0,  0,  0,  8, 84,178,231,252,254,253,228,201, 93,  0,  0,  0,  0
 108:main.c        ****   0,  0,  0,  0,  0,  0,  0,  0,  0,  0, 21,171,244,254,254,252,253,254,254,254,166, 26,  0,  0,  0
 109:main.c        ****   0,  0,  0,  0,  0,  0,  0,  0,  0, 78,243,254,253,253,165,163,244,253,254,254,254, 79,  0,  0,  0
 110:main.c        ****   0,  0,  0,  0,  0,  0,  0,  0,  0,178,254,254,246,104,  0,  0,103,240,254,254,254,254, 79,  0,  0
 111:main.c        ****   0,  0,  0,  0,  0,  0,  0,  0,  0,177,254,254,252, 48,  0,  0,  0,  0,159,253,254,254,252, 79,  0
 112:main.c        ****   0,  0,  0,  0,  0,  0,  0,  0,  0, 49,196,252,254,239, 70,  0,  0,  0,  0, 79,254,254,254,248, 79
 113:main.c        ****   0,  0,  0,  0,  0,  0,  0,  0,  0,  0, 26,248,254,254,103,  0,  0,  0,  0,  0,103,254,254,254,208
 114:main.c        ****   0,  0,  0,  0,  0,  0,  0,  0,  0,  0, 36,250,254,245, 50,  0,  0,  0,  0,  0,  0,231,254,254, 83
 115:main.c        ****   0,  0,  0,  0,  0,  0,  0,  0,  0,  0, 36,250,254,253,156, 36,  0,  0,  0,  0,  0,152,254,254, 83
 116:main.c        ****   0,  0,  0,  0,  0,  0,  0,  0,  0,  0,  8,223,254,254,254,193,  0,  0,  0,  0,  0, 79,254,254,245
 117:main.c        ****   0,  0,  0,  0,  0,  0,  0,  0,  0,  0,  0, 52,253,254,254,255,177, 21,  0,  0, 31,243,254,254,193
 118:main.c        ****   0,  0,  0,  0,  0,  0,  0,  0,  0,  0,  0,  0, 79,254,254,254,254,236,170,177,223,252,254,254, 79
 119:main.c        ****   0,  0,  0,  0,   0,  0,  0,  0,  0,  0,  0,  0,  0,177,254,254,254,254,253,254,254,254,242,103,  
 120:main.c        ****   0,  0,  0,  0,  0,  0,  0,  0,  0,  0,  0,  0,  0, 36, 79,159,223,242,242,254,246,171, 83,  0,  0
 121:main.c        ****   0,  0,  0,  0,  0,  0,  0,  0,  0,  0,  0,  0,  0,  0,  0,  0,  0,  0,  0,  0,  0,  0,  0,  0,  0
 122:main.c        ****   0,  0,  0,  0,  0,  0,  0,  0,  0,  0,  0,  0,  0,  0,  0,  0,  0,  0,  0,  0,  0,  0,  0,  0,  0
 123:main.c        ****   0,  0,  0,  0,  0,  0,  0,  0,  0,  0,  0,  0,  0,  0,  0,  0,  0,  0,  0,  0,  0,  0,  0,  0,  0
 124:main.c        ****   0,  0,  0,  0,  0,  0,  0,  0,  0,  0,  0,  0,  0,  0,  0,  0,  0,  0,  0,  0,  0,  0,  0,  0,  0
 125:main.c        ****   0,  0,  0,  0,  0,  0,  0,  0,  0,  0,  0,  0,  0,  0,  0,  0,  0,  0,  0,  0,  0,  0,  0,  0,  0
 126:main.c        **** };
 127:main.c        **** 
 128:main.c        **** #endif
 129:main.c        **** 
 130:main.c        **** static tm_err_t layer_cb(tm_mdl_t* mdl, tml_head_t* lh)
 131:main.c        **** {   //dump middle result
  17              		.loc 1 131 1
  18              		.cfi_startproc
  19              	.LVL0:
 132:main.c        ****     int h = lh->out_dims[1];
  20              		.loc 1 132 5
 133:main.c        ****     int w = lh->out_dims[2];
  21              		.loc 1 133 5
 134:main.c        ****     int ch= lh->out_dims[3];
  22              		.loc 1 134 5
 135:main.c        ****     mtype_t* output = TML_GET_OUTPUT(mdl, lh);
  23              		.loc 1 135 5
 136:main.c        ****     return TM_OK;
  24              		.loc 1 136 5
 137:main.c        ****     TM_PRINTF("Layer %d callback ========\r\n", mdl->layer_i);
 138:main.c        ****     #if 1
 139:main.c        ****     for(int y=0; y<h; y++){
 140:main.c        ****         TM_PRINTF("[");
 141:main.c        ****         for(int x=0; x<w; x++){
 142:main.c        ****             TM_PRINTF("[");
 143:main.c        ****             for(int c=0; c<ch; c++){
 144:main.c        ****             #if TM_MDL_TYPE == TM_MDL_FP32
 145:main.c        ****                 TM_PRINTF("%.3f,", output[(y*w+x)*ch+c]);
 146:main.c        ****             #else
 147:main.c        ****                 TM_PRINTF("%.3f,", TML_DEQUANT(lh,output[(y*w+x)*ch+c]));
 148:main.c        ****             #endif
GAS LISTING C:\Users\Jesper\AppData\Local\Temp\cc9lY2VB.s 			page 4


 149:main.c        ****             }
 150:main.c        ****             TM_PRINTF("],");
 151:main.c        ****         }
 152:main.c        ****         TM_PRINTF("],\r\n");
 153:main.c        ****     }
 154:main.c        ****     TM_PRINTF("\r\n");
 155:main.c        ****     #endif
 156:main.c        ****     return TM_OK;
 157:main.c        **** }
  25              		.loc 1 157 1 is_stmt 0
  26 0000 0145     		li	a0,0
  27              	.LVL1:
  28 0002 8280     		ret
  29              		.cfi_endproc
  30              	.LFE29:
  32              		.globl	__fixsfsi
  33              		.globl	__floatsisf
  34              		.globl	__subsf3
  35              		.globl	__mulsf3
  36              		.globl	__gtsf2
  37              		.section	.text.parse_output,"ax",@progbits
  38              		.align	1
  40              	parse_output:
  41              	.LFB30:
 158:main.c        **** 
 159:main.c        **** static void parse_output(tm_mat_t* outs)
 160:main.c        **** {
  42              		.loc 1 160 1 is_stmt 1
  43              		.cfi_startproc
  44              	.LVL2:
 161:main.c        ****     tm_mat_t out = outs[0];
  45              		.loc 1 161 5
 162:main.c        ****     float* data  = out.dataf;
  46              		.loc 1 162 5
 163:main.c        ****     float maxp = 0;
  47              		.loc 1 163 5
 164:main.c        ****     int maxi = -1;
  48              		.loc 1 164 5
 165:main.c        ****     for(int i=0; i<10; i++){
  49              		.loc 1 165 5
  50              	.LBB2:
  51              		.loc 1 165 9
  52              	.LBE2:
 160:main.c        ****     tm_mat_t out = outs[0];
  53              		.loc 1 160 1 is_stmt 0
  54 0000 3971     		addi	sp,sp,-64
  55              	.LCFI0:
  56              		.cfi_def_cfa_offset 64
  57 0002 22DC     		sw	s0,56(sp)
  58              	.LVL3:
  59              		.cfi_offset 8, -8
  60              	.LBB3:
 166:main.c        ****         printf("%d: %d.%03d\r\n", i, (int)data[i], (int)((data[i] - (int)data[i]) * 1000));
  61              		.loc 1 166 83
  62 0004 37040000 		lui	s0,%hi(.LANCHOR0)
  63 0008 13040400 		addi	s0,s0,%lo(.LANCHOR0)
  64              	.LBE3:
GAS LISTING C:\Users\Jesper\AppData\Local\Temp\cc9lY2VB.s 			page 5


 160:main.c        ****     tm_mat_t out = outs[0];
  65              		.loc 1 160 1
  66 000c 4ED6     		sw	s3,44(sp)
  67 000e 62CC     		sw	s8,24(sp)
  68              		.cfi_offset 19, -20
  69              		.cfi_offset 24, -40
  70 0010 83298500 		lw	s3,8(a0)
  71              	.LBB4:
  72              		.loc 1 166 83
  73 0014 032C0400 		lw	s8,0(s0)
  74              	.LBE4:
 160:main.c        ****     tm_mat_t out = outs[0];
  75              		.loc 1 160 1
  76 0018 26DA     		sw	s1,52(sp)
  77 001a 4AD8     		sw	s2,48(sp)
  78 001c 52D4     		sw	s4,40(sp)
  79 001e 5AD0     		sw	s6,32(sp)
  80 0020 5ECE     		sw	s7,28(sp)
  81 0022 06DE     		sw	ra,60(sp)
  82 0024 56D2     		sw	s5,36(sp)
  83              		.cfi_offset 9, -12
  84              		.cfi_offset 18, -16
  85              		.cfi_offset 20, -24
  86              		.cfi_offset 22, -32
  87              		.cfi_offset 23, -36
  88              		.cfi_offset 1, -4
  89              		.cfi_offset 21, -28
  90              	.LBB5:
 165:main.c        ****     for(int i=0; i<10; i++){
  91              		.loc 1 165 13
  92 0026 8144     		li	s1,0
  93              	.LBE5:
 164:main.c        ****     for(int i=0; i<10; i++){
  94              		.loc 1 164 9
  95 0028 7D5A     		li	s4,-1
 163:main.c        ****     int maxi = -1;
  96              		.loc 1 163 11
  97 002a 13090000 		mv	s2,zero
  98              	.LBB6:
  99              		.loc 1 166 9
 100 002e 930B4400 		addi	s7,s0,4
 165:main.c        ****         printf("%d: %d.%03d\r\n", i, (int)data[i], (int)((data[i] - (int)data[i]) * 1000));
 101              		.loc 1 165 5
 102 0032 294B     		li	s6,10
 103              	.LVL4:
 104              	.L5:
 105              		.loc 1 166 9 is_stmt 1
 106              		.loc 1 166 47 is_stmt 0
 107 0034 83AA0900 		lw	s5,0(s3)
 108              		.loc 1 166 9
 109 0038 5685     		mv	a0,s5
 110 003a 97000000 		call	__fixsfsi
 110      E7800000 
 111              	.LVL5:
 112 0042 2AC6     		sw	a0,12(sp)
 113              		.loc 1 166 67
 114 0044 97000000 		call	__floatsisf
GAS LISTING C:\Users\Jesper\AppData\Local\Temp\cc9lY2VB.s 			page 6


 114      E7800000 
 115              	.LVL6:
 116 004c AA85     		mv	a1,a0
 117 004e 5685     		mv	a0,s5
 118 0050 97000000 		call	__subsf3
 118      E7800000 
 119              	.LVL7:
 120              		.loc 1 166 83
 121 0058 E285     		mv	a1,s8
 122 005a 97000000 		call	__mulsf3
 122      E7800000 
 123              	.LVL8:
 124              		.loc 1 166 9
 125 0062 97000000 		call	__fixsfsi
 125      E7800000 
 126              	.LVL9:
 127 006a 3246     		lw	a2,12(sp)
 128 006c AA86     		mv	a3,a0
 129 006e A685     		mv	a1,s1
 130 0070 5E85     		mv	a0,s7
 131 0072 97000000 		call	printf
 131      E7800000 
 132              	.LVL10:
 167:main.c        ****         if(data[i] > maxp) {
 133              		.loc 1 167 9 is_stmt 1
 134              		.loc 1 167 16 is_stmt 0
 135 007a 83AA0900 		lw	s5,0(s3)
 136              		.loc 1 167 11
 137 007e CA85     		mv	a1,s2
 138 0080 5685     		mv	a0,s5
 139 0082 97000000 		call	__gtsf2
 139      E7800000 
 140              	.LVL11:
 141 008a 6354A000 		ble	a0,zero,.L3
 142 008e 268A     		mv	s4,s1
 143              	.LVL12:
 168:main.c        ****             maxi = i;
 169:main.c        ****             maxp = data[i];
 144              		.loc 1 169 18
 145 0090 5689     		mv	s2,s5
 146              	.LVL13:
 147              	.L3:
 165:main.c        ****         printf("%d: %d.%03d\r\n", i, (int)data[i], (int)((data[i] - (int)data[i]) * 1000));
 148              		.loc 1 165 25 discriminator 2
 149 0092 8504     		addi	s1,s1,1
 150              	.LVL14:
 151 0094 9109     		addi	s3,s3,4
 165:main.c        ****         printf("%d: %d.%03d\r\n", i, (int)data[i], (int)((data[i] - (int)data[i]) * 1000));
 152              		.loc 1 165 5 discriminator 2
 153 0096 E39F64F9 		bne	s1,s6,.L5
 154              	.LBE6:
 170:main.c        ****         }
 171:main.c        ****     }
 172:main.c        ****     TM_PRINTF("### Predict output is: Number %d, prob %d.%03d\r\n", maxi, (int)maxp, (int)((maxp - 
 155              		.loc 1 172 5 is_stmt 1
 156 009a 4A85     		mv	a0,s2
 157 009c 97000000 		call	__fixsfsi
GAS LISTING C:\Users\Jesper\AppData\Local\Temp\cc9lY2VB.s 			page 7


 157      E7800000 
 158              	.LVL15:
 159 00a4 2AC6     		sw	a0,12(sp)
 160 00a6 97000000 		call	__floatsisf
 160      E7800000 
 161              	.LVL16:
 162 00ae AA85     		mv	a1,a0
 163 00b0 4A85     		mv	a0,s2
 164 00b2 97000000 		call	__subsf3
 164      E7800000 
 165              	.LVL17:
 166 00ba 0C40     		lw	a1,0(s0)
 167 00bc 97000000 		call	__mulsf3
 167      E7800000 
 168              	.LVL18:
 169 00c4 97000000 		call	__fixsfsi
 169      E7800000 
 170              	.LVL19:
 171 00cc 3246     		lw	a2,12(sp)
 172 00ce AA86     		mv	a3,a0
 173 00d0 D285     		mv	a1,s4
 174 00d2 13054401 		addi	a0,s0,20
 175 00d6 97000000 		call	printf
 175      E7800000 
 176              	.LVL20:
 177              		.loc 1 172 5
 173:main.c        ****     return;
 174:main.c        **** }
 178              		.loc 1 174 1 is_stmt 0
 179 00de 6254     		lw	s0,56(sp)
 180              		.cfi_restore 8
 181 00e0 F250     		lw	ra,60(sp)
 182              		.cfi_restore 1
 183 00e2 D254     		lw	s1,52(sp)
 184              		.cfi_restore 9
 185              	.LVL21:
 186 00e4 4259     		lw	s2,48(sp)
 187              		.cfi_restore 18
 188              	.LVL22:
 189 00e6 B259     		lw	s3,44(sp)
 190              		.cfi_restore 19
 191 00e8 225A     		lw	s4,40(sp)
 192              		.cfi_restore 20
 193              	.LVL23:
 194 00ea 925A     		lw	s5,36(sp)
 195              		.cfi_restore 21
 196 00ec 025B     		lw	s6,32(sp)
 197              		.cfi_restore 22
 198 00ee F24B     		lw	s7,28(sp)
 199              		.cfi_restore 23
 200 00f0 624C     		lw	s8,24(sp)
 201              		.cfi_restore 24
 172:main.c        ****     return;
 202              		.loc 1 172 5
 203 00f2 0145     		li	a0,0
 204              		.loc 1 174 1
 205 00f4 2161     		addi	sp,sp,64
GAS LISTING C:\Users\Jesper\AppData\Local\Temp\cc9lY2VB.s 			page 8


 206              	.LCFI1:
 207              		.cfi_def_cfa_offset 0
 172:main.c        ****     return;
 208              		.loc 1 172 5
 209 00f6 17030000 		tail	fflush
 209      67000300 
 210              	.LVL24:
 211              		.cfi_endproc
 212              	.LFE30:
 214              		.section	.text.ledInit,"ax",@progbits
 215              		.align	1
 216              		.globl	ledInit
 218              	ledInit:
 219              	.LFB31:
 175:main.c        **** 
 176:main.c        **** void ledInit (void){
 220              		.loc 1 176 20 is_stmt 1
 221              		.cfi_startproc
 177:main.c        ****     rcu_periph_clock_enable(RCU_GPIOB);
 222              		.loc 1 177 5
 176:main.c        ****     rcu_periph_clock_enable(RCU_GPIOB);
 223              		.loc 1 176 20 is_stmt 0
 224 0000 4111     		addi	sp,sp,-16
 225              	.LCFI2:
 226              		.cfi_def_cfa_offset 16
 227              		.loc 1 177 5
 228 0002 13053060 		li	a0,1539
 176:main.c        ****     rcu_periph_clock_enable(RCU_GPIOB);
 229              		.loc 1 176 20
 230 0006 06C6     		sw	ra,12(sp)
 231              		.cfi_offset 1, -4
 232              		.loc 1 177 5
 233 0008 97000000 		call	rcu_periph_clock_enable
 233      E7800000 
 234              	.LVL25:
 178:main.c        **** 	gpio_init(GPIOB, GPIO_MODE_OUT_PP, GPIO_OSPEED_50MHZ, GPIO_PIN_0 | GPIO_PIN_1);
 235              		.loc 1 178 2 is_stmt 1
 179:main.c        **** }
 236              		.loc 1 179 1 is_stmt 0
 237 0010 B240     		lw	ra,12(sp)
 238              		.cfi_restore 1
 178:main.c        **** 	gpio_init(GPIOB, GPIO_MODE_OUT_PP, GPIO_OSPEED_50MHZ, GPIO_PIN_0 | GPIO_PIN_1);
 239              		.loc 1 178 2
 240 0012 37150140 		li	a0,1073811456
 241              		.loc 1 179 1
 178:main.c        **** 	gpio_init(GPIOB, GPIO_MODE_OUT_PP, GPIO_OSPEED_50MHZ, GPIO_PIN_0 | GPIO_PIN_1);
 242              		.loc 1 178 2
 243 0016 8D46     		li	a3,3
 244 0018 0D46     		li	a2,3
 245 001a C145     		li	a1,16
 246 001c 130505C0 		addi	a0,a0,-1024
 247              		.loc 1 179 1
 248 0020 4101     		addi	sp,sp,16
 249              	.LCFI3:
 250              		.cfi_def_cfa_offset 0
 178:main.c        **** 	gpio_init(GPIOB, GPIO_MODE_OUT_PP, GPIO_OSPEED_50MHZ, GPIO_PIN_0 | GPIO_PIN_1);
 251              		.loc 1 178 2
GAS LISTING C:\Users\Jesper\AppData\Local\Temp\cc9lY2VB.s 			page 9


 252 0022 17030000 		tail	gpio_init
 252      67000300 
 253              	.LVL26:
 254              		.cfi_endproc
 255              	.LFE31:
 257              		.section	.text.ledOnOff,"ax",@progbits
 258              		.align	1
 259              		.globl	ledOnOff
 261              	ledOnOff:
 262              	.LFB32:
 180:main.c        **** 
 181:main.c        **** void ledOnOff(int set){
 263              		.loc 1 181 23 is_stmt 1
 264              		.cfi_startproc
 265              	.LVL27:
 182:main.c        ****     gpio_bit_write(GPIOB, GPIO_PIN_0, set);
 266              		.loc 1 182 5
 267 0000 2A86     		mv	a2,a0
 268 0002 37150140 		li	a0,1073811456
 269              	.LVL28:
 270 0006 8545     		li	a1,1
 271 0008 130505C0 		addi	a0,a0,-1024
 272 000c 17030000 		tail	gpio_bit_write
 272      67000300 
 273              	.LVL29:
 274              		.cfi_endproc
 275              	.LFE32:
 277              		.globl	__floatunsisf
 278              		.globl	__divsf3
 279              		.section	.text.startup.main,"ax",@progbits
 280              		.align	1
 281              		.globl	main
 283              	main:
 284              	.LFB33:
 183:main.c        **** }
 184:main.c        **** 
 185:main.c        **** int main(int argc, char** argv)
 186:main.c        **** {   
 285              		.loc 1 186 1
 286              		.cfi_startproc
 287              	.LVL30:
 187:main.c        ****     uint32_t count = 0;
 288              		.loc 1 187 5
 188:main.c        ****     char usb_data_buffer[512] = {'\0'};
 289              		.loc 1 188 5
 189:main.c        ****     char usb_read_buf[80] = {'\0'};
 290              		.loc 1 189 5
 190:main.c        **** 
 191:main.c        ****     configure_usb_serial();
 291              		.loc 1 191 5
 186:main.c        ****     uint32_t count = 0;
 292              		.loc 1 186 1 is_stmt 0
 293 0000 1971     		addi	sp,sp,-128
 294              	.LCFI4:
 295              		.cfi_def_cfa_offset 128
 296 0002 86DE     		sw	ra,124(sp)
 297 0004 A2DC     		sw	s0,120(sp)
GAS LISTING C:\Users\Jesper\AppData\Local\Temp\cc9lY2VB.s 			page 10


 298 0006 A6DA     		sw	s1,116(sp)
 299 0008 CAD8     		sw	s2,112(sp)
 300 000a CED6     		sw	s3,108(sp)
 301 000c D2D4     		sw	s4,104(sp)
 302 000e D6D2     		sw	s5,100(sp)
 303 0010 DAD0     		sw	s6,96(sp)
 304 0012 DECE     		sw	s7,92(sp)
 305              		.cfi_offset 1, -4
 306              		.cfi_offset 8, -8
 307              		.cfi_offset 9, -12
 308              		.cfi_offset 18, -16
 309              		.cfi_offset 19, -20
 310              		.cfi_offset 20, -24
 311              		.cfi_offset 21, -28
 312              		.cfi_offset 22, -32
 313              		.cfi_offset 23, -36
 314              		.loc 1 191 5
 315 0014 97000000 		call	configure_usb_serial
 315      E7800000 
 316              	.LVL31:
 192:main.c        ****     usb_delay_1ms(1);
 317              		.loc 1 192 5 is_stmt 1
 318 001c 0545     		li	a0,1
 319 001e 97000000 		call	usb_delay_1ms
 319      E7800000 
 320              	.LVL32:
 193:main.c        **** 
 194:main.c        ****     while (!usb_serial_available()) {
 321              		.loc 1 194 5
 322              	.L13:
 323              		.loc 1 194 13 is_stmt 0
 324 0026 97000000 		call	usb_serial_available
 324      E7800000 
 325              	.LVL33:
 326              		.loc 1 194 11
 327 002e 63030510 		beq	a0,zero,.L14
 195:main.c        ****         usb_delay_1ms(100);
 196:main.c        ****     }
 197:main.c        **** 
 198:main.c        ****     TM_DBGT_INIT();
 328              		.loc 1 198 5 is_stmt 1
 329              		.loc 1 198 5
 330              		.loc 1 198 5
 331 0032 97000000 		call	get_time
 331      E7800000 
 332              	.LVL34:
 333              		.loc 1 198 19
 199:main.c        ****     TM_PRINTF("mnist demo\r\n");
 334              		.loc 1 199 5
 335 003a 37040000 		lui	s0,%hi(.LANCHOR0)
 336 003e 13050400 		addi	a0,s0,%lo(.LANCHOR0)
 337 0042 13058504 		addi	a0,a0,72
 338 0046 97000000 		call	puts
 338      E7800000 
 339              	.LVL35:
 340              		.loc 1 199 5
 341 004e 0145     		li	a0,0
GAS LISTING C:\Users\Jesper\AppData\Local\Temp\cc9lY2VB.s 			page 11


 342              	.LBB7:
 200:main.c        ****     tm_mdl_t mdl;
 201:main.c        **** 
 202:main.c        ****     for(int i=0; i<28*28; i++){
 203:main.c        ****         TM_PRINTF("%3d,", mnist_pic[i]);
 343              		.loc 1 203 9 is_stmt 0
 344 0050 37090000 		lui	s2,%hi(.LANCHOR1)
 345              	.LBE7:
 199:main.c        ****     TM_PRINTF("mnist demo\r\n");
 346              		.loc 1 199 5
 347 0054 97000000 		call	fflush
 347      E7800000 
 348              	.LVL36:
 199:main.c        ****     TM_PRINTF("mnist demo\r\n");
 349              		.loc 1 199 32 is_stmt 1
 200:main.c        ****     tm_mdl_t mdl;
 350              		.loc 1 200 5
 202:main.c        ****         TM_PRINTF("%3d,", mnist_pic[i]);
 351              		.loc 1 202 5
 352              	.LBB8:
 202:main.c        ****         TM_PRINTF("%3d,", mnist_pic[i]);
 353              		.loc 1 202 9
 202:main.c        ****         TM_PRINTF("%3d,", mnist_pic[i]);
 354              		.loc 1 202 13 is_stmt 0
 355 005c 8144     		li	s1,0
 356 005e 13040400 		addi	s0,s0,%lo(.LANCHOR0)
 357              		.loc 1 203 9
 358 0062 13090900 		addi	s2,s2,%lo(.LANCHOR1)
 359 0066 370A0000 		lui	s4,%hi(.LC6)
 204:main.c        ****         if(i%28==27)TM_PRINTF("\r\n");
 360              		.loc 1 204 13
 361 006a F14A     		li	s5,28
 362              		.loc 1 204 11
 363 006c 6D4B     		li	s6,27
 364              		.loc 1 204 21
 365 006e B70B0000 		lui	s7,%hi(.LC7)
 202:main.c        ****         TM_PRINTF("%3d,", mnist_pic[i]);
 366              		.loc 1 202 5
 367 0072 93090031 		li	s3,784
 368              	.LVL37:
 369              	.L16:
 203:main.c        ****         if(i%28==27)TM_PRINTF("\r\n");
 370              		.loc 1 203 9 is_stmt 1
 371 0076 B3079900 		add	a5,s2,s1
 372 007a 83C50700 		lbu	a1,0(a5)
 373 007e 13050A00 		addi	a0,s4,%lo(.LC6)
 374 0082 97000000 		call	printf
 374      E7800000 
 375              	.LVL38:
 203:main.c        ****         if(i%28==27)TM_PRINTF("\r\n");
 376              		.loc 1 203 9
 377 008a 0145     		li	a0,0
 378 008c 97000000 		call	fflush
 378      E7800000 
 379              	.LVL39:
 203:main.c        ****         if(i%28==27)TM_PRINTF("\r\n");
 380              		.loc 1 203 40
GAS LISTING C:\Users\Jesper\AppData\Local\Temp\cc9lY2VB.s 			page 12


 381              		.loc 1 204 9
 382              		.loc 1 204 13 is_stmt 0
 383 0094 B3E75403 		rem	a5,s1,s5
 384              		.loc 1 204 11
 385 0098 63986701 		bne	a5,s6,.L15
 386              		.loc 1 204 21 is_stmt 1 discriminator 1
 387 009c 13850B00 		addi	a0,s7,%lo(.LC7)
 388 00a0 97000000 		call	puts
 388      E7800000 
 389              	.LVL40:
 390              	.L15:
 391              		.loc 1 204 21 discriminator 3
 392 00a8 0145     		li	a0,0
 202:main.c        ****         TM_PRINTF("%3d,", mnist_pic[i]);
 393              		.loc 1 202 28 is_stmt 0 discriminator 3
 394 00aa 8504     		addi	s1,s1,1
 395              	.LVL41:
 396              		.loc 1 204 21 discriminator 3
 397 00ac 97000000 		call	fflush
 397      E7800000 
 398              	.LVL42:
 399              		.loc 1 204 38 is_stmt 1 discriminator 3
 202:main.c        ****         TM_PRINTF("%3d,", mnist_pic[i]);
 400              		.loc 1 202 5 is_stmt 0 discriminator 3
 401 00b4 E39134FD 		bne	s1,s3,.L16
 402              	.LBE8:
 205:main.c        ****     }
 206:main.c        **** 
 207:main.c        ****     tm_mat_t in_uint8 = {3,28,28,1, {(mtype_t*)mnist_pic}};
 403              		.loc 1 207 5 is_stmt 1
 404              		.loc 1 207 14 is_stmt 0
 405 00b8 3146     		li	a2,12
 406 00ba 93050406 		addi	a1,s0,96
 407 00be 4808     		addi	a0,sp,20
 408 00c0 97000000 		call	memcpy
 408      E7800000 
 409              	.LVL43:
 208:main.c        ****     tm_mat_t in = {3,28,28,1, {NULL}};
 410              		.loc 1 208 5 is_stmt 1
 411              		.loc 1 208 14 is_stmt 0
 412 00c8 3146     		li	a2,12
 413 00ca 9305C406 		addi	a1,s0,108
 414 00ce 0810     		addi	a0,sp,32
 415 00d0 97000000 		call	memcpy
 415      E7800000 
 416              	.LVL44:
 209:main.c        ****     tm_mat_t outs[1];
 417              		.loc 1 209 5 is_stmt 1
 210:main.c        ****     tm_err_t res;
 418              		.loc 1 210 5
 211:main.c        ****     tm_stat((tm_mdlbin_t*)mdl_data); 
 419              		.loc 1 211 5
 420 00d8 B7040000 		lui	s1,%hi(mdl_data)
 421              	.LVL45:
 422 00dc 13850400 		addi	a0,s1,%lo(mdl_data)
 423 00e0 97000000 		call	tm_stat
 423      E7800000 
GAS LISTING C:\Users\Jesper\AppData\Local\Temp\cc9lY2VB.s 			page 13


 424              	.LVL46:
 212:main.c        **** 
 213:main.c        ****     res = tm_load(&mdl, mdl_data, NULL, layer_cb, &in);
 425              		.loc 1 213 5
 426              		.loc 1 213 11 is_stmt 0
 427 00e8 B7060000 		lui	a3,%hi(layer_cb)
 428 00ec 93850400 		addi	a1,s1,%lo(mdl_data)
 429 00f0 1810     		addi	a4,sp,32
 430 00f2 93860600 		addi	a3,a3,%lo(layer_cb)
 431 00f6 0146     		li	a2,0
 432 00f8 2818     		addi	a0,sp,56
 433 00fa 97000000 		call	tm_load
 433      E7800000 
 434              	.LVL47:
 435 0102 AA85     		mv	a1,a0
 436              	.LVL48:
 214:main.c        ****     if(res != TM_OK) {
 437              		.loc 1 214 5 is_stmt 1
 438              		.loc 1 214 7 is_stmt 0
 439 0104 1DCD     		beq	a0,zero,.L17
 215:main.c        ****         TM_PRINTF("tm model load err %d\n", res);
 440              		.loc 1 215 9 is_stmt 1
 441 0106 13058407 		addi	a0,s0,120
 442              	.LVL49:
 443 010a 97000000 		call	printf
 443      E7800000 
 444              	.LVL50:
 445              		.loc 1 215 9
 446 0112 0145     		li	a0,0
 447 0114 97000000 		call	fflush
 447      E7800000 
 448              	.LVL51:
 449              		.loc 1 215 49
 216:main.c        ****         return -1;
 450              		.loc 1 216 9
 451              		.loc 1 216 16 is_stmt 0
 452 011c 7D55     		li	a0,-1
 453              	.L12:
 217:main.c        ****     }
 218:main.c        **** 
 219:main.c        **** #if (TM_MDL_TYPE == TM_MDL_INT8) || (TM_MDL_TYPE == TM_MDL_INT16) 
 220:main.c        ****     res = tm_preprocess(&mdl, TMPP_UINT2INT, &in_uint8, &in); 
 221:main.c        **** #else
 222:main.c        ****     res = tm_preprocess(&mdl, TMPP_UINT2FP01, &in_uint8, &in); 
 223:main.c        **** #endif
 224:main.c        ****     TM_DBGT_START();
 225:main.c        ****     res = tm_run(&mdl, &in, outs);
 226:main.c        ****     TM_DBGT("tm_run");
 227:main.c        ****     if(res==TM_OK) parse_output(outs);  
 228:main.c        ****     else TM_PRINTF("tm run error: %d\r\n", res);
 229:main.c        ****     tm_unload(&mdl);                 
 230:main.c        ****     return 0;
 231:main.c        **** }
 454              		.loc 1 231 1
 455 011e F650     		lw	ra,124(sp)
 456              		.cfi_remember_state
 457              		.cfi_restore 1
GAS LISTING C:\Users\Jesper\AppData\Local\Temp\cc9lY2VB.s 			page 14


 458 0120 6654     		lw	s0,120(sp)
 459              		.cfi_restore 8
 460 0122 D654     		lw	s1,116(sp)
 461              		.cfi_restore 9
 462 0124 4659     		lw	s2,112(sp)
 463              		.cfi_restore 18
 464 0126 B659     		lw	s3,108(sp)
 465              		.cfi_restore 19
 466 0128 265A     		lw	s4,104(sp)
 467              		.cfi_restore 20
 468 012a 965A     		lw	s5,100(sp)
 469              		.cfi_restore 21
 470 012c 065B     		lw	s6,96(sp)
 471              		.cfi_restore 22
 472 012e F64B     		lw	s7,92(sp)
 473              		.cfi_restore 23
 474 0130 0961     		addi	sp,sp,128
 475              	.LCFI5:
 476              		.cfi_def_cfa_offset 0
 477 0132 8280     		jr	ra
 478              	.L14:
 479              	.LCFI6:
 480              		.cfi_restore_state
 195:main.c        ****     }
 481              		.loc 1 195 9 is_stmt 1
 482 0134 13054006 		li	a0,100
 483 0138 97000000 		call	usb_delay_1ms
 483      E7800000 
 484              	.LVL52:
 485 0140 DDB5     		j	.L13
 486              	.LVL53:
 487              	.L17:
 220:main.c        **** #else
 488              		.loc 1 220 5
 220:main.c        **** #else
 489              		.loc 1 220 11 is_stmt 0
 490 0142 1410     		addi	a3,sp,32
 491 0144 5008     		addi	a2,sp,20
 492 0146 8945     		li	a1,2
 493 0148 2818     		addi	a0,sp,56
 494              	.LVL54:
 495 014a 97000000 		call	tm_preprocess
 495      E7800000 
 496              	.LVL55:
 224:main.c        ****     res = tm_run(&mdl, &in, outs);
 497              		.loc 1 224 5 is_stmt 1
 498 0152 97000000 		call	get_time
 498      E7800000 
 499              	.LVL56:
 225:main.c        ****     TM_DBGT("tm_run");
 500              		.loc 1 225 11 is_stmt 0
 501 015a 7010     		addi	a2,sp,44
 502 015c 0C10     		addi	a1,sp,32
 224:main.c        ****     res = tm_run(&mdl, &in, outs);
 503              		.loc 1 224 5
 504 015e 2A89     		mv	s2,a0
 505              	.LVL57:
GAS LISTING C:\Users\Jesper\AppData\Local\Temp\cc9lY2VB.s 			page 15


 224:main.c        ****     res = tm_run(&mdl, &in, outs);
 506              		.loc 1 224 20 is_stmt 1
 225:main.c        ****     TM_DBGT("tm_run");
 507              		.loc 1 225 5
 225:main.c        ****     TM_DBGT("tm_run");
 508              		.loc 1 225 11 is_stmt 0
 509 0160 2818     		addi	a0,sp,56
 510              	.LVL58:
 511 0162 97000000 		call	tm_run
 511      E7800000 
 512              	.LVL59:
 513 016a AA84     		mv	s1,a0
 514              	.LVL60:
 226:main.c        ****     if(res==TM_OK) parse_output(outs);  
 515              		.loc 1 226 5 is_stmt 1
 516 016c 97000000 		call	get_time
 516      E7800000 
 517              	.LVL61:
 226:main.c        ****     if(res==TM_OK) parse_output(outs);  
 518              		.loc 1 226 5
 519 0174 33052541 		sub	a0,a0,s2
 520              	.LVL62:
 521 0178 97000000 		call	__floatunsisf
 521      E7800000 
 522              	.LVL63:
 523 0180 0C40     		lw	a1,0(s0)
 524 0182 97000000 		call	__divsf3
 524      E7800000 
 525              	.LVL64:
 526 018a 2A89     		mv	s2,a0
 527              	.LVL65:
 226:main.c        ****     if(res==TM_OK) parse_output(outs);  
 528              		.loc 1 226 5
 529 018c 97000000 		call	__fixsfsi
 529      E7800000 
 530              	.LVL66:
 531 0194 2AC6     		sw	a0,12(sp)
 532 0196 97000000 		call	__floatsisf
 532      E7800000 
 533              	.LVL67:
 534 019e AA85     		mv	a1,a0
 535 01a0 4A85     		mv	a0,s2
 536 01a2 97000000 		call	__subsf3
 536      E7800000 
 537              	.LVL68:
 538 01aa 0C40     		lw	a1,0(s0)
 539 01ac 97000000 		call	__mulsf3
 539      E7800000 
 540              	.LVL69:
 541 01b4 97000000 		call	__fixsfsi
 541      E7800000 
 542              	.LVL70:
 543 01bc 3246     		lw	a2,12(sp)
 544 01be B7050000 		lui	a1,%hi(.LC10)
 545 01c2 AA86     		mv	a3,a0
 546 01c4 93850500 		addi	a1,a1,%lo(.LC10)
 547 01c8 13058409 		addi	a0,s0,152
GAS LISTING C:\Users\Jesper\AppData\Local\Temp\cc9lY2VB.s 			page 16


 548 01cc 97000000 		call	printf
 548      E7800000 
 549              	.LVL71:
 226:main.c        ****     if(res==TM_OK) parse_output(outs);  
 550              		.loc 1 226 5
 551 01d4 0145     		li	a0,0
 552 01d6 97000000 		call	fflush
 552      E7800000 
 553              	.LVL72:
 226:main.c        ****     if(res==TM_OK) parse_output(outs);  
 554              		.loc 1 226 5
 226:main.c        ****     if(res==TM_OK) parse_output(outs);  
 555              		.loc 1 226 5
 556 01de 97000000 		call	get_time
 556      E7800000 
 557              	.LVL73:
 226:main.c        ****     if(res==TM_OK) parse_output(outs);  
 558              		.loc 1 226 22
 227:main.c        ****     else TM_PRINTF("tm run error: %d\r\n", res);
 559              		.loc 1 227 5
 227:main.c        ****     else TM_PRINTF("tm run error: %d\r\n", res);
 560              		.loc 1 227 7 is_stmt 0
 561 01e6 95E0     		bne	s1,zero,.L19
 227:main.c        ****     else TM_PRINTF("tm run error: %d\r\n", res);
 562              		.loc 1 227 20 is_stmt 1 discriminator 1
 563 01e8 6810     		addi	a0,sp,44
 564 01ea 97000000 		call	parse_output
 564      E7800000 
 565              	.LVL74:
 566              	.L20:
 228:main.c        ****     tm_unload(&mdl);                 
 567              		.loc 1 228 10 discriminator 1
 568 01f2 0145     		li	a0,0
 569 01f4 97000000 		call	fflush
 569      E7800000 
 570              	.LVL75:
 228:main.c        ****     tm_unload(&mdl);                 
 571              		.loc 1 228 48 discriminator 1
 229:main.c        ****     return 0;
 572              		.loc 1 229 5 discriminator 1
 573 01fc 2818     		addi	a0,sp,56
 574 01fe 97000000 		call	tm_unload
 574      E7800000 
 575              	.LVL76:
 230:main.c        **** }
 576              		.loc 1 230 5 discriminator 1
 230:main.c        **** }
 577              		.loc 1 230 12 is_stmt 0 discriminator 1
 578 0206 0145     		li	a0,0
 579 0208 19BF     		j	.L12
 580              	.L19:
 228:main.c        ****     tm_unload(&mdl);                 
 581              		.loc 1 228 10 is_stmt 1
 582 020a A685     		mv	a1,s1
 583 020c 1305040B 		addi	a0,s0,176
 584 0210 97000000 		call	printf
 584      E7800000 
GAS LISTING C:\Users\Jesper\AppData\Local\Temp\cc9lY2VB.s 			page 17


 585              	.LVL77:
 586 0218 E9BF     		j	.L20
 587              		.cfi_endproc
 588              	.LFE33:
 590              		.section	.rodata
 591              		.align	2
 592              		.set	.LANCHOR0,. + 0
 593              	.LC2:
 594 0000 00007A44 		.word	1148846080
 595              	.LC3:
 596 0004 25643A20 		.string	"%d: %d.%03d\r\n"
 596      25642E25 
 596      3033640D 
 596      0A00
 597 0012 0000     		.zero	2
 598              	.LC4:
 599 0014 23232320 		.string	"### Predict output is: Number %d, prob %d.%03d\r\n"
 599      50726564 
 599      69637420 
 599      6F757470 
 599      75742069 
 600 0045 000000   		.zero	3
 601              	.LC5:
 602 0048 6D6E6973 		.string	"mnist demo\r"
 602      74206465 
 602      6D6F0D00 
 603              	.LC6:
 604 0054 2533642C 		.string	"%3d,"
 604      00
 605 0059 000000   		.zero	3
 606              	.LC7:
 607 005c 0D00     		.string	"\r"
 608 005e 0000     		.zero	2
 609              	.LC8:
 610 0060 0300     		.half	3
 611 0062 1C00     		.half	28
 612 0064 1C00     		.half	28
 613 0066 0100     		.half	1
 614 0068 00000000 		.word	mnist_pic
 615              	.LC1:
 616 006c 0300     		.half	3
 617 006e 1C00     		.half	28
 618 0070 1C00     		.half	28
 619 0072 0100     		.half	1
 620 0074 00000000 		.word	0
 621              	.LC9:
 622 0078 746D206D 		.string	"tm model load err %d\n"
 622      6F64656C 
 622      206C6F61 
 622      64206572 
 622      72202564 
 623 008e 0000     		.zero	2
 624              	.LC10:
 625 0090 746D5F72 		.string	"tm_run"
 625      756E00
 626 0097 00       		.zero	1
 627              	.LC11:
GAS LISTING C:\Users\Jesper\AppData\Local\Temp\cc9lY2VB.s 			page 18


 628 0098 3D3D3D25 		.string	"===%s use %d.%03d ms\r\n"
 628      73207573 
 628      65202564 
 628      2E253033 
 628      64206D73 
 629 00af 00       		.zero	1
 630              	.LC12:
 631 00b0 746D2072 		.string	"tm run error: %d\r\n"
 631      756E2065 
 631      72726F72 
 631      3A202564 
 631      0D0A00
 632              		.section	.data.mnist_pic,"aw"
 633              		.align	2
 634              		.set	.LANCHOR1,. + 0
 637              	mnist_pic:
 638 0000 00       		.byte	0
 639 0001 00       		.byte	0
 640 0002 00       		.byte	0
 641 0003 00       		.byte	0
 642 0004 00       		.byte	0
 643 0005 00       		.byte	0
 644 0006 00       		.byte	0
 645 0007 00       		.byte	0
 646 0008 00       		.byte	0
 647 0009 00       		.byte	0
 648 000a 00       		.byte	0
 649 000b 00       		.byte	0
 650 000c 00       		.byte	0
 651 000d 00       		.byte	0
 652 000e 00       		.byte	0
 653 000f 00       		.byte	0
 654 0010 00       		.byte	0
 655 0011 00       		.byte	0
 656 0012 00       		.byte	0
 657 0013 00       		.byte	0
 658 0014 00       		.byte	0
 659 0015 00       		.byte	0
 660 0016 00       		.byte	0
 661 0017 00       		.byte	0
 662 0018 00       		.byte	0
 663 0019 00       		.byte	0
 664 001a 00       		.byte	0
 665 001b 00       		.byte	0
 666 001c 00       		.byte	0
 667 001d 00       		.byte	0
 668 001e 00       		.byte	0
 669 001f 00       		.byte	0
 670 0020 00       		.byte	0
 671 0021 00       		.byte	0
 672 0022 00       		.byte	0
 673 0023 00       		.byte	0
 674 0024 00       		.byte	0
 675 0025 00       		.byte	0
 676 0026 00       		.byte	0
 677 0027 00       		.byte	0
 678 0028 00       		.byte	0
GAS LISTING C:\Users\Jesper\AppData\Local\Temp\cc9lY2VB.s 			page 19


 679 0029 00       		.byte	0
 680 002a 00       		.byte	0
 681 002b 00       		.byte	0
 682 002c 00       		.byte	0
 683 002d 00       		.byte	0
 684 002e 00       		.byte	0
 685 002f 00       		.byte	0
 686 0030 00       		.byte	0
 687 0031 00       		.byte	0
 688 0032 00       		.byte	0
 689 0033 00       		.byte	0
 690 0034 00       		.byte	0
 691 0035 00       		.byte	0
 692 0036 00       		.byte	0
 693 0037 00       		.byte	0
 694 0038 00       		.byte	0
 695 0039 00       		.byte	0
 696 003a 00       		.byte	0
 697 003b 00       		.byte	0
 698 003c 00       		.byte	0
 699 003d 00       		.byte	0
 700 003e 00       		.byte	0
 701 003f 00       		.byte	0
 702 0040 00       		.byte	0
 703 0041 00       		.byte	0
 704 0042 00       		.byte	0
 705 0043 00       		.byte	0
 706 0044 00       		.byte	0
 707 0045 00       		.byte	0
 708 0046 00       		.byte	0
 709 0047 00       		.byte	0
 710 0048 00       		.byte	0
 711 0049 00       		.byte	0
 712 004a 00       		.byte	0
 713 004b 00       		.byte	0
 714 004c 00       		.byte	0
 715 004d 00       		.byte	0
 716 004e 00       		.byte	0
 717 004f 00       		.byte	0
 718 0050 00       		.byte	0
 719 0051 00       		.byte	0
 720 0052 00       		.byte	0
 721 0053 00       		.byte	0
 722 0054 00       		.byte	0
 723 0055 00       		.byte	0
 724 0056 00       		.byte	0
 725 0057 00       		.byte	0
 726 0058 00       		.byte	0
 727 0059 00       		.byte	0
 728 005a 00       		.byte	0
 729 005b 00       		.byte	0
 730 005c 00       		.byte	0
 731 005d 00       		.byte	0
 732 005e 00       		.byte	0
 733 005f 00       		.byte	0
 734 0060 00       		.byte	0
 735 0061 00       		.byte	0
GAS LISTING C:\Users\Jesper\AppData\Local\Temp\cc9lY2VB.s 			page 20


 736 0062 00       		.byte	0
 737 0063 00       		.byte	0
 738 0064 00       		.byte	0
 739 0065 00       		.byte	0
 740 0066 00       		.byte	0
 741 0067 00       		.byte	0
 742 0068 00       		.byte	0
 743 0069 00       		.byte	0
 744 006a 00       		.byte	0
 745 006b 00       		.byte	0
 746 006c 00       		.byte	0
 747 006d 00       		.byte	0
 748 006e 00       		.byte	0
 749 006f 00       		.byte	0
 750 0070 00       		.byte	0
 751 0071 00       		.byte	0
 752 0072 00       		.byte	0
 753 0073 00       		.byte	0
 754 0074 00       		.byte	0
 755 0075 00       		.byte	0
 756 0076 00       		.byte	0
 757 0077 00       		.byte	0
 758 0078 00       		.byte	0
 759 0079 00       		.byte	0
 760 007a 00       		.byte	0
 761 007b 00       		.byte	0
 762 007c 00       		.byte	0
 763 007d 00       		.byte	0
 764 007e 00       		.byte	0
 765 007f 00       		.byte	0
 766 0080 00       		.byte	0
 767 0081 00       		.byte	0
 768 0082 00       		.byte	0
 769 0083 00       		.byte	0
 770 0084 00       		.byte	0
 771 0085 00       		.byte	0
 772 0086 00       		.byte	0
 773 0087 00       		.byte	0
 774 0088 00       		.byte	0
 775 0089 00       		.byte	0
 776 008a 00       		.byte	0
 777 008b 00       		.byte	0
 778 008c 00       		.byte	0
 779 008d 00       		.byte	0
 780 008e 00       		.byte	0
 781 008f 00       		.byte	0
 782 0090 00       		.byte	0
 783 0091 00       		.byte	0
 784 0092 00       		.byte	0
 785 0093 00       		.byte	0
 786 0094 00       		.byte	0
 787 0095 00       		.byte	0
 788 0096 00       		.byte	0
 789 0097 00       		.byte	0
 790 0098 00       		.byte	0
 791 0099 00       		.byte	0
 792 009a 00       		.byte	0
GAS LISTING C:\Users\Jesper\AppData\Local\Temp\cc9lY2VB.s 			page 21


 793 009b 00       		.byte	0
 794 009c 00       		.byte	0
 795 009d 00       		.byte	0
 796 009e 00       		.byte	0
 797 009f 00       		.byte	0
 798 00a0 00       		.byte	0
 799 00a1 00       		.byte	0
 800 00a2 00       		.byte	0
 801 00a3 00       		.byte	0
 802 00a4 00       		.byte	0
 803 00a5 00       		.byte	0
 804 00a6 00       		.byte	0
 805 00a7 00       		.byte	0
 806 00a8 00       		.byte	0
 807 00a9 00       		.byte	0
 808 00aa 00       		.byte	0
 809 00ab 00       		.byte	0
 810 00ac 00       		.byte	0
 811 00ad 00       		.byte	0
 812 00ae 00       		.byte	0
 813 00af 00       		.byte	0
 814 00b0 00       		.byte	0
 815 00b1 00       		.byte	0
 816 00b2 00       		.byte	0
 817 00b3 00       		.byte	0
 818 00b4 00       		.byte	0
 819 00b5 00       		.byte	0
 820 00b6 00       		.byte	0
 821 00b7 00       		.byte	0
 822 00b8 00       		.byte	0
 823 00b9 00       		.byte	0
 824 00ba 00       		.byte	0
 825 00bb 00       		.byte	0
 826 00bc 00       		.byte	0
 827 00bd 00       		.byte	0
 828 00be 00       		.byte	0
 829 00bf 00       		.byte	0
 830 00c0 00       		.byte	0
 831 00c1 00       		.byte	0
 832 00c2 00       		.byte	0
 833 00c3 00       		.byte	0
 834 00c4 00       		.byte	0
 835 00c5 00       		.byte	0
 836 00c6 00       		.byte	0
 837 00c7 00       		.byte	0
 838 00c8 00       		.byte	0
 839 00c9 00       		.byte	0
 840 00ca 00       		.byte	0
 841 00cb 00       		.byte	0
 842 00cc 00       		.byte	0
 843 00cd 00       		.byte	0
 844 00ce 00       		.byte	0
 845 00cf 00       		.byte	0
 846 00d0 00       		.byte	0
 847 00d1 24       		.byte	36
 848 00d2 38       		.byte	56
 849 00d3 89       		.byte	-119
GAS LISTING C:\Users\Jesper\AppData\Local\Temp\cc9lY2VB.s 			page 22


 850 00d4 C9       		.byte	-55
 851 00d5 C7       		.byte	-57
 852 00d6 5F       		.byte	95
 853 00d7 25       		.byte	37
 854 00d8 00       		.byte	0
 855 00d9 00       		.byte	0
 856 00da 00       		.byte	0
 857 00db 00       		.byte	0
 858 00dc 00       		.byte	0
 859 00dd 00       		.byte	0
 860 00de 00       		.byte	0
 861 00df 00       		.byte	0
 862 00e0 00       		.byte	0
 863 00e1 00       		.byte	0
 864 00e2 00       		.byte	0
 865 00e3 00       		.byte	0
 866 00e4 00       		.byte	0
 867 00e5 00       		.byte	0
 868 00e6 00       		.byte	0
 869 00e7 00       		.byte	0
 870 00e8 00       		.byte	0
 871 00e9 00       		.byte	0
 872 00ea 00       		.byte	0
 873 00eb 2D       		.byte	45
 874 00ec 98       		.byte	-104
 875 00ed EA       		.byte	-22
 876 00ee FE       		.byte	-2
 877 00ef FE       		.byte	-2
 878 00f0 FE       		.byte	-2
 879 00f1 FE       		.byte	-2
 880 00f2 FE       		.byte	-2
 881 00f3 FA       		.byte	-6
 882 00f4 D3       		.byte	-45
 883 00f5 97       		.byte	-105
 884 00f6 06       		.byte	6
 885 00f7 00       		.byte	0
 886 00f8 00       		.byte	0
 887 00f9 00       		.byte	0
 888 00fa 00       		.byte	0
 889 00fb 00       		.byte	0
 890 00fc 00       		.byte	0
 891 00fd 00       		.byte	0
 892 00fe 00       		.byte	0
 893 00ff 00       		.byte	0
 894 0100 00       		.byte	0
 895 0101 00       		.byte	0
 896 0102 00       		.byte	0
 897 0103 00       		.byte	0
 898 0104 00       		.byte	0
 899 0105 2E       		.byte	46
 900 0106 99       		.byte	-103
 901 0107 F0       		.byte	-16
 902 0108 FE       		.byte	-2
 903 0109 FE       		.byte	-2
 904 010a E3       		.byte	-29
 905 010b A6       		.byte	-90
 906 010c 85       		.byte	-123
GAS LISTING C:\Users\Jesper\AppData\Local\Temp\cc9lY2VB.s 			page 23


 907 010d FB       		.byte	-5
 908 010e C8       		.byte	-56
 909 010f FE       		.byte	-2
 910 0110 E5       		.byte	-27
 911 0111 E1       		.byte	-31
 912 0112 68       		.byte	104
 913 0113 00       		.byte	0
 914 0114 00       		.byte	0
 915 0115 00       		.byte	0
 916 0116 00       		.byte	0
 917 0117 00       		.byte	0
 918 0118 00       		.byte	0
 919 0119 00       		.byte	0
 920 011a 00       		.byte	0
 921 011b 00       		.byte	0
 922 011c 00       		.byte	0
 923 011d 00       		.byte	0
 924 011e 00       		.byte	0
 925 011f 00       		.byte	0
 926 0120 99       		.byte	-103
 927 0121 EA       		.byte	-22
 928 0122 FE       		.byte	-2
 929 0123 FE       		.byte	-2
 930 0124 BB       		.byte	-69
 931 0125 8E       		.byte	-114
 932 0126 08       		.byte	8
 933 0127 00       		.byte	0
 934 0128 00       		.byte	0
 935 0129 BF       		.byte	-65
 936 012a 28       		.byte	40
 937 012b C6       		.byte	-58
 938 012c F6       		.byte	-10
 939 012d DF       		.byte	-33
 940 012e FD       		.byte	-3
 941 012f 15       		.byte	21
 942 0130 00       		.byte	0
 943 0131 00       		.byte	0
 944 0132 00       		.byte	0
 945 0133 00       		.byte	0
 946 0134 00       		.byte	0
 947 0135 00       		.byte	0
 948 0136 00       		.byte	0
 949 0137 00       		.byte	0
 950 0138 00       		.byte	0
 951 0139 00       		.byte	0
 952 013a 08       		.byte	8
 953 013b 7E       		.byte	126
 954 013c FD       		.byte	-3
 955 013d FE       		.byte	-2
 956 013e E9       		.byte	-23
 957 013f 80       		.byte	-128
 958 0140 0B       		.byte	11
 959 0141 00       		.byte	0
 960 0142 00       		.byte	0
 961 0143 00       		.byte	0
 962 0144 00       		.byte	0
 963 0145 D2       		.byte	-46
GAS LISTING C:\Users\Jesper\AppData\Local\Temp\cc9lY2VB.s 			page 24


 964 0146 2B       		.byte	43
 965 0147 46       		.byte	70
 966 0148 FE       		.byte	-2
 967 0149 FE       		.byte	-2
 968 014a FE       		.byte	-2
 969 014b 15       		.byte	21
 970 014c 00       		.byte	0
 971 014d 00       		.byte	0
 972 014e 00       		.byte	0
 973 014f 00       		.byte	0
 974 0150 00       		.byte	0
 975 0151 00       		.byte	0
 976 0152 00       		.byte	0
 977 0153 00       		.byte	0
 978 0154 00       		.byte	0
 979 0155 00       		.byte	0
 980 0156 48       		.byte	72
 981 0157 F3       		.byte	-13
 982 0158 FE       		.byte	-2
 983 0159 E4       		.byte	-28
 984 015a 36       		.byte	54
 985 015b 00       		.byte	0
 986 015c 00       		.byte	0
 987 015d 00       		.byte	0
 988 015e 00       		.byte	0
 989 015f 03       		.byte	3
 990 0160 20       		.byte	32
 991 0161 74       		.byte	116
 992 0162 E1       		.byte	-31
 993 0163 F2       		.byte	-14
 994 0164 FE       		.byte	-2
 995 0165 FF       		.byte	-1
 996 0166 A2       		.byte	-94
 997 0167 05       		.byte	5
 998 0168 00       		.byte	0
 999 0169 00       		.byte	0
 1000 016a 00       		.byte	0
 1001 016b 00       		.byte	0
 1002 016c 00       		.byte	0
 1003 016d 00       		.byte	0
 1004 016e 00       		.byte	0
 1005 016f 00       		.byte	0
 1006 0170 00       		.byte	0
 1007 0171 00       		.byte	0
 1008 0172 4B       		.byte	75
 1009 0173 F0       		.byte	-16
 1010 0174 FE       		.byte	-2
 1011 0175 DF       		.byte	-33
 1012 0176 6D       		.byte	109
 1013 0177 8A       		.byte	-118
 1014 0178 B2       		.byte	-78
 1015 0179 B2       		.byte	-78
 1016 017a A9       		.byte	-87
 1017 017b D2       		.byte	-46
 1018 017c FB       		.byte	-5
 1019 017d E7       		.byte	-25
 1020 017e FE       		.byte	-2
GAS LISTING C:\Users\Jesper\AppData\Local\Temp\cc9lY2VB.s 			page 25


 1021 017f FE       		.byte	-2
 1022 0180 FE       		.byte	-2
 1023 0181 E8       		.byte	-24
 1024 0182 26       		.byte	38
 1025 0183 00       		.byte	0
 1026 0184 00       		.byte	0
 1027 0185 00       		.byte	0
 1028 0186 00       		.byte	0
 1029 0187 00       		.byte	0
 1030 0188 00       		.byte	0
 1031 0189 00       		.byte	0
 1032 018a 00       		.byte	0
 1033 018b 00       		.byte	0
 1034 018c 00       		.byte	0
 1035 018d 00       		.byte	0
 1036 018e 09       		.byte	9
 1037 018f AF       		.byte	-81
 1038 0190 F4       		.byte	-12
 1039 0191 FD       		.byte	-3
 1040 0192 FF       		.byte	-1
 1041 0193 FE       		.byte	-2
 1042 0194 FE       		.byte	-2
 1043 0195 FB       		.byte	-5
 1044 0196 FE       		.byte	-2
 1045 0197 FE       		.byte	-2
 1046 0198 FE       		.byte	-2
 1047 0199 FE       		.byte	-2
 1048 019a FE       		.byte	-2
 1049 019b FC       		.byte	-4
 1050 019c AB       		.byte	-85
 1051 019d 19       		.byte	25
 1052 019e 00       		.byte	0
 1053 019f 00       		.byte	0
 1054 01a0 00       		.byte	0
 1055 01a1 00       		.byte	0
 1056 01a2 00       		.byte	0
 1057 01a3 00       		.byte	0
 1058 01a4 00       		.byte	0
 1059 01a5 00       		.byte	0
 1060 01a6 00       		.byte	0
 1061 01a7 00       		.byte	0
 1062 01a8 00       		.byte	0
 1063 01a9 00       		.byte	0
 1064 01aa 00       		.byte	0
 1065 01ab 00       		.byte	0
 1066 01ac 10       		.byte	16
 1067 01ad 88       		.byte	-120
 1068 01ae C3       		.byte	-61
 1069 01af B0       		.byte	-80
 1070 01b0 92       		.byte	-110
 1071 01b1 99       		.byte	-103
 1072 01b2 C8       		.byte	-56
 1073 01b3 FE       		.byte	-2
 1074 01b4 FE       		.byte	-2
 1075 01b5 FE       		.byte	-2
 1076 01b6 FE       		.byte	-2
 1077 01b7 96       		.byte	-106
GAS LISTING C:\Users\Jesper\AppData\Local\Temp\cc9lY2VB.s 			page 26


 1078 01b8 10       		.byte	16
 1079 01b9 00       		.byte	0
 1080 01ba 00       		.byte	0
 1081 01bb 00       		.byte	0
 1082 01bc 00       		.byte	0
 1083 01bd 00       		.byte	0
 1084 01be 00       		.byte	0
 1085 01bf 00       		.byte	0
 1086 01c0 00       		.byte	0
 1087 01c1 00       		.byte	0
 1088 01c2 00       		.byte	0
 1089 01c3 00       		.byte	0
 1090 01c4 00       		.byte	0
 1091 01c5 00       		.byte	0
 1092 01c6 00       		.byte	0
 1093 01c7 00       		.byte	0
 1094 01c8 00       		.byte	0
 1095 01c9 00       		.byte	0
 1096 01ca 00       		.byte	0
 1097 01cb 00       		.byte	0
 1098 01cc 00       		.byte	0
 1099 01cd 00       		.byte	0
 1100 01ce A2       		.byte	-94
 1101 01cf FE       		.byte	-2
 1102 01d0 FE       		.byte	-2
 1103 01d1 F1       		.byte	-15
 1104 01d2 63       		.byte	99
 1105 01d3 03       		.byte	3
 1106 01d4 00       		.byte	0
 1107 01d5 00       		.byte	0
 1108 01d6 00       		.byte	0
 1109 01d7 00       		.byte	0
 1110 01d8 00       		.byte	0
 1111 01d9 00       		.byte	0
 1112 01da 00       		.byte	0
 1113 01db 00       		.byte	0
 1114 01dc 00       		.byte	0
 1115 01dd 00       		.byte	0
 1116 01de 00       		.byte	0
 1117 01df 00       		.byte	0
 1118 01e0 00       		.byte	0
 1119 01e1 00       		.byte	0
 1120 01e2 00       		.byte	0
 1121 01e3 00       		.byte	0
 1122 01e4 00       		.byte	0
 1123 01e5 00       		.byte	0
 1124 01e6 00       		.byte	0
 1125 01e7 00       		.byte	0
 1126 01e8 00       		.byte	0
 1127 01e9 76       		.byte	118
 1128 01ea FA       		.byte	-6
 1129 01eb FE       		.byte	-2
 1130 01ec FE       		.byte	-2
 1131 01ed 5A       		.byte	90
 1132 01ee 00       		.byte	0
 1133 01ef 00       		.byte	0
 1134 01f0 00       		.byte	0
GAS LISTING C:\Users\Jesper\AppData\Local\Temp\cc9lY2VB.s 			page 27


 1135 01f1 00       		.byte	0
 1136 01f2 00       		.byte	0
 1137 01f3 00       		.byte	0
 1138 01f4 00       		.byte	0
 1139 01f5 00       		.byte	0
 1140 01f6 00       		.byte	0
 1141 01f7 00       		.byte	0
 1142 01f8 00       		.byte	0
 1143 01f9 00       		.byte	0
 1144 01fa 00       		.byte	0
 1145 01fb 00       		.byte	0
 1146 01fc 00       		.byte	0
 1147 01fd 00       		.byte	0
 1148 01fe 00       		.byte	0
 1149 01ff 00       		.byte	0
 1150 0200 00       		.byte	0
 1151 0201 00       		.byte	0
 1152 0202 00       		.byte	0
 1153 0203 00       		.byte	0
 1154 0204 64       		.byte	100
 1155 0205 F2       		.byte	-14
 1156 0206 FE       		.byte	-2
 1157 0207 FE       		.byte	-2
 1158 0208 D3       		.byte	-45
 1159 0209 07       		.byte	7
 1160 020a 00       		.byte	0
 1161 020b 00       		.byte	0
 1162 020c 00       		.byte	0
 1163 020d 00       		.byte	0
 1164 020e 00       		.byte	0
 1165 020f 00       		.byte	0
 1166 0210 00       		.byte	0
 1167 0211 00       		.byte	0
 1168 0212 00       		.byte	0
 1169 0213 00       		.byte	0
 1170 0214 00       		.byte	0
 1171 0215 00       		.byte	0
 1172 0216 00       		.byte	0
 1173 0217 00       		.byte	0
 1174 0218 00       		.byte	0
 1175 0219 00       		.byte	0
 1176 021a 00       		.byte	0
 1177 021b 00       		.byte	0
 1178 021c 00       		.byte	0
 1179 021d 00       		.byte	0
 1180 021e 00       		.byte	0
 1181 021f 36       		.byte	54
 1182 0220 F1       		.byte	-15
 1183 0221 FE       		.byte	-2
 1184 0222 FE       		.byte	-2
 1185 0223 F2       		.byte	-14
 1186 0224 3B       		.byte	59
 1187 0225 00       		.byte	0
 1188 0226 00       		.byte	0
 1189 0227 00       		.byte	0
 1190 0228 00       		.byte	0
 1191 0229 00       		.byte	0
GAS LISTING C:\Users\Jesper\AppData\Local\Temp\cc9lY2VB.s 			page 28


 1192 022a 00       		.byte	0
 1193 022b 00       		.byte	0
 1194 022c 00       		.byte	0
 1195 022d 00       		.byte	0
 1196 022e 00       		.byte	0
 1197 022f 00       		.byte	0
 1198 0230 00       		.byte	0
 1199 0231 00       		.byte	0
 1200 0232 00       		.byte	0
 1201 0233 00       		.byte	0
 1202 0234 00       		.byte	0
 1203 0235 00       		.byte	0
 1204 0236 00       		.byte	0
 1205 0237 00       		.byte	0
 1206 0238 00       		.byte	0
 1207 0239 00       		.byte	0
 1208 023a 00       		.byte	0
 1209 023b 83       		.byte	-125
 1210 023c FE       		.byte	-2
 1211 023d FE       		.byte	-2
 1212 023e F4       		.byte	-12
 1213 023f 40       		.byte	64
 1214 0240 00       		.byte	0
 1215 0241 00       		.byte	0
 1216 0242 00       		.byte	0
 1217 0243 00       		.byte	0
 1218 0244 00       		.byte	0
 1219 0245 00       		.byte	0
 1220 0246 00       		.byte	0
 1221 0247 00       		.byte	0
 1222 0248 00       		.byte	0
 1223 0249 00       		.byte	0
 1224 024a 00       		.byte	0
 1225 024b 00       		.byte	0
 1226 024c 00       		.byte	0
 1227 024d 00       		.byte	0
 1228 024e 00       		.byte	0
 1229 024f 00       		.byte	0
 1230 0250 00       		.byte	0
 1231 0251 00       		.byte	0
 1232 0252 00       		.byte	0
 1233 0253 00       		.byte	0
 1234 0254 00       		.byte	0
 1235 0255 00       		.byte	0
 1236 0256 0D       		.byte	13
 1237 0257 F9       		.byte	-7
 1238 0258 FE       		.byte	-2
 1239 0259 FE       		.byte	-2
 1240 025a 98       		.byte	-104
 1241 025b 00       		.byte	0
 1242 025c 00       		.byte	0
 1243 025d 00       		.byte	0
 1244 025e 00       		.byte	0
 1245 025f 00       		.byte	0
 1246 0260 00       		.byte	0
 1247 0261 00       		.byte	0
 1248 0262 00       		.byte	0
GAS LISTING C:\Users\Jesper\AppData\Local\Temp\cc9lY2VB.s 			page 29


 1249 0263 00       		.byte	0
 1250 0264 00       		.byte	0
 1251 0265 00       		.byte	0
 1252 0266 00       		.byte	0
 1253 0267 00       		.byte	0
 1254 0268 00       		.byte	0
 1255 0269 00       		.byte	0
 1256 026a 00       		.byte	0
 1257 026b 00       		.byte	0
 1258 026c 00       		.byte	0
 1259 026d 00       		.byte	0
 1260 026e 00       		.byte	0
 1261 026f 00       		.byte	0
 1262 0270 00       		.byte	0
 1263 0271 0C       		.byte	12
 1264 0272 E4       		.byte	-28
 1265 0273 FE       		.byte	-2
 1266 0274 FE       		.byte	-2
 1267 0275 D0       		.byte	-48
 1268 0276 08       		.byte	8
 1269 0277 00       		.byte	0
 1270 0278 00       		.byte	0
 1271 0279 00       		.byte	0
 1272 027a 00       		.byte	0
 1273 027b 00       		.byte	0
 1274 027c 00       		.byte	0
 1275 027d 00       		.byte	0
 1276 027e 00       		.byte	0
 1277 027f 00       		.byte	0
 1278 0280 00       		.byte	0
 1279 0281 00       		.byte	0
 1280 0282 00       		.byte	0
 1281 0283 00       		.byte	0
 1282 0284 00       		.byte	0
 1283 0285 00       		.byte	0
 1284 0286 00       		.byte	0
 1285 0287 00       		.byte	0
 1286 0288 00       		.byte	0
 1287 0289 00       		.byte	0
 1288 028a 00       		.byte	0
 1289 028b 00       		.byte	0
 1290 028c 00       		.byte	0
 1291 028d 4E       		.byte	78
 1292 028e FF       		.byte	-1
 1293 028f FE       		.byte	-2
 1294 0290 FE       		.byte	-2
 1295 0291 42       		.byte	66
 1296 0292 00       		.byte	0
 1297 0293 00       		.byte	0
 1298 0294 00       		.byte	0
 1299 0295 00       		.byte	0
 1300 0296 00       		.byte	0
 1301 0297 00       		.byte	0
 1302 0298 00       		.byte	0
 1303 0299 00       		.byte	0
 1304 029a 00       		.byte	0
 1305 029b 00       		.byte	0
GAS LISTING C:\Users\Jesper\AppData\Local\Temp\cc9lY2VB.s 			page 30


 1306 029c 00       		.byte	0
 1307 029d 00       		.byte	0
 1308 029e 00       		.byte	0
 1309 029f 00       		.byte	0
 1310 02a0 00       		.byte	0
 1311 02a1 00       		.byte	0
 1312 02a2 00       		.byte	0
 1313 02a3 00       		.byte	0
 1314 02a4 00       		.byte	0
 1315 02a5 00       		.byte	0
 1316 02a6 00       		.byte	0
 1317 02a7 00       		.byte	0
 1318 02a8 00       		.byte	0
 1319 02a9 D1       		.byte	-47
 1320 02aa FE       		.byte	-2
 1321 02ab FE       		.byte	-2
 1322 02ac 89       		.byte	-119
 1323 02ad 00       		.byte	0
 1324 02ae 00       		.byte	0
 1325 02af 00       		.byte	0
 1326 02b0 00       		.byte	0
 1327 02b1 00       		.byte	0
 1328 02b2 00       		.byte	0
 1329 02b3 00       		.byte	0
 1330 02b4 00       		.byte	0
 1331 02b5 00       		.byte	0
 1332 02b6 00       		.byte	0
 1333 02b7 00       		.byte	0
 1334 02b8 00       		.byte	0
 1335 02b9 00       		.byte	0
 1336 02ba 00       		.byte	0
 1337 02bb 00       		.byte	0
 1338 02bc 00       		.byte	0
 1339 02bd 00       		.byte	0
 1340 02be 00       		.byte	0
 1341 02bf 00       		.byte	0
 1342 02c0 00       		.byte	0
 1343 02c1 00       		.byte	0
 1344 02c2 00       		.byte	0
 1345 02c3 00       		.byte	0
 1346 02c4 00       		.byte	0
 1347 02c5 E3       		.byte	-29
 1348 02c6 FF       		.byte	-1
 1349 02c7 E9       		.byte	-23
 1350 02c8 19       		.byte	25
 1351 02c9 00       		.byte	0
 1352 02ca 00       		.byte	0
 1353 02cb 00       		.byte	0
 1354 02cc 00       		.byte	0
 1355 02cd 00       		.byte	0
 1356 02ce 00       		.byte	0
 1357 02cf 00       		.byte	0
 1358 02d0 00       		.byte	0
 1359 02d1 00       		.byte	0
 1360 02d2 00       		.byte	0
 1361 02d3 00       		.byte	0
 1362 02d4 00       		.byte	0
GAS LISTING C:\Users\Jesper\AppData\Local\Temp\cc9lY2VB.s 			page 31


 1363 02d5 00       		.byte	0
 1364 02d6 00       		.byte	0
 1365 02d7 00       		.byte	0
 1366 02d8 00       		.byte	0
 1367 02d9 00       		.byte	0
 1368 02da 00       		.byte	0
 1369 02db 00       		.byte	0
 1370 02dc 00       		.byte	0
 1371 02dd 00       		.byte	0
 1372 02de 00       		.byte	0
 1373 02df 00       		.byte	0
 1374 02e0 00       		.byte	0
 1375 02e1 71       		.byte	113
 1376 02e2 FF       		.byte	-1
 1377 02e3 6C       		.byte	108
 1378 02e4 00       		.byte	0
 1379 02e5 00       		.byte	0
 1380 02e6 00       		.byte	0
 1381 02e7 00       		.byte	0
 1382 02e8 00       		.byte	0
 1383 02e9 00       		.byte	0
 1384 02ea 00       		.byte	0
 1385 02eb 00       		.byte	0
 1386 02ec 00       		.byte	0
 1387 02ed 00       		.byte	0
 1388 02ee 00       		.byte	0
 1389 02ef 00       		.byte	0
 1390 02f0 00       		.byte	0
 1391 02f1 00       		.byte	0
 1392 02f2 00       		.byte	0
 1393 02f3 00       		.byte	0
 1394 02f4 00       		.byte	0
 1395 02f5 00       		.byte	0
 1396 02f6 00       		.byte	0
 1397 02f7 00       		.byte	0
 1398 02f8 00       		.byte	0
 1399 02f9 00       		.byte	0
 1400 02fa 00       		.byte	0
 1401 02fb 00       		.byte	0
 1402 02fc 00       		.byte	0
 1403 02fd 00       		.byte	0
 1404 02fe 00       		.byte	0
 1405 02ff 00       		.byte	0
 1406 0300 00       		.byte	0
 1407 0301 00       		.byte	0
 1408 0302 00       		.byte	0
 1409 0303 00       		.byte	0
 1410 0304 00       		.byte	0
 1411 0305 00       		.byte	0
 1412 0306 00       		.byte	0
 1413 0307 00       		.byte	0
 1414 0308 00       		.byte	0
 1415 0309 00       		.byte	0
 1416 030a 00       		.byte	0
 1417 030b 00       		.byte	0
 1418 030c 00       		.byte	0
 1419 030d 00       		.byte	0
GAS LISTING C:\Users\Jesper\AppData\Local\Temp\cc9lY2VB.s 			page 32


 1420 030e 00       		.byte	0
 1421 030f 00       		.byte	0
 1422              		.section	.rodata.mdl_data,"a"
 1423              		.align	2
 1426              	mdl_data:
 1427 0000 4D       		.byte	77
 1428 0001 41       		.byte	65
 1429 0002 49       		.byte	73
 1430 0003 58       		.byte	88
 1431 0004 00       		.byte	0
 1432 0005 01       		.byte	1
 1433 0006 01       		.byte	1
 1434 0007 00       		.byte	0
 1435 0008 01       		.byte	1
 1436 0009 00       		.byte	0
 1437 000a 06       		.byte	6
 1438 000b 00       		.byte	0
 1439 000c B8       		.byte	-72
 1440 000d 05       		.byte	5
 1441 000e 00       		.byte	0
 1442 000f 00       		.byte	0
 1443 0010 00       		.byte	0
 1444 0011 00       		.byte	0
 1445 0012 00       		.byte	0
 1446 0013 00       		.byte	0
 1447 0014 03       		.byte	3
 1448 0015 00       		.byte	0
 1449 0016 1C       		.byte	28
 1450 0017 00       		.byte	0
 1451 0018 1C       		.byte	28
 1452 0019 00       		.byte	0
 1453 001a 01       		.byte	1
 1454 001b 00       		.byte	0
 1455 001c 01       		.byte	1
 1456 001d 00       		.byte	0
 1457 001e 01       		.byte	1
 1458 001f 00       		.byte	0
 1459 0020 01       		.byte	1
 1460 0021 00       		.byte	0
 1461 0022 0A       		.byte	10
 1462 0023 00       		.byte	0
 1463 0024 00       		.byte	0
 1464 0025 00       		.byte	0
 1465 0026 00       		.byte	0
 1466 0027 00       		.byte	0
 1467 0028 00       		.byte	0
 1468 0029 00       		.byte	0
 1469 002a 00       		.byte	0
 1470 002b 00       		.byte	0
 1471 002c 00       		.byte	0
 1472 002d 00       		.byte	0
 1473 002e 00       		.byte	0
 1474 002f 00       		.byte	0
 1475 0030 00       		.byte	0
 1476 0031 00       		.byte	0
 1477 0032 00       		.byte	0
 1478 0033 00       		.byte	0
GAS LISTING C:\Users\Jesper\AppData\Local\Temp\cc9lY2VB.s 			page 33


 1479 0034 00       		.byte	0
 1480 0035 00       		.byte	0
 1481 0036 00       		.byte	0
 1482 0037 00       		.byte	0
 1483 0038 00       		.byte	0
 1484 0039 00       		.byte	0
 1485 003a 00       		.byte	0
 1486 003b 00       		.byte	0
 1487 003c 00       		.byte	0
 1488 003d 00       		.byte	0
 1489 003e 00       		.byte	0
 1490 003f 00       		.byte	0
 1491 0040 00       		.byte	0
 1492 0041 00       		.byte	0
 1493 0042 00       		.byte	0
 1494 0043 00       		.byte	0
 1495 0044 98       		.byte	-104
 1496 0045 00       		.byte	0
 1497 0046 00       		.byte	0
 1498 0047 00       		.byte	0
 1499 0048 00       		.byte	0
 1500 0049 00       		.byte	0
 1501 004a 00       		.byte	0
 1502 004b 00       		.byte	0
 1503 004c 10       		.byte	16
 1504 004d 03       		.byte	3
 1505 004e 00       		.byte	0
 1506 004f 00       		.byte	0
 1507 0050 03       		.byte	3
 1508 0051 00       		.byte	0
 1509 0052 1C       		.byte	28
 1510 0053 00       		.byte	0
 1511 0054 1C       		.byte	28
 1512 0055 00       		.byte	0
 1513 0056 01       		.byte	1
 1514 0057 00       		.byte	0
 1515 0058 03       		.byte	3
 1516 0059 00       		.byte	0
 1517 005a 0D       		.byte	13
 1518 005b 00       		.byte	0
 1519 005c 0D       		.byte	13
 1520 005d 00       		.byte	0
 1521 005e 04       		.byte	4
 1522 005f 00       		.byte	0
 1523 0060 81       		.byte	-127
 1524 0061 80       		.byte	-128
 1525 0062 80       		.byte	-128
 1526 0063 3B       		.byte	59
 1527 0064 80       		.byte	-128
 1528 0065 FF       		.byte	-1
 1529 0066 FF       		.byte	-1
 1530 0067 FF       		.byte	-1
 1531 0068 31       		.byte	49
 1532 0069 E9       		.byte	-23
 1533 006a 84       		.byte	-124
 1534 006b 3C       		.byte	60
 1535 006c 80       		.byte	-128
GAS LISTING C:\Users\Jesper\AppData\Local\Temp\cc9lY2VB.s 			page 34


 1536 006d FF       		.byte	-1
 1537 006e FF       		.byte	-1
 1538 006f FF       		.byte	-1
 1539 0070 03       		.byte	3
 1540 0071 03       		.byte	3
 1541 0072 02       		.byte	2
 1542 0073 02       		.byte	2
 1543 0074 01       		.byte	1
 1544 0075 01       		.byte	1
 1545 0076 01       		.byte	1
 1546 0077 00       		.byte	0
 1547 0078 00       		.byte	0
 1548 0079 00       		.byte	0
 1549 007a 00       		.byte	0
 1550 007b 00       		.byte	0
 1551 007c 00       		.byte	0
 1552 007d 00       		.byte	0
 1553 007e 00       		.byte	0
 1554 007f 00       		.byte	0
 1555 0080 00       		.byte	0
 1556 0081 00       		.byte	0
 1557 0082 00       		.byte	0
 1558 0083 00       		.byte	0
 1559 0084 50       		.byte	80
 1560 0085 00       		.byte	0
 1561 0086 00       		.byte	0
 1562 0087 00       		.byte	0
 1563 0088 60       		.byte	96
 1564 0089 00       		.byte	0
 1565 008a 00       		.byte	0
 1566 008b 00       		.byte	0
 1567 008c 88       		.byte	-120
 1568 008d 00       		.byte	0
 1569 008e 00       		.byte	0
 1570 008f 00       		.byte	0
 1571 0090 7D       		.byte	125
 1572 0091 77       		.byte	119
 1573 0092 4A       		.byte	74
 1574 0093 3C       		.byte	60
 1575 0094 85       		.byte	-123
 1576 0095 AD       		.byte	-83
 1577 0096 87       		.byte	-121
 1578 0097 3C       		.byte	60
 1579 0098 26       		.byte	38
 1580 0099 92       		.byte	-110
 1581 009a C5       		.byte	-59
 1582 009b 3B       		.byte	59
 1583 009c B9       		.byte	-71
 1584 009d C9       		.byte	-55
 1585 009e 48       		.byte	72
 1586 009f 3C       		.byte	60
 1587 00a0 2F       		.byte	47
 1588 00a1 5E       		.byte	94
 1589 00a2 5B       		.byte	91
 1590 00a3 46       		.byte	70
 1591 00a4 14       		.byte	20
 1592 00a5 C0       		.byte	-64
GAS LISTING C:\Users\Jesper\AppData\Local\Temp\cc9lY2VB.s 			page 35


 1593 00a6 B0       		.byte	-80
 1594 00a7 81       		.byte	-127
 1595 00a8 C8       		.byte	-56
 1596 00a9 32       		.byte	50
 1597 00aa 0A       		.byte	10
 1598 00ab D8       		.byte	-40
 1599 00ac 6F       		.byte	111
 1600 00ad 09       		.byte	9
 1601 00ae 81       		.byte	-127
 1602 00af 27       		.byte	39
 1603 00b0 F6       		.byte	-10
 1604 00b1 D6       		.byte	-42
 1605 00b2 7F       		.byte	127
 1606 00b3 79       		.byte	121
 1607 00b4 50       		.byte	80
 1608 00b5 F9       		.byte	-7
 1609 00b6 16       		.byte	22
 1610 00b7 2B       		.byte	43
 1611 00b8 2B       		.byte	43
 1612 00b9 5E       		.byte	94
 1613 00ba 60       		.byte	96
 1614 00bb F3       		.byte	-13
 1615 00bc 85       		.byte	-123
 1616 00bd 99       		.byte	-103
 1617 00be 7A       		.byte	122
 1618 00bf 0A       		.byte	10
 1619 00c0 81       		.byte	-127
 1620 00c1 67       		.byte	103
 1621 00c2 65       		.byte	101
 1622 00c3 19       		.byte	25
 1623 00c4 00       		.byte	0
 1624 00c5 00       		.byte	0
 1625 00c6 00       		.byte	0
 1626 00c7 00       		.byte	0
 1627 00c8 94       		.byte	-108
 1628 00c9 FB       		.byte	-5
 1629 00ca FF       		.byte	-1
 1630 00cb FF       		.byte	-1
 1631 00cc 94       		.byte	-108
 1632 00cd FC       		.byte	-4
 1633 00ce FF       		.byte	-1
 1634 00cf FF       		.byte	-1
 1635 00d0 94       		.byte	-108
 1636 00d1 41       		.byte	65
 1637 00d2 01       		.byte	1
 1638 00d3 00       		.byte	0
 1639 00d4 AB       		.byte	-85
 1640 00d5 FA       		.byte	-6
 1641 00d6 FF       		.byte	-1
 1642 00d7 FF       		.byte	-1
 1643 00d8 00       		.byte	0
 1644 00d9 00       		.byte	0
 1645 00da 00       		.byte	0
 1646 00db 00       		.byte	0
 1647 00dc B0       		.byte	-80
 1648 00dd 01       		.byte	1
 1649 00de 00       		.byte	0
GAS LISTING C:\Users\Jesper\AppData\Local\Temp\cc9lY2VB.s 			page 36


 1650 00df 00       		.byte	0
 1651 00e0 10       		.byte	16
 1652 00e1 03       		.byte	3
 1653 00e2 00       		.byte	0
 1654 00e3 00       		.byte	0
 1655 00e4 00       		.byte	0
 1656 00e5 00       		.byte	0
 1657 00e6 00       		.byte	0
 1658 00e7 00       		.byte	0
 1659 00e8 03       		.byte	3
 1660 00e9 00       		.byte	0
 1661 00ea 0D       		.byte	13
 1662 00eb 00       		.byte	0
 1663 00ec 0D       		.byte	13
 1664 00ed 00       		.byte	0
 1665 00ee 04       		.byte	4
 1666 00ef 00       		.byte	0
 1667 00f0 03       		.byte	3
 1668 00f1 00       		.byte	0
 1669 00f2 06       		.byte	6
 1670 00f3 00       		.byte	0
 1671 00f4 06       		.byte	6
 1672 00f5 00       		.byte	0
 1673 00f6 08       		.byte	8
 1674 00f7 00       		.byte	0
 1675 00f8 31       		.byte	49
 1676 00f9 E9       		.byte	-23
 1677 00fa 84       		.byte	-124
 1678 00fb 3C       		.byte	60
 1679 00fc 80       		.byte	-128
 1680 00fd FF       		.byte	-1
 1681 00fe FF       		.byte	-1
 1682 00ff FF       		.byte	-1
 1683 0100 A0       		.byte	-96
 1684 0101 2A       		.byte	42
 1685 0102 84       		.byte	-124
 1686 0103 3C       		.byte	60
 1687 0104 80       		.byte	-128
 1688 0105 FF       		.byte	-1
 1689 0106 FF       		.byte	-1
 1690 0107 FF       		.byte	-1
 1691 0108 03       		.byte	3
 1692 0109 03       		.byte	3
 1693 010a 02       		.byte	2
 1694 010b 02       		.byte	2
 1695 010c 01       		.byte	1
 1696 010d 01       		.byte	1
 1697 010e 01       		.byte	1
 1698 010f 00       		.byte	0
 1699 0110 00       		.byte	0
 1700 0111 00       		.byte	0
 1701 0112 00       		.byte	0
 1702 0113 00       		.byte	0
 1703 0114 00       		.byte	0
 1704 0115 00       		.byte	0
 1705 0116 00       		.byte	0
 1706 0117 00       		.byte	0
GAS LISTING C:\Users\Jesper\AppData\Local\Temp\cc9lY2VB.s 			page 37


 1707 0118 00       		.byte	0
 1708 0119 00       		.byte	0
 1709 011a 00       		.byte	0
 1710 011b 00       		.byte	0
 1711 011c 50       		.byte	80
 1712 011d 00       		.byte	0
 1713 011e 00       		.byte	0
 1714 011f 00       		.byte	0
 1715 0120 70       		.byte	112
 1716 0121 00       		.byte	0
 1717 0122 00       		.byte	0
 1718 0123 00       		.byte	0
 1719 0124 90       		.byte	-112
 1720 0125 01       		.byte	1
 1721 0126 00       		.byte	0
 1722 0127 00       		.byte	0
 1723 0128 B6       		.byte	-74
 1724 0129 E0       		.byte	-32
 1725 012a 8A       		.byte	-118
 1726 012b 3B       		.byte	59
 1727 012c E0       		.byte	-32
 1728 012d A8       		.byte	-88
 1729 012e 36       		.byte	54
 1730 012f 3B       		.byte	59
 1731 0130 50       		.byte	80
 1732 0131 3D       		.byte	61
 1733 0132 C9       		.byte	-55
 1734 0133 3B       		.byte	59
 1735 0134 3E       		.byte	62
 1736 0135 4F       		.byte	79
 1737 0136 91       		.byte	-111
 1738 0137 3B       		.byte	59
 1739 0138 88       		.byte	-120
 1740 0139 9E       		.byte	-98
 1741 013a 57       		.byte	87
 1742 013b 3B       		.byte	59
 1743 013c 22       		.byte	34
 1744 013d A8       		.byte	-88
 1745 013e 6C       		.byte	108
 1746 013f 3B       		.byte	59
 1747 0140 1F       		.byte	31
 1748 0141 25       		.byte	37
 1749 0142 9F       		.byte	-97
 1750 0143 3B       		.byte	59
 1751 0144 F2       		.byte	-14
 1752 0145 40       		.byte	64
 1753 0146 71       		.byte	113
 1754 0147 3B       		.byte	59
 1755 0148 F1       		.byte	-15
 1756 0149 0D       		.byte	13
 1757 014a 28       		.byte	40
 1758 014b 3E       		.byte	62
 1759 014c 71       		.byte	113
 1760 014d 3E       		.byte	62
 1761 014e A8       		.byte	-88
 1762 014f DA       		.byte	-38
 1763 0150 EF       		.byte	-17
GAS LISTING C:\Users\Jesper\AppData\Local\Temp\cc9lY2VB.s 			page 38


 1764 0151 AD       		.byte	-83
 1765 0152 3D       		.byte	61
 1766 0153 2C       		.byte	44
 1767 0154 81       		.byte	-127
 1768 0155 B5       		.byte	-75
 1769 0156 CC       		.byte	-52
 1770 0157 0F       		.byte	15
 1771 0158 F2       		.byte	-14
 1772 0159 DF       		.byte	-33
 1773 015a DC       		.byte	-36
 1774 015b DC       		.byte	-36
 1775 015c BF       		.byte	-65
 1776 015d 9F       		.byte	-97
 1777 015e D1       		.byte	-47
 1778 015f E9       		.byte	-23
 1779 0160 EA       		.byte	-22
 1780 0161 E9       		.byte	-23
 1781 0162 D0       		.byte	-48
 1782 0163 C3       		.byte	-61
 1783 0164 C1       		.byte	-63
 1784 0165 99       		.byte	-103
 1785 0166 F2       		.byte	-14
 1786 0167 53       		.byte	83
 1787 0168 48       		.byte	72
 1788 0169 E8       		.byte	-24
 1789 016a 1B       		.byte	27
 1790 016b 34       		.byte	52
 1791 016c DD       		.byte	-35
 1792 016d C3       		.byte	-61
 1793 016e BA       		.byte	-70
 1794 016f AF       		.byte	-81
 1795 0170 81       		.byte	-127
 1796 0171 DB       		.byte	-37
 1797 0172 AC       		.byte	-84
 1798 0173 B1       		.byte	-79
 1799 0174 EB       		.byte	-21
 1800 0175 2B       		.byte	43
 1801 0176 13       		.byte	19
 1802 0177 09       		.byte	9
 1803 0178 18       		.byte	24
 1804 0179 1C       		.byte	28
 1805 017a 20       		.byte	32
 1806 017b 2F       		.byte	47
 1807 017c 34       		.byte	52
 1808 017d 20       		.byte	32
 1809 017e 56       		.byte	86
 1810 017f 46       		.byte	70
 1811 0180 3D       		.byte	61
 1812 0181 12       		.byte	18
 1813 0182 D6       		.byte	-42
 1814 0183 DB       		.byte	-37
 1815 0184 D4       		.byte	-44
 1816 0185 FB       		.byte	-5
 1817 0186 00       		.byte	0
 1818 0187 3E       		.byte	62
 1819 0188 5B       		.byte	91
 1820 0189 3F       		.byte	63
GAS LISTING C:\Users\Jesper\AppData\Local\Temp\cc9lY2VB.s 			page 39


 1821 018a 48       		.byte	72
 1822 018b 5D       		.byte	93
 1823 018c 33       		.byte	51
 1824 018d 55       		.byte	85
 1825 018e 3F       		.byte	63
 1826 018f 10       		.byte	16
 1827 0190 81       		.byte	-127
 1828 0191 C0       		.byte	-64
 1829 0192 D3       		.byte	-45
 1830 0193 D6       		.byte	-42
 1831 0194 93       		.byte	-109
 1832 0195 BF       		.byte	-65
 1833 0196 D5       		.byte	-43
 1834 0197 D7       		.byte	-41
 1835 0198 CA       		.byte	-54
 1836 0199 C9       		.byte	-55
 1837 019a F2       		.byte	-14
 1838 019b 1B       		.byte	27
 1839 019c 02       		.byte	2
 1840 019d 24       		.byte	36
 1841 019e F8       		.byte	-8
 1842 019f 1B       		.byte	27
 1843 01a0 F9       		.byte	-7
 1844 01a1 F7       		.byte	-9
 1845 01a2 DF       		.byte	-33
 1846 01a3 F8       		.byte	-8
 1847 01a4 07       		.byte	7
 1848 01a5 FF       		.byte	-1
 1849 01a6 50       		.byte	80
 1850 01a7 1C       		.byte	28
 1851 01a8 E6       		.byte	-26
 1852 01a9 B8       		.byte	-72
 1853 01aa C7       		.byte	-57
 1854 01ab 1A       		.byte	26
 1855 01ac D2       		.byte	-46
 1856 01ad CE       		.byte	-50
 1857 01ae 0C       		.byte	12
 1858 01af 09       		.byte	9
 1859 01b0 11       		.byte	17
 1860 01b1 E1       		.byte	-31
 1861 01b2 F6       		.byte	-10
 1862 01b3 0E       		.byte	14
 1863 01b4 1F       		.byte	31
 1864 01b5 2F       		.byte	47
 1865 01b6 20       		.byte	32
 1866 01b7 FA       		.byte	-6
 1867 01b8 2E       		.byte	46
 1868 01b9 2B       		.byte	43
 1869 01ba C7       		.byte	-57
 1870 01bb F8       		.byte	-8
 1871 01bc 0E       		.byte	14
 1872 01bd 49       		.byte	73
 1873 01be 47       		.byte	71
 1874 01bf 19       		.byte	25
 1875 01c0 2B       		.byte	43
 1876 01c1 11       		.byte	17
 1877 01c2 F7       		.byte	-9
GAS LISTING C:\Users\Jesper\AppData\Local\Temp\cc9lY2VB.s 			page 40


 1878 01c3 37       		.byte	55
 1879 01c4 06       		.byte	6
 1880 01c5 E9       		.byte	-23
 1881 01c6 B9       		.byte	-71
 1882 01c7 B9       		.byte	-71
 1883 01c8 E7       		.byte	-25
 1884 01c9 7F       		.byte	127
 1885 01ca 42       		.byte	66
 1886 01cb 14       		.byte	20
 1887 01cc A1       		.byte	-95
 1888 01cd F4       		.byte	-12
 1889 01ce 29       		.byte	41
 1890 01cf D1       		.byte	-47
 1891 01d0 D5       		.byte	-43
 1892 01d1 07       		.byte	7
 1893 01d2 F9       		.byte	-7
 1894 01d3 FC       		.byte	-4
 1895 01d4 0C       		.byte	12
 1896 01d5 1B       		.byte	27
 1897 01d6 2F       		.byte	47
 1898 01d7 2F       		.byte	47
 1899 01d8 25       		.byte	37
 1900 01d9 1E       		.byte	30
 1901 01da 07       		.byte	7
 1902 01db 02       		.byte	2
 1903 01dc EB       		.byte	-21
 1904 01dd DD       		.byte	-35
 1905 01de 08       		.byte	8
 1906 01df A8       		.byte	-88
 1907 01e0 B4       		.byte	-76
 1908 01e1 2B       		.byte	43
 1909 01e2 1D       		.byte	29
 1910 01e3 E4       		.byte	-28
 1911 01e4 16       		.byte	22
 1912 01e5 31       		.byte	49
 1913 01e6 16       		.byte	22
 1914 01e7 1F       		.byte	31
 1915 01e8 F7       		.byte	-9
 1916 01e9 5C       		.byte	92
 1917 01ea 17       		.byte	23
 1918 01eb E0       		.byte	-32
 1919 01ec 0A       		.byte	10
 1920 01ed 15       		.byte	21
 1921 01ee 08       		.byte	8
 1922 01ef 25       		.byte	37
 1923 01f0 A4       		.byte	-92
 1924 01f1 D9       		.byte	-39
 1925 01f2 1A       		.byte	26
 1926 01f3 19       		.byte	25
 1927 01f4 F9       		.byte	-7
 1928 01f5 F7       		.byte	-9
 1929 01f6 F9       		.byte	-7
 1930 01f7 8D       		.byte	-115
 1931 01f8 A9       		.byte	-87
 1932 01f9 CB       		.byte	-53
 1933 01fa 81       		.byte	-127
 1934 01fb C0       		.byte	-64
GAS LISTING C:\Users\Jesper\AppData\Local\Temp\cc9lY2VB.s 			page 41


 1935 01fc EC       		.byte	-20
 1936 01fd 18       		.byte	24
 1937 01fe 51       		.byte	81
 1938 01ff C4       		.byte	-60
 1939 0200 0C       		.byte	12
 1940 0201 40       		.byte	64
 1941 0202 0C       		.byte	12
 1942 0203 65       		.byte	101
 1943 0204 24       		.byte	36
 1944 0205 CD       		.byte	-51
 1945 0206 CD       		.byte	-51
 1946 0207 CD       		.byte	-51
 1947 0208 87       		.byte	-121
 1948 0209 81       		.byte	-127
 1949 020a CD       		.byte	-51
 1950 020b C2       		.byte	-62
 1951 020c 9F       		.byte	-97
 1952 020d E4       		.byte	-28
 1953 020e 75       		.byte	117
 1954 020f 52       		.byte	82
 1955 0210 F8       		.byte	-8
 1956 0211 08       		.byte	8
 1957 0212 08       		.byte	8
 1958 0213 0C       		.byte	12
 1959 0214 8E       		.byte	-114
 1960 0215 8A       		.byte	-118
 1961 0216 90       		.byte	-112
 1962 0217 3A       		.byte	58
 1963 0218 1C       		.byte	28
 1964 0219 03       		.byte	3
 1965 021a 77       		.byte	119
 1966 021b 3B       		.byte	59
 1967 021c F1       		.byte	-15
 1968 021d 45       		.byte	69
 1969 021e 4B       		.byte	75
 1970 021f 06       		.byte	6
 1971 0220 48       		.byte	72
 1972 0221 41       		.byte	65
 1973 0222 10       		.byte	16
 1974 0223 1A       		.byte	26
 1975 0224 05       		.byte	5
 1976 0225 FE       		.byte	-2
 1977 0226 00       		.byte	0
 1978 0227 FF       		.byte	-1
 1979 0228 EA       		.byte	-22
 1980 0229 AC       		.byte	-84
 1981 022a 81       		.byte	-127
 1982 022b AD       		.byte	-83
 1983 022c DA       		.byte	-38
 1984 022d B6       		.byte	-74
 1985 022e CB       		.byte	-53
 1986 022f 13       		.byte	19
 1987 0230 EF       		.byte	-17
 1988 0231 EA       		.byte	-22
 1989 0232 D5       		.byte	-43
 1990 0233 C8       		.byte	-56
 1991 0234 B3       		.byte	-77
GAS LISTING C:\Users\Jesper\AppData\Local\Temp\cc9lY2VB.s 			page 42


 1992 0235 0F       		.byte	15
 1993 0236 FD       		.byte	-3
 1994 0237 F4       		.byte	-12
 1995 0238 FA       		.byte	-6
 1996 0239 FE       		.byte	-2
 1997 023a 0D       		.byte	13
 1998 023b 04       		.byte	4
 1999 023c 4B       		.byte	75
 2000 023d 4C       		.byte	76
 2001 023e 1C       		.byte	28
 2002 023f 4B       		.byte	75
 2003 0240 44       		.byte	68
 2004 0241 09       		.byte	9
 2005 0242 38       		.byte	56
 2006 0243 33       		.byte	51
 2007 0244 B0       		.byte	-80
 2008 0245 D2       		.byte	-46
 2009 0246 17       		.byte	23
 2010 0247 8D       		.byte	-115
 2011 0248 AF       		.byte	-81
 2012 0249 E6       		.byte	-26
 2013 024a DA       		.byte	-38
 2014 024b CB       		.byte	-53
 2015 024c DD       		.byte	-35
 2016 024d 2E       		.byte	46
 2017 024e 0F       		.byte	15
 2018 024f 04       		.byte	4
 2019 0250 3C       		.byte	60
 2020 0251 7F       		.byte	127
 2021 0252 3D       		.byte	61
 2022 0253 24       		.byte	36
 2023 0254 53       		.byte	83
 2024 0255 32       		.byte	50
 2025 0256 B0       		.byte	-80
 2026 0257 C7       		.byte	-57
 2027 0258 E1       		.byte	-31
 2028 0259 F1       		.byte	-15
 2029 025a 2D       		.byte	45
 2030 025b 13       		.byte	19
 2031 025c E7       		.byte	-25
 2032 025d 4D       		.byte	77
 2033 025e 24       		.byte	36
 2034 025f A1       		.byte	-95
 2035 0260 D8       		.byte	-40
 2036 0261 F1       		.byte	-15
 2037 0262 B1       		.byte	-79
 2038 0263 83       		.byte	-125
 2039 0264 D0       		.byte	-48
 2040 0265 C5       		.byte	-59
 2041 0266 C0       		.byte	-64
 2042 0267 E2       		.byte	-30
 2043 0268 24       		.byte	36
 2044 0269 1F       		.byte	31
 2045 026a FF       		.byte	-1
 2046 026b FF       		.byte	-1
 2047 026c DE       		.byte	-34
 2048 026d D1       		.byte	-47
GAS LISTING C:\Users\Jesper\AppData\Local\Temp\cc9lY2VB.s 			page 43


 2049 026e 00       		.byte	0
 2050 026f 00       		.byte	0
 2051 0270 57       		.byte	87
 2052 0271 C8       		.byte	-56
 2053 0272 FE       		.byte	-2
 2054 0273 FF       		.byte	-1
 2055 0274 53       		.byte	83
 2056 0275 CC       		.byte	-52
 2057 0276 00       		.byte	0
 2058 0277 00       		.byte	0
 2059 0278 F3       		.byte	-13
 2060 0279 76       		.byte	118
 2061 027a FF       		.byte	-1
 2062 027b FF       		.byte	-1
 2063 027c 99       		.byte	-103
 2064 027d FC       		.byte	-4
 2065 027e FF       		.byte	-1
 2066 027f FF       		.byte	-1
 2067 0280 A0       		.byte	-96
 2068 0281 12       		.byte	18
 2069 0282 00       		.byte	0
 2070 0283 00       		.byte	0
 2071 0284 5E       		.byte	94
 2072 0285 1B       		.byte	27
 2073 0286 FF       		.byte	-1
 2074 0287 FF       		.byte	-1
 2075 0288 00       		.byte	0
 2076 0289 00       		.byte	0
 2077 028a 00       		.byte	0
 2078 028b 00       		.byte	0
 2079 028c 50       		.byte	80
 2080 028d 05       		.byte	5
 2081 028e 00       		.byte	0
 2082 028f 00       		.byte	0
 2083 0290 00       		.byte	0
 2084 0291 00       		.byte	0
 2085 0292 00       		.byte	0
 2086 0293 00       		.byte	0
 2087 0294 78       		.byte	120
 2088 0295 05       		.byte	5
 2089 0296 00       		.byte	0
 2090 0297 00       		.byte	0
 2091 0298 03       		.byte	3
 2092 0299 00       		.byte	0
 2093 029a 06       		.byte	6
 2094 029b 00       		.byte	0
 2095 029c 06       		.byte	6
 2096 029d 00       		.byte	0
 2097 029e 08       		.byte	8
 2098 029f 00       		.byte	0
 2099 02a0 03       		.byte	3
 2100 02a1 00       		.byte	0
 2101 02a2 02       		.byte	2
 2102 02a3 00       		.byte	0
 2103 02a4 02       		.byte	2
 2104 02a5 00       		.byte	0
 2105 02a6 10       		.byte	16
GAS LISTING C:\Users\Jesper\AppData\Local\Temp\cc9lY2VB.s 			page 44


 2106 02a7 00       		.byte	0
 2107 02a8 A0       		.byte	-96
 2108 02a9 2A       		.byte	42
 2109 02aa 84       		.byte	-124
 2110 02ab 3C       		.byte	60
 2111 02ac 80       		.byte	-128
 2112 02ad FF       		.byte	-1
 2113 02ae FF       		.byte	-1
 2114 02af FF       		.byte	-1
 2115 02b0 05       		.byte	5
 2116 02b1 09       		.byte	9
 2117 02b2 68       		.byte	104
 2118 02b3 3D       		.byte	61
 2119 02b4 80       		.byte	-128
 2120 02b5 FF       		.byte	-1
 2121 02b6 FF       		.byte	-1
 2122 02b7 FF       		.byte	-1
 2123 02b8 03       		.byte	3
 2124 02b9 03       		.byte	3
 2125 02ba 02       		.byte	2
 2126 02bb 02       		.byte	2
 2127 02bc 01       		.byte	1
 2128 02bd 01       		.byte	1
 2129 02be 01       		.byte	1
 2130 02bf 00       		.byte	0
 2131 02c0 00       		.byte	0
 2132 02c1 00       		.byte	0
 2133 02c2 00       		.byte	0
 2134 02c3 00       		.byte	0
 2135 02c4 00       		.byte	0
 2136 02c5 00       		.byte	0
 2137 02c6 00       		.byte	0
 2138 02c7 00       		.byte	0
 2139 02c8 00       		.byte	0
 2140 02c9 00       		.byte	0
 2141 02ca 00       		.byte	0
 2142 02cb 00       		.byte	0
 2143 02cc 50       		.byte	80
 2144 02cd 00       		.byte	0
 2145 02ce 00       		.byte	0
 2146 02cf 00       		.byte	0
 2147 02d0 90       		.byte	-112
 2148 02d1 00       		.byte	0
 2149 02d2 00       		.byte	0
 2150 02d3 00       		.byte	0
 2151 02d4 10       		.byte	16
 2152 02d5 05       		.byte	5
 2153 02d6 00       		.byte	0
 2154 02d7 00       		.byte	0
 2155 02d8 E3       		.byte	-29
 2156 02d9 93       		.byte	-109
 2157 02da AD       		.byte	-83
 2158 02db 3C       		.byte	60
 2159 02dc 61       		.byte	97
 2160 02dd 96       		.byte	-106
 2161 02de 68       		.byte	104
 2162 02df 3C       		.byte	60
GAS LISTING C:\Users\Jesper\AppData\Local\Temp\cc9lY2VB.s 			page 45


 2163 02e0 71       		.byte	113
 2164 02e1 D9       		.byte	-39
 2165 02e2 96       		.byte	-106
 2166 02e3 3C       		.byte	60
 2167 02e4 CA       		.byte	-54
 2168 02e5 A1       		.byte	-95
 2169 02e6 4F       		.byte	79
 2170 02e7 3C       		.byte	60
 2171 02e8 7B       		.byte	123
 2172 02e9 9B       		.byte	-101
 2173 02ea 6D       		.byte	109
 2174 02eb 3C       		.byte	60
 2175 02ec 35       		.byte	53
 2176 02ed 94       		.byte	-108
 2177 02ee A4       		.byte	-92
 2178 02ef 3C       		.byte	60
 2179 02f0 C1       		.byte	-63
 2180 02f1 F4       		.byte	-12
 2181 02f2 A1       		.byte	-95
 2182 02f3 3C       		.byte	60
 2183 02f4 36       		.byte	54
 2184 02f5 E6       		.byte	-26
 2185 02f6 83       		.byte	-125
 2186 02f7 3C       		.byte	60
 2187 02f8 93       		.byte	-109
 2188 02f9 D4       		.byte	-44
 2189 02fa 45       		.byte	69
 2190 02fb 3C       		.byte	60
 2191 02fc 16       		.byte	22
 2192 02fd 82       		.byte	-126
 2193 02fe 5F       		.byte	95
 2194 02ff 3C       		.byte	60
 2195 0300 39       		.byte	57
 2196 0301 F8       		.byte	-8
 2197 0302 56       		.byte	86
 2198 0303 3C       		.byte	60
 2199 0304 8B       		.byte	-117
 2200 0305 F0       		.byte	-16
 2201 0306 AA       		.byte	-86
 2202 0307 3C       		.byte	60
 2203 0308 68       		.byte	104
 2204 0309 39       		.byte	57
 2205 030a 66       		.byte	102
 2206 030b 3C       		.byte	60
 2207 030c 58       		.byte	88
 2208 030d 1E       		.byte	30
 2209 030e A3       		.byte	-93
 2210 030f 3C       		.byte	60
 2211 0310 D8       		.byte	-40
 2212 0311 1B       		.byte	27
 2213 0312 86       		.byte	-122
 2214 0313 3C       		.byte	60
 2215 0314 38       		.byte	56
 2216 0315 AD       		.byte	-83
 2217 0316 9A       		.byte	-102
 2218 0317 3C       		.byte	60
 2219 0318 FB       		.byte	-5
GAS LISTING C:\Users\Jesper\AppData\Local\Temp\cc9lY2VB.s 			page 46


 2220 0319 F8       		.byte	-8
 2221 031a 49       		.byte	73
 2222 031b 99       		.byte	-103
 2223 031c FB       		.byte	-5
 2224 031d D6       		.byte	-42
 2225 031e 82       		.byte	-126
 2226 031f FF       		.byte	-1
 2227 0320 07       		.byte	7
 2228 0321 DF       		.byte	-33
 2229 0322 FD       		.byte	-3
 2230 0323 16       		.byte	22
 2231 0324 49       		.byte	73
 2232 0325 28       		.byte	40
 2233 0326 FD       		.byte	-3
 2234 0327 03       		.byte	3
 2235 0328 10       		.byte	16
 2236 0329 10       		.byte	16
 2237 032a 0E       		.byte	14
 2238 032b 13       		.byte	19
 2239 032c FE       		.byte	-2
 2240 032d 19       		.byte	25
 2241 032e 31       		.byte	49
 2242 032f 23       		.byte	35
 2243 0330 0D       		.byte	13
 2244 0331 81       		.byte	-127
 2245 0332 A5       		.byte	-91
 2246 0333 01       		.byte	1
 2247 0334 DE       		.byte	-34
 2248 0335 FB       		.byte	-5
 2249 0336 18       		.byte	24
 2250 0337 F8       		.byte	-8
 2251 0338 CA       		.byte	-54
 2252 0339 F6       		.byte	-10
 2253 033a E1       		.byte	-31
 2254 033b F2       		.byte	-14
 2255 033c 14       		.byte	20
 2256 033d F9       		.byte	-7
 2257 033e FF       		.byte	-1
 2258 033f 3D       		.byte	61
 2259 0340 49       		.byte	73
 2260 0341 1F       		.byte	31
 2261 0342 2D       		.byte	45
 2262 0343 F8       		.byte	-8
 2263 0344 04       		.byte	4
 2264 0345 42       		.byte	66
 2265 0346 05       		.byte	5
 2266 0347 13       		.byte	19
 2267 0348 F1       		.byte	-15
 2268 0349 1B       		.byte	27
 2269 034a 03       		.byte	3
 2270 034b 2A       		.byte	42
 2271 034c FB       		.byte	-5
 2272 034d 17       		.byte	23
 2273 034e DE       		.byte	-34
 2274 034f ED       		.byte	-19
 2275 0350 FB       		.byte	-5
 2276 0351 E6       		.byte	-26
GAS LISTING C:\Users\Jesper\AppData\Local\Temp\cc9lY2VB.s 			page 47


 2277 0352 F6       		.byte	-10
 2278 0353 C8       		.byte	-56
 2279 0354 16       		.byte	22
 2280 0355 05       		.byte	5
 2281 0356 D5       		.byte	-43
 2282 0357 32       		.byte	50
 2283 0358 43       		.byte	67
 2284 0359 10       		.byte	16
 2285 035a 13       		.byte	19
 2286 035b 38       		.byte	56
 2287 035c 40       		.byte	64
 2288 035d E9       		.byte	-23
 2289 035e 05       		.byte	5
 2290 035f 29       		.byte	41
 2291 0360 A4       		.byte	-92
 2292 0361 AE       		.byte	-82
 2293 0362 2D       		.byte	45
 2294 0363 AB       		.byte	-85
 2295 0364 A1       		.byte	-95
 2296 0365 05       		.byte	5
 2297 0366 CA       		.byte	-54
 2298 0367 81       		.byte	-127
 2299 0368 4A       		.byte	74
 2300 0369 D0       		.byte	-48
 2301 036a BA       		.byte	-70
 2302 036b E5       		.byte	-27
 2303 036c 3D       		.byte	61
 2304 036d C8       		.byte	-56
 2305 036e BC       		.byte	-68
 2306 036f 06       		.byte	6
 2307 0370 EB       		.byte	-21
 2308 0371 2B       		.byte	43
 2309 0372 32       		.byte	50
 2310 0373 F9       		.byte	-7
 2311 0374 12       		.byte	18
 2312 0375 40       		.byte	64
 2313 0376 2E       		.byte	46
 2314 0377 CC       		.byte	-52
 2315 0378 10       		.byte	16
 2316 0379 E4       		.byte	-28
 2317 037a 04       		.byte	4
 2318 037b 5E       		.byte	94
 2319 037c 58       		.byte	88
 2320 037d 03       		.byte	3
 2321 037e 2F       		.byte	47
 2322 037f 1A       		.byte	26
 2323 0380 33       		.byte	51
 2324 0381 D2       		.byte	-46
 2325 0382 F5       		.byte	-11
 2326 0383 F4       		.byte	-12
 2327 0384 11       		.byte	17
 2328 0385 2C       		.byte	44
 2329 0386 08       		.byte	8
 2330 0387 FD       		.byte	-3
 2331 0388 DD       		.byte	-35
 2332 0389 17       		.byte	23
 2333 038a 11       		.byte	17
GAS LISTING C:\Users\Jesper\AppData\Local\Temp\cc9lY2VB.s 			page 48


 2334 038b EC       		.byte	-20
 2335 038c 48       		.byte	72
 2336 038d 82       		.byte	-126
 2337 038e F2       		.byte	-14
 2338 038f 3E       		.byte	62
 2339 0390 E4       		.byte	-28
 2340 0391 22       		.byte	34
 2341 0392 11       		.byte	17
 2342 0393 2A       		.byte	42
 2343 0394 C8       		.byte	-56
 2344 0395 0E       		.byte	14
 2345 0396 2A       		.byte	42
 2346 0397 0C       		.byte	12
 2347 0398 53       		.byte	83
 2348 0399 B0       		.byte	-80
 2349 039a 4B       		.byte	75
 2350 039b 0A       		.byte	10
 2351 039c CB       		.byte	-53
 2352 039d 09       		.byte	9
 2353 039e F9       		.byte	-7
 2354 039f 42       		.byte	66
 2355 03a0 47       		.byte	71
 2356 03a1 09       		.byte	9
 2357 03a2 6A       		.byte	106
 2358 03a3 30       		.byte	48
 2359 03a4 E2       		.byte	-30
 2360 03a5 FC       		.byte	-4
 2361 03a6 02       		.byte	2
 2362 03a7 BB       		.byte	-69
 2363 03a8 48       		.byte	72
 2364 03a9 0A       		.byte	10
 2365 03aa F4       		.byte	-12
 2366 03ab DC       		.byte	-36
 2367 03ac 7F       		.byte	127
 2368 03ad D6       		.byte	-42
 2369 03ae 9D       		.byte	-99
 2370 03af FD       		.byte	-3
 2371 03b0 B0       		.byte	-80
 2372 03b1 07       		.byte	7
 2373 03b2 12       		.byte	18
 2374 03b3 61       		.byte	97
 2375 03b4 34       		.byte	52
 2376 03b5 11       		.byte	17
 2377 03b6 CE       		.byte	-50
 2378 03b7 44       		.byte	68
 2379 03b8 C0       		.byte	-64
 2380 03b9 FD       		.byte	-3
 2381 03ba 0D       		.byte	13
 2382 03bb 19       		.byte	25
 2383 03bc 29       		.byte	41
 2384 03bd CF       		.byte	-49
 2385 03be FB       		.byte	-5
 2386 03bf CD       		.byte	-51
 2387 03c0 E0       		.byte	-32
 2388 03c1 ED       		.byte	-19
 2389 03c2 AE       		.byte	-82
 2390 03c3 DE       		.byte	-34
GAS LISTING C:\Users\Jesper\AppData\Local\Temp\cc9lY2VB.s 			page 49


 2391 03c4 E9       		.byte	-23
 2392 03c5 F7       		.byte	-9
 2393 03c6 22       		.byte	34
 2394 03c7 19       		.byte	25
 2395 03c8 11       		.byte	17
 2396 03c9 E9       		.byte	-23
 2397 03ca 19       		.byte	25
 2398 03cb 18       		.byte	24
 2399 03cc D0       		.byte	-48
 2400 03cd 52       		.byte	82
 2401 03ce 17       		.byte	23
 2402 03cf DA       		.byte	-38
 2403 03d0 1F       		.byte	31
 2404 03d1 B4       		.byte	-76
 2405 03d2 10       		.byte	16
 2406 03d3 23       		.byte	35
 2407 03d4 36       		.byte	54
 2408 03d5 EF       		.byte	-17
 2409 03d6 08       		.byte	8
 2410 03d7 DD       		.byte	-35
 2411 03d8 C2       		.byte	-62
 2412 03d9 E8       		.byte	-24
 2413 03da 30       		.byte	48
 2414 03db D3       		.byte	-45
 2415 03dc 08       		.byte	8
 2416 03dd 23       		.byte	35
 2417 03de 02       		.byte	2
 2418 03df 24       		.byte	36
 2419 03e0 99       		.byte	-103
 2420 03e1 1D       		.byte	29
 2421 03e2 ED       		.byte	-19
 2422 03e3 12       		.byte	18
 2423 03e4 03       		.byte	3
 2424 03e5 11       		.byte	17
 2425 03e6 EE       		.byte	-18
 2426 03e7 E5       		.byte	-27
 2427 03e8 DC       		.byte	-36
 2428 03e9 F2       		.byte	-14
 2429 03ea 13       		.byte	19
 2430 03eb 0A       		.byte	10
 2431 03ec 26       		.byte	38
 2432 03ed 1A       		.byte	26
 2433 03ee F2       		.byte	-14
 2434 03ef 02       		.byte	2
 2435 03f0 F8       		.byte	-8
 2436 03f1 FC       		.byte	-4
 2437 03f2 CB       		.byte	-53
 2438 03f3 84       		.byte	-124
 2439 03f4 5C       		.byte	92
 2440 03f5 ED       		.byte	-19
 2441 03f6 1D       		.byte	29
 2442 03f7 99       		.byte	-103
 2443 03f8 F2       		.byte	-14
 2444 03f9 57       		.byte	87
 2445 03fa 3E       		.byte	62
 2446 03fb F3       		.byte	-13
 2447 03fc 8A       		.byte	-118
GAS LISTING C:\Users\Jesper\AppData\Local\Temp\cc9lY2VB.s 			page 50


 2448 03fd D6       		.byte	-42
 2449 03fe D6       		.byte	-42
 2450 03ff C1       		.byte	-63
 2451 0400 16       		.byte	22
 2452 0401 05       		.byte	5
 2453 0402 81       		.byte	-127
 2454 0403 00       		.byte	0
 2455 0404 FD       		.byte	-3
 2456 0405 92       		.byte	-110
 2457 0406 D9       		.byte	-39
 2458 0407 36       		.byte	54
 2459 0408 E7       		.byte	-25
 2460 0409 25       		.byte	37
 2461 040a 17       		.byte	23
 2462 040b E8       		.byte	-24
 2463 040c 05       		.byte	5
 2464 040d 19       		.byte	25
 2465 040e 33       		.byte	51
 2466 040f 0D       		.byte	13
 2467 0410 48       		.byte	72
 2468 0411 AC       		.byte	-84
 2469 0412 DF       		.byte	-33
 2470 0413 15       		.byte	21
 2471 0414 E9       		.byte	-23
 2472 0415 F5       		.byte	-11
 2473 0416 BD       		.byte	-67
 2474 0417 F7       		.byte	-9
 2475 0418 F0       		.byte	-16
 2476 0419 31       		.byte	49
 2477 041a 72       		.byte	114
 2478 041b 23       		.byte	35
 2479 041c 16       		.byte	22
 2480 041d 65       		.byte	101
 2481 041e E2       		.byte	-30
 2482 041f B5       		.byte	-75
 2483 0420 F4       		.byte	-12
 2484 0421 0D       		.byte	13
 2485 0422 EA       		.byte	-22
 2486 0423 BC       		.byte	-68
 2487 0424 F3       		.byte	-13
 2488 0425 3B       		.byte	59
 2489 0426 5A       		.byte	90
 2490 0427 DF       		.byte	-33
 2491 0428 91       		.byte	-111
 2492 0429 10       		.byte	16
 2493 042a E9       		.byte	-23
 2494 042b F7       		.byte	-9
 2495 042c 20       		.byte	32
 2496 042d B2       		.byte	-78
 2497 042e FB       		.byte	-5
 2498 042f E9       		.byte	-23
 2499 0430 FC       		.byte	-4
 2500 0431 0F       		.byte	15
 2501 0432 B6       		.byte	-74
 2502 0433 3B       		.byte	59
 2503 0434 04       		.byte	4
 2504 0435 04       		.byte	4
GAS LISTING C:\Users\Jesper\AppData\Local\Temp\cc9lY2VB.s 			page 51


 2505 0436 1B       		.byte	27
 2506 0437 25       		.byte	37
 2507 0438 95       		.byte	-107
 2508 0439 C6       		.byte	-58
 2509 043a D5       		.byte	-43
 2510 043b FA       		.byte	-6
 2511 043c A1       		.byte	-95
 2512 043d 90       		.byte	-112
 2513 043e DE       		.byte	-34
 2514 043f B9       		.byte	-71
 2515 0440 8B       		.byte	-117
 2516 0441 39       		.byte	57
 2517 0442 E8       		.byte	-24
 2518 0443 C1       		.byte	-63
 2519 0444 09       		.byte	9
 2520 0445 F9       		.byte	-7
 2521 0446 05       		.byte	5
 2522 0447 1D       		.byte	29
 2523 0448 1B       		.byte	27
 2524 0449 0F       		.byte	15
 2525 044a 39       		.byte	57
 2526 044b FF       		.byte	-1
 2527 044c D5       		.byte	-43
 2528 044d 46       		.byte	70
 2529 044e F7       		.byte	-9
 2530 044f 29       		.byte	41
 2531 0450 7A       		.byte	122
 2532 0451 6A       		.byte	106
 2533 0452 FA       		.byte	-6
 2534 0453 F7       		.byte	-9
 2535 0454 08       		.byte	8
 2536 0455 3D       		.byte	61
 2537 0456 AF       		.byte	-81
 2538 0457 07       		.byte	7
 2539 0458 56       		.byte	86
 2540 0459 41       		.byte	65
 2541 045a 02       		.byte	2
 2542 045b D7       		.byte	-41
 2543 045c EC       		.byte	-20
 2544 045d E7       		.byte	-25
 2545 045e 01       		.byte	1
 2546 045f E0       		.byte	-32
 2547 0460 D1       		.byte	-47
 2548 0461 B9       		.byte	-71
 2549 0462 C1       		.byte	-63
 2550 0463 94       		.byte	-108
 2551 0464 D4       		.byte	-44
 2552 0465 EB       		.byte	-21
 2553 0466 CA       		.byte	-54
 2554 0467 DD       		.byte	-35
 2555 0468 D6       		.byte	-42
 2556 0469 B2       		.byte	-78
 2557 046a E1       		.byte	-31
 2558 046b E1       		.byte	-31
 2559 046c 0C       		.byte	12
 2560 046d FC       		.byte	-4
 2561 046e 38       		.byte	56
GAS LISTING C:\Users\Jesper\AppData\Local\Temp\cc9lY2VB.s 			page 52


 2562 046f 11       		.byte	17
 2563 0470 01       		.byte	1
 2564 0471 EA       		.byte	-22
 2565 0472 DD       		.byte	-35
 2566 0473 23       		.byte	35
 2567 0474 81       		.byte	-127
 2568 0475 E4       		.byte	-28
 2569 0476 10       		.byte	16
 2570 0477 FF       		.byte	-1
 2571 0478 00       		.byte	0
 2572 0479 20       		.byte	32
 2573 047a 1A       		.byte	26
 2574 047b C7       		.byte	-57
 2575 047c F4       		.byte	-12
 2576 047d 3B       		.byte	59
 2577 047e F9       		.byte	-7
 2578 047f E5       		.byte	-27
 2579 0480 81       		.byte	-127
 2580 0481 E7       		.byte	-25
 2581 0482 12       		.byte	18
 2582 0483 E0       		.byte	-32
 2583 0484 EB       		.byte	-21
 2584 0485 07       		.byte	7
 2585 0486 0E       		.byte	14
 2586 0487 37       		.byte	55
 2587 0488 F6       		.byte	-10
 2588 0489 36       		.byte	54
 2589 048a F6       		.byte	-10
 2590 048b ED       		.byte	-19
 2591 048c 27       		.byte	39
 2592 048d 09       		.byte	9
 2593 048e 38       		.byte	56
 2594 048f 0C       		.byte	12
 2595 0490 0D       		.byte	13
 2596 0491 E9       		.byte	-23
 2597 0492 14       		.byte	20
 2598 0493 EE       		.byte	-18
 2599 0494 DE       		.byte	-34
 2600 0495 16       		.byte	22
 2601 0496 1E       		.byte	30
 2602 0497 2C       		.byte	44
 2603 0498 22       		.byte	34
 2604 0499 22       		.byte	34
 2605 049a E3       		.byte	-29
 2606 049b FB       		.byte	-5
 2607 049c 14       		.byte	20
 2608 049d 45       		.byte	69
 2609 049e 08       		.byte	8
 2610 049f F2       		.byte	-14
 2611 04a0 C7       		.byte	-57
 2612 04a1 F8       		.byte	-8
 2613 04a2 F9       		.byte	-7
 2614 04a3 F4       		.byte	-12
 2615 04a4 13       		.byte	19
 2616 04a5 DB       		.byte	-37
 2617 04a6 DE       		.byte	-34
 2618 04a7 10       		.byte	16
GAS LISTING C:\Users\Jesper\AppData\Local\Temp\cc9lY2VB.s 			page 53


 2619 04a8 21       		.byte	33
 2620 04a9 DD       		.byte	-35
 2621 04aa 04       		.byte	4
 2622 04ab 06       		.byte	6
 2623 04ac 22       		.byte	34
 2624 04ad 0F       		.byte	15
 2625 04ae 1A       		.byte	26
 2626 04af 23       		.byte	35
 2627 04b0 18       		.byte	24
 2628 04b1 EF       		.byte	-17
 2629 04b2 EC       		.byte	-20
 2630 04b3 00       		.byte	0
 2631 04b4 DE       		.byte	-34
 2632 04b5 D9       		.byte	-39
 2633 04b6 C4       		.byte	-60
 2634 04b7 CF       		.byte	-49
 2635 04b8 0B       		.byte	11
 2636 04b9 F0       		.byte	-16
 2637 04ba FE       		.byte	-2
 2638 04bb 37       		.byte	55
 2639 04bc F2       		.byte	-14
 2640 04bd EE       		.byte	-18
 2641 04be F4       		.byte	-12
 2642 04bf 4C       		.byte	76
 2643 04c0 48       		.byte	72
 2644 04c1 EC       		.byte	-20
 2645 04c2 BD       		.byte	-67
 2646 04c3 27       		.byte	39
 2647 04c4 FB       		.byte	-5
 2648 04c5 C4       		.byte	-60
 2649 04c6 EA       		.byte	-22
 2650 04c7 09       		.byte	9
 2651 04c8 29       		.byte	41
 2652 04c9 00       		.byte	0
 2653 04ca 0C       		.byte	12
 2654 04cb 2A       		.byte	42
 2655 04cc 2E       		.byte	46
 2656 04cd DC       		.byte	-36
 2657 04ce F8       		.byte	-8
 2658 04cf 03       		.byte	3
 2659 04d0 D1       		.byte	-47
 2660 04d1 B3       		.byte	-77
 2661 04d2 16       		.byte	22
 2662 04d3 04       		.byte	4
 2663 04d4 81       		.byte	-127
 2664 04d5 D3       		.byte	-45
 2665 04d6 09       		.byte	9
 2666 04d7 F7       		.byte	-9
 2667 04d8 D3       		.byte	-45
 2668 04d9 FA       		.byte	-6
 2669 04da F5       		.byte	-11
 2670 04db D3       		.byte	-45
 2671 04dc E0       		.byte	-32
 2672 04dd E0       		.byte	-32
 2673 04de C6       		.byte	-58
 2674 04df FF       		.byte	-1
 2675 04e0 19       		.byte	25
GAS LISTING C:\Users\Jesper\AppData\Local\Temp\cc9lY2VB.s 			page 54


 2676 04e1 F6       		.byte	-10
 2677 04e2 2F       		.byte	47
 2678 04e3 01       		.byte	1
 2679 04e4 F7       		.byte	-9
 2680 04e5 0A       		.byte	10
 2681 04e6 26       		.byte	38
 2682 04e7 02       		.byte	2
 2683 04e8 F5       		.byte	-11
 2684 04e9 2C       		.byte	44
 2685 04ea 11       		.byte	17
 2686 04eb 0B       		.byte	11
 2687 04ec 22       		.byte	34
 2688 04ed FF       		.byte	-1
 2689 04ee FC       		.byte	-4
 2690 04ef 06       		.byte	6
 2691 04f0 DD       		.byte	-35
 2692 04f1 FD       		.byte	-3
 2693 04f2 16       		.byte	22
 2694 04f3 D9       		.byte	-39
 2695 04f4 EB       		.byte	-21
 2696 04f5 4F       		.byte	79
 2697 04f6 1C       		.byte	28
 2698 04f7 E0       		.byte	-32
 2699 04f8 E1       		.byte	-31
 2700 04f9 E3       		.byte	-29
 2701 04fa D5       		.byte	-43
 2702 04fb 15       		.byte	21
 2703 04fc E8       		.byte	-24
 2704 04fd F6       		.byte	-10
 2705 04fe 64       		.byte	100
 2706 04ff 29       		.byte	41
 2707 0500 3D       		.byte	61
 2708 0501 C3       		.byte	-61
 2709 0502 23       		.byte	35
 2710 0503 49       		.byte	73
 2711 0504 E1       		.byte	-31
 2712 0505 CE       		.byte	-50
 2713 0506 DB       		.byte	-37
 2714 0507 BC       		.byte	-68
 2715 0508 DE       		.byte	-34
 2716 0509 D9       		.byte	-39
 2717 050a E3       		.byte	-29
 2718 050b D3       		.byte	-45
 2719 050c B0       		.byte	-80
 2720 050d 0C       		.byte	12
 2721 050e 22       		.byte	34
 2722 050f 2A       		.byte	42
 2723 0510 2C       		.byte	44
 2724 0511 08       		.byte	8
 2725 0512 0D       		.byte	13
 2726 0513 0C       		.byte	12
 2727 0514 7F       		.byte	127
 2728 0515 F6       		.byte	-10
 2729 0516 1B       		.byte	27
 2730 0517 D3       		.byte	-45
 2731 0518 17       		.byte	23
 2732 0519 E0       		.byte	-32
GAS LISTING C:\Users\Jesper\AppData\Local\Temp\cc9lY2VB.s 			page 55


 2733 051a 11       		.byte	17
 2734 051b F6       		.byte	-10
 2735 051c DC       		.byte	-36
 2736 051d FD       		.byte	-3
 2737 051e 08       		.byte	8
 2738 051f CA       		.byte	-54
 2739 0520 F6       		.byte	-10
 2740 0521 28       		.byte	40
 2741 0522 F3       		.byte	-13
 2742 0523 E3       		.byte	-29
 2743 0524 B7       		.byte	-73
 2744 0525 31       		.byte	49
 2745 0526 09       		.byte	9
 2746 0527 20       		.byte	32
 2747 0528 14       		.byte	20
 2748 0529 A8       		.byte	-88
 2749 052a 18       		.byte	24
 2750 052b F2       		.byte	-14
 2751 052c E3       		.byte	-29
 2752 052d 25       		.byte	37
 2753 052e 3B       		.byte	59
 2754 052f D7       		.byte	-41
 2755 0530 1A       		.byte	26
 2756 0531 C5       		.byte	-59
 2757 0532 B8       		.byte	-72
 2758 0533 E2       		.byte	-30
 2759 0534 F2       		.byte	-14
 2760 0535 0B       		.byte	11
 2761 0536 F8       		.byte	-8
 2762 0537 1E       		.byte	30
 2763 0538 B9       		.byte	-71
 2764 0539 FA       		.byte	-6
 2765 053a 3F       		.byte	63
 2766 053b D1       		.byte	-47
 2767 053c F4       		.byte	-12
 2768 053d CD       		.byte	-51
 2769 053e 24       		.byte	36
 2770 053f DE       		.byte	-34
 2771 0540 03       		.byte	3
 2772 0541 41       		.byte	65
 2773 0542 11       		.byte	17
 2774 0543 08       		.byte	8
 2775 0544 FD       		.byte	-3
 2776 0545 E6       		.byte	-26
 2777 0546 DD       		.byte	-35
 2778 0547 FC       		.byte	-4
 2779 0548 22       		.byte	34
 2780 0549 14       		.byte	20
 2781 054a 0F       		.byte	15
 2782 054b 07       		.byte	7
 2783 054c 0E       		.byte	14
 2784 054d 25       		.byte	37
 2785 054e 01       		.byte	1
 2786 054f D8       		.byte	-40
 2787 0550 02       		.byte	2
 2788 0551 2B       		.byte	43
 2789 0552 F9       		.byte	-7
GAS LISTING C:\Users\Jesper\AppData\Local\Temp\cc9lY2VB.s 			page 56


 2790 0553 94       		.byte	-108
 2791 0554 DC       		.byte	-36
 2792 0555 1F       		.byte	31
 2793 0556 FA       		.byte	-6
 2794 0557 FA       		.byte	-6
 2795 0558 7C       		.byte	124
 2796 0559 71       		.byte	113
 2797 055a EF       		.byte	-17
 2798 055b 09       		.byte	9
 2799 055c 4D       		.byte	77
 2800 055d 9F       		.byte	-97
 2801 055e B9       		.byte	-71
 2802 055f 81       		.byte	-127
 2803 0560 E8       		.byte	-24
 2804 0561 20       		.byte	32
 2805 0562 E6       		.byte	-26
 2806 0563 49       		.byte	73
 2807 0564 43       		.byte	67
 2808 0565 16       		.byte	22
 2809 0566 D0       		.byte	-48
 2810 0567 49       		.byte	73
 2811 0568 37       		.byte	55
 2812 0569 DF       		.byte	-33
 2813 056a 00       		.byte	0
 2814 056b F2       		.byte	-14
 2815 056c 9A       		.byte	-102
 2816 056d 15       		.byte	21
 2817 056e 9A       		.byte	-102
 2818 056f 8F       		.byte	-113
 2819 0570 D8       		.byte	-40
 2820 0571 D3       		.byte	-45
 2821 0572 46       		.byte	70
 2822 0573 D0       		.byte	-48
 2823 0574 DF       		.byte	-33
 2824 0575 C8       		.byte	-56
 2825 0576 D7       		.byte	-41
 2826 0577 F0       		.byte	-16
 2827 0578 24       		.byte	36
 2828 0579 12       		.byte	18
 2829 057a FF       		.byte	-1
 2830 057b 12       		.byte	18
 2831 057c F9       		.byte	-7
 2832 057d 42       		.byte	66
 2833 057e 15       		.byte	21
 2834 057f F0       		.byte	-16
 2835 0580 10       		.byte	16
 2836 0581 13       		.byte	19
 2837 0582 AE       		.byte	-82
 2838 0583 E4       		.byte	-28
 2839 0584 33       		.byte	51
 2840 0585 A6       		.byte	-90
 2841 0586 20       		.byte	32
 2842 0587 1E       		.byte	30
 2843 0588 B2       		.byte	-78
 2844 0589 DF       		.byte	-33
 2845 058a 24       		.byte	36
 2846 058b DA       		.byte	-38
GAS LISTING C:\Users\Jesper\AppData\Local\Temp\cc9lY2VB.s 			page 57


 2847 058c 06       		.byte	6
 2848 058d 71       		.byte	113
 2849 058e 62       		.byte	98
 2850 058f 2A       		.byte	42
 2851 0590 0A       		.byte	10
 2852 0591 2C       		.byte	44
 2853 0592 34       		.byte	52
 2854 0593 CC       		.byte	-52
 2855 0594 27       		.byte	39
 2856 0595 EB       		.byte	-21
 2857 0596 3A       		.byte	58
 2858 0597 62       		.byte	98
 2859 0598 F0       		.byte	-16
 2860 0599 14       		.byte	20
 2861 059a 1F       		.byte	31
 2862 059b 56       		.byte	86
 2863 059c 2C       		.byte	44
 2864 059d CC       		.byte	-52
 2865 059e 4E       		.byte	78
 2866 059f 36       		.byte	54
 2867 05a0 48       		.byte	72
 2868 05a1 FC       		.byte	-4
 2869 05a2 90       		.byte	-112
 2870 05a3 1C       		.byte	28
 2871 05a4 0D       		.byte	13
 2872 05a5 CA       		.byte	-54
 2873 05a6 1D       		.byte	29
 2874 05a7 58       		.byte	88
 2875 05a8 16       		.byte	22
 2876 05a9 44       		.byte	68
 2877 05aa 1A       		.byte	26
 2878 05ab EB       		.byte	-21
 2879 05ac 88       		.byte	-120
 2880 05ad 0F       		.byte	15
 2881 05ae 21       		.byte	33
 2882 05af F9       		.byte	-7
 2883 05b0 FB       		.byte	-5
 2884 05b1 1E       		.byte	30
 2885 05b2 5A       		.byte	90
 2886 05b3 2E       		.byte	46
 2887 05b4 A7       		.byte	-89
 2888 05b5 0D       		.byte	13
 2889 05b6 FB       		.byte	-5
 2890 05b7 10       		.byte	16
 2891 05b8 BF       		.byte	-65
 2892 05b9 D1       		.byte	-47
 2893 05ba 3B       		.byte	59
 2894 05bb E7       		.byte	-25
 2895 05bc 11       		.byte	17
 2896 05bd 2B       		.byte	43
 2897 05be 3C       		.byte	60
 2898 05bf DD       		.byte	-35
 2899 05c0 FB       		.byte	-5
 2900 05c1 08       		.byte	8
 2901 05c2 E2       		.byte	-30
 2902 05c3 A2       		.byte	-94
 2903 05c4 81       		.byte	-127
GAS LISTING C:\Users\Jesper\AppData\Local\Temp\cc9lY2VB.s 			page 58


 2904 05c5 D2       		.byte	-46
 2905 05c6 01       		.byte	1
 2906 05c7 C3       		.byte	-61
 2907 05c8 E6       		.byte	-26
 2908 05c9 29       		.byte	41
 2909 05ca AE       		.byte	-82
 2910 05cb DE       		.byte	-34
 2911 05cc 33       		.byte	51
 2912 05cd F1       		.byte	-15
 2913 05ce 05       		.byte	5
 2914 05cf 72       		.byte	114
 2915 05d0 29       		.byte	41
 2916 05d1 E0       		.byte	-32
 2917 05d2 07       		.byte	7
 2918 05d3 05       		.byte	5
 2919 05d4 C1       		.byte	-63
 2920 05d5 CF       		.byte	-49
 2921 05d6 B7       		.byte	-73
 2922 05d7 F2       		.byte	-14
 2923 05d8 EC       		.byte	-20
 2924 05d9 18       		.byte	24
 2925 05da 51       		.byte	81
 2926 05db FF       		.byte	-1
 2927 05dc E2       		.byte	-30
 2928 05dd 3D       		.byte	61
 2929 05de 35       		.byte	53
 2930 05df 0C       		.byte	12
 2931 05e0 B3       		.byte	-77
 2932 05e1 06       		.byte	6
 2933 05e2 32       		.byte	50
 2934 05e3 A5       		.byte	-91
 2935 05e4 AD       		.byte	-83
 2936 05e5 22       		.byte	34
 2937 05e6 3D       		.byte	61
 2938 05e7 EB       		.byte	-21
 2939 05e8 7F       		.byte	127
 2940 05e9 45       		.byte	69
 2941 05ea 92       		.byte	-110
 2942 05eb 89       		.byte	-119
 2943 05ec 0C       		.byte	12
 2944 05ed C7       		.byte	-57
 2945 05ee 20       		.byte	32
 2946 05ef 12       		.byte	18
 2947 05f0 3B       		.byte	59
 2948 05f1 00       		.byte	0
 2949 05f2 52       		.byte	82
 2950 05f3 1D       		.byte	29
 2951 05f4 08       		.byte	8
 2952 05f5 B0       		.byte	-80
 2953 05f6 A3       		.byte	-93
 2954 05f7 EE       		.byte	-18
 2955 05f8 DC       		.byte	-36
 2956 05f9 0F       		.byte	15
 2957 05fa 1C       		.byte	28
 2958 05fb FA       		.byte	-6
 2959 05fc 2B       		.byte	43
 2960 05fd 06       		.byte	6
GAS LISTING C:\Users\Jesper\AppData\Local\Temp\cc9lY2VB.s 			page 59


 2961 05fe FA       		.byte	-6
 2962 05ff 03       		.byte	3
 2963 0600 04       		.byte	4
 2964 0601 E1       		.byte	-31
 2965 0602 D2       		.byte	-46
 2966 0603 16       		.byte	22
 2967 0604 F8       		.byte	-8
 2968 0605 DE       		.byte	-34
 2969 0606 E9       		.byte	-23
 2970 0607 39       		.byte	57
 2971 0608 22       		.byte	34
 2972 0609 30       		.byte	48
 2973 060a 3F       		.byte	63
 2974 060b 36       		.byte	54
 2975 060c 14       		.byte	20
 2976 060d 1F       		.byte	31
 2977 060e 1E       		.byte	30
 2978 060f CB       		.byte	-53
 2979 0610 3E       		.byte	62
 2980 0611 2B       		.byte	43
 2981 0612 D4       		.byte	-44
 2982 0613 A7       		.byte	-89
 2983 0614 8C       		.byte	-116
 2984 0615 F1       		.byte	-15
 2985 0616 BD       		.byte	-67
 2986 0617 D0       		.byte	-48
 2987 0618 E0       		.byte	-32
 2988 0619 32       		.byte	50
 2989 061a 21       		.byte	33
 2990 061b FF       		.byte	-1
 2991 061c 46       		.byte	70
 2992 061d 6B       		.byte	107
 2993 061e F5       		.byte	-11
 2994 061f FD       		.byte	-3
 2995 0620 51       		.byte	81
 2996 0621 35       		.byte	53
 2997 0622 C8       		.byte	-56
 2998 0623 CE       		.byte	-50
 2999 0624 A7       		.byte	-89
 3000 0625 06       		.byte	6
 3001 0626 EF       		.byte	-17
 3002 0627 BA       		.byte	-70
 3003 0628 F8       		.byte	-8
 3004 0629 54       		.byte	84
 3005 062a 1E       		.byte	30
 3006 062b 1D       		.byte	29
 3007 062c 37       		.byte	55
 3008 062d 27       		.byte	39
 3009 062e D6       		.byte	-42
 3010 062f D2       		.byte	-46
 3011 0630 81       		.byte	-127
 3012 0631 F6       		.byte	-10
 3013 0632 F9       		.byte	-7
 3014 0633 E0       		.byte	-32
 3015 0634 EA       		.byte	-22
 3016 0635 C4       		.byte	-60
 3017 0636 FD       		.byte	-3
GAS LISTING C:\Users\Jesper\AppData\Local\Temp\cc9lY2VB.s 			page 60


 3018 0637 FA       		.byte	-6
 3019 0638 E4       		.byte	-28
 3020 0639 4C       		.byte	76
 3021 063a 29       		.byte	41
 3022 063b FB       		.byte	-5
 3023 063c 2A       		.byte	42
 3024 063d D6       		.byte	-42
 3025 063e C5       		.byte	-59
 3026 063f C6       		.byte	-58
 3027 0640 0C       		.byte	12
 3028 0641 31       		.byte	49
 3029 0642 24       		.byte	36
 3030 0643 3C       		.byte	60
 3031 0644 FC       		.byte	-4
 3032 0645 0E       		.byte	14
 3033 0646 02       		.byte	2
 3034 0647 94       		.byte	-108
 3035 0648 F0       		.byte	-16
 3036 0649 EA       		.byte	-22
 3037 064a 40       		.byte	64
 3038 064b 37       		.byte	55
 3039 064c 22       		.byte	34
 3040 064d 1F       		.byte	31
 3041 064e CE       		.byte	-50
 3042 064f C3       		.byte	-61
 3043 0650 E2       		.byte	-30
 3044 0651 F0       		.byte	-16
 3045 0652 2A       		.byte	42
 3046 0653 24       		.byte	36
 3047 0654 F6       		.byte	-10
 3048 0655 ED       		.byte	-19
 3049 0656 DD       		.byte	-35
 3050 0657 D5       		.byte	-43
 3051 0658 E8       		.byte	-24
 3052 0659 2A       		.byte	42
 3053 065a 4D       		.byte	77
 3054 065b 59       		.byte	89
 3055 065c 2E       		.byte	46
 3056 065d 16       		.byte	22
 3057 065e 11       		.byte	17
 3058 065f 1C       		.byte	28
 3059 0660 15       		.byte	21
 3060 0661 2D       		.byte	45
 3061 0662 18       		.byte	24
 3062 0663 C5       		.byte	-59
 3063 0664 FA       		.byte	-6
 3064 0665 FD       		.byte	-3
 3065 0666 1F       		.byte	31
 3066 0667 F8       		.byte	-8
 3067 0668 D3       		.byte	-45
 3068 0669 2B       		.byte	43
 3069 066a EB       		.byte	-21
 3070 066b E7       		.byte	-25
 3071 066c F6       		.byte	-10
 3072 066d C9       		.byte	-55
 3073 066e DC       		.byte	-36
 3074 066f 34       		.byte	52
GAS LISTING C:\Users\Jesper\AppData\Local\Temp\cc9lY2VB.s 			page 61


 3075 0670 F8       		.byte	-8
 3076 0671 D7       		.byte	-41
 3077 0672 EE       		.byte	-18
 3078 0673 D7       		.byte	-41
 3079 0674 1C       		.byte	28
 3080 0675 0F       		.byte	15
 3081 0676 1D       		.byte	29
 3082 0677 1F       		.byte	31
 3083 0678 9B       		.byte	-101
 3084 0679 9F       		.byte	-97
 3085 067a D8       		.byte	-40
 3086 067b 03       		.byte	3
 3087 067c 30       		.byte	48
 3088 067d 3A       		.byte	58
 3089 067e B4       		.byte	-76
 3090 067f 02       		.byte	2
 3091 0680 CE       		.byte	-50
 3092 0681 1A       		.byte	26
 3093 0682 08       		.byte	8
 3094 0683 43       		.byte	67
 3095 0684 E5       		.byte	-27
 3096 0685 F8       		.byte	-8
 3097 0686 DF       		.byte	-33
 3098 0687 28       		.byte	40
 3099 0688 BF       		.byte	-65
 3100 0689 D8       		.byte	-40
 3101 068a A9       		.byte	-87
 3102 068b 92       		.byte	-110
 3103 068c E7       		.byte	-25
 3104 068d BE       		.byte	-66
 3105 068e 18       		.byte	24
 3106 068f E9       		.byte	-23
 3107 0690 6E       		.byte	110
 3108 0691 60       		.byte	96
 3109 0692 97       		.byte	-105
 3110 0693 02       		.byte	2
 3111 0694 2A       		.byte	42
 3112 0695 FB       		.byte	-5
 3113 0696 CF       		.byte	-49
 3114 0697 07       		.byte	7
 3115 0698 0B       		.byte	11
 3116 0699 E8       		.byte	-24
 3117 069a DC       		.byte	-36
 3118 069b 05       		.byte	5
 3119 069c 2D       		.byte	45
 3120 069d 43       		.byte	67
 3121 069e 3C       		.byte	60
 3122 069f 34       		.byte	52
 3123 06a0 47       		.byte	71
 3124 06a1 26       		.byte	38
 3125 06a2 09       		.byte	9
 3126 06a3 97       		.byte	-105
 3127 06a4 99       		.byte	-103
 3128 06a5 F2       		.byte	-14
 3129 06a6 B7       		.byte	-73
 3130 06a7 15       		.byte	21
 3131 06a8 9E       		.byte	-98
GAS LISTING C:\Users\Jesper\AppData\Local\Temp\cc9lY2VB.s 			page 62


 3132 06a9 B4       		.byte	-76
 3133 06aa D6       		.byte	-42
 3134 06ab 8B       		.byte	-117
 3135 06ac 0B       		.byte	11
 3136 06ad BA       		.byte	-70
 3137 06ae BA       		.byte	-70
 3138 06af EA       		.byte	-22
 3139 06b0 D1       		.byte	-47
 3140 06b1 02       		.byte	2
 3141 06b2 7F       		.byte	127
 3142 06b3 38       		.byte	56
 3143 06b4 F1       		.byte	-15
 3144 06b5 30       		.byte	48
 3145 06b6 29       		.byte	41
 3146 06b7 33       		.byte	51
 3147 06b8 4C       		.byte	76
 3148 06b9 30       		.byte	48
 3149 06ba 52       		.byte	82
 3150 06bb 1D       		.byte	29
 3151 06bc 01       		.byte	1
 3152 06bd 53       		.byte	83
 3153 06be 32       		.byte	50
 3154 06bf BF       		.byte	-65
 3155 06c0 C9       		.byte	-55
 3156 06c1 E8       		.byte	-24
 3157 06c2 08       		.byte	8
 3158 06c3 D7       		.byte	-41
 3159 06c4 C9       		.byte	-55
 3160 06c5 E0       		.byte	-32
 3161 06c6 F9       		.byte	-7
 3162 06c7 C8       		.byte	-56
 3163 06c8 2A       		.byte	42
 3164 06c9 CF       		.byte	-49
 3165 06ca E2       		.byte	-30
 3166 06cb 3E       		.byte	62
 3167 06cc 08       		.byte	8
 3168 06cd 17       		.byte	23
 3169 06ce FD       		.byte	-3
 3170 06cf 05       		.byte	5
 3171 06d0 C9       		.byte	-55
 3172 06d1 EE       		.byte	-18
 3173 06d2 F3       		.byte	-13
 3174 06d3 D3       		.byte	-45
 3175 06d4 05       		.byte	5
 3176 06d5 1A       		.byte	26
 3177 06d6 FF       		.byte	-1
 3178 06d7 16       		.byte	22
 3179 06d8 03       		.byte	3
 3180 06d9 10       		.byte	16
 3181 06da E2       		.byte	-30
 3182 06db 3D       		.byte	61
 3183 06dc 20       		.byte	32
 3184 06dd EE       		.byte	-18
 3185 06de FF       		.byte	-1
 3186 06df F9       		.byte	-7
 3187 06e0 0A       		.byte	10
 3188 06e1 EF       		.byte	-17
GAS LISTING C:\Users\Jesper\AppData\Local\Temp\cc9lY2VB.s 			page 63


 3189 06e2 09       		.byte	9
 3190 06e3 0A       		.byte	10
 3191 06e4 02       		.byte	2
 3192 06e5 F9       		.byte	-7
 3193 06e6 FD       		.byte	-3
 3194 06e7 DA       		.byte	-38
 3195 06e8 DE       		.byte	-34
 3196 06e9 2A       		.byte	42
 3197 06ea 09       		.byte	9
 3198 06eb 08       		.byte	8
 3199 06ec 07       		.byte	7
 3200 06ed D0       		.byte	-48
 3201 06ee 02       		.byte	2
 3202 06ef D3       		.byte	-45
 3203 06f0 7F       		.byte	127
 3204 06f1 DF       		.byte	-33
 3205 06f2 EE       		.byte	-18
 3206 06f3 2C       		.byte	44
 3207 06f4 27       		.byte	39
 3208 06f5 FF       		.byte	-1
 3209 06f6 E0       		.byte	-32
 3210 06f7 F6       		.byte	-10
 3211 06f8 F7       		.byte	-9
 3212 06f9 0F       		.byte	15
 3213 06fa E9       		.byte	-23
 3214 06fb F2       		.byte	-14
 3215 06fc 22       		.byte	34
 3216 06fd FB       		.byte	-5
 3217 06fe F5       		.byte	-11
 3218 06ff FF       		.byte	-1
 3219 0700 3D       		.byte	61
 3220 0701 53       		.byte	83
 3221 0702 14       		.byte	20
 3222 0703 EB       		.byte	-21
 3223 0704 15       		.byte	21
 3224 0705 FE       		.byte	-2
 3225 0706 E4       		.byte	-28
 3226 0707 06       		.byte	6
 3227 0708 DC       		.byte	-36
 3228 0709 27       		.byte	39
 3229 070a 11       		.byte	17
 3230 070b E3       		.byte	-29
 3231 070c 1B       		.byte	27
 3232 070d 9D       		.byte	-99
 3233 070e D8       		.byte	-40
 3234 070f 07       		.byte	7
 3235 0710 EC       		.byte	-20
 3236 0711 CD       		.byte	-51
 3237 0712 B0       		.byte	-80
 3238 0713 EE       		.byte	-18
 3239 0714 F8       		.byte	-8
 3240 0715 05       		.byte	5
 3241 0716 0D       		.byte	13
 3242 0717 2C       		.byte	44
 3243 0718 24       		.byte	36
 3244 0719 F8       		.byte	-8
 3245 071a DF       		.byte	-33
GAS LISTING C:\Users\Jesper\AppData\Local\Temp\cc9lY2VB.s 			page 64


 3246 071b FE       		.byte	-2
 3247 071c EC       		.byte	-20
 3248 071d 1B       		.byte	27
 3249 071e 69       		.byte	105
 3250 071f E6       		.byte	-26
 3251 0720 04       		.byte	4
 3252 0721 DB       		.byte	-37
 3253 0722 04       		.byte	4
 3254 0723 3B       		.byte	59
 3255 0724 53       		.byte	83
 3256 0725 1B       		.byte	27
 3257 0726 3D       		.byte	61
 3258 0727 20       		.byte	32
 3259 0728 07       		.byte	7
 3260 0729 00       		.byte	0
 3261 072a C8       		.byte	-56
 3262 072b DB       		.byte	-37
 3263 072c 47       		.byte	71
 3264 072d D7       		.byte	-41
 3265 072e E0       		.byte	-32
 3266 072f D8       		.byte	-40
 3267 0730 C7       		.byte	-57
 3268 0731 DE       		.byte	-34
 3269 0732 DC       		.byte	-36
 3270 0733 E6       		.byte	-26
 3271 0734 19       		.byte	25
 3272 0735 DC       		.byte	-36
 3273 0736 F7       		.byte	-9
 3274 0737 EF       		.byte	-17
 3275 0738 14       		.byte	20
 3276 0739 33       		.byte	51
 3277 073a F3       		.byte	-13
 3278 073b 2D       		.byte	45
 3279 073c EE       		.byte	-18
 3280 073d AC       		.byte	-84
 3281 073e E1       		.byte	-31
 3282 073f 9C       		.byte	-100
 3283 0740 FB       		.byte	-5
 3284 0741 D5       		.byte	-43
 3285 0742 FE       		.byte	-2
 3286 0743 FF       		.byte	-1
 3287 0744 14       		.byte	20
 3288 0745 2D       		.byte	45
 3289 0746 81       		.byte	-127
 3290 0747 FC       		.byte	-4
 3291 0748 F0       		.byte	-16
 3292 0749 03       		.byte	3
 3293 074a 06       		.byte	6
 3294 074b CC       		.byte	-52
 3295 074c E3       		.byte	-29
 3296 074d 1E       		.byte	30
 3297 074e DF       		.byte	-33
 3298 074f A2       		.byte	-94
 3299 0750 EF       		.byte	-17
 3300 0751 ED       		.byte	-19
 3301 0752 EB       		.byte	-21
 3302 0753 21       		.byte	33
GAS LISTING C:\Users\Jesper\AppData\Local\Temp\cc9lY2VB.s 			page 65


 3303 0754 06       		.byte	6
 3304 0755 3C       		.byte	60
 3305 0756 3C       		.byte	60
 3306 0757 7F       		.byte	127
 3307 0758 43       		.byte	67
 3308 0759 F7       		.byte	-9
 3309 075a 16       		.byte	22
 3310 075b 01       		.byte	1
 3311 075c 37       		.byte	55
 3312 075d 2C       		.byte	44
 3313 075e 4D       		.byte	77
 3314 075f C4       		.byte	-60
 3315 0760 F9       		.byte	-7
 3316 0761 F5       		.byte	-11
 3317 0762 10       		.byte	16
 3318 0763 2B       		.byte	43
 3319 0764 FB       		.byte	-5
 3320 0765 02       		.byte	2
 3321 0766 D1       		.byte	-47
 3322 0767 0C       		.byte	12
 3323 0768 08       		.byte	8
 3324 0769 99       		.byte	-103
 3325 076a 2B       		.byte	43
 3326 076b FB       		.byte	-5
 3327 076c B4       		.byte	-76
 3328 076d FC       		.byte	-4
 3329 076e E3       		.byte	-29
 3330 076f D5       		.byte	-43
 3331 0770 D4       		.byte	-44
 3332 0771 37       		.byte	55
 3333 0772 CC       		.byte	-52
 3334 0773 04       		.byte	4
 3335 0774 29       		.byte	41
 3336 0775 FA       		.byte	-6
 3337 0776 51       		.byte	81
 3338 0777 16       		.byte	22
 3339 0778 18       		.byte	24
 3340 0779 19       		.byte	25
 3341 077a 03       		.byte	3
 3342 077b 01       		.byte	1
 3343 077c 0A       		.byte	10
 3344 077d E7       		.byte	-25
 3345 077e 44       		.byte	68
 3346 077f BF       		.byte	-65
 3347 0780 01       		.byte	1
 3348 0781 F4       		.byte	-12
 3349 0782 F7       		.byte	-9
 3350 0783 F7       		.byte	-9
 3351 0784 E5       		.byte	-27
 3352 0785 2A       		.byte	42
 3353 0786 6F       		.byte	111
 3354 0787 36       		.byte	54
 3355 0788 1F       		.byte	31
 3356 0789 4C       		.byte	76
 3357 078a 03       		.byte	3
 3358 078b 93       		.byte	-109
 3359 078c DB       		.byte	-37
GAS LISTING C:\Users\Jesper\AppData\Local\Temp\cc9lY2VB.s 			page 66


 3360 078d D8       		.byte	-40
 3361 078e E0       		.byte	-32
 3362 078f 3A       		.byte	58
 3363 0790 18       		.byte	24
 3364 0791 F8       		.byte	-8
 3365 0792 08       		.byte	8
 3366 0793 0E       		.byte	14
 3367 0794 46       		.byte	70
 3368 0795 07       		.byte	7
 3369 0796 E3       		.byte	-29
 3370 0797 CE       		.byte	-50
 3371 0798 E8       		.byte	-24
 3372 0799 58       		.byte	88
 3373 079a 00       		.byte	0
 3374 079b 00       		.byte	0
 3375 079c 38       		.byte	56
 3376 079d 27       		.byte	39
 3377 079e 00       		.byte	0
 3378 079f 00       		.byte	0
 3379 07a0 0C       		.byte	12
 3380 07a1 E2       		.byte	-30
 3381 07a2 FF       		.byte	-1
 3382 07a3 FF       		.byte	-1
 3383 07a4 DC       		.byte	-36
 3384 07a5 6A       		.byte	106
 3385 07a6 FF       		.byte	-1
 3386 07a7 FF       		.byte	-1
 3387 07a8 7E       		.byte	126
 3388 07a9 85       		.byte	-123
 3389 07aa FE       		.byte	-2
 3390 07ab FF       		.byte	-1
 3391 07ac 76       		.byte	118
 3392 07ad 17       		.byte	23
 3393 07ae 00       		.byte	0
 3394 07af 00       		.byte	0
 3395 07b0 EB       		.byte	-21
 3396 07b1 5A       		.byte	90
 3397 07b2 FF       		.byte	-1
 3398 07b3 FF       		.byte	-1
 3399 07b4 46       		.byte	70
 3400 07b5 CB       		.byte	-53
 3401 07b6 FF       		.byte	-1
 3402 07b7 FF       		.byte	-1
 3403 07b8 B6       		.byte	-74
 3404 07b9 80       		.byte	-128
 3405 07ba 00       		.byte	0
 3406 07bb 00       		.byte	0
 3407 07bc 31       		.byte	49
 3408 07bd AF       		.byte	-81
 3409 07be FF       		.byte	-1
 3410 07bf FF       		.byte	-1
 3411 07c0 DB       		.byte	-37
 3412 07c1 36       		.byte	54
 3413 07c2 00       		.byte	0
 3414 07c3 00       		.byte	0
 3415 07c4 F6       		.byte	-10
 3416 07c5 EF       		.byte	-17
GAS LISTING C:\Users\Jesper\AppData\Local\Temp\cc9lY2VB.s 			page 67


 3417 07c6 FF       		.byte	-1
 3418 07c7 FF       		.byte	-1
 3419 07c8 0C       		.byte	12
 3420 07c9 82       		.byte	-126
 3421 07ca FF       		.byte	-1
 3422 07cb FF       		.byte	-1
 3423 07cc 82       		.byte	-126
 3424 07cd E2       		.byte	-30
 3425 07ce FF       		.byte	-1
 3426 07cf FF       		.byte	-1
 3427 07d0 55       		.byte	85
 3428 07d1 12       		.byte	18
 3429 07d2 FF       		.byte	-1
 3430 07d3 FF       		.byte	-1
 3431 07d4 F1       		.byte	-15
 3432 07d5 BF       		.byte	-65
 3433 07d6 00       		.byte	0
 3434 07d7 00       		.byte	0
 3435 07d8 01       		.byte	1
 3436 07d9 00       		.byte	0
 3437 07da 00       		.byte	0
 3438 07db 00       		.byte	0
 3439 07dc 30       		.byte	48
 3440 07dd 00       		.byte	0
 3441 07de 00       		.byte	0
 3442 07df 00       		.byte	0
 3443 07e0 78       		.byte	120
 3444 07e1 05       		.byte	5
 3445 07e2 00       		.byte	0
 3446 07e3 00       		.byte	0
 3447 07e4 00       		.byte	0
 3448 07e5 00       		.byte	0
 3449 07e6 00       		.byte	0
 3450 07e7 00       		.byte	0
 3451 07e8 03       		.byte	3
 3452 07e9 00       		.byte	0
 3453 07ea 02       		.byte	2
 3454 07eb 00       		.byte	0
 3455 07ec 02       		.byte	2
 3456 07ed 00       		.byte	0
 3457 07ee 10       		.byte	16
 3458 07ef 00       		.byte	0
 3459 07f0 01       		.byte	1
 3460 07f1 00       		.byte	0
 3461 07f2 01       		.byte	1
 3462 07f3 00       		.byte	0
 3463 07f4 01       		.byte	1
 3464 07f5 00       		.byte	0
 3465 07f6 10       		.byte	16
 3466 07f7 00       		.byte	0
 3467 07f8 05       		.byte	5
 3468 07f9 09       		.byte	9
 3469 07fa 68       		.byte	104
 3470 07fb 3D       		.byte	61
 3471 07fc 80       		.byte	-128
 3472 07fd FF       		.byte	-1
 3473 07fe FF       		.byte	-1
GAS LISTING C:\Users\Jesper\AppData\Local\Temp\cc9lY2VB.s 			page 68


 3474 07ff FF       		.byte	-1
 3475 0800 21       		.byte	33
 3476 0801 1A       		.byte	26
 3477 0802 B7       		.byte	-73
 3478 0803 3C       		.byte	60
 3479 0804 80       		.byte	-128
 3480 0805 FF       		.byte	-1
 3481 0806 FF       		.byte	-1
 3482 0807 FF       		.byte	-1
 3483 0808 02       		.byte	2
 3484 0809 00       		.byte	0
 3485 080a 00       		.byte	0
 3486 080b 00       		.byte	0
 3487 080c 30       		.byte	48
 3488 080d 01       		.byte	1
 3489 080e 00       		.byte	0
 3490 080f 00       		.byte	0
 3491 0810 00       		.byte	0
 3492 0811 00       		.byte	0
 3493 0812 00       		.byte	0
 3494 0813 00       		.byte	0
 3495 0814 A8       		.byte	-88
 3496 0815 05       		.byte	5
 3497 0816 00       		.byte	0
 3498 0817 00       		.byte	0
 3499 0818 01       		.byte	1
 3500 0819 00       		.byte	0
 3501 081a 01       		.byte	1
 3502 081b 00       		.byte	0
 3503 081c 01       		.byte	1
 3504 081d 00       		.byte	0
 3505 081e 10       		.byte	16
 3506 081f 00       		.byte	0
 3507 0820 01       		.byte	1
 3508 0821 00       		.byte	0
 3509 0822 01       		.byte	1
 3510 0823 00       		.byte	0
 3511 0824 01       		.byte	1
 3512 0825 00       		.byte	0
 3513 0826 0A       		.byte	10
 3514 0827 00       		.byte	0
 3515 0828 21       		.byte	33
 3516 0829 1A       		.byte	26
 3517 082a B7       		.byte	-73
 3518 082b 3C       		.byte	60
 3519 082c 80       		.byte	-128
 3520 082d FF       		.byte	-1
 3521 082e FF       		.byte	-1
 3522 082f FF       		.byte	-1
 3523 0830 FD       		.byte	-3
 3524 0831 06       		.byte	6
 3525 0832 1B       		.byte	27
 3526 0833 3E       		.byte	62
 3527 0834 2A       		.byte	42
 3528 0835 00       		.byte	0
 3529 0836 00       		.byte	0
 3530 0837 00       		.byte	0
GAS LISTING C:\Users\Jesper\AppData\Local\Temp\cc9lY2VB.s 			page 69


 3531 0838 40       		.byte	64
 3532 0839 00       		.byte	0
 3533 083a 00       		.byte	0
 3534 083b 00       		.byte	0
 3535 083c 68       		.byte	104
 3536 083d 00       		.byte	0
 3537 083e 00       		.byte	0
 3538 083f 00       		.byte	0
 3539 0840 08       		.byte	8
 3540 0841 01       		.byte	1
 3541 0842 00       		.byte	0
 3542 0843 00       		.byte	0
 3543 0844 00       		.byte	0
 3544 0845 00       		.byte	0
 3545 0846 00       		.byte	0
 3546 0847 00       		.byte	0
 3547 0848 E9       		.byte	-23
 3548 0849 E2       		.byte	-30
 3549 084a AF       		.byte	-81
 3550 084b 3C       		.byte	60
 3551 084c 00       		.byte	0
 3552 084d 00       		.byte	0
 3553 084e 00       		.byte	0
 3554 084f 00       		.byte	0
 3555 0850 00       		.byte	0
 3556 0851 00       		.byte	0
 3557 0852 00       		.byte	0
 3558 0853 00       		.byte	0
 3559 0854 00       		.byte	0
 3560 0855 00       		.byte	0
 3561 0856 00       		.byte	0
 3562 0857 00       		.byte	0
 3563 0858 00       		.byte	0
 3564 0859 00       		.byte	0
 3565 085a 00       		.byte	0
 3566 085b 00       		.byte	0
 3567 085c 00       		.byte	0
 3568 085d 00       		.byte	0
 3569 085e 00       		.byte	0
 3570 085f 00       		.byte	0
 3571 0860 00       		.byte	0
 3572 0861 00       		.byte	0
 3573 0862 00       		.byte	0
 3574 0863 00       		.byte	0
 3575 0864 00       		.byte	0
 3576 0865 00       		.byte	0
 3577 0866 00       		.byte	0
 3578 0867 00       		.byte	0
 3579 0868 00       		.byte	0
 3580 0869 00       		.byte	0
 3581 086a 00       		.byte	0
 3582 086b 00       		.byte	0
 3583 086c 00       		.byte	0
 3584 086d 00       		.byte	0
 3585 086e 00       		.byte	0
 3586 086f 00       		.byte	0
 3587 0870 2A       		.byte	42
GAS LISTING C:\Users\Jesper\AppData\Local\Temp\cc9lY2VB.s 			page 70


 3588 0871 E2       		.byte	-30
 3589 0872 29       		.byte	41
 3590 0873 BF       		.byte	-65
 3591 0874 0B       		.byte	11
 3592 0875 DD       		.byte	-35
 3593 0876 09       		.byte	9
 3594 0877 FA       		.byte	-6
 3595 0878 42       		.byte	66
 3596 0879 B1       		.byte	-79
 3597 087a F9       		.byte	-7
 3598 087b C2       		.byte	-62
 3599 087c 46       		.byte	70
 3600 087d D2       		.byte	-46
 3601 087e 0F       		.byte	15
 3602 087f B5       		.byte	-75
 3603 0880 34       		.byte	52
 3604 0881 EA       		.byte	-22
 3605 0882 B3       		.byte	-77
 3606 0883 17       		.byte	23
 3607 0884 DB       		.byte	-37
 3608 0885 FB       		.byte	-5
 3609 0886 BC       		.byte	-68
 3610 0887 0F       		.byte	15
 3611 0888 24       		.byte	36
 3612 0889 DF       		.byte	-33
 3613 088a CE       		.byte	-50
 3614 088b F9       		.byte	-7
 3615 088c 1C       		.byte	28
 3616 088d E0       		.byte	-32
 3617 088e BB       		.byte	-69
 3618 088f 38       		.byte	56
 3619 0890 B7       		.byte	-73
 3620 0891 E2       		.byte	-30
 3621 0892 28       		.byte	40
 3622 0893 0C       		.byte	12
 3623 0894 04       		.byte	4
 3624 0895 93       		.byte	-109
 3625 0896 39       		.byte	57
 3626 0897 E3       		.byte	-29
 3627 0898 F5       		.byte	-11
 3628 0899 EE       		.byte	-18
 3629 089a 3C       		.byte	60
 3630 089b C6       		.byte	-58
 3631 089c 37       		.byte	55
 3632 089d F6       		.byte	-10
 3633 089e B6       		.byte	-74
 3634 089f 41       		.byte	65
 3635 08a0 CA       		.byte	-54
 3636 08a1 BA       		.byte	-70
 3637 08a2 D7       		.byte	-41
 3638 08a3 ED       		.byte	-19
 3639 08a4 C3       		.byte	-61
 3640 08a5 FD       		.byte	-3
 3641 08a6 3A       		.byte	58
 3642 08a7 0D       		.byte	13
 3643 08a8 D2       		.byte	-46
 3644 08a9 1D       		.byte	29
GAS LISTING C:\Users\Jesper\AppData\Local\Temp\cc9lY2VB.s 			page 71


 3645 08aa 07       		.byte	7
 3646 08ab A9       		.byte	-87
 3647 08ac E9       		.byte	-23
 3648 08ad 06       		.byte	6
 3649 08ae 53       		.byte	83
 3650 08af 25       		.byte	37
 3651 08b0 25       		.byte	37
 3652 08b1 D7       		.byte	-41
 3653 08b2 1A       		.byte	26
 3654 08b3 31       		.byte	49
 3655 08b4 F0       		.byte	-16
 3656 08b5 0E       		.byte	14
 3657 08b6 81       		.byte	-127
 3658 08b7 19       		.byte	25
 3659 08b8 EF       		.byte	-17
 3660 08b9 C0       		.byte	-64
 3661 08ba 0A       		.byte	10
 3662 08bb 2D       		.byte	45
 3663 08bc B5       		.byte	-75
 3664 08bd 33       		.byte	51
 3665 08be FB       		.byte	-5
 3666 08bf E6       		.byte	-26
 3667 08c0 DC       		.byte	-36
 3668 08c1 1D       		.byte	29
 3669 08c2 03       		.byte	3
 3670 08c3 83       		.byte	-125
 3671 08c4 E2       		.byte	-30
 3672 08c5 48       		.byte	72
 3673 08c6 D9       		.byte	-39
 3674 08c7 28       		.byte	40
 3675 08c8 23       		.byte	35
 3676 08c9 31       		.byte	49
 3677 08ca 34       		.byte	52
 3678 08cb E6       		.byte	-26
 3679 08cc EB       		.byte	-21
 3680 08cd DB       		.byte	-37
 3681 08ce DD       		.byte	-35
 3682 08cf DC       		.byte	-36
 3683 08d0 E7       		.byte	-25
 3684 08d1 4E       		.byte	78
 3685 08d2 C0       		.byte	-64
 3686 08d3 CF       		.byte	-49
 3687 08d4 25       		.byte	37
 3688 08d5 3C       		.byte	60
 3689 08d6 98       		.byte	-104
 3690 08d7 B5       		.byte	-75
 3691 08d8 EC       		.byte	-20
 3692 08d9 CC       		.byte	-52
 3693 08da 36       		.byte	54
 3694 08db C3       		.byte	-61
 3695 08dc 3C       		.byte	60
 3696 08dd 08       		.byte	8
 3697 08de F2       		.byte	-14
 3698 08df E3       		.byte	-29
 3699 08e0 0D       		.byte	13
 3700 08e1 F7       		.byte	-9
 3701 08e2 41       		.byte	65
GAS LISTING C:\Users\Jesper\AppData\Local\Temp\cc9lY2VB.s 			page 72


 3702 08e3 44       		.byte	68
 3703 08e4 90       		.byte	-112
 3704 08e5 1F       		.byte	31
 3705 08e6 22       		.byte	34
 3706 08e7 07       		.byte	7
 3707 08e8 CB       		.byte	-53
 3708 08e9 0B       		.byte	11
 3709 08ea B8       		.byte	-72
 3710 08eb 09       		.byte	9
 3711 08ec FE       		.byte	-2
 3712 08ed C8       		.byte	-56
 3713 08ee BF       		.byte	-65
 3714 08ef 0B       		.byte	11
 3715 08f0 BD       		.byte	-67
 3716 08f1 F5       		.byte	-11
 3717 08f2 06       		.byte	6
 3718 08f3 D2       		.byte	-46
 3719 08f4 4D       		.byte	77
 3720 08f5 CC       		.byte	-52
 3721 08f6 07       		.byte	7
 3722 08f7 DF       		.byte	-33
 3723 08f8 1F       		.byte	31
 3724 08f9 FB       		.byte	-5
 3725 08fa F9       		.byte	-7
 3726 08fb 2F       		.byte	47
 3727 08fc E6       		.byte	-26
 3728 08fd A2       		.byte	-94
 3729 08fe 26       		.byte	38
 3730 08ff 00       		.byte	0
 3731 0900 F0       		.byte	-16
 3732 0901 36       		.byte	54
 3733 0902 FC       		.byte	-4
 3734 0903 E9       		.byte	-23
 3735 0904 F3       		.byte	-13
 3736 0905 EB       		.byte	-21
 3737 0906 0E       		.byte	14
 3738 0907 B0       		.byte	-80
 3739 0908 BD       		.byte	-67
 3740 0909 3F       		.byte	63
 3741 090a C6       		.byte	-58
 3742 090b 1C       		.byte	28
 3743 090c CA       		.byte	-54
 3744 090d 4D       		.byte	77
 3745 090e 02       		.byte	2
 3746 090f F4       		.byte	-12
 3747 0910 BC       		.byte	-68
 3748 0911 B2       		.byte	-78
 3749 0912 FF       		.byte	-1
 3750 0913 FF       		.byte	-1
 3751 0914 1A       		.byte	26
 3752 0915 A5       		.byte	-91
 3753 0916 FF       		.byte	-1
 3754 0917 FF       		.byte	-1
 3755 0918 C5       		.byte	-59
 3756 0919 C3       		.byte	-61
 3757 091a FF       		.byte	-1
 3758 091b FF       		.byte	-1
GAS LISTING C:\Users\Jesper\AppData\Local\Temp\cc9lY2VB.s 			page 73


 3759 091c 1C       		.byte	28
 3760 091d AA       		.byte	-86
 3761 091e FF       		.byte	-1
 3762 091f FF       		.byte	-1
 3763 0920 44       		.byte	68
 3764 0921 C4       		.byte	-60
 3765 0922 FF       		.byte	-1
 3766 0923 FF       		.byte	-1
 3767 0924 64       		.byte	100
 3768 0925 CC       		.byte	-52
 3769 0926 FF       		.byte	-1
 3770 0927 FF       		.byte	-1
 3771 0928 FB       		.byte	-5
 3772 0929 9C       		.byte	-100
 3773 092a FF       		.byte	-1
 3774 092b FF       		.byte	-1
 3775 092c 62       		.byte	98
 3776 092d C3       		.byte	-61
 3777 092e FF       		.byte	-1
 3778 092f FF       		.byte	-1
 3779 0930 97       		.byte	-105
 3780 0931 BD       		.byte	-67
 3781 0932 FF       		.byte	-1
 3782 0933 FF       		.byte	-1
 3783 0934 E6       		.byte	-26
 3784 0935 C9       		.byte	-55
 3785 0936 FF       		.byte	-1
 3786 0937 FF       		.byte	-1
 3787 0938 03       		.byte	3
 3788 0939 00       		.byte	0
 3789 093a 01       		.byte	1
 3790 093b 00       		.byte	0
 3791 093c 30       		.byte	48
 3792 093d 00       		.byte	0
 3793 093e 00       		.byte	0
 3794 093f 00       		.byte	0
 3795 0940 A8       		.byte	-88
 3796 0941 05       		.byte	5
 3797 0942 00       		.byte	0
 3798 0943 00       		.byte	0
 3799 0944 00       		.byte	0
 3800 0945 00       		.byte	0
 3801 0946 00       		.byte	0
 3802 0947 00       		.byte	0
 3803 0948 01       		.byte	1
 3804 0949 00       		.byte	0
 3805 094a 01       		.byte	1
 3806 094b 00       		.byte	0
 3807 094c 01       		.byte	1
 3808 094d 00       		.byte	0
 3809 094e 0A       		.byte	10
 3810 094f 00       		.byte	0
 3811 0950 01       		.byte	1
 3812 0951 00       		.byte	0
 3813 0952 01       		.byte	1
 3814 0953 00       		.byte	0
 3815 0954 01       		.byte	1
GAS LISTING C:\Users\Jesper\AppData\Local\Temp\cc9lY2VB.s 			page 74


 3816 0955 00       		.byte	0
 3817 0956 0A       		.byte	10
 3818 0957 00       		.byte	0
 3819 0958 FD       		.byte	-3
 3820 0959 06       		.byte	6
 3821 095a 1B       		.byte	27
 3822 095b 3E       		.byte	62
 3823 095c 2A       		.byte	42
 3824 095d 00       		.byte	0
 3825 095e 00       		.byte	0
 3826 095f 00       		.byte	0
 3827 0960 00       		.byte	0
 3828 0961 00       		.byte	0
 3829 0962 80       		.byte	-128
 3830 0963 3B       		.byte	59
 3831 0964 80       		.byte	-128
 3832 0965 FF       		.byte	-1
 3833 0966 FF       		.byte	-1
 3834 0967 FF       		.byte	-1
 3835              		.text
 3836              	.Letext0:
 3837              		.file 2 "c:\\users\\jesper\\documents\\ml_sommarjobb\\toolchain-gd32v-v201-win\\toolchain-gd32v-v2
 3838              		.file 3 "c:\\users\\jesper\\documents\\ml_sommarjobb\\toolchain-gd32v-v201-win\\toolchain-gd32v-v2
 3839              		.file 4 "c:\\users\\jesper\\documents\\ml_sommarjobb\\toolchain-gd32v-v201-win\\toolchain-gd32v-v2
 3840              		.file 5 "c:\\users\\jesper\\documents\\ml_sommarjobb\\toolchain-gd32v-v201-win\\toolchain-gd32v-v2
 3841              		.file 6 "c:\\users\\jesper\\documents\\ml_sommarjobb\\toolchain-gd32v-v201-win\\toolchain-gd32v-v2
 3842              		.file 7 "c:\\users\\jesper\\documents\\ml_sommarjobb\\toolchain-gd32v-v201-win\\toolchain-gd32v-v2
 3843              		.file 8 "./../../firmware/GD32VF103_standard_peripheral/system_gd32vf103.h"
 3844              		.file 9 "c:\\users\\jesper\\documents\\ml_sommarjobb\\toolchain-gd32v-v201-win\\toolchain-gd32v-v2
 3845              		.file 10 "c:\\users\\jesper\\documents\\ml_sommarjobb\\toolchain-gd32v-v201-win\\toolchain-gd32v-v
 3846              		.file 11 "lib/tinymaix/include/tinymaix.h"
 3847              		.file 12 "./../../firmware/GD32VF103_standard_peripheral/Include/gd32vf103_rcu.h"
 3848              		.file 13 "lib/usbcdc/include/drv_usb_regs.h"
 3849              		.file 14 "lib/usbcdc/include/usb_ch9_std.h"
 3850              		.file 15 "lib/usbcdc/include/drv_usb_core.h"
 3851              		.file 16 "lib/usbcdc/include/drv_usb_dev.h"
 3852              		.file 17 "lib/usbcdc/include/cdc_acm_core.h"
 3853              		.file 18 "lib/usbcdc/include/usb_serial_if.h"
 3854              		.file 19 "lib/mnist/include/mnist_valid_q.h"
 3855              		.file 20 "c:\\users\\jesper\\documents\\ml_sommarjobb\\toolchain-gd32v-v201-win\\toolchain-gd32v-v
 3856              		.file 21 "lib/usbcdc/include/usb_delay.h"
 3857              		.file 22 "lib/tinymaix/include/get_time.h"
 3858              		.file 23 "<built-in>"
 3859              		.file 24 "./../../firmware/GD32VF103_standard_peripheral/Include/gd32vf103_gpio.h"
GAS LISTING C:\Users\Jesper\AppData\Local\Temp\cc9lY2VB.s 			page 75


DEFINED SYMBOLS
                            *ABS*:0000000000000000 main.c
C:\Users\Jesper\AppData\Local\Temp\cc9lY2VB.s:1426   .rodata.mdl_data:0000000000000000 mdl_data
C:\Users\Jesper\AppData\Local\Temp\cc9lY2VB.s:637    .data.mnist_pic:0000000000000000 mnist_pic
C:\Users\Jesper\AppData\Local\Temp\cc9lY2VB.s:14     .text.layer_cb:0000000000000000 layer_cb
C:\Users\Jesper\AppData\Local\Temp\cc9lY2VB.s:18     .text.layer_cb:0000000000000000 .L0 
C:\Users\Jesper\AppData\Local\Temp\cc9lY2VB.s:20     .text.layer_cb:0000000000000000 .L0 
C:\Users\Jesper\AppData\Local\Temp\cc9lY2VB.s:21     .text.layer_cb:0000000000000000 .L0 
C:\Users\Jesper\AppData\Local\Temp\cc9lY2VB.s:22     .text.layer_cb:0000000000000000 .L0 
C:\Users\Jesper\AppData\Local\Temp\cc9lY2VB.s:23     .text.layer_cb:0000000000000000 .L0 
C:\Users\Jesper\AppData\Local\Temp\cc9lY2VB.s:24     .text.layer_cb:0000000000000000 .L0 
C:\Users\Jesper\AppData\Local\Temp\cc9lY2VB.s:25     .text.layer_cb:0000000000000000 .L0 
C:\Users\Jesper\AppData\Local\Temp\cc9lY2VB.s:26     .text.layer_cb:0000000000000000 .L0 
C:\Users\Jesper\AppData\Local\Temp\cc9lY2VB.s:29     .text.layer_cb:0000000000000004 .L0 
C:\Users\Jesper\AppData\Local\Temp\cc9lY2VB.s:40     .text.parse_output:0000000000000000 parse_output
C:\Users\Jesper\AppData\Local\Temp\cc9lY2VB.s:43     .text.parse_output:0000000000000000 .L0 
C:\Users\Jesper\AppData\Local\Temp\cc9lY2VB.s:45     .text.parse_output:0000000000000000 .L0 
C:\Users\Jesper\AppData\Local\Temp\cc9lY2VB.s:46     .text.parse_output:0000000000000000 .L0 
C:\Users\Jesper\AppData\Local\Temp\cc9lY2VB.s:47     .text.parse_output:0000000000000000 .L0 
C:\Users\Jesper\AppData\Local\Temp\cc9lY2VB.s:48     .text.parse_output:0000000000000000 .L0 
C:\Users\Jesper\AppData\Local\Temp\cc9lY2VB.s:49     .text.parse_output:0000000000000000 .L0 
C:\Users\Jesper\AppData\Local\Temp\cc9lY2VB.s:51     .text.parse_output:0000000000000000 .L0 
C:\Users\Jesper\AppData\Local\Temp\cc9lY2VB.s:53     .text.parse_output:0000000000000000 .L0 
C:\Users\Jesper\AppData\Local\Temp\cc9lY2VB.s:54     .text.parse_output:0000000000000000 .L0 
C:\Users\Jesper\AppData\Local\Temp\cc9lY2VB.s:56     .text.parse_output:0000000000000002 .L0 
C:\Users\Jesper\AppData\Local\Temp\cc9lY2VB.s:59     .text.parse_output:0000000000000004 .L0 
C:\Users\Jesper\AppData\Local\Temp\cc9lY2VB.s:62     .text.parse_output:0000000000000004 .L0 
C:\Users\Jesper\AppData\Local\Temp\cc9lY2VB.s:66     .text.parse_output:000000000000000c .L0 
C:\Users\Jesper\AppData\Local\Temp\cc9lY2VB.s:68     .text.parse_output:0000000000000010 .L0 
C:\Users\Jesper\AppData\Local\Temp\cc9lY2VB.s:69     .text.parse_output:0000000000000010 .L0 
C:\Users\Jesper\AppData\Local\Temp\cc9lY2VB.s:73     .text.parse_output:0000000000000014 .L0 
C:\Users\Jesper\AppData\Local\Temp\cc9lY2VB.s:76     .text.parse_output:0000000000000018 .L0 
C:\Users\Jesper\AppData\Local\Temp\cc9lY2VB.s:83     .text.parse_output:0000000000000026 .L0 
C:\Users\Jesper\AppData\Local\Temp\cc9lY2VB.s:84     .text.parse_output:0000000000000026 .L0 
C:\Users\Jesper\AppData\Local\Temp\cc9lY2VB.s:85     .text.parse_output:0000000000000026 .L0 
C:\Users\Jesper\AppData\Local\Temp\cc9lY2VB.s:86     .text.parse_output:0000000000000026 .L0 
C:\Users\Jesper\AppData\Local\Temp\cc9lY2VB.s:87     .text.parse_output:0000000000000026 .L0 
C:\Users\Jesper\AppData\Local\Temp\cc9lY2VB.s:88     .text.parse_output:0000000000000026 .L0 
C:\Users\Jesper\AppData\Local\Temp\cc9lY2VB.s:89     .text.parse_output:0000000000000026 .L0 
C:\Users\Jesper\AppData\Local\Temp\cc9lY2VB.s:92     .text.parse_output:0000000000000026 .L0 
C:\Users\Jesper\AppData\Local\Temp\cc9lY2VB.s:95     .text.parse_output:0000000000000028 .L0 
C:\Users\Jesper\AppData\Local\Temp\cc9lY2VB.s:97     .text.parse_output:000000000000002a .L0 
C:\Users\Jesper\AppData\Local\Temp\cc9lY2VB.s:100    .text.parse_output:000000000000002e .L0 
C:\Users\Jesper\AppData\Local\Temp\cc9lY2VB.s:102    .text.parse_output:0000000000000032 .L0 
C:\Users\Jesper\AppData\Local\Temp\cc9lY2VB.s:106    .text.parse_output:0000000000000034 .L0 
C:\Users\Jesper\AppData\Local\Temp\cc9lY2VB.s:107    .text.parse_output:0000000000000034 .L0 
C:\Users\Jesper\AppData\Local\Temp\cc9lY2VB.s:109    .text.parse_output:0000000000000038 .L0 
C:\Users\Jesper\AppData\Local\Temp\cc9lY2VB.s:114    .text.parse_output:0000000000000044 .L0 
C:\Users\Jesper\AppData\Local\Temp\cc9lY2VB.s:121    .text.parse_output:0000000000000058 .L0 
C:\Users\Jesper\AppData\Local\Temp\cc9lY2VB.s:125    .text.parse_output:0000000000000062 .L0 
C:\Users\Jesper\AppData\Local\Temp\cc9lY2VB.s:134    .text.parse_output:000000000000007a .L0 
C:\Users\Jesper\AppData\Local\Temp\cc9lY2VB.s:135    .text.parse_output:000000000000007a .L0 
C:\Users\Jesper\AppData\Local\Temp\cc9lY2VB.s:137    .text.parse_output:000000000000007e .L0 
C:\Users\Jesper\AppData\Local\Temp\cc9lY2VB.s:145    .text.parse_output:0000000000000090 .L0 
C:\Users\Jesper\AppData\Local\Temp\cc9lY2VB.s:149    .text.parse_output:0000000000000092 .L0 
C:\Users\Jesper\AppData\Local\Temp\cc9lY2VB.s:153    .text.parse_output:0000000000000096 .L0 
C:\Users\Jesper\AppData\Local\Temp\cc9lY2VB.s:156    .text.parse_output:000000000000009a .L0 
GAS LISTING C:\Users\Jesper\AppData\Local\Temp\cc9lY2VB.s 			page 76


C:\Users\Jesper\AppData\Local\Temp\cc9lY2VB.s:178    .text.parse_output:00000000000000de .L0 
C:\Users\Jesper\AppData\Local\Temp\cc9lY2VB.s:179    .text.parse_output:00000000000000de .L0 
C:\Users\Jesper\AppData\Local\Temp\cc9lY2VB.s:180    .text.parse_output:00000000000000e0 .L0 
C:\Users\Jesper\AppData\Local\Temp\cc9lY2VB.s:182    .text.parse_output:00000000000000e2 .L0 
C:\Users\Jesper\AppData\Local\Temp\cc9lY2VB.s:184    .text.parse_output:00000000000000e4 .L0 
C:\Users\Jesper\AppData\Local\Temp\cc9lY2VB.s:187    .text.parse_output:00000000000000e6 .L0 
C:\Users\Jesper\AppData\Local\Temp\cc9lY2VB.s:190    .text.parse_output:00000000000000e8 .L0 
C:\Users\Jesper\AppData\Local\Temp\cc9lY2VB.s:192    .text.parse_output:00000000000000ea .L0 
C:\Users\Jesper\AppData\Local\Temp\cc9lY2VB.s:195    .text.parse_output:00000000000000ec .L0 
C:\Users\Jesper\AppData\Local\Temp\cc9lY2VB.s:197    .text.parse_output:00000000000000ee .L0 
C:\Users\Jesper\AppData\Local\Temp\cc9lY2VB.s:199    .text.parse_output:00000000000000f0 .L0 
C:\Users\Jesper\AppData\Local\Temp\cc9lY2VB.s:201    .text.parse_output:00000000000000f2 .L0 
C:\Users\Jesper\AppData\Local\Temp\cc9lY2VB.s:203    .text.parse_output:00000000000000f2 .L0 
C:\Users\Jesper\AppData\Local\Temp\cc9lY2VB.s:205    .text.parse_output:00000000000000f4 .L0 
C:\Users\Jesper\AppData\Local\Temp\cc9lY2VB.s:207    .text.parse_output:00000000000000f6 .L0 
C:\Users\Jesper\AppData\Local\Temp\cc9lY2VB.s:209    .text.parse_output:00000000000000f6 .L0 
C:\Users\Jesper\AppData\Local\Temp\cc9lY2VB.s:211    .text.parse_output:00000000000000fe .L0 
C:\Users\Jesper\AppData\Local\Temp\cc9lY2VB.s:218    .text.ledInit:0000000000000000 ledInit
C:\Users\Jesper\AppData\Local\Temp\cc9lY2VB.s:221    .text.ledInit:0000000000000000 .L0 
C:\Users\Jesper\AppData\Local\Temp\cc9lY2VB.s:222    .text.ledInit:0000000000000000 .L0 
C:\Users\Jesper\AppData\Local\Temp\cc9lY2VB.s:223    .text.ledInit:0000000000000000 .L0 
C:\Users\Jesper\AppData\Local\Temp\cc9lY2VB.s:224    .text.ledInit:0000000000000000 .L0 
C:\Users\Jesper\AppData\Local\Temp\cc9lY2VB.s:226    .text.ledInit:0000000000000002 .L0 
C:\Users\Jesper\AppData\Local\Temp\cc9lY2VB.s:228    .text.ledInit:0000000000000002 .L0 
C:\Users\Jesper\AppData\Local\Temp\cc9lY2VB.s:230    .text.ledInit:0000000000000006 .L0 
C:\Users\Jesper\AppData\Local\Temp\cc9lY2VB.s:231    .text.ledInit:0000000000000008 .L0 
C:\Users\Jesper\AppData\Local\Temp\cc9lY2VB.s:233    .text.ledInit:0000000000000008 .L0 
C:\Users\Jesper\AppData\Local\Temp\cc9lY2VB.s:236    .text.ledInit:0000000000000010 .L0 
C:\Users\Jesper\AppData\Local\Temp\cc9lY2VB.s:237    .text.ledInit:0000000000000010 .L0 
C:\Users\Jesper\AppData\Local\Temp\cc9lY2VB.s:238    .text.ledInit:0000000000000012 .L0 
C:\Users\Jesper\AppData\Local\Temp\cc9lY2VB.s:240    .text.ledInit:0000000000000012 .L0 
C:\Users\Jesper\AppData\Local\Temp\cc9lY2VB.s:242    .text.ledInit:0000000000000016 .L0 
C:\Users\Jesper\AppData\Local\Temp\cc9lY2VB.s:243    .text.ledInit:0000000000000016 .L0 
C:\Users\Jesper\AppData\Local\Temp\cc9lY2VB.s:248    .text.ledInit:0000000000000020 .L0 
C:\Users\Jesper\AppData\Local\Temp\cc9lY2VB.s:250    .text.ledInit:0000000000000022 .L0 
C:\Users\Jesper\AppData\Local\Temp\cc9lY2VB.s:252    .text.ledInit:0000000000000022 .L0 
C:\Users\Jesper\AppData\Local\Temp\cc9lY2VB.s:254    .text.ledInit:000000000000002a .L0 
C:\Users\Jesper\AppData\Local\Temp\cc9lY2VB.s:261    .text.ledOnOff:0000000000000000 ledOnOff
C:\Users\Jesper\AppData\Local\Temp\cc9lY2VB.s:264    .text.ledOnOff:0000000000000000 .L0 
C:\Users\Jesper\AppData\Local\Temp\cc9lY2VB.s:266    .text.ledOnOff:0000000000000000 .L0 
C:\Users\Jesper\AppData\Local\Temp\cc9lY2VB.s:267    .text.ledOnOff:0000000000000000 .L0 
C:\Users\Jesper\AppData\Local\Temp\cc9lY2VB.s:274    .text.ledOnOff:0000000000000014 .L0 
C:\Users\Jesper\AppData\Local\Temp\cc9lY2VB.s:283    .text.startup.main:0000000000000000 main
C:\Users\Jesper\AppData\Local\Temp\cc9lY2VB.s:286    .text.startup.main:0000000000000000 .L0 
C:\Users\Jesper\AppData\Local\Temp\cc9lY2VB.s:288    .text.startup.main:0000000000000000 .L0 
C:\Users\Jesper\AppData\Local\Temp\cc9lY2VB.s:289    .text.startup.main:0000000000000000 .L0 
C:\Users\Jesper\AppData\Local\Temp\cc9lY2VB.s:290    .text.startup.main:0000000000000000 .L0 
C:\Users\Jesper\AppData\Local\Temp\cc9lY2VB.s:291    .text.startup.main:0000000000000000 .L0 
C:\Users\Jesper\AppData\Local\Temp\cc9lY2VB.s:292    .text.startup.main:0000000000000000 .L0 
C:\Users\Jesper\AppData\Local\Temp\cc9lY2VB.s:293    .text.startup.main:0000000000000000 .L0 
C:\Users\Jesper\AppData\Local\Temp\cc9lY2VB.s:295    .text.startup.main:0000000000000002 .L0 
C:\Users\Jesper\AppData\Local\Temp\cc9lY2VB.s:305    .text.startup.main:0000000000000014 .L0 
C:\Users\Jesper\AppData\Local\Temp\cc9lY2VB.s:306    .text.startup.main:0000000000000014 .L0 
C:\Users\Jesper\AppData\Local\Temp\cc9lY2VB.s:307    .text.startup.main:0000000000000014 .L0 
C:\Users\Jesper\AppData\Local\Temp\cc9lY2VB.s:308    .text.startup.main:0000000000000014 .L0 
C:\Users\Jesper\AppData\Local\Temp\cc9lY2VB.s:309    .text.startup.main:0000000000000014 .L0 
C:\Users\Jesper\AppData\Local\Temp\cc9lY2VB.s:310    .text.startup.main:0000000000000014 .L0 
GAS LISTING C:\Users\Jesper\AppData\Local\Temp\cc9lY2VB.s 			page 77


C:\Users\Jesper\AppData\Local\Temp\cc9lY2VB.s:311    .text.startup.main:0000000000000014 .L0 
C:\Users\Jesper\AppData\Local\Temp\cc9lY2VB.s:312    .text.startup.main:0000000000000014 .L0 
C:\Users\Jesper\AppData\Local\Temp\cc9lY2VB.s:313    .text.startup.main:0000000000000014 .L0 
C:\Users\Jesper\AppData\Local\Temp\cc9lY2VB.s:315    .text.startup.main:0000000000000014 .L0 
C:\Users\Jesper\AppData\Local\Temp\cc9lY2VB.s:318    .text.startup.main:000000000000001c .L0 
C:\Users\Jesper\AppData\Local\Temp\cc9lY2VB.s:323    .text.startup.main:0000000000000026 .L0 
C:\Users\Jesper\AppData\Local\Temp\cc9lY2VB.s:324    .text.startup.main:0000000000000026 .L0 
C:\Users\Jesper\AppData\Local\Temp\cc9lY2VB.s:327    .text.startup.main:000000000000002e .L0 
C:\Users\Jesper\AppData\Local\Temp\cc9lY2VB.s:329    .text.startup.main:0000000000000032 .L0 
C:\Users\Jesper\AppData\Local\Temp\cc9lY2VB.s:330    .text.startup.main:0000000000000032 .L0 
C:\Users\Jesper\AppData\Local\Temp\cc9lY2VB.s:331    .text.startup.main:0000000000000032 .L0 
C:\Users\Jesper\AppData\Local\Temp\cc9lY2VB.s:334    .text.startup.main:000000000000003a .L0 
C:\Users\Jesper\AppData\Local\Temp\cc9lY2VB.s:335    .text.startup.main:000000000000003a .L0 
C:\Users\Jesper\AppData\Local\Temp\cc9lY2VB.s:341    .text.startup.main:000000000000004e .L0 
C:\Users\Jesper\AppData\Local\Temp\cc9lY2VB.s:344    .text.startup.main:0000000000000050 .L0 
C:\Users\Jesper\AppData\Local\Temp\cc9lY2VB.s:347    .text.startup.main:0000000000000054 .L0 
C:\Users\Jesper\AppData\Local\Temp\cc9lY2VB.s:350    .text.startup.main:000000000000005c .L0 
C:\Users\Jesper\AppData\Local\Temp\cc9lY2VB.s:351    .text.startup.main:000000000000005c .L0 
C:\Users\Jesper\AppData\Local\Temp\cc9lY2VB.s:353    .text.startup.main:000000000000005c .L0 
C:\Users\Jesper\AppData\Local\Temp\cc9lY2VB.s:354    .text.startup.main:000000000000005c .L0 
C:\Users\Jesper\AppData\Local\Temp\cc9lY2VB.s:355    .text.startup.main:000000000000005c .L0 
C:\Users\Jesper\AppData\Local\Temp\cc9lY2VB.s:358    .text.startup.main:0000000000000062 .L0 
C:\Users\Jesper\AppData\Local\Temp\cc9lY2VB.s:361    .text.startup.main:000000000000006a .L0 
C:\Users\Jesper\AppData\Local\Temp\cc9lY2VB.s:363    .text.startup.main:000000000000006c .L0 
C:\Users\Jesper\AppData\Local\Temp\cc9lY2VB.s:365    .text.startup.main:000000000000006e .L0 
C:\Users\Jesper\AppData\Local\Temp\cc9lY2VB.s:367    .text.startup.main:0000000000000072 .L0 
C:\Users\Jesper\AppData\Local\Temp\cc9lY2VB.s:371    .text.startup.main:0000000000000076 .L0 
C:\Users\Jesper\AppData\Local\Temp\cc9lY2VB.s:377    .text.startup.main:000000000000008a .L0 
C:\Users\Jesper\AppData\Local\Temp\cc9lY2VB.s:381    .text.startup.main:0000000000000094 .L0 
C:\Users\Jesper\AppData\Local\Temp\cc9lY2VB.s:382    .text.startup.main:0000000000000094 .L0 
C:\Users\Jesper\AppData\Local\Temp\cc9lY2VB.s:383    .text.startup.main:0000000000000094 .L0 
C:\Users\Jesper\AppData\Local\Temp\cc9lY2VB.s:385    .text.startup.main:0000000000000098 .L0 
C:\Users\Jesper\AppData\Local\Temp\cc9lY2VB.s:387    .text.startup.main:000000000000009c .L0 
C:\Users\Jesper\AppData\Local\Temp\cc9lY2VB.s:392    .text.startup.main:00000000000000a8 .L0 
C:\Users\Jesper\AppData\Local\Temp\cc9lY2VB.s:394    .text.startup.main:00000000000000aa .L0 
C:\Users\Jesper\AppData\Local\Temp\cc9lY2VB.s:397    .text.startup.main:00000000000000ac .L0 
C:\Users\Jesper\AppData\Local\Temp\cc9lY2VB.s:400    .text.startup.main:00000000000000b4 .L0 
C:\Users\Jesper\AppData\Local\Temp\cc9lY2VB.s:401    .text.startup.main:00000000000000b4 .L0 
C:\Users\Jesper\AppData\Local\Temp\cc9lY2VB.s:404    .text.startup.main:00000000000000b8 .L0 
C:\Users\Jesper\AppData\Local\Temp\cc9lY2VB.s:405    .text.startup.main:00000000000000b8 .L0 
C:\Users\Jesper\AppData\Local\Temp\cc9lY2VB.s:411    .text.startup.main:00000000000000c8 .L0 
C:\Users\Jesper\AppData\Local\Temp\cc9lY2VB.s:412    .text.startup.main:00000000000000c8 .L0 
C:\Users\Jesper\AppData\Local\Temp\cc9lY2VB.s:418    .text.startup.main:00000000000000d8 .L0 
C:\Users\Jesper\AppData\Local\Temp\cc9lY2VB.s:419    .text.startup.main:00000000000000d8 .L0 
C:\Users\Jesper\AppData\Local\Temp\cc9lY2VB.s:420    .text.startup.main:00000000000000d8 .L0 
C:\Users\Jesper\AppData\Local\Temp\cc9lY2VB.s:426    .text.startup.main:00000000000000e8 .L0 
C:\Users\Jesper\AppData\Local\Temp\cc9lY2VB.s:427    .text.startup.main:00000000000000e8 .L0 
C:\Users\Jesper\AppData\Local\Temp\cc9lY2VB.s:438    .text.startup.main:0000000000000104 .L0 
C:\Users\Jesper\AppData\Local\Temp\cc9lY2VB.s:439    .text.startup.main:0000000000000104 .L0 
C:\Users\Jesper\AppData\Local\Temp\cc9lY2VB.s:441    .text.startup.main:0000000000000106 .L0 
C:\Users\Jesper\AppData\Local\Temp\cc9lY2VB.s:446    .text.startup.main:0000000000000112 .L0 
C:\Users\Jesper\AppData\Local\Temp\cc9lY2VB.s:450    .text.startup.main:000000000000011c .L0 
C:\Users\Jesper\AppData\Local\Temp\cc9lY2VB.s:451    .text.startup.main:000000000000011c .L0 
C:\Users\Jesper\AppData\Local\Temp\cc9lY2VB.s:452    .text.startup.main:000000000000011c .L0 
C:\Users\Jesper\AppData\Local\Temp\cc9lY2VB.s:455    .text.startup.main:000000000000011e .L0 
C:\Users\Jesper\AppData\Local\Temp\cc9lY2VB.s:456    .text.startup.main:0000000000000120 .L0 
C:\Users\Jesper\AppData\Local\Temp\cc9lY2VB.s:457    .text.startup.main:0000000000000120 .L0 
GAS LISTING C:\Users\Jesper\AppData\Local\Temp\cc9lY2VB.s 			page 78


C:\Users\Jesper\AppData\Local\Temp\cc9lY2VB.s:459    .text.startup.main:0000000000000122 .L0 
C:\Users\Jesper\AppData\Local\Temp\cc9lY2VB.s:461    .text.startup.main:0000000000000124 .L0 
C:\Users\Jesper\AppData\Local\Temp\cc9lY2VB.s:463    .text.startup.main:0000000000000126 .L0 
C:\Users\Jesper\AppData\Local\Temp\cc9lY2VB.s:465    .text.startup.main:0000000000000128 .L0 
C:\Users\Jesper\AppData\Local\Temp\cc9lY2VB.s:467    .text.startup.main:000000000000012a .L0 
C:\Users\Jesper\AppData\Local\Temp\cc9lY2VB.s:469    .text.startup.main:000000000000012c .L0 
C:\Users\Jesper\AppData\Local\Temp\cc9lY2VB.s:471    .text.startup.main:000000000000012e .L0 
C:\Users\Jesper\AppData\Local\Temp\cc9lY2VB.s:473    .text.startup.main:0000000000000130 .L0 
C:\Users\Jesper\AppData\Local\Temp\cc9lY2VB.s:476    .text.startup.main:0000000000000132 .L0 
C:\Users\Jesper\AppData\Local\Temp\cc9lY2VB.s:480    .text.startup.main:0000000000000134 .L0 
C:\Users\Jesper\AppData\Local\Temp\cc9lY2VB.s:482    .text.startup.main:0000000000000134 .L0 
C:\Users\Jesper\AppData\Local\Temp\cc9lY2VB.s:489    .text.startup.main:0000000000000142 .L0 
C:\Users\Jesper\AppData\Local\Temp\cc9lY2VB.s:490    .text.startup.main:0000000000000142 .L0 
C:\Users\Jesper\AppData\Local\Temp\cc9lY2VB.s:498    .text.startup.main:0000000000000152 .L0 
C:\Users\Jesper\AppData\Local\Temp\cc9lY2VB.s:501    .text.startup.main:000000000000015a .L0 
C:\Users\Jesper\AppData\Local\Temp\cc9lY2VB.s:504    .text.startup.main:000000000000015e .L0 
C:\Users\Jesper\AppData\Local\Temp\cc9lY2VB.s:507    .text.startup.main:0000000000000160 .L0 
C:\Users\Jesper\AppData\Local\Temp\cc9lY2VB.s:508    .text.startup.main:0000000000000160 .L0 
C:\Users\Jesper\AppData\Local\Temp\cc9lY2VB.s:509    .text.startup.main:0000000000000160 .L0 
C:\Users\Jesper\AppData\Local\Temp\cc9lY2VB.s:516    .text.startup.main:000000000000016c .L0 
C:\Users\Jesper\AppData\Local\Temp\cc9lY2VB.s:519    .text.startup.main:0000000000000174 .L0 
C:\Users\Jesper\AppData\Local\Temp\cc9lY2VB.s:529    .text.startup.main:000000000000018c .L0 
C:\Users\Jesper\AppData\Local\Temp\cc9lY2VB.s:551    .text.startup.main:00000000000001d4 .L0 
C:\Users\Jesper\AppData\Local\Temp\cc9lY2VB.s:555    .text.startup.main:00000000000001de .L0 
C:\Users\Jesper\AppData\Local\Temp\cc9lY2VB.s:556    .text.startup.main:00000000000001de .L0 
C:\Users\Jesper\AppData\Local\Temp\cc9lY2VB.s:559    .text.startup.main:00000000000001e6 .L0 
C:\Users\Jesper\AppData\Local\Temp\cc9lY2VB.s:560    .text.startup.main:00000000000001e6 .L0 
C:\Users\Jesper\AppData\Local\Temp\cc9lY2VB.s:561    .text.startup.main:00000000000001e6 .L0 
C:\Users\Jesper\AppData\Local\Temp\cc9lY2VB.s:563    .text.startup.main:00000000000001e8 .L0 
C:\Users\Jesper\AppData\Local\Temp\cc9lY2VB.s:568    .text.startup.main:00000000000001f2 .L0 
C:\Users\Jesper\AppData\Local\Temp\cc9lY2VB.s:572    .text.startup.main:00000000000001fc .L0 
C:\Users\Jesper\AppData\Local\Temp\cc9lY2VB.s:573    .text.startup.main:00000000000001fc .L0 
C:\Users\Jesper\AppData\Local\Temp\cc9lY2VB.s:577    .text.startup.main:0000000000000206 .L0 
C:\Users\Jesper\AppData\Local\Temp\cc9lY2VB.s:578    .text.startup.main:0000000000000206 .L0 
C:\Users\Jesper\AppData\Local\Temp\cc9lY2VB.s:582    .text.startup.main:000000000000020a .L0 
C:\Users\Jesper\AppData\Local\Temp\cc9lY2VB.s:587    .text.startup.main:000000000000021a .L0 
C:\Users\Jesper\AppData\Local\Temp\cc9lY2VB.s:592    .rodata:0000000000000000 .LANCHOR0
C:\Users\Jesper\AppData\Local\Temp\cc9lY2VB.s:634    .data.mnist_pic:0000000000000000 .LANCHOR1
C:\Users\Jesper\AppData\Local\Temp\cc9lY2VB.s:37     .text.layer_cb:0000000000000004 .L0 
C:\Users\Jesper\AppData\Local\Temp\cc9lY2VB.s:214    .text.parse_output:00000000000000fe .L0 
C:\Users\Jesper\AppData\Local\Temp\cc9lY2VB.s:257    .text.ledInit:000000000000002a .L0 
C:\Users\Jesper\AppData\Local\Temp\cc9lY2VB.s:279    .text.ledOnOff:0000000000000014 .L0 
C:\Users\Jesper\AppData\Local\Temp\cc9lY2VB.s:590    .text.startup.main:000000000000021a .L0 
                     .debug_frame:0000000000000000 .L0 
C:\Users\Jesper\AppData\Local\Temp\cc9lY2VB.s:147    .text.parse_output:0000000000000092 .L3
C:\Users\Jesper\AppData\Local\Temp\cc9lY2VB.s:104    .text.parse_output:0000000000000034 .L5
C:\Users\Jesper\AppData\Local\Temp\cc9lY2VB.s:603    .rodata:0000000000000054 .LC6
C:\Users\Jesper\AppData\Local\Temp\cc9lY2VB.s:606    .rodata:000000000000005c .LC7
C:\Users\Jesper\AppData\Local\Temp\cc9lY2VB.s:624    .rodata:0000000000000090 .LC10
C:\Users\Jesper\AppData\Local\Temp\cc9lY2VB.s:478    .text.startup.main:0000000000000134 .L14
C:\Users\Jesper\AppData\Local\Temp\cc9lY2VB.s:390    .text.startup.main:00000000000000a8 .L15
C:\Users\Jesper\AppData\Local\Temp\cc9lY2VB.s:369    .text.startup.main:0000000000000076 .L16
C:\Users\Jesper\AppData\Local\Temp\cc9lY2VB.s:487    .text.startup.main:0000000000000142 .L17
C:\Users\Jesper\AppData\Local\Temp\cc9lY2VB.s:322    .text.startup.main:0000000000000026 .L13
C:\Users\Jesper\AppData\Local\Temp\cc9lY2VB.s:580    .text.startup.main:000000000000020a .L19
C:\Users\Jesper\AppData\Local\Temp\cc9lY2VB.s:453    .text.startup.main:000000000000011e .L12
C:\Users\Jesper\AppData\Local\Temp\cc9lY2VB.s:566    .text.startup.main:00000000000001f2 .L20
GAS LISTING C:\Users\Jesper\AppData\Local\Temp\cc9lY2VB.s 			page 79


C:\Users\Jesper\AppData\Local\Temp\cc9lY2VB.s:9314   .debug_abbrev:0000000000000000 .Ldebug_abbrev0
C:\Users\Jesper\AppData\Local\Temp\cc9lY2VB.s:10757  .debug_str:00000000000002b3 .LASF473
C:\Users\Jesper\AppData\Local\Temp\cc9lY2VB.s:11145  .debug_str:0000000000000bb1 .LASF474
C:\Users\Jesper\AppData\Local\Temp\cc9lY2VB.s:11137  .debug_str:0000000000000b26 .LASF475
C:\Users\Jesper\AppData\Local\Temp\cc9lY2VB.s:10605  .debug_ranges:0000000000000000 .Ldebug_ranges0
C:\Users\Jesper\AppData\Local\Temp\cc9lY2VB.s:10637  .debug_line:0000000000000000 .Ldebug_line0
C:\Users\Jesper\AppData\Local\Temp\cc9lY2VB.s:11181  .debug_str:0000000000000c77 .LASF0
C:\Users\Jesper\AppData\Local\Temp\cc9lY2VB.s:11291  .debug_str:0000000000000ed7 .LASF2
C:\Users\Jesper\AppData\Local\Temp\cc9lY2VB.s:10865  .debug_str:000000000000057f .LASF1
C:\Users\Jesper\AppData\Local\Temp\cc9lY2VB.s:10785  .debug_str:00000000000003bd .LASF3
C:\Users\Jesper\AppData\Local\Temp\cc9lY2VB.s:10887  .debug_str:0000000000000607 .LASF4
C:\Users\Jesper\AppData\Local\Temp\cc9lY2VB.s:11423  .debug_str:000000000000114c .LASF5
C:\Users\Jesper\AppData\Local\Temp\cc9lY2VB.s:10955  .debug_str:0000000000000785 .LASF6
C:\Users\Jesper\AppData\Local\Temp\cc9lY2VB.s:11535  .debug_str:0000000000001390 .LASF7
C:\Users\Jesper\AppData\Local\Temp\cc9lY2VB.s:11553  .debug_str:00000000000013fd .LASF8
C:\Users\Jesper\AppData\Local\Temp\cc9lY2VB.s:10813  .debug_str:0000000000000455 .LASF9
C:\Users\Jesper\AppData\Local\Temp\cc9lY2VB.s:11109  .debug_str:0000000000000a9c .LASF10
C:\Users\Jesper\AppData\Local\Temp\cc9lY2VB.s:11043  .debug_str:0000000000000949 .LASF11
C:\Users\Jesper\AppData\Local\Temp\cc9lY2VB.s:11119  .debug_str:0000000000000acb .LASF12
C:\Users\Jesper\AppData\Local\Temp\cc9lY2VB.s:11303  .debug_str:0000000000000f05 .LASF13
C:\Users\Jesper\AppData\Local\Temp\cc9lY2VB.s:10649  .debug_str:0000000000000042 .LASF14
C:\Users\Jesper\AppData\Local\Temp\cc9lY2VB.s:10867  .debug_str:000000000000058b .LASF15
C:\Users\Jesper\AppData\Local\Temp\cc9lY2VB.s:11311  .debug_str:0000000000000f39 .LASF16
C:\Users\Jesper\AppData\Local\Temp\cc9lY2VB.s:10687  .debug_str:000000000000011a .LASF17
C:\Users\Jesper\AppData\Local\Temp\cc9lY2VB.s:11499  .debug_str:00000000000012da .LASF18
C:\Users\Jesper\AppData\Local\Temp\cc9lY2VB.s:11057  .debug_str:000000000000099a .LASF165
C:\Users\Jesper\AppData\Local\Temp\cc9lY2VB.s:11371  .debug_str:000000000000105a .LASF19
C:\Users\Jesper\AppData\Local\Temp\cc9lY2VB.s:11373  .debug_str:0000000000001063 .LASF20
C:\Users\Jesper\AppData\Local\Temp\cc9lY2VB.s:11185  .debug_str:0000000000000c90 .LASF21
C:\Users\Jesper\AppData\Local\Temp\cc9lY2VB.s:11477  .debug_str:0000000000001247 .LASF22
C:\Users\Jesper\AppData\Local\Temp\cc9lY2VB.s:11093  .debug_str:0000000000000a4d .LASF23
C:\Users\Jesper\AppData\Local\Temp\cc9lY2VB.s:10719  .debug_str:00000000000001cb .LASF24
C:\Users\Jesper\AppData\Local\Temp\cc9lY2VB.s:10721  .debug_str:00000000000001d6 .LASF25
C:\Users\Jesper\AppData\Local\Temp\cc9lY2VB.s:10723  .debug_str:00000000000001e1 .LASF26
C:\Users\Jesper\AppData\Local\Temp\cc9lY2VB.s:10725  .debug_str:00000000000001ec .LASF27
C:\Users\Jesper\AppData\Local\Temp\cc9lY2VB.s:10727  .debug_str:00000000000001f7 .LASF28
C:\Users\Jesper\AppData\Local\Temp\cc9lY2VB.s:10729  .debug_str:0000000000000202 .LASF29
C:\Users\Jesper\AppData\Local\Temp\cc9lY2VB.s:11237  .debug_str:0000000000000d9e .LASF30
C:\Users\Jesper\AppData\Local\Temp\cc9lY2VB.s:10857  .debug_str:0000000000000559 .LASF31
C:\Users\Jesper\AppData\Local\Temp\cc9lY2VB.s:10859  .debug_str:0000000000000562 .LASF32
C:\Users\Jesper\AppData\Local\Temp\cc9lY2VB.s:10741  .debug_str:000000000000026c .LASF33
C:\Users\Jesper\AppData\Local\Temp\cc9lY2VB.s:10743  .debug_str:0000000000000277 .LASF34
C:\Users\Jesper\AppData\Local\Temp\cc9lY2VB.s:10697  .debug_str:0000000000000150 .LASF35
C:\Users\Jesper\AppData\Local\Temp\cc9lY2VB.s:10699  .debug_str:000000000000015a .LASF36
C:\Users\Jesper\AppData\Local\Temp\cc9lY2VB.s:11505  .debug_str:0000000000001300 .LASF37
C:\Users\Jesper\AppData\Local\Temp\cc9lY2VB.s:11507  .debug_str:0000000000001309 .LASF38
C:\Users\Jesper\AppData\Local\Temp\cc9lY2VB.s:10929  .debug_str:00000000000006f5 .LASF39
C:\Users\Jesper\AppData\Local\Temp\cc9lY2VB.s:10931  .debug_str:00000000000006fe .LASF40
C:\Users\Jesper\AppData\Local\Temp\cc9lY2VB.s:11445  .debug_str:00000000000011b9 .LASF41
C:\Users\Jesper\AppData\Local\Temp\cc9lY2VB.s:10681  .debug_str:00000000000000ff .LASF42
C:\Users\Jesper\AppData\Local\Temp\cc9lY2VB.s:10869  .debug_str:0000000000000593 .LASF43
C:\Users\Jesper\AppData\Local\Temp\cc9lY2VB.s:11263  .debug_str:0000000000000e4d .LASF44
C:\Users\Jesper\AppData\Local\Temp\cc9lY2VB.s:11063  .debug_str:00000000000009b9 .LASF45
C:\Users\Jesper\AppData\Local\Temp\cc9lY2VB.s:11123  .debug_str:0000000000000ae2 .LASF46
C:\Users\Jesper\AppData\Local\Temp\cc9lY2VB.s:11125  .debug_str:0000000000000aec .LASF47
C:\Users\Jesper\AppData\Local\Temp\cc9lY2VB.s:11127  .debug_str:0000000000000af6 .LASF48
C:\Users\Jesper\AppData\Local\Temp\cc9lY2VB.s:11129  .debug_str:0000000000000b00 .LASF49
GAS LISTING C:\Users\Jesper\AppData\Local\Temp\cc9lY2VB.s 			page 80


C:\Users\Jesper\AppData\Local\Temp\cc9lY2VB.s:11131  .debug_str:0000000000000b0a .LASF50
C:\Users\Jesper\AppData\Local\Temp\cc9lY2VB.s:11113  .debug_str:0000000000000ab2 .LASF51
C:\Users\Jesper\AppData\Local\Temp\cc9lY2VB.s:11115  .debug_str:0000000000000abb .LASF52
C:\Users\Jesper\AppData\Local\Temp\cc9lY2VB.s:10717  .debug_str:00000000000001c0 .LASF53
C:\Users\Jesper\AppData\Local\Temp\cc9lY2VB.s:10855  .debug_str:0000000000000550 .LASF54
C:\Users\Jesper\AppData\Local\Temp\cc9lY2VB.s:10739  .debug_str:0000000000000261 .LASF55
C:\Users\Jesper\AppData\Local\Temp\cc9lY2VB.s:11255  .debug_str:0000000000000e1e .LASF56
C:\Users\Jesper\AppData\Local\Temp\cc9lY2VB.s:11379  .debug_str:000000000000107b .LASF57
C:\Users\Jesper\AppData\Local\Temp\cc9lY2VB.s:11527  .debug_str:0000000000001372 .LASF58
C:\Users\Jesper\AppData\Local\Temp\cc9lY2VB.s:11283  .debug_str:0000000000000eb0 .LASF59
C:\Users\Jesper\AppData\Local\Temp\cc9lY2VB.s:10657  .debug_str:0000000000000076 .LASF60
C:\Users\Jesper\AppData\Local\Temp\cc9lY2VB.s:10783  .debug_str:00000000000003b7 .LASF61
C:\Users\Jesper\AppData\Local\Temp\cc9lY2VB.s:11285  .debug_str:0000000000000eb8 .LASF62
C:\Users\Jesper\AppData\Local\Temp\cc9lY2VB.s:11241  .debug_str:0000000000000db9 .LASF63
C:\Users\Jesper\AppData\Local\Temp\cc9lY2VB.s:10663  .debug_str:000000000000009b .LASF64
C:\Users\Jesper\AppData\Local\Temp\cc9lY2VB.s:11361  .debug_str:000000000000102a .LASF65
C:\Users\Jesper\AppData\Local\Temp\cc9lY2VB.s:11495  .debug_str:00000000000012c6 .LASF66
C:\Users\Jesper\AppData\Local\Temp\cc9lY2VB.s:11067  .debug_str:00000000000009cf .LASF67
C:\Users\Jesper\AppData\Local\Temp\cc9lY2VB.s:11351  .debug_str:0000000000000ff7 .LASF68
C:\Users\Jesper\AppData\Local\Temp\cc9lY2VB.s:11085  .debug_str:0000000000000a28 .LASF73
C:\Users\Jesper\AppData\Local\Temp\cc9lY2VB.s:11381  .debug_str:0000000000001082 .LASF69
C:\Users\Jesper\AppData\Local\Temp\cc9lY2VB.s:11091  .debug_str:0000000000000a45 .LASF70
C:\Users\Jesper\AppData\Local\Temp\cc9lY2VB.s:11165  .debug_str:0000000000000c1b .LASF71
C:\Users\Jesper\AppData\Local\Temp\cc9lY2VB.s:11005  .debug_str:0000000000000881 .LASF72
C:\Users\Jesper\AppData\Local\Temp\cc9lY2VB.s:10709  .debug_str:000000000000019b .LASF74
C:\Users\Jesper\AppData\Local\Temp\cc9lY2VB.s:10715  .debug_str:00000000000001b7 .LASF75
C:\Users\Jesper\AppData\Local\Temp\cc9lY2VB.s:11583  .debug_str:0000000000001499 .LASF76
C:\Users\Jesper\AppData\Local\Temp\cc9lY2VB.s:11539  .debug_str:00000000000013a9 .LASF77
C:\Users\Jesper\AppData\Local\Temp\cc9lY2VB.s:11205  .debug_str:0000000000000d02 .LASF78
C:\Users\Jesper\AppData\Local\Temp\cc9lY2VB.s:10841  .debug_str:00000000000004f2 .LASF79
C:\Users\Jesper\AppData\Local\Temp\cc9lY2VB.s:11443  .debug_str:00000000000011af .LASF80
C:\Users\Jesper\AppData\Local\Temp\cc9lY2VB.s:11253  .debug_str:0000000000000e14 .LASF81
C:\Users\Jesper\AppData\Local\Temp\cc9lY2VB.s:11257  .debug_str:0000000000000e2a .LASF82
C:\Users\Jesper\AppData\Local\Temp\cc9lY2VB.s:11569  .debug_str:0000000000001462 .LASF83
C:\Users\Jesper\AppData\Local\Temp\cc9lY2VB.s:10793  .debug_str:00000000000003e7 .LASF84
C:\Users\Jesper\AppData\Local\Temp\cc9lY2VB.s:11567  .debug_str:000000000000145a .LASF85
C:\Users\Jesper\AppData\Local\Temp\cc9lY2VB.s:11313  .debug_str:0000000000000f42 .LASF86
C:\Users\Jesper\AppData\Local\Temp\cc9lY2VB.s:11435  .debug_str:0000000000001189 .LASF87
C:\Users\Jesper\AppData\Local\Temp\cc9lY2VB.s:11473  .debug_str:0000000000001232 .LASF88
C:\Users\Jesper\AppData\Local\Temp\cc9lY2VB.s:11231  .debug_str:0000000000000d82 .LASF89
C:\Users\Jesper\AppData\Local\Temp\cc9lY2VB.s:11467  .debug_str:000000000000121f .LASF90
C:\Users\Jesper\AppData\Local\Temp\cc9lY2VB.s:10947  .debug_str:0000000000000768 .LASF91
C:\Users\Jesper\AppData\Local\Temp\cc9lY2VB.s:11469  .debug_str:0000000000001224 .LASF92
C:\Users\Jesper\AppData\Local\Temp\cc9lY2VB.s:11339  .debug_str:0000000000000fb8 .LASF93
C:\Users\Jesper\AppData\Local\Temp\cc9lY2VB.s:10821  .debug_str:000000000000047a .LASF94
C:\Users\Jesper\AppData\Local\Temp\cc9lY2VB.s:11051  .debug_str:000000000000097f .LASF95
C:\Users\Jesper\AppData\Local\Temp\cc9lY2VB.s:11227  .debug_str:0000000000000d6c .LASF96
C:\Users\Jesper\AppData\Local\Temp\cc9lY2VB.s:10791  .debug_str:00000000000003e1 .LASF97
C:\Users\Jesper\AppData\Local\Temp\cc9lY2VB.s:11463  .debug_str:0000000000001211 .LASF98
C:\Users\Jesper\AppData\Local\Temp\cc9lY2VB.s:10997  .debug_str:0000000000000862 .LASF99
C:\Users\Jesper\AppData\Local\Temp\cc9lY2VB.s:10675  .debug_str:00000000000000cb .LASF100
C:\Users\Jesper\AppData\Local\Temp\cc9lY2VB.s:10683  .debug_str:0000000000000107 .LASF101
C:\Users\Jesper\AppData\Local\Temp\cc9lY2VB.s:11275  .debug_str:0000000000000e84 .LASF102
C:\Users\Jesper\AppData\Local\Temp\cc9lY2VB.s:10951  .debug_str:0000000000000774 .LASF103
C:\Users\Jesper\AppData\Local\Temp\cc9lY2VB.s:11213  .debug_str:0000000000000d24 .LASF104
C:\Users\Jesper\AppData\Local\Temp\cc9lY2VB.s:10713  .debug_str:00000000000001b1 .LASF105
C:\Users\Jesper\AppData\Local\Temp\cc9lY2VB.s:11331  .debug_str:0000000000000f9b .LASF106
GAS LISTING C:\Users\Jesper\AppData\Local\Temp\cc9lY2VB.s 			page 81


C:\Users\Jesper\AppData\Local\Temp\cc9lY2VB.s:11021  .debug_str:00000000000008cd .LASF107
C:\Users\Jesper\AppData\Local\Temp\cc9lY2VB.s:11385  .debug_str:0000000000001090 .LASF108
C:\Users\Jesper\AppData\Local\Temp\cc9lY2VB.s:10749  .debug_str:0000000000000292 .LASF109
C:\Users\Jesper\AppData\Local\Temp\cc9lY2VB.s:11219  .debug_str:0000000000000d40 .LASF110
C:\Users\Jesper\AppData\Local\Temp\cc9lY2VB.s:11055  .debug_str:0000000000000992 .LASF111
C:\Users\Jesper\AppData\Local\Temp\cc9lY2VB.s:10909  .debug_str:0000000000000680 .LASF112
C:\Users\Jesper\AppData\Local\Temp\cc9lY2VB.s:11073  .debug_str:00000000000009ec .LASF113
C:\Users\Jesper\AppData\Local\Temp\cc9lY2VB.s:10959  .debug_str:00000000000007a1 .LASF114
C:\Users\Jesper\AppData\Local\Temp\cc9lY2VB.s:11323  .debug_str:0000000000000f6a .LASF115
C:\Users\Jesper\AppData\Local\Temp\cc9lY2VB.s:11215  .debug_str:0000000000000d2a .LASF116
C:\Users\Jesper\AppData\Local\Temp\cc9lY2VB.s:11465  .debug_str:000000000000121a .LASF117
C:\Users\Jesper\AppData\Local\Temp\cc9lY2VB.s:11111  .debug_str:0000000000000aa7 .LASF118
C:\Users\Jesper\AppData\Local\Temp\cc9lY2VB.s:10901  .debug_str:000000000000064c .LASF119
C:\Users\Jesper\AppData\Local\Temp\cc9lY2VB.s:11493  .debug_str:00000000000012be .LASF120
C:\Users\Jesper\AppData\Local\Temp\cc9lY2VB.s:11053  .debug_str:0000000000000987 .LASF121
C:\Users\Jesper\AppData\Local\Temp\cc9lY2VB.s:11099  .debug_str:0000000000000a64 .LASF122
C:\Users\Jesper\AppData\Local\Temp\cc9lY2VB.s:11513  .debug_str:0000000000001325 .LASF123
C:\Users\Jesper\AppData\Local\Temp\cc9lY2VB.s:10819  .debug_str:0000000000000470 .LASF124
C:\Users\Jesper\AppData\Local\Temp\cc9lY2VB.s:11041  .debug_str:0000000000000944 .LASF125
C:\Users\Jesper\AppData\Local\Temp\cc9lY2VB.s:11157  .debug_str:0000000000000bf7 .LASF126
C:\Users\Jesper\AppData\Local\Temp\cc9lY2VB.s:10693  .debug_str:000000000000013f .LASF127
C:\Users\Jesper\AppData\Local\Temp\cc9lY2VB.s:11025  .debug_str:00000000000008e0 .LASF128
C:\Users\Jesper\AppData\Local\Temp\cc9lY2VB.s:11211  .debug_str:0000000000000d1f .LASF129
C:\Users\Jesper\AppData\Local\Temp\cc9lY2VB.s:11101  .debug_str:0000000000000a6e .LASF130
C:\Users\Jesper\AppData\Local\Temp\cc9lY2VB.s:11015  .debug_str:00000000000008aa .LASF131
C:\Users\Jesper\AppData\Local\Temp\cc9lY2VB.s:11139  .debug_str:0000000000000b93 .LASF132
C:\Users\Jesper\AppData\Local\Temp\cc9lY2VB.s:10669  .debug_str:00000000000000b7 .LASF133
C:\Users\Jesper\AppData\Local\Temp\cc9lY2VB.s:10941  .debug_str:000000000000073f .LASF134
C:\Users\Jesper\AppData\Local\Temp\cc9lY2VB.s:11355  .debug_str:000000000000100b .LASF135
C:\Users\Jesper\AppData\Local\Temp\cc9lY2VB.s:11163  .debug_str:0000000000000c15 .LASF136
C:\Users\Jesper\AppData\Local\Temp\cc9lY2VB.s:11133  .debug_str:0000000000000b14 .LASF137
C:\Users\Jesper\AppData\Local\Temp\cc9lY2VB.s:11159  .debug_str:0000000000000c01 .LASF138
C:\Users\Jesper\AppData\Local\Temp\cc9lY2VB.s:11319  .debug_str:0000000000000f5b .LASF139
C:\Users\Jesper\AppData\Local\Temp\cc9lY2VB.s:11269  .debug_str:0000000000000e6a .LASF140
C:\Users\Jesper\AppData\Local\Temp\cc9lY2VB.s:10761  .debug_str:0000000000000340 .LASF141
C:\Users\Jesper\AppData\Local\Temp\cc9lY2VB.s:11529  .debug_str:0000000000001379 .LASF142
C:\Users\Jesper\AppData\Local\Temp\cc9lY2VB.s:10863  .debug_str:0000000000000572 .LASF143
C:\Users\Jesper\AppData\Local\Temp\cc9lY2VB.s:11343  .debug_str:0000000000000fc8 .LASF144
C:\Users\Jesper\AppData\Local\Temp\cc9lY2VB.s:10691  .debug_str:0000000000000132 .LASF145
C:\Users\Jesper\AppData\Local\Temp\cc9lY2VB.s:10831  .debug_str:00000000000004c4 .LASF146
C:\Users\Jesper\AppData\Local\Temp\cc9lY2VB.s:11151  .debug_str:0000000000000bd4 .LASF147
C:\Users\Jesper\AppData\Local\Temp\cc9lY2VB.s:11223  .debug_str:0000000000000d58 .LASF148
C:\Users\Jesper\AppData\Local\Temp\cc9lY2VB.s:11369  .debug_str:0000000000001055 .LASF149
C:\Users\Jesper\AppData\Local\Temp\cc9lY2VB.s:11419  .debug_str:0000000000001136 .LASF150
C:\Users\Jesper\AppData\Local\Temp\cc9lY2VB.s:11289  .debug_str:0000000000000ec9 .LASF151
C:\Users\Jesper\AppData\Local\Temp\cc9lY2VB.s:11217  .debug_str:0000000000000d32 .LASF152
C:\Users\Jesper\AppData\Local\Temp\cc9lY2VB.s:11287  .debug_str:0000000000000ebf .LASF153
C:\Users\Jesper\AppData\Local\Temp\cc9lY2VB.s:11077  .debug_str:0000000000000a03 .LASF154
C:\Users\Jesper\AppData\Local\Temp\cc9lY2VB.s:11587  .debug_str:00000000000014b0 .LASF155
C:\Users\Jesper\AppData\Local\Temp\cc9lY2VB.s:10811  .debug_str:0000000000000447 .LASF156
C:\Users\Jesper\AppData\Local\Temp\cc9lY2VB.s:11347  .debug_str:0000000000000fdf .LASF157
C:\Users\Jesper\AppData\Local\Temp\cc9lY2VB.s:11551  .debug_str:00000000000013ec .LASF158
C:\Users\Jesper\AppData\Local\Temp\cc9lY2VB.s:11201  .debug_str:0000000000000cea .LASF159
C:\Users\Jesper\AppData\Local\Temp\cc9lY2VB.s:10711  .debug_str:00000000000001a0 .LASF160
C:\Users\Jesper\AppData\Local\Temp\cc9lY2VB.s:11187  .debug_str:0000000000000c98 .LASF161
C:\Users\Jesper\AppData\Local\Temp\cc9lY2VB.s:11481  .debug_str:000000000000125e .LASF162
C:\Users\Jesper\AppData\Local\Temp\cc9lY2VB.s:11143  .debug_str:0000000000000ba8 .LASF163
GAS LISTING C:\Users\Jesper\AppData\Local\Temp\cc9lY2VB.s 			page 82


C:\Users\Jesper\AppData\Local\Temp\cc9lY2VB.s:10707  .debug_str:0000000000000193 .LASF164
C:\Users\Jesper\AppData\Local\Temp\cc9lY2VB.s:10661  .debug_str:0000000000000090 .LASF476
C:\Users\Jesper\AppData\Local\Temp\cc9lY2VB.s:10815  .debug_str:000000000000045e .LASF166
C:\Users\Jesper\AppData\Local\Temp\cc9lY2VB.s:10911  .debug_str:0000000000000687 .LASF167
C:\Users\Jesper\AppData\Local\Temp\cc9lY2VB.s:11433  .debug_str:000000000000117f .LASF168
C:\Users\Jesper\AppData\Local\Temp\cc9lY2VB.s:10971  .debug_str:00000000000007ed .LASF169
C:\Users\Jesper\AppData\Local\Temp\cc9lY2VB.s:11575  .debug_str:000000000000147b .LASF170
C:\Users\Jesper\AppData\Local\Temp\cc9lY2VB.s:10991  .debug_str:0000000000000848 .LASF171
C:\Users\Jesper\AppData\Local\Temp\cc9lY2VB.s:11491  .debug_str:00000000000012b6 .LASF172
C:\Users\Jesper\AppData\Local\Temp\cc9lY2VB.s:11431  .debug_str:0000000000001175 .LASF173
C:\Users\Jesper\AppData\Local\Temp\cc9lY2VB.s:10765  .debug_str:0000000000000359 .LASF174
C:\Users\Jesper\AppData\Local\Temp\cc9lY2VB.s:11281  .debug_str:0000000000000ea7 .LASF175
C:\Users\Jesper\AppData\Local\Temp\cc9lY2VB.s:11171  .debug_str:0000000000000c43 .LASF176
C:\Users\Jesper\AppData\Local\Temp\cc9lY2VB.s:10883  .debug_str:00000000000005f7 .LASF177
C:\Users\Jesper\AppData\Local\Temp\cc9lY2VB.s:11117  .debug_str:0000000000000ac4 .LASF178
C:\Users\Jesper\AppData\Local\Temp\cc9lY2VB.s:11329  .debug_str:0000000000000f8e .LASF179
C:\Users\Jesper\AppData\Local\Temp\cc9lY2VB.s:10735  .debug_str:0000000000000241 .LASF180
C:\Users\Jesper\AppData\Local\Temp\cc9lY2VB.s:10701  .debug_str:0000000000000164 .LASF181
C:\Users\Jesper\AppData\Local\Temp\cc9lY2VB.s:11561  .debug_str:000000000000142d .LASF182
C:\Users\Jesper\AppData\Local\Temp\cc9lY2VB.s:11427  .debug_str:000000000000115d .LASF183
C:\Users\Jesper\AppData\Local\Temp\cc9lY2VB.s:10795  .debug_str:00000000000003f5 .LASF184
C:\Users\Jesper\AppData\Local\Temp\cc9lY2VB.s:11229  .debug_str:0000000000000d73 .LASF185
C:\Users\Jesper\AppData\Local\Temp\cc9lY2VB.s:10755  .debug_str:00000000000002a6 .LASF186
C:\Users\Jesper\AppData\Local\Temp\cc9lY2VB.s:11273  .debug_str:0000000000000e7b .LASF187
C:\Users\Jesper\AppData\Local\Temp\cc9lY2VB.s:10961  .debug_str:00000000000007a8 .LASF188
C:\Users\Jesper\AppData\Local\Temp\cc9lY2VB.s:11497  .debug_str:00000000000012ce .LASF189
C:\Users\Jesper\AppData\Local\Temp\cc9lY2VB.s:11585  .debug_str:00000000000014a2 .LASF190
C:\Users\Jesper\AppData\Local\Temp\cc9lY2VB.s:11399  .debug_str:00000000000010d2 .LASF191
C:\Users\Jesper\AppData\Local\Temp\cc9lY2VB.s:11515  .debug_str:000000000000132d .LASF192
C:\Users\Jesper\AppData\Local\Temp\cc9lY2VB.s:11107  .debug_str:0000000000000a8c .LASF193
C:\Users\Jesper\AppData\Local\Temp\cc9lY2VB.s:11261  .debug_str:0000000000000e41 .LASF194
C:\Users\Jesper\AppData\Local\Temp\cc9lY2VB.s:11537  .debug_str:00000000000013a3 .LASF195
C:\Users\Jesper\AppData\Local\Temp\cc9lY2VB.s:11251  .debug_str:0000000000000e0b .LASF196
C:\Users\Jesper\AppData\Local\Temp\cc9lY2VB.s:10775  .debug_str:0000000000000386 .LASF197
C:\Users\Jesper\AppData\Local\Temp\cc9lY2VB.s:10933  .debug_str:0000000000000707 .LASF198
C:\Users\Jesper\AppData\Local\Temp\cc9lY2VB.s:11045  .debug_str:000000000000095b .LASF199
C:\Users\Jesper\AppData\Local\Temp\cc9lY2VB.s:11235  .debug_str:0000000000000d94 .LASF200
C:\Users\Jesper\AppData\Local\Temp\cc9lY2VB.s:11049  .debug_str:0000000000000976 .LASF201
C:\Users\Jesper\AppData\Local\Temp\cc9lY2VB.s:10769  .debug_str:0000000000000369 .LASF202
C:\Users\Jesper\AppData\Local\Temp\cc9lY2VB.s:11207  .debug_str:0000000000000d0c .LASF203
C:\Users\Jesper\AppData\Local\Temp\cc9lY2VB.s:10925  .debug_str:00000000000006e1 .LASF204
C:\Users\Jesper\AppData\Local\Temp\cc9lY2VB.s:10993  .debug_str:0000000000000850 .LASF205
C:\Users\Jesper\AppData\Local\Temp\cc9lY2VB.s:10803  .debug_str:0000000000000419 .LASF206
C:\Users\Jesper\AppData\Local\Temp\cc9lY2VB.s:11447  .debug_str:00000000000011c2 .LASF207
C:\Users\Jesper\AppData\Local\Temp\cc9lY2VB.s:10797  .debug_str:0000000000000401 .LASF208
C:\Users\Jesper\AppData\Local\Temp\cc9lY2VB.s:11089  .debug_str:0000000000000a3a .LASF209
C:\Users\Jesper\AppData\Local\Temp\cc9lY2VB.s:10937  .debug_str:000000000000072d .LASF210
C:\Users\Jesper\AppData\Local\Temp\cc9lY2VB.s:11457  .debug_str:00000000000011ed .LASF211
C:\Users\Jesper\AppData\Local\Temp\cc9lY2VB.s:10799  .debug_str:0000000000000408 .LASF212
C:\Users\Jesper\AppData\Local\Temp\cc9lY2VB.s:11577  .debug_str:0000000000001485 .LASF213
C:\Users\Jesper\AppData\Local\Temp\cc9lY2VB.s:11293  .debug_str:0000000000000ee0 .LASF214
C:\Users\Jesper\AppData\Local\Temp\cc9lY2VB.s:11003  .debug_str:000000000000087c .LASF215
C:\Users\Jesper\AppData\Local\Temp\cc9lY2VB.s:10897  .debug_str:000000000000063c .LASF216
C:\Users\Jesper\AppData\Local\Temp\cc9lY2VB.s:10759  .debug_str:000000000000033b .LASF217
C:\Users\Jesper\AppData\Local\Temp\cc9lY2VB.s:11061  .debug_str:00000000000009b2 .LASF218
C:\Users\Jesper\AppData\Local\Temp\cc9lY2VB.s:11297  .debug_str:0000000000000eee .LASF219
C:\Users\Jesper\AppData\Local\Temp\cc9lY2VB.s:11325  .debug_str:0000000000000f72 .LASF220
GAS LISTING C:\Users\Jesper\AppData\Local\Temp\cc9lY2VB.s 			page 83


C:\Users\Jesper\AppData\Local\Temp\cc9lY2VB.s:11001  .debug_str:0000000000000874 .LASF221
C:\Users\Jesper\AppData\Local\Temp\cc9lY2VB.s:11071  .debug_str:00000000000009e7 .LASF222
C:\Users\Jesper\AppData\Local\Temp\cc9lY2VB.s:10847  .debug_str:0000000000000521 .LASF223
C:\Users\Jesper\AppData\Local\Temp\cc9lY2VB.s:10677  .debug_str:00000000000000d1 .LASF224
C:\Users\Jesper\AppData\Local\Temp\cc9lY2VB.s:10653  .debug_str:0000000000000056 .LASF225
C:\Users\Jesper\AppData\Local\Temp\cc9lY2VB.s:11501  .debug_str:00000000000012e3 .LASF226
C:\Users\Jesper\AppData\Local\Temp\cc9lY2VB.s:10899  .debug_str:0000000000000645 .LASF227
C:\Users\Jesper\AppData\Local\Temp\cc9lY2VB.s:11121  .debug_str:0000000000000ad9 .LASF228
C:\Users\Jesper\AppData\Local\Temp\cc9lY2VB.s:10981  .debug_str:000000000000081e .LASF229
C:\Users\Jesper\AppData\Local\Temp\cc9lY2VB.s:11405  .debug_str:00000000000010f3 .LASF230
C:\Users\Jesper\AppData\Local\Temp\cc9lY2VB.s:11455  .debug_str:00000000000011e5 .LASF231
C:\Users\Jesper\AppData\Local\Temp\cc9lY2VB.s:11555  .debug_str:0000000000001407 .LASF232
C:\Users\Jesper\AppData\Local\Temp\cc9lY2VB.s:11425  .debug_str:0000000000001156 .LASF233
C:\Users\Jesper\AppData\Local\Temp\cc9lY2VB.s:10881  .debug_str:00000000000005ef .LASF234
C:\Users\Jesper\AppData\Local\Temp\cc9lY2VB.s:11565  .debug_str:0000000000001452 .LASF235
C:\Users\Jesper\AppData\Local\Temp\cc9lY2VB.s:11391  .debug_str:00000000000010ae .LASF236
C:\Users\Jesper\AppData\Local\Temp\cc9lY2VB.s:11563  .debug_str:000000000000143e .LASF237
C:\Users\Jesper\AppData\Local\Temp\cc9lY2VB.s:11523  .debug_str:000000000000135a .LASF238
C:\Users\Jesper\AppData\Local\Temp\cc9lY2VB.s:10985  .debug_str:000000000000082e .LASF239
C:\Users\Jesper\AppData\Local\Temp\cc9lY2VB.s:10979  .debug_str:0000000000000818 .LASF240
C:\Users\Jesper\AppData\Local\Temp\cc9lY2VB.s:11019  .debug_str:00000000000008c2 .LASF241
C:\Users\Jesper\AppData\Local\Temp\cc9lY2VB.s:11559  .debug_str:0000000000001425 .LASF242
C:\Users\Jesper\AppData\Local\Temp\cc9lY2VB.s:10771  .debug_str:0000000000000372 .LASF243
C:\Users\Jesper\AppData\Local\Temp\cc9lY2VB.s:11549  .debug_str:00000000000013e5 .LASF244
C:\Users\Jesper\AppData\Local\Temp\cc9lY2VB.s:11337  .debug_str:0000000000000fb3 .LASF245
C:\Users\Jesper\AppData\Local\Temp\cc9lY2VB.s:10861  .debug_str:000000000000056b .LASF246
C:\Users\Jesper\AppData\Local\Temp\cc9lY2VB.s:11267  .debug_str:0000000000000e5e .LASF247
C:\Users\Jesper\AppData\Local\Temp\cc9lY2VB.s:11511  .debug_str:000000000000131b .LASF248
C:\Users\Jesper\AppData\Local\Temp\cc9lY2VB.s:11383  .debug_str:0000000000001088 .LASF249
C:\Users\Jesper\AppData\Local\Temp\cc9lY2VB.s:11547  .debug_str:00000000000013db .LASF250
C:\Users\Jesper\AppData\Local\Temp\cc9lY2VB.s:11573  .debug_str:0000000000001474 .LASF251
C:\Users\Jesper\AppData\Local\Temp\cc9lY2VB.s:11035  .debug_str:0000000000000921 .LASF252
C:\Users\Jesper\AppData\Local\Temp\cc9lY2VB.s:10977  .debug_str:000000000000080f .LASF253
C:\Users\Jesper\AppData\Local\Temp\cc9lY2VB.s:11531  .debug_str:000000000000137e .LASF254
C:\Users\Jesper\AppData\Local\Temp\cc9lY2VB.s:11397  .debug_str:00000000000010c9 .LASF255
C:\Users\Jesper\AppData\Local\Temp\cc9lY2VB.s:11335  .debug_str:0000000000000fac .LASF256
C:\Users\Jesper\AppData\Local\Temp\cc9lY2VB.s:10835  .debug_str:00000000000004da .LASF257
C:\Users\Jesper\AppData\Local\Temp\cc9lY2VB.s:11203  .debug_str:0000000000000cf9 .LASF258
C:\Users\Jesper\AppData\Local\Temp\cc9lY2VB.s:10671  .debug_str:00000000000000bc .LASF259
C:\Users\Jesper\AppData\Local\Temp\cc9lY2VB.s:10905  .debug_str:000000000000066c .LASF260
C:\Users\Jesper\AppData\Local\Temp\cc9lY2VB.s:11315  .debug_str:0000000000000f4e .LASF261
C:\Users\Jesper\AppData\Local\Temp\cc9lY2VB.s:10731  .debug_str:000000000000020d .LASF262
C:\Users\Jesper\AppData\Local\Temp\cc9lY2VB.s:10927  .debug_str:00000000000006ea .LASF263
C:\Users\Jesper\AppData\Local\Temp\cc9lY2VB.s:11087  .debug_str:0000000000000a30 .LASF264
C:\Users\Jesper\AppData\Local\Temp\cc9lY2VB.s:10953  .debug_str:000000000000077b .LASF265
C:\Users\Jesper\AppData\Local\Temp\cc9lY2VB.s:11581  .debug_str:0000000000001491 .LASF266
C:\Users\Jesper\AppData\Local\Temp\cc9lY2VB.s:10705  .debug_str:0000000000000189 .LASF267
C:\Users\Jesper\AppData\Local\Temp\cc9lY2VB.s:10967  .debug_str:00000000000007d7 .LASF268
C:\Users\Jesper\AppData\Local\Temp\cc9lY2VB.s:10969  .debug_str:00000000000007e2 .LASF269
C:\Users\Jesper\AppData\Local\Temp\cc9lY2VB.s:11519  .debug_str:0000000000001347 .LASF270
C:\Users\Jesper\AppData\Local\Temp\cc9lY2VB.s:11317  .debug_str:0000000000000f53 .LASF271
C:\Users\Jesper\AppData\Local\Temp\cc9lY2VB.s:10807  .debug_str:0000000000000435 .LASF272
C:\Users\Jesper\AppData\Local\Temp\cc9lY2VB.s:10667  .debug_str:00000000000000ab .LASF273
C:\Users\Jesper\AppData\Local\Temp\cc9lY2VB.s:11333  .debug_str:0000000000000fa4 .LASF274
C:\Users\Jesper\AppData\Local\Temp\cc9lY2VB.s:10809  .debug_str:000000000000043d .LASF275
C:\Users\Jesper\AppData\Local\Temp\cc9lY2VB.s:11271  .debug_str:0000000000000e70 .LASF276
C:\Users\Jesper\AppData\Local\Temp\cc9lY2VB.s:11023  .debug_str:00000000000008d5 .LASF277
GAS LISTING C:\Users\Jesper\AppData\Local\Temp\cc9lY2VB.s 			page 84


C:\Users\Jesper\AppData\Local\Temp\cc9lY2VB.s:11589  .debug_str:00000000000014bd .LASF278
C:\Users\Jesper\AppData\Local\Temp\cc9lY2VB.s:11439  .debug_str:000000000000119f .LASF279
C:\Users\Jesper\AppData\Local\Temp\cc9lY2VB.s:11451  .debug_str:00000000000011d3 .LASF280
C:\Users\Jesper\AppData\Local\Temp\cc9lY2VB.s:10919  .debug_str:00000000000006c1 .LASF281
C:\Users\Jesper\AppData\Local\Temp\cc9lY2VB.s:10695  .debug_str:0000000000000147 .LASF282
C:\Users\Jesper\AppData\Local\Temp\cc9lY2VB.s:10839  .debug_str:00000000000004ea .LASF283
C:\Users\Jesper\AppData\Local\Temp\cc9lY2VB.s:10891  .debug_str:0000000000000623 .LASF284
C:\Users\Jesper\AppData\Local\Temp\cc9lY2VB.s:11247  .debug_str:0000000000000df1 .LASF285
C:\Users\Jesper\AppData\Local\Temp\cc9lY2VB.s:11079  .debug_str:0000000000000a0f .LASF286
C:\Users\Jesper\AppData\Local\Temp\cc9lY2VB.s:10849  .debug_str:0000000000000527 .LASF287
C:\Users\Jesper\AppData\Local\Temp\cc9lY2VB.s:10983  .debug_str:0000000000000825 .LASF288
C:\Users\Jesper\AppData\Local\Temp\cc9lY2VB.s:11153  .debug_str:0000000000000be3 .LASF289
C:\Users\Jesper\AppData\Local\Temp\cc9lY2VB.s:11429  .debug_str:0000000000001169 .LASF290
C:\Users\Jesper\AppData\Local\Temp\cc9lY2VB.s:10825  .debug_str:000000000000048a .LASF291
C:\Users\Jesper\AppData\Local\Temp\cc9lY2VB.s:10995  .debug_str:0000000000000858 .LASF292
C:\Users\Jesper\AppData\Local\Temp\cc9lY2VB.s:10817  .debug_str:000000000000046a .LASF293
C:\Users\Jesper\AppData\Local\Temp\cc9lY2VB.s:11407  .debug_str:00000000000010fa .LASF294
C:\Users\Jesper\AppData\Local\Temp\cc9lY2VB.s:11401  .debug_str:00000000000010e1 .LASF295
C:\Users\Jesper\AppData\Local\Temp\cc9lY2VB.s:11069  .debug_str:00000000000009e1 .LASF296
C:\Users\Jesper\AppData\Local\Temp\cc9lY2VB.s:10773  .debug_str:000000000000037c .LASF297
C:\Users\Jesper\AppData\Local\Temp\cc9lY2VB.s:11277  .debug_str:0000000000000e8a .LASF298
C:\Users\Jesper\AppData\Local\Temp\cc9lY2VB.s:11395  .debug_str:00000000000010bf .LASF299
C:\Users\Jesper\AppData\Local\Temp\cc9lY2VB.s:11009  .debug_str:000000000000088e .LASF300
C:\Users\Jesper\AppData\Local\Temp\cc9lY2VB.s:10889  .debug_str:0000000000000615 .LASF301
C:\Users\Jesper\AppData\Local\Temp\cc9lY2VB.s:11225  .debug_str:0000000000000d63 .LASF302
C:\Users\Jesper\AppData\Local\Temp\cc9lY2VB.s:10903  .debug_str:0000000000000665 .LASF303
C:\Users\Jesper\AppData\Local\Temp\cc9lY2VB.s:11307  .debug_str:0000000000000f2a .LASF304
C:\Users\Jesper\AppData\Local\Temp\cc9lY2VB.s:11011  .debug_str:0000000000000897 .LASF305
C:\Users\Jesper\AppData\Local\Temp\cc9lY2VB.s:11097  .debug_str:0000000000000a5c .LASF306
C:\Users\Jesper\AppData\Local\Temp\cc9lY2VB.s:10787  .debug_str:00000000000003c7 .LASF307
C:\Users\Jesper\AppData\Local\Temp\cc9lY2VB.s:11295  .debug_str:0000000000000ee6 .LASF308
C:\Users\Jesper\AppData\Local\Temp\cc9lY2VB.s:11029  .debug_str:00000000000008f9 .LASF309
C:\Users\Jesper\AppData\Local\Temp\cc9lY2VB.s:10963  .debug_str:00000000000007b2 .LASF310
C:\Users\Jesper\AppData\Local\Temp\cc9lY2VB.s:10923  .debug_str:00000000000006d3 .LASF311
C:\Users\Jesper\AppData\Local\Temp\cc9lY2VB.s:10921  .debug_str:00000000000006cc .LASF312
C:\Users\Jesper\AppData\Local\Temp\cc9lY2VB.s:10767  .debug_str:0000000000000362 .LASF313
C:\Users\Jesper\AppData\Local\Temp\cc9lY2VB.s:11403  .debug_str:00000000000010e6 .LASF314
C:\Users\Jesper\AppData\Local\Temp\cc9lY2VB.s:10689  .debug_str:0000000000000122 .LASF315
C:\Users\Jesper\AppData\Local\Temp\cc9lY2VB.s:10805  .debug_str:0000000000000425 .LASF316
C:\Users\Jesper\AppData\Local\Temp\cc9lY2VB.s:11047  .debug_str:0000000000000966 .LASF317
C:\Users\Jesper\AppData\Local\Temp\cc9lY2VB.s:11349  .debug_str:0000000000000fee .LASF318
C:\Users\Jesper\AppData\Local\Temp\cc9lY2VB.s:11341  .debug_str:0000000000000fbe .LASF319
C:\Users\Jesper\AppData\Local\Temp\cc9lY2VB.s:10885  .debug_str:00000000000005fd .LASF320
C:\Users\Jesper\AppData\Local\Temp\cc9lY2VB.s:11161  .debug_str:0000000000000c07 .LASF321
C:\Users\Jesper\AppData\Local\Temp\cc9lY2VB.s:10639  .debug_str:0000000000000000 .LASF322
C:\Users\Jesper\AppData\Local\Temp\cc9lY2VB.s:11545  .debug_str:00000000000013cd .LASF323
C:\Users\Jesper\AppData\Local\Temp\cc9lY2VB.s:11597  .debug_str:00000000000014e2 .LASF324
C:\Users\Jesper\AppData\Local\Temp\cc9lY2VB.s:11141  .debug_str:0000000000000b9b .LASF325
C:\Users\Jesper\AppData\Local\Temp\cc9lY2VB.s:10945  .debug_str:0000000000000757 .LASF326
C:\Users\Jesper\AppData\Local\Temp\cc9lY2VB.s:11259  .debug_str:0000000000000e34 .LASF327
C:\Users\Jesper\AppData\Local\Temp\cc9lY2VB.s:11189  .debug_str:0000000000000ca1 .LASF328
C:\Users\Jesper\AppData\Local\Temp\cc9lY2VB.s:11197  .debug_str:0000000000000cce .LASF329
C:\Users\Jesper\AppData\Local\Temp\cc9lY2VB.s:11221  .debug_str:0000000000000d49 .LASF330
C:\Users\Jesper\AppData\Local\Temp\cc9lY2VB.s:11103  .debug_str:0000000000000a77 .LASF331
C:\Users\Jesper\AppData\Local\Temp\cc9lY2VB.s:11517  .debug_str:000000000000133d .LASF332
C:\Users\Jesper\AppData\Local\Temp\cc9lY2VB.s:11075  .debug_str:00000000000009f3 .LASF333
C:\Users\Jesper\AppData\Local\Temp\cc9lY2VB.s:10879  .debug_str:00000000000005e1 .LASF334
GAS LISTING C:\Users\Jesper\AppData\Local\Temp\cc9lY2VB.s 			page 85


C:\Users\Jesper\AppData\Local\Temp\cc9lY2VB.s:11417  .debug_str:0000000000001125 .LASF335
C:\Users\Jesper\AppData\Local\Temp\cc9lY2VB.s:10643  .debug_str:0000000000000015 .LASF336
C:\Users\Jesper\AppData\Local\Temp\cc9lY2VB.s:11479  .debug_str:0000000000001250 .LASF337
C:\Users\Jesper\AppData\Local\Temp\cc9lY2VB.s:11195  .debug_str:0000000000000cbe .LASF338
C:\Users\Jesper\AppData\Local\Temp\cc9lY2VB.s:11387  .debug_str:0000000000001096 .LASF339
C:\Users\Jesper\AppData\Local\Temp\cc9lY2VB.s:10851  .debug_str:000000000000052f .LASF340
C:\Users\Jesper\AppData\Local\Temp\cc9lY2VB.s:11363  .debug_str:0000000000001035 .LASF341
C:\Users\Jesper\AppData\Local\Temp\cc9lY2VB.s:10651  .debug_str:0000000000000049 .LASF342
C:\Users\Jesper\AppData\Local\Temp\cc9lY2VB.s:11525  .debug_str:0000000000001365 .LASF343
C:\Users\Jesper\AppData\Local\Temp\cc9lY2VB.s:10659  .debug_str:000000000000007f .LASF344
C:\Users\Jesper\AppData\Local\Temp\cc9lY2VB.s:11149  .debug_str:0000000000000bc5 .LASF345
C:\Users\Jesper\AppData\Local\Temp\cc9lY2VB.s:10823  .debug_str:0000000000000480 .LASF346
C:\Users\Jesper\AppData\Local\Temp\cc9lY2VB.s:11037  .debug_str:0000000000000928 .LASF347
C:\Users\Jesper\AppData\Local\Temp\cc9lY2VB.s:11533  .debug_str:0000000000001386 .LASF348
C:\Users\Jesper\AppData\Local\Temp\cc9lY2VB.s:11081  .debug_str:0000000000000a18 .LASF349
C:\Users\Jesper\AppData\Local\Temp\cc9lY2VB.s:11421  .debug_str:0000000000001143 .LASF350
C:\Users\Jesper\AppData\Local\Temp\cc9lY2VB.s:10833  .debug_str:00000000000004d3 .LASF351
C:\Users\Jesper\AppData\Local\Temp\cc9lY2VB.s:10647  .debug_str:0000000000000034 .LASF352
C:\Users\Jesper\AppData\Local\Temp\cc9lY2VB.s:10987  .debug_str:0000000000000839 .LASF353
C:\Users\Jesper\AppData\Local\Temp\cc9lY2VB.s:11595  .debug_str:00000000000014d7 .LASF354
C:\Users\Jesper\AppData\Local\Temp\cc9lY2VB.s:11453  .debug_str:00000000000011db .LASF355
C:\Users\Jesper\AppData\Local\Temp\cc9lY2VB.s:11249  .debug_str:0000000000000dfc .LASF356
C:\Users\Jesper\AppData\Local\Temp\cc9lY2VB.s:11393  .debug_str:00000000000010b5 .LASF357
C:\Users\Jesper\AppData\Local\Temp\cc9lY2VB.s:11357  .debug_str:0000000000001012 .LASF358
C:\Users\Jesper\AppData\Local\Temp\cc9lY2VB.s:11183  .debug_str:0000000000000c84 .LASF359
C:\Users\Jesper\AppData\Local\Temp\cc9lY2VB.s:11411  .debug_str:0000000000001109 .LASF360
C:\Users\Jesper\AppData\Local\Temp\cc9lY2VB.s:10801  .debug_str:0000000000000411 .LASF361
C:\Users\Jesper\AppData\Local\Temp\cc9lY2VB.s:11265  .debug_str:0000000000000e55 .LASF362
C:\Users\Jesper\AppData\Local\Temp\cc9lY2VB.s:10665  .debug_str:00000000000000a3 .LASF363
C:\Users\Jesper\AppData\Local\Temp\cc9lY2VB.s:11135  .debug_str:0000000000000b1b .LASF364
C:\Users\Jesper\AppData\Local\Temp\cc9lY2VB.s:11413  .debug_str:0000000000001112 .LASF365
C:\Users\Jesper\AppData\Local\Temp\cc9lY2VB.s:11503  .debug_str:00000000000012ee .LASF366
C:\Users\Jesper\AppData\Local\Temp\cc9lY2VB.s:10973  .debug_str:00000000000007f7 .LASF367
C:\Users\Jesper\AppData\Local\Temp\cc9lY2VB.s:10895  .debug_str:0000000000000635 .LASF368
C:\Users\Jesper\AppData\Local\Temp\cc9lY2VB.s:11147  .debug_str:0000000000000bb8 .LASF369
C:\Users\Jesper\AppData\Local\Temp\cc9lY2VB.s:11233  .debug_str:0000000000000d8a .LASF370
C:\Users\Jesper\AppData\Local\Temp\cc9lY2VB.s:11105  .debug_str:0000000000000a84 .LASF371
C:\Users\Jesper\AppData\Local\Temp\cc9lY2VB.s:10641  .debug_str:0000000000000009 .LASF372
C:\Users\Jesper\AppData\Local\Temp\cc9lY2VB.s:11409  .debug_str:0000000000001101 .LASF373
C:\Users\Jesper\AppData\Local\Temp\cc9lY2VB.s:10673  .debug_str:00000000000000c3 .LASF374
C:\Users\Jesper\AppData\Local\Temp\cc9lY2VB.s:11509  .debug_str:0000000000001312 .LASF375
C:\Users\Jesper\AppData\Local\Temp\cc9lY2VB.s:10939  .debug_str:0000000000000735 .LASF376
C:\Users\Jesper\AppData\Local\Temp\cc9lY2VB.s:11059  .debug_str:00000000000009aa .LASF377
C:\Users\Jesper\AppData\Local\Temp\cc9lY2VB.s:10751  .debug_str:0000000000000298 .LASF378
C:\Users\Jesper\AppData\Local\Temp\cc9lY2VB.s:11191  .debug_str:0000000000000cb0 .LASF379
C:\Users\Jesper\AppData\Local\Temp\cc9lY2VB.s:11521  .debug_str:000000000000134f .LASF380
C:\Users\Jesper\AppData\Local\Temp\cc9lY2VB.s:10917  .debug_str:00000000000006b6 .LASF381
C:\Users\Jesper\AppData\Local\Temp\cc9lY2VB.s:10745  .debug_str:0000000000000282 .LASF382
C:\Users\Jesper\AppData\Local\Temp\cc9lY2VB.s:11013  .debug_str:000000000000089f .LASF383
C:\Users\Jesper\AppData\Local\Temp\cc9lY2VB.s:11593  .debug_str:00000000000014cf .LASF384
C:\Users\Jesper\AppData\Local\Temp\cc9lY2VB.s:11239  .debug_str:0000000000000da8 .LASF385
C:\Users\Jesper\AppData\Local\Temp\cc9lY2VB.s:11377  .debug_str:0000000000001076 .LASF386
C:\Users\Jesper\AppData\Local\Temp\cc9lY2VB.s:11367  .debug_str:0000000000001045 .LASF387
C:\Users\Jesper\AppData\Local\Temp\cc9lY2VB.s:11309  .debug_str:0000000000000f31 .LASF388
C:\Users\Jesper\AppData\Local\Temp\cc9lY2VB.s:10845  .debug_str:0000000000000517 .LASF389
C:\Users\Jesper\AppData\Local\Temp\cc9lY2VB.s:11389  .debug_str:00000000000010a9 .LASF390
C:\Users\Jesper\AppData\Local\Temp\cc9lY2VB.s:10975  .debug_str:0000000000000808 .LASF391
GAS LISTING C:\Users\Jesper\AppData\Local\Temp\cc9lY2VB.s 			page 86


C:\Users\Jesper\AppData\Local\Temp\cc9lY2VB.s:10789  .debug_str:00000000000003d8 .LASF392
C:\Users\Jesper\AppData\Local\Temp\cc9lY2VB.s:10779  .debug_str:000000000000039f .LASF393
C:\Users\Jesper\AppData\Local\Temp\cc9lY2VB.s:10915  .debug_str:00000000000006ad .LASF394
C:\Users\Jesper\AppData\Local\Temp\cc9lY2VB.s:10943  .debug_str:0000000000000744 .LASF395
C:\Users\Jesper\AppData\Local\Temp\cc9lY2VB.s:11179  .debug_str:0000000000000c63 .LASF396
C:\Users\Jesper\AppData\Local\Temp\cc9lY2VB.s:11359  .debug_str:000000000000101b .LASF397
C:\Users\Jesper\AppData\Local\Temp\cc9lY2VB.s:11017  .debug_str:00000000000008b4 .LASF398
C:\Users\Jesper\AppData\Local\Temp\cc9lY2VB.s:10747  .debug_str:000000000000028b .LASF399
C:\Users\Jesper\AppData\Local\Temp\cc9lY2VB.s:11173  .debug_str:0000000000000c49 .LASF400
C:\Users\Jesper\AppData\Local\Temp\cc9lY2VB.s:11177  .debug_str:0000000000000c58 .LASF401
C:\Users\Jesper\AppData\Local\Temp\cc9lY2VB.s:11305  .debug_str:0000000000000f1c .LASF402
C:\Users\Jesper\AppData\Local\Temp\cc9lY2VB.s:11345  .debug_str:0000000000000fd5 .LASF403
C:\Users\Jesper\AppData\Local\Temp\cc9lY2VB.s:11353  .debug_str:0000000000001000 .LASF404
C:\Users\Jesper\AppData\Local\Temp\cc9lY2VB.s:11365  .debug_str:0000000000001040 .LASF405
C:\Users\Jesper\AppData\Local\Temp\cc9lY2VB.s:11167  .debug_str:0000000000000c21 .LASF406
C:\Users\Jesper\AppData\Local\Temp\cc9lY2VB.s:11209  .debug_str:0000000000000d14 .LASF407
C:\Users\Jesper\AppData\Local\Temp\cc9lY2VB.s:11437  .debug_str:0000000000001192 .LASF408
C:\Users\Jesper\AppData\Local\Temp\cc9lY2VB.s:10781  .debug_str:00000000000003a7 .LASF409
C:\Users\Jesper\AppData\Local\Temp\cc9lY2VB.s:10913  .debug_str:000000000000069a .LASF410
C:\Users\Jesper\AppData\Local\Temp\cc9lY2VB.s:11571  .debug_str:000000000000146d .LASF411
C:\Users\Jesper\AppData\Local\Temp\cc9lY2VB.s:11483  .debug_str:0000000000001265 .LASF412
C:\Users\Jesper\AppData\Local\Temp\cc9lY2VB.s:10873  .debug_str:00000000000005c0 .LASF413
C:\Users\Jesper\AppData\Local\Temp\cc9lY2VB.s:10907  .debug_str:0000000000000671 .LASF414
C:\Users\Jesper\AppData\Local\Temp\cc9lY2VB.s:10733  .debug_str:0000000000000213 .LASF415
C:\Users\Jesper\AppData\Local\Temp\cc9lY2VB.s:11243  .debug_str:0000000000000dc1 .LASF416
C:\Users\Jesper\AppData\Local\Temp\cc9lY2VB.s:11489  .debug_str:00000000000012a5 .LASF417
C:\Users\Jesper\AppData\Local\Temp\cc9lY2VB.s:10957  .debug_str:0000000000000790 .LASF418
C:\Users\Jesper\AppData\Local\Temp\cc9lY2VB.s:10871  .debug_str:000000000000059b .LASF419
C:\Users\Jesper\AppData\Local\Temp\cc9lY2VB.s:10829  .debug_str:00000000000004ad .LASF420
C:\Users\Jesper\AppData\Local\Temp\cc9lY2VB.s:11461  .debug_str:00000000000011fd .LASF421
C:\Users\Jesper\AppData\Local\Temp\cc9lY2VB.s:10843  .debug_str:00000000000004fb .LASF422
C:\Users\Jesper\AppData\Local\Temp\cc9lY2VB.s:11027  .debug_str:00000000000008e8 .LASF423
C:\Users\Jesper\AppData\Local\Temp\cc9lY2VB.s:10763  .debug_str:0000000000000346 .LASF424
C:\Users\Jesper\AppData\Local\Temp\cc9lY2VB.s:10703  .debug_str:000000000000016f .LASF425
C:\Users\Jesper\AppData\Local\Temp\cc9lY2VB.s:10935  .debug_str:0000000000000711 .LASF426
C:\Users\Jesper\AppData\Local\Temp\cc9lY2VB.s:11169  .debug_str:0000000000000c29 .LASF427
C:\Users\Jesper\AppData\Local\Temp\cc9lY2VB.s:10655  .debug_str:000000000000005d .LASF428
C:\Users\Jesper\AppData\Local\Temp\cc9lY2VB.s:10679  .debug_str:00000000000000d7 .LASF429
C:\Users\Jesper\AppData\Local\Temp\cc9lY2VB.s:11475  .debug_str:000000000000123a .LASF430
C:\Users\Jesper\AppData\Local\Temp\cc9lY2VB.s:11487  .debug_str:0000000000001293 .LASF431
C:\Users\Jesper\AppData\Local\Temp\cc9lY2VB.s:10827  .debug_str:0000000000000494 .LASF432
C:\Users\Jesper\AppData\Local\Temp\cc9lY2VB.s:10685  .debug_str:000000000000010e .LASF433
C:\Users\Jesper\AppData\Local\Temp\cc9lY2VB.s:11155  .debug_str:0000000000000beb .LASF434
C:\Users\Jesper\AppData\Local\Temp\cc9lY2VB.s:10737  .debug_str:0000000000000252 .LASF435
C:\Users\Jesper\AppData\Local\Temp\cc9lY2VB.s:11033  .debug_str:0000000000000912 .LASF436
C:\Users\Jesper\AppData\Local\Temp\cc9lY2VB.s:11543  .debug_str:00000000000013c1 .LASF437
C:\Users\Jesper\AppData\Local\Temp\cc9lY2VB.s:11441  .debug_str:00000000000011a6 .LASF438
C:\Users\Jesper\AppData\Local\Temp\cc9lY2VB.s:11299  .debug_str:0000000000000ef3 .LASF439
C:\Users\Jesper\AppData\Local\Temp\cc9lY2VB.s:10837  .debug_str:00000000000004e5 .LASF477
C:\Users\Jesper\AppData\Local\Temp\cc9lY2VB.s:284    .text.startup.main:0000000000000000 .LFB33
C:\Users\Jesper\AppData\Local\Temp\cc9lY2VB.s:588    .text.startup.main:000000000000021a .LFE33
C:\Users\Jesper\AppData\Local\Temp\cc9lY2VB.s:10291  .debug_loc:0000000000000000 .LLST11
C:\Users\Jesper\AppData\Local\Temp\cc9lY2VB.s:11083  .debug_str:0000000000000a23 .LASF440
C:\Users\Jesper\AppData\Local\Temp\cc9lY2VB.s:10314  .debug_loc:000000000000003a .LLST12
C:\Users\Jesper\AppData\Local\Temp\cc9lY2VB.s:11095  .debug_str:0000000000000a57 .LASF441
C:\Users\Jesper\AppData\Local\Temp\cc9lY2VB.s:10328  .debug_loc:000000000000005b .LLST13
C:\Users\Jesper\AppData\Local\Temp\cc9lY2VB.s:11175  .debug_str:0000000000000c52 .LASF444
GAS LISTING C:\Users\Jesper\AppData\Local\Temp\cc9lY2VB.s 			page 87


C:\Users\Jesper\AppData\Local\Temp\cc9lY2VB.s:11039  .debug_str:0000000000000934 .LASF442
C:\Users\Jesper\AppData\Local\Temp\cc9lY2VB.s:10645  .debug_str:0000000000000027 .LASF443
C:\Users\Jesper\AppData\Local\Temp\cc9lY2VB.s:11591  .debug_str:00000000000014c8 .LASF445
C:\Users\Jesper\AppData\Local\Temp\cc9lY2VB.s:10342  .debug_loc:000000000000007c .LLST14
C:\Users\Jesper\AppData\Local\Temp\cc9lY2VB.s:11485  .debug_str:000000000000128b .LASF446
C:\Users\Jesper\AppData\Local\Temp\cc9lY2VB.s:10353  .debug_loc:000000000000009a .LLST15
C:\Users\Jesper\AppData\Local\Temp\cc9lY2VB.s:10893  .debug_str:000000000000062f .LASF447
C:\Users\Jesper\AppData\Local\Temp\cc9lY2VB.s:10360  .debug_loc:00000000000000ad .LLST16
C:\Users\Jesper\AppData\Local\Temp\cc9lY2VB.s:10875  .debug_str:00000000000005cf .LASF448
C:\Users\Jesper\AppData\Local\Temp\cc9lY2VB.s:11193  .debug_str:0000000000000cb9 .LASF449
C:\Users\Jesper\AppData\Local\Temp\cc9lY2VB.s:10371  .debug_loc:00000000000000cb .LLST17
C:\Users\Jesper\AppData\Local\Temp\cc9lY2VB.s:10390  .debug_loc:00000000000000ff .LLST18
C:\Users\Jesper\AppData\Local\Temp\cc9lY2VB.s:375    .text.startup.main:000000000000008a .LVL38
C:\Users\Jesper\AppData\Local\Temp\cc9lY2VB.s:379    .text.startup.main:0000000000000094 .LVL39
C:\Users\Jesper\AppData\Local\Temp\cc9lY2VB.s:389    .text.startup.main:00000000000000a8 .LVL40
C:\Users\Jesper\AppData\Local\Temp\cc9lY2VB.s:398    .text.startup.main:00000000000000b4 .LVL42
C:\Users\Jesper\AppData\Local\Temp\cc9lY2VB.s:316    .text.startup.main:000000000000001c .LVL31
C:\Users\Jesper\AppData\Local\Temp\cc9lY2VB.s:320    .text.startup.main:0000000000000026 .LVL32
C:\Users\Jesper\AppData\Local\Temp\cc9lY2VB.s:325    .text.startup.main:000000000000002e .LVL33
C:\Users\Jesper\AppData\Local\Temp\cc9lY2VB.s:332    .text.startup.main:000000000000003a .LVL34
C:\Users\Jesper\AppData\Local\Temp\cc9lY2VB.s:339    .text.startup.main:000000000000004e .LVL35
C:\Users\Jesper\AppData\Local\Temp\cc9lY2VB.s:348    .text.startup.main:000000000000005c .LVL36
C:\Users\Jesper\AppData\Local\Temp\cc9lY2VB.s:409    .text.startup.main:00000000000000c8 .LVL43
C:\Users\Jesper\AppData\Local\Temp\cc9lY2VB.s:416    .text.startup.main:00000000000000d8 .LVL44
C:\Users\Jesper\AppData\Local\Temp\cc9lY2VB.s:424    .text.startup.main:00000000000000e8 .LVL46
C:\Users\Jesper\AppData\Local\Temp\cc9lY2VB.s:434    .text.startup.main:0000000000000102 .LVL47
C:\Users\Jesper\AppData\Local\Temp\cc9lY2VB.s:444    .text.startup.main:0000000000000112 .LVL50
C:\Users\Jesper\AppData\Local\Temp\cc9lY2VB.s:448    .text.startup.main:000000000000011c .LVL51
C:\Users\Jesper\AppData\Local\Temp\cc9lY2VB.s:484    .text.startup.main:0000000000000140 .LVL52
C:\Users\Jesper\AppData\Local\Temp\cc9lY2VB.s:496    .text.startup.main:0000000000000152 .LVL55
C:\Users\Jesper\AppData\Local\Temp\cc9lY2VB.s:499    .text.startup.main:000000000000015a .LVL56
C:\Users\Jesper\AppData\Local\Temp\cc9lY2VB.s:512    .text.startup.main:000000000000016a .LVL59
C:\Users\Jesper\AppData\Local\Temp\cc9lY2VB.s:517    .text.startup.main:0000000000000174 .LVL61
C:\Users\Jesper\AppData\Local\Temp\cc9lY2VB.s:549    .text.startup.main:00000000000001d4 .LVL71
C:\Users\Jesper\AppData\Local\Temp\cc9lY2VB.s:553    .text.startup.main:00000000000001de .LVL72
C:\Users\Jesper\AppData\Local\Temp\cc9lY2VB.s:557    .text.startup.main:00000000000001e6 .LVL73
C:\Users\Jesper\AppData\Local\Temp\cc9lY2VB.s:565    .text.startup.main:00000000000001f2 .LVL74
C:\Users\Jesper\AppData\Local\Temp\cc9lY2VB.s:570    .text.startup.main:00000000000001fc .LVL75
C:\Users\Jesper\AppData\Local\Temp\cc9lY2VB.s:575    .text.startup.main:0000000000000206 .LVL76
C:\Users\Jesper\AppData\Local\Temp\cc9lY2VB.s:585    .text.startup.main:0000000000000218 .LVL77
C:\Users\Jesper\AppData\Local\Temp\cc9lY2VB.s:11415  .debug_str:000000000000111c .LASF450
C:\Users\Jesper\AppData\Local\Temp\cc9lY2VB.s:262    .text.ledOnOff:0000000000000000 .LFB32
C:\Users\Jesper\AppData\Local\Temp\cc9lY2VB.s:275    .text.ledOnOff:0000000000000014 .LFE32
C:\Users\Jesper\AppData\Local\Temp\cc9lY2VB.s:10412  .debug_loc:0000000000000136 .LLST10
C:\Users\Jesper\AppData\Local\Temp\cc9lY2VB.s:273    .text.ledOnOff:0000000000000014 .LVL29
C:\Users\Jesper\AppData\Local\Temp\cc9lY2VB.s:11301  .debug_str:0000000000000efd .LASF451
C:\Users\Jesper\AppData\Local\Temp\cc9lY2VB.s:219    .text.ledInit:0000000000000000 .LFB31
C:\Users\Jesper\AppData\Local\Temp\cc9lY2VB.s:255    .text.ledInit:000000000000002a .LFE31
C:\Users\Jesper\AppData\Local\Temp\cc9lY2VB.s:10430  .debug_loc:0000000000000162 .LLST9
C:\Users\Jesper\AppData\Local\Temp\cc9lY2VB.s:234    .text.ledInit:0000000000000010 .LVL25
C:\Users\Jesper\AppData\Local\Temp\cc9lY2VB.s:253    .text.ledInit:000000000000002a .LVL26
C:\Users\Jesper\AppData\Local\Temp\cc9lY2VB.s:11245  .debug_str:0000000000000de4 .LASF478
C:\Users\Jesper\AppData\Local\Temp\cc9lY2VB.s:41     .text.parse_output:0000000000000000 .LFB30
C:\Users\Jesper\AppData\Local\Temp\cc9lY2VB.s:212    .text.parse_output:00000000000000fe .LFE30
C:\Users\Jesper\AppData\Local\Temp\cc9lY2VB.s:10448  .debug_loc:000000000000018e .LLST2
C:\Users\Jesper\AppData\Local\Temp\cc9lY2VB.s:10466  .debug_loc:00000000000001bb .LLST3
C:\Users\Jesper\AppData\Local\Temp\cc9lY2VB.s:10480  .debug_loc:00000000000001dc .LLST4
GAS LISTING C:\Users\Jesper\AppData\Local\Temp\cc9lY2VB.s 			page 88


C:\Users\Jesper\AppData\Local\Temp\cc9lY2VB.s:10492  .debug_loc:00000000000001f4 .LLST5
C:\Users\Jesper\AppData\Local\Temp\cc9lY2VB.s:11459  .debug_str:00000000000011f8 .LASF452
C:\Users\Jesper\AppData\Local\Temp\cc9lY2VB.s:10500  .debug_loc:0000000000000208 .LLST6
C:\Users\Jesper\AppData\Local\Temp\cc9lY2VB.s:11449  .debug_str:00000000000011ce .LASF453
C:\Users\Jesper\AppData\Local\Temp\cc9lY2VB.s:10513  .debug_loc:000000000000022b .LLST7
C:\Users\Jesper\AppData\Local\Temp\cc9lY2VB.s:10530  .debug_loc:0000000000000256 .LLST8
C:\Users\Jesper\AppData\Local\Temp\cc9lY2VB.s:132    .text.parse_output:000000000000007a .LVL10
C:\Users\Jesper\AppData\Local\Temp\cc9lY2VB.s:176    .text.parse_output:00000000000000de .LVL20
C:\Users\Jesper\AppData\Local\Temp\cc9lY2VB.s:210    .text.parse_output:00000000000000fe .LVL24
C:\Users\Jesper\AppData\Local\Temp\cc9lY2VB.s:10877  .debug_str:00000000000005d8 .LASF479
C:\Users\Jesper\AppData\Local\Temp\cc9lY2VB.s:15     .text.layer_cb:0000000000000000 .LFB29
C:\Users\Jesper\AppData\Local\Temp\cc9lY2VB.s:30     .text.layer_cb:0000000000000004 .LFE29
C:\Users\Jesper\AppData\Local\Temp\cc9lY2VB.s:10542  .debug_loc:0000000000000275 .LLST0
C:\Users\Jesper\AppData\Local\Temp\cc9lY2VB.s:10949  .debug_str:000000000000076d .LASF454
C:\Users\Jesper\AppData\Local\Temp\cc9lY2VB.s:10556  .debug_loc:0000000000000296 .LLST1
C:\Users\Jesper\AppData\Local\Temp\cc9lY2VB.s:10989  .debug_str:0000000000000841 .LASF455
C:\Users\Jesper\AppData\Local\Temp\cc9lY2VB.s:11579  .debug_str:000000000000148a .LASF456
C:\Users\Jesper\AppData\Local\Temp\cc9lY2VB.s:10753  .debug_str:00000000000002a1 .LASF461
C:\Users\Jesper\AppData\Local\Temp\cc9lY2VB.s:11279  .debug_str:0000000000000e98 .LASF463
C:\Users\Jesper\AppData\Local\Temp\cc9lY2VB.s:10965  .debug_str:00000000000007c2 .LASF457
C:\Users\Jesper\AppData\Local\Temp\cc9lY2VB.s:10853  .debug_str:0000000000000542 .LASF458
C:\Users\Jesper\AppData\Local\Temp\cc9lY2VB.s:11327  .debug_str:0000000000000f79 .LASF459
C:\Users\Jesper\AppData\Local\Temp\cc9lY2VB.s:11031  .debug_str:0000000000000909 .LASF460
C:\Users\Jesper\AppData\Local\Temp\cc9lY2VB.s:11471  .debug_str:000000000000122b .LASF462
C:\Users\Jesper\AppData\Local\Temp\cc9lY2VB.s:10777  .debug_str:000000000000038e .LASF464
C:\Users\Jesper\AppData\Local\Temp\cc9lY2VB.s:11199  .debug_str:0000000000000ce2 .LASF465
C:\Users\Jesper\AppData\Local\Temp\cc9lY2VB.s:11007  .debug_str:0000000000000886 .LASF466
C:\Users\Jesper\AppData\Local\Temp\cc9lY2VB.s:11541  .debug_str:00000000000013b3 .LASF467
C:\Users\Jesper\AppData\Local\Temp\cc9lY2VB.s:11321  .debug_str:0000000000000f63 .LASF468
C:\Users\Jesper\AppData\Local\Temp\cc9lY2VB.s:10999  .debug_str:000000000000086a .LASF469
C:\Users\Jesper\AppData\Local\Temp\cc9lY2VB.s:11065  .debug_str:00000000000009c0 .LASF470
C:\Users\Jesper\AppData\Local\Temp\cc9lY2VB.s:11557  .debug_str:000000000000140d .LASF471
C:\Users\Jesper\AppData\Local\Temp\cc9lY2VB.s:11375  .debug_str:000000000000106c .LASF472
C:\Users\Jesper\AppData\Local\Temp\cc9lY2VB.s:294    .text.startup.main:0000000000000002 .LCFI4
C:\Users\Jesper\AppData\Local\Temp\cc9lY2VB.s:475    .text.startup.main:0000000000000132 .LCFI5
C:\Users\Jesper\AppData\Local\Temp\cc9lY2VB.s:479    .text.startup.main:0000000000000134 .LCFI6
C:\Users\Jesper\AppData\Local\Temp\cc9lY2VB.s:287    .text.startup.main:0000000000000000 .LVL30
C:\Users\Jesper\AppData\Local\Temp\cc9lY2VB.s:505    .text.startup.main:0000000000000160 .LVL57
C:\Users\Jesper\AppData\Local\Temp\cc9lY2VB.s:510    .text.startup.main:0000000000000162 .LVL58
C:\Users\Jesper\AppData\Local\Temp\cc9lY2VB.s:527    .text.startup.main:000000000000018c .LVL65
C:\Users\Jesper\AppData\Local\Temp\cc9lY2VB.s:520    .text.startup.main:0000000000000178 .LVL62
C:\Users\Jesper\AppData\Local\Temp\cc9lY2VB.s:530    .text.startup.main:0000000000000194 .LVL66
C:\Users\Jesper\AppData\Local\Temp\cc9lY2VB.s:436    .text.startup.main:0000000000000104 .LVL48
C:\Users\Jesper\AppData\Local\Temp\cc9lY2VB.s:442    .text.startup.main:000000000000010a .LVL49
C:\Users\Jesper\AppData\Local\Temp\cc9lY2VB.s:486    .text.startup.main:0000000000000142 .LVL53
C:\Users\Jesper\AppData\Local\Temp\cc9lY2VB.s:494    .text.startup.main:000000000000014a .LVL54
C:\Users\Jesper\AppData\Local\Temp\cc9lY2VB.s:514    .text.startup.main:000000000000016c .LVL60
C:\Users\Jesper\AppData\Local\Temp\cc9lY2VB.s:368    .text.startup.main:0000000000000076 .LVL37
C:\Users\Jesper\AppData\Local\Temp\cc9lY2VB.s:395    .text.startup.main:00000000000000ac .LVL41
C:\Users\Jesper\AppData\Local\Temp\cc9lY2VB.s:421    .text.startup.main:00000000000000dc .LVL45
C:\Users\Jesper\AppData\Local\Temp\cc9lY2VB.s:265    .text.ledOnOff:0000000000000000 .LVL27
C:\Users\Jesper\AppData\Local\Temp\cc9lY2VB.s:269    .text.ledOnOff:0000000000000006 .LVL28
C:\Users\Jesper\AppData\Local\Temp\cc9lY2VB.s:225    .text.ledInit:0000000000000002 .LCFI2
C:\Users\Jesper\AppData\Local\Temp\cc9lY2VB.s:249    .text.ledInit:0000000000000022 .LCFI3
C:\Users\Jesper\AppData\Local\Temp\cc9lY2VB.s:55     .text.parse_output:0000000000000002 .LCFI0
C:\Users\Jesper\AppData\Local\Temp\cc9lY2VB.s:206    .text.parse_output:00000000000000f6 .LCFI1
C:\Users\Jesper\AppData\Local\Temp\cc9lY2VB.s:44     .text.parse_output:0000000000000000 .LVL2
GAS LISTING C:\Users\Jesper\AppData\Local\Temp\cc9lY2VB.s 			page 89


C:\Users\Jesper\AppData\Local\Temp\cc9lY2VB.s:103    .text.parse_output:0000000000000034 .LVL4
C:\Users\Jesper\AppData\Local\Temp\cc9lY2VB.s:58     .text.parse_output:0000000000000004 .LVL3
C:\Users\Jesper\AppData\Local\Temp\cc9lY2VB.s:188    .text.parse_output:00000000000000e6 .LVL22
C:\Users\Jesper\AppData\Local\Temp\cc9lY2VB.s:143    .text.parse_output:0000000000000090 .LVL12
C:\Users\Jesper\AppData\Local\Temp\cc9lY2VB.s:146    .text.parse_output:0000000000000092 .LVL13
C:\Users\Jesper\AppData\Local\Temp\cc9lY2VB.s:193    .text.parse_output:00000000000000ea .LVL23
C:\Users\Jesper\AppData\Local\Temp\cc9lY2VB.s:185    .text.parse_output:00000000000000e4 .LVL21
C:\Users\Jesper\AppData\Local\Temp\cc9lY2VB.s:19     .text.layer_cb:0000000000000000 .LVL0
C:\Users\Jesper\AppData\Local\Temp\cc9lY2VB.s:27     .text.layer_cb:0000000000000002 .LVL1
C:\Users\Jesper\AppData\Local\Temp\cc9lY2VB.s:3861   .debug_info:0000000000000000 .Ldebug_info0
C:\Users\Jesper\AppData\Local\Temp\cc9lY2VB.s:50     .text.parse_output:0000000000000000 .LBB2
C:\Users\Jesper\AppData\Local\Temp\cc9lY2VB.s:52     .text.parse_output:0000000000000000 .LBE2
C:\Users\Jesper\AppData\Local\Temp\cc9lY2VB.s:60     .text.parse_output:0000000000000004 .LBB3
C:\Users\Jesper\AppData\Local\Temp\cc9lY2VB.s:64     .text.parse_output:000000000000000c .LBE3
C:\Users\Jesper\AppData\Local\Temp\cc9lY2VB.s:71     .text.parse_output:0000000000000014 .LBB4
C:\Users\Jesper\AppData\Local\Temp\cc9lY2VB.s:74     .text.parse_output:0000000000000018 .LBE4
C:\Users\Jesper\AppData\Local\Temp\cc9lY2VB.s:90     .text.parse_output:0000000000000026 .LBB5
C:\Users\Jesper\AppData\Local\Temp\cc9lY2VB.s:93     .text.parse_output:0000000000000028 .LBE5
C:\Users\Jesper\AppData\Local\Temp\cc9lY2VB.s:98     .text.parse_output:000000000000002e .LBB6
C:\Users\Jesper\AppData\Local\Temp\cc9lY2VB.s:154    .text.parse_output:000000000000009a .LBE6
C:\Users\Jesper\AppData\Local\Temp\cc9lY2VB.s:342    .text.startup.main:0000000000000050 .LBB7
C:\Users\Jesper\AppData\Local\Temp\cc9lY2VB.s:345    .text.startup.main:0000000000000054 .LBE7
C:\Users\Jesper\AppData\Local\Temp\cc9lY2VB.s:352    .text.startup.main:000000000000005c .LBB8
C:\Users\Jesper\AppData\Local\Temp\cc9lY2VB.s:402    .text.startup.main:00000000000000b8 .LBE8

UNDEFINED SYMBOLS
__fixsfsi
__floatsisf
__subsf3
__mulsf3
__gtsf2
printf
fflush
rcu_periph_clock_enable
gpio_init
gpio_bit_write
__floatunsisf
__divsf3
configure_usb_serial
usb_delay_1ms
usb_serial_available
get_time
puts
memcpy
tm_stat
tm_load
tm_preprocess
tm_run
tm_unload
