GAS LISTING C:\Users\Jesper\AppData\Local\Temp\cclZf3Mh.s 			page 1


   1              		.file	"tm_layers.c"
   2              		.option nopic
   3              		.attribute arch, "rv32i2p0_m2p0_a2p0_c2p0"
   4              		.attribute unaligned_access, 0
   5              		.attribute stack_align, 16
   6              		.text
   7              	.Ltext0:
   8              		.cfi_sections	.debug_frame
   9              		.globl	__divsf3
  10              		.globl	__mulsf3
  11              		.globl	__floatsisf
  12              		.globl	__gtsf2
  13              		.globl	__addsf3
  14              		.globl	__fixsfsi
  15              		.section	.text.tml_conv2d_dwconv2d,"ax",@progbits
  16              		.align	1
  17              		.weak	tml_conv2d_dwconv2d
  19              	tml_conv2d_dwconv2d:
  20              	.LFB31:
  21              		.file 1 "lib/tinymaix/src/tm_layers.c"
   1:lib/tinymaix/src/tm_layers.c **** /* Copyright 2022 Sipeed Technology Co., Ltd. All Rights Reserved.
   2:lib/tinymaix/src/tm_layers.c **** Licensed under the Apache License, Version 2.0 (the "License");
   3:lib/tinymaix/src/tm_layers.c **** you may not use this file except in compliance with the License.
   4:lib/tinymaix/src/tm_layers.c **** You may obtain a copy of the License at
   5:lib/tinymaix/src/tm_layers.c ****     http://www.apache.org/licenses/LICENSE-2.0
   6:lib/tinymaix/src/tm_layers.c **** Unless required by applicable law or agreed to in writing, software
   7:lib/tinymaix/src/tm_layers.c **** distributed under the License is distributed on an "AS IS" BASIS,
   8:lib/tinymaix/src/tm_layers.c **** WITHOUT WARRANTIES OR CONDITIONS OF ANY KIND, either express or implied.
   9:lib/tinymaix/src/tm_layers.c **** See the License for the specific language governing permissions and
  10:lib/tinymaix/src/tm_layers.c **** limitations under the License.
  11:lib/tinymaix/src/tm_layers.c **** ==============================================================================*/
  12:lib/tinymaix/src/tm_layers.c **** // It is default O0 implement
  13:lib/tinymaix/src/tm_layers.c **** #include "tinymaix.h"
  14:lib/tinymaix/src/tm_layers.c **** #include "float.h"
  15:lib/tinymaix/src/tm_layers.c **** #include "math.h"
  16:lib/tinymaix/src/tm_layers.c **** 
  17:lib/tinymaix/src/tm_layers.c **** #if TM_OPT_LEVEL == TM_OPT0
  18:lib/tinymaix/src/tm_layers.c **** 
  19:lib/tinymaix/src/tm_layers.c **** #if TM_ARCH==TM_ARCH_CPU
  20:lib/tinymaix/src/tm_layers.c ****     #include "arch_cpu.h"
  21:lib/tinymaix/src/tm_layers.c **** #elif TM_ARCH==TM_ARCH_ARM_SIMD
  22:lib/tinymaix/src/tm_layers.c ****     #include "arch_arm_simd.h"
  23:lib/tinymaix/src/tm_layers.c **** #elif TM_ARCH==TM_ARCH_ARM_NEON
  24:lib/tinymaix/src/tm_layers.c ****     #include "arch_arm_neon.h"
  25:lib/tinymaix/src/tm_layers.c **** #elif TM_ARCH==TM_ARCH_ARM_MVEI
  26:lib/tinymaix/src/tm_layers.c ****     #include "arch_arm_mvei.h"
  27:lib/tinymaix/src/tm_layers.c **** #elif TM_ARCH==TM_ARCH_RV32P
  28:lib/tinymaix/src/tm_layers.c ****     #include "arch_rv32p.h"
  29:lib/tinymaix/src/tm_layers.c **** #elif TM_ARCH==TM_ARCH_RV64V
  30:lib/tinymaix/src/tm_layers.c ****     #include "arch_rv64v.h"
  31:lib/tinymaix/src/tm_layers.c **** #elif TM_ARCH==TM_ARCH_CSKYV2
  32:lib/tinymaix/src/tm_layers.c ****     #include "arch_cskyv2.h"
  33:lib/tinymaix/src/tm_layers.c **** #elif TM_ARCH==TM_ARCH_X86_SSE2
  34:lib/tinymaix/src/tm_layers.c ****     #include "arch_x86_sse2.h"
  35:lib/tinymaix/src/tm_layers.c **** #else
  36:lib/tinymaix/src/tm_layers.c ****     #error "UNSUPPORT ARCH!"
  37:lib/tinymaix/src/tm_layers.c **** #endif
GAS LISTING C:\Users\Jesper\AppData\Local\Temp\cclZf3Mh.s 			page 2


  38:lib/tinymaix/src/tm_layers.c **** 
  39:lib/tinymaix/src/tm_layers.c **** 
  40:lib/tinymaix/src/tm_layers.c **** TM_PERF_REG(t_sbuf);TM_PERF_REG(t_dotp);TM_PERF_REG(t_post); 
  41:lib/tinymaix/src/tm_layers.c **** TM_PERF_REG(t_valid); TM_PERF_REG(t_pad); 
  42:lib/tinymaix/src/tm_layers.c **** TM_PERF_REG(t_conv); TM_PERF_REG(t_pwconv); TM_PERF_REG(t_dwconv); 
  43:lib/tinymaix/src/tm_layers.c **** 
  44:lib/tinymaix/src/tm_layers.c **** /*************************** TML_CONV2D **********************************/
  45:lib/tinymaix/src/tm_layers.c **** TM_STATIC uint32_t k_oft[TM_MAX_KSIZE]; 
  46:lib/tinymaix/src/tm_layers.c **** TM_STATIC mtype_t sbuf[TM_MAX_KCSIZE]; 
  47:lib/tinymaix/src/tm_layers.c **** #if (TM_MDL_TYPE==TM_MDL_FP32) || (TM_MDL_TYPE==TM_MDL_FP16) 
  48:lib/tinymaix/src/tm_layers.c **** #define SUMSCALE NULL
  49:lib/tinymaix/src/tm_layers.c **** #define OUTSCALE outscale
  50:lib/tinymaix/src/tm_layers.c **** 
  51:lib/tinymaix/src/tm_layers.c **** #elif (TM_MDL_TYPE==TM_MDL_INT8) || (TM_MDL_TYPE==TM_MDL_INT16) 
  52:lib/tinymaix/src/tm_layers.c **** 
  53:lib/tinymaix/src/tm_layers.c **** #if TM_FASTSCALE
  54:lib/tinymaix/src/tm_layers.c ****     TM_STATIC int32_t sumscale[TM_MAX_CSIZE];
  55:lib/tinymaix/src/tm_layers.c ****     #define OUTSCALE outscale
  56:lib/tinymaix/src/tm_layers.c **** #else
  57:lib/tinymaix/src/tm_layers.c ****     TM_STATIC float sumscale[TM_MAX_CSIZE];
  58:lib/tinymaix/src/tm_layers.c ****     #define OUTSCALE outscale_inv
  59:lib/tinymaix/src/tm_layers.c **** #endif
  60:lib/tinymaix/src/tm_layers.c **** #define SUMSCALE (sumscale + c)
  61:lib/tinymaix/src/tm_layers.c **** #endif
  62:lib/tinymaix/src/tm_layers.c ****  
  63:lib/tinymaix/src/tm_layers.c **** //for valid or kernel in valid part, use fast method
  64:lib/tinymaix/src/tm_layers.c **** tm_err_t TM_WEAK tml_conv2d_dwconv2d(tm_mat_t* in, tm_mat_t* out, wtype_t* w, btype_t* b, \
  65:lib/tinymaix/src/tm_layers.c ****     int kw, int kh, int sx, int sy, int dx, int dy, int act, \
  66:lib/tinymaix/src/tm_layers.c ****     int pad_top, int pad_bottom, int pad_left, int pad_right, int dmul, \
  67:lib/tinymaix/src/tm_layers.c ****     sctype_t* ws, sctype_t in_s, zptype_t in_zp, sctype_t out_s, zptype_t out_zp) //kernel: (cho, c
  68:lib/tinymaix/src/tm_layers.c **** {   TM_PERF_INIT(t_sbuf);TM_PERF_INIT(t_dotp);TM_PERF_INIT(t_post);
  22              		.loc 1 68 1
  23              		.cfi_startproc
  24              	.LVL0:
  25              		.loc 1 68 25
  26              		.loc 1 68 46
  27              		.loc 1 68 67
  69:lib/tinymaix/src/tm_layers.c ****     TM_PERF_INIT(t_valid);TM_PERF_INIT(t_pad);
  28              		.loc 1 69 26
  29              		.loc 1 69 46
  70:lib/tinymaix/src/tm_layers.c ****     TM_PERF_INIT(t_conv); TM_PERF_INIT(t_pwconv); TM_PERF_INIT(t_dwconv);
  30              		.loc 1 70 25
  31              		.loc 1 70 49
  32              		.loc 1 70 73
  71:lib/tinymaix/src/tm_layers.c ****     int pad_flag = (pad_top != 0 ||pad_bottom != 0 ||pad_left != 0 ||pad_right != 0);
  33              		.loc 1 71 5
  68:lib/tinymaix/src/tm_layers.c ****     TM_PERF_INIT(t_valid);TM_PERF_INIT(t_pad);
  34              		.loc 1 68 1 is_stmt 0
  35 0000 7171     		addi	sp,sp,-176
  36              	.LCFI0:
  37              		.cfi_def_cfa_offset 176
  38 0002 22D5     		sw	s0,168(sp)
  39              		.loc 1 71 68
  40 0004 2E43     		lw	t1,200(sp)
  41              		.cfi_offset 8, -8
  42 0006 1E44     		lw	s0,196(sp)
  43 0008 0E4E     		lw	t3,192(sp)
GAS LISTING C:\Users\Jesper\AppData\Local\Temp\cclZf3Mh.s 			page 3


  68:lib/tinymaix/src/tm_layers.c ****     TM_PERF_INIT(t_valid);TM_PERF_INIT(t_pad);
  44              		.loc 1 68 1
  45 000a 56CB     		sw	s5,148(sp)
  46 000c CA5E     		lw	t4,176(sp)
  47              		.cfi_offset 21, -28
  48 000e FA5A     		lw	s5,188(sp)
  49              		.loc 1 71 68
  50 0010 33636400 		or	t1,s0,t1
  51 0014 3363C301 		or	t1,t1,t3
  68:lib/tinymaix/src/tm_layers.c ****     TM_PERF_INIT(t_valid);TM_PERF_INIT(t_pad);
  52              		.loc 1 68 1
  53 0018 4ECF     		sw	s3,156(sp)
  54 001a 5AC9     		sw	s6,144(sp)
  55 001c 5EC7     		sw	s7,140(sp)
  56 001e 06D7     		sw	ra,172(sp)
  57 0020 26D3     		sw	s1,164(sp)
  58 0022 4AD1     		sw	s2,160(sp)
  59 0024 52CD     		sw	s4,152(sp)
  60 0026 62C5     		sw	s8,136(sp)
  61 0028 66C3     		sw	s9,132(sp)
  62 002a 6AC1     		sw	s10,128(sp)
  63 002c EEDE     		sw	s11,124(sp)
  64              		.cfi_offset 19, -20
  65              		.cfi_offset 22, -32
  66              		.cfi_offset 23, -36
  67              		.cfi_offset 1, -4
  68              		.cfi_offset 9, -12
  69              		.cfi_offset 18, -16
  70              		.cfi_offset 20, -24
  71              		.cfi_offset 24, -40
  72              		.cfi_offset 25, -44
  73              		.cfi_offset 26, -48
  74              		.cfi_offset 27, -52
  72:lib/tinymaix/src/tm_layers.c ****     if(dx!=1 || dy!= 1) return TM_ERR_TODO;
  75              		.loc 1 72 7
  76 002e 054E     		li	t3,1
  68:lib/tinymaix/src/tm_layers.c ****     TM_PERF_INIT(t_valid);TM_PERF_INIT(t_pad);
  77              		.loc 1 68 1
  78 0030 DA5B     		lw	s7,180(sp)
  79 0032 BE49     		lw	s3,204(sp)
  80 0034 4E4B     		lw	s6,208(sp)
  71:lib/tinymaix/src/tm_layers.c ****     int pad_flag = (pad_top != 0 ||pad_bottom != 0 ||pad_left != 0 ||pad_right != 0);
  81              		.loc 1 71 68
  82 0036 33635301 		or	t1,t1,s5
  83              	.LVL1:
  84              		.loc 1 72 5 is_stmt 1
  85              		.loc 1 72 7 is_stmt 0
  86 003a E393CE19 		bne	t4,t3,.L87
  87              		.loc 1 72 32 discriminator 2
  88 003e 1D4E     		li	t3,7
  89              		.loc 1 72 14 discriminator 2
  90 0040 639DDB4F 		bne	s7,t4,.L1
  73:lib/tinymaix/src/tm_layers.c ****     if(act >= TM_ACT_MAXCNT) return TM_ERR_UNSUPPORT;
  91              		.loc 1 73 5 is_stmt 1
  92              		.loc 1 73 7 is_stmt 0
  93 0044 6A54     		lw	s0,184(sp)
  94 0046 954E     		li	t4,5
GAS LISTING C:\Users\Jesper\AppData\Local\Temp\cclZf3Mh.s 			page 4


  95              		.loc 1 73 37
  96 0048 0D4E     		li	t3,3
  97              		.loc 1 73 7
  98 004a 63C88E4E 		bgt	s0,t4,.L1
  74:lib/tinymaix/src/tm_layers.c ****     int maxk = kw*kh;
  99              		.loc 1 74 5 is_stmt 1
 100              		.loc 1 74 9 is_stmt 0
 101 004e B304F702 		mul	s1,a4,a5
 102              	.LVL2:
  75:lib/tinymaix/src/tm_layers.c ****     if(maxk>TM_MAX_KSIZE) return TM_ERR_KSIZE;
 103              		.loc 1 75 5 is_stmt 1
 104              		.loc 1 75 7 is_stmt 0
 105 0052 E54E     		li	t4,25
 106              		.loc 1 75 34
 107 0054 254E     		li	t3,9
 108              		.loc 1 75 7
 109 0056 63C29E4E 		bgt	s1,t4,.L1
  76:lib/tinymaix/src/tm_layers.c ****     if(maxk==1 && (pad_flag||dmul)) return TM_ERR_UNSUPPORT;   //assume no pad or dwconv when pwcon
 110              		.loc 1 76 5 is_stmt 1
 111              		.loc 1 76 7 is_stmt 0
 112 005a 63997401 		bne	s1,s7,.L3
 113 005e 33336000 		snez	t1,t1
 114              	.LVL3:
 115              		.loc 1 76 16 discriminator 1
 116 0062 33E36900 		or	t1,s3,t1
 117              	.LVL4:
  73:lib/tinymaix/src/tm_layers.c ****     int maxk = kw*kh;
 118              		.loc 1 73 37 discriminator 1
 119 0066 0D4E     		li	t3,3
 120              		.loc 1 76 16 discriminator 1
 121 0068 6319034C 		bne	t1,zero,.L1
 122              	.L3:
 123 006c 3ECE     		sw	a5,28(sp)
  77:lib/tinymaix/src/tm_layers.c ****     int chi  = in->c;
  78:lib/tinymaix/src/tm_layers.c ****     int cho  = out->c;
  79:lib/tinymaix/src/tm_layers.c ****     sumtype_t sum = 0;
  80:lib/tinymaix/src/tm_layers.c ****     mtype_t* outp = out->data;
 124              		.loc 1 80 14
 125 006e 9C45     		lw	a5,8(a1)
 126              	.LVL5:
 127 0070 2EC2     		sw	a1,4(sp)
 128 0072 2A89     		mv	s2,a0
  77:lib/tinymaix/src/tm_layers.c ****     int chi  = in->c;
 129              		.loc 1 77 5 is_stmt 1
 130              		.loc 1 80 14 is_stmt 0
 131 0074 3EC4     		sw	a5,8(sp)
  81:lib/tinymaix/src/tm_layers.c **** 
  82:lib/tinymaix/src/tm_layers.c **** #if (TM_MDL_TYPE == TM_MDL_INT8) || (TM_MDL_TYPE == TM_MDL_INT16)
  83:lib/tinymaix/src/tm_layers.c **** #if TM_FASTSCALE
  84:lib/tinymaix/src/tm_layers.c **** 	int32_t outscale = (1<<TM_FASTSCALE_SHIFT)/out_s;
  85:lib/tinymaix/src/tm_layers.c **** 	for(int c=0; c<out->c;c++) sumscale[c]=1.0/ws[c]/in_s;
  86:lib/tinymaix/src/tm_layers.c **** #else
  87:lib/tinymaix/src/tm_layers.c **** 	sctype_t outscale = out_s;
  88:lib/tinymaix/src/tm_layers.c ****     sctype_t outscale_inv = 1.f / outscale;
 132              		.loc 1 88 14
 133 0076 B7070000 		lui	a5,%hi(.LC1)
  77:lib/tinymaix/src/tm_layers.c ****     int chi  = in->c;
GAS LISTING C:\Users\Jesper\AppData\Local\Temp\cclZf3Mh.s 			page 5


 134              		.loc 1 77 18
 135 007a 035A6500 		lhu	s4,6(a0)
 136              	.LVL6:
  78:lib/tinymaix/src/tm_layers.c ****     sumtype_t sum = 0;
 137              		.loc 1 78 5 is_stmt 1
  78:lib/tinymaix/src/tm_layers.c ****     sumtype_t sum = 0;
 138              		.loc 1 78 19 is_stmt 0
 139 007e 83DC6500 		lhu	s9,6(a1)
 140              	.LVL7:
  79:lib/tinymaix/src/tm_layers.c ****     mtype_t* outp = out->data;
 141              		.loc 1 79 5 is_stmt 1
  80:lib/tinymaix/src/tm_layers.c **** 
 142              		.loc 1 80 5
  87:lib/tinymaix/src/tm_layers.c ****     sctype_t outscale_inv = 1.f / outscale;
 143              		.loc 1 87 2
 144              		.loc 1 88 5
 145              		.loc 1 88 14 is_stmt 0
 146 0082 03A50700 		lw	a0,%lo(.LC1)(a5)
 147              	.LVL8:
 148 0086 FE45     		lw	a1,220(sp)
 149              	.LVL9:
 150 0088 46DE     		sw	a7,60(sp)
 151 008a 42DC     		sw	a6,56(sp)
 152 008c 3A84     		mv	s0,a4
 153 008e 36CC     		sw	a3,24(sp)
 154 0090 32CA     		sw	a2,20(sp)
 155              	.LBB54:
  89:lib/tinymaix/src/tm_layers.c **** 	for(int c=0; c<out->c;c++) sumscale[c]=ws[c]*in_s;
 156              		.loc 1 89 40
 157 0092 370D0000 		lui	s10,%hi(sumscale)
 158              	.LBE54:
  88:lib/tinymaix/src/tm_layers.c **** 	for(int c=0; c<out->c;c++) sumscale[c]=ws[c]*in_s;
 159              		.loc 1 88 14
 160 0096 97000000 		call	__divsf3
 160      E7800000 
 161              	.LVL10:
 162 009e 2AC6     		sw	a0,12(sp)
 163              	.LVL11:
 164              		.loc 1 89 2 is_stmt 1
 165              	.LBB55:
 166              		.loc 1 89 6
 167              		.loc 1 89 10 is_stmt 0
 168 00a0 014C     		li	s8,0
 169              		.loc 1 89 40
 170 00a2 130D0D00 		addi	s10,s10,%lo(sumscale)
 171              	.LVL12:
 172              	.L4:
 173              		.loc 1 89 2 discriminator 1
 174 00a6 634B9C03 		blt	s8,s9,.L5
 175              	.LBE55:
  90:lib/tinymaix/src/tm_layers.c **** #endif
  91:lib/tinymaix/src/tm_layers.c **** #else
  92:lib/tinymaix/src/tm_layers.c **** 	sctype_t outscale = out_s;
  93:lib/tinymaix/src/tm_layers.c **** #endif
  94:lib/tinymaix/src/tm_layers.c **** 
  95:lib/tinymaix/src/tm_layers.c ****     if(maxk==1){ TM_PERF_START(t_pwconv);   //pointwise conv
 176              		.loc 1 95 5 is_stmt 1
GAS LISTING C:\Users\Jesper\AppData\Local\Temp\cclZf3Mh.s 			page 6


 177              		.loc 1 95 7 is_stmt 0
 178 00aa 8547     		li	a5,1
 179 00ac 6387F404 		beq	s1,a5,.L6
 180 00b0 2288     		mv	a6,s0
 181 00b2 63530400 		bge	s0,zero,.L7
 182 00b6 0148     		li	a6,0
 183              	.L7:
 184 00b8 B3080A03 		mul	a7,s4,a6
 185 00bc 37060000 		lui	a2,%hi(.LANCHOR0)
 186              	.LBB56:
  96:lib/tinymaix/src/tm_layers.c ****         #define BATCH_SIZE 2
  97:lib/tinymaix/src/tm_layers.c ****         sumtype_t sums[BATCH_SIZE];
  98:lib/tinymaix/src/tm_layers.c ****         for (int y = 0; y < out->h; y++) {
  99:lib/tinymaix/src/tm_layers.c ****             for (int x = 0; x < out->w; x++) {
 100:lib/tinymaix/src/tm_layers.c ****                 mtype_t* sptr = (mtype_t*)TM_MATP(in, sy*y, sx*x, 0);
 101:lib/tinymaix/src/tm_layers.c ****                 wtype_t* kptr = (wtype_t*)w;
 102:lib/tinymaix/src/tm_layers.c ****                 int c = 0;
 103:lib/tinymaix/src/tm_layers.c ****                 for(; c<out->c-BATCH_SIZE+1; ){
 104:lib/tinymaix/src/tm_layers.c ****                     for(int bat = 0; bat < BATCH_SIZE; bat+=2)
 105:lib/tinymaix/src/tm_layers.c ****                         tm_dot_prod_pack2(sptr, kptr + chi*bat, chi, sums + bat);
 106:lib/tinymaix/src/tm_layers.c ****                     tm_postprocess_sum(BATCH_SIZE, sums, b + c, act, outp, SUMSCALE, OUTSCALE, out_
 107:lib/tinymaix/src/tm_layers.c ****                     c += BATCH_SIZE;
 108:lib/tinymaix/src/tm_layers.c ****                     outp += BATCH_SIZE;
 109:lib/tinymaix/src/tm_layers.c ****                     kptr += chi*BATCH_SIZE;//*2;
 110:lib/tinymaix/src/tm_layers.c ****                 }
 111:lib/tinymaix/src/tm_layers.c ****                 for(; c<out->c; c++){
 112:lib/tinymaix/src/tm_layers.c ****                     tm_dot_prod(sptr, kptr, chi, &sum); //size=maxk*chi //pw maxk==1
 113:lib/tinymaix/src/tm_layers.c ****                     tm_postprocess_sum(1, &sum, b + c, act, outp, SUMSCALE, OUTSCALE, out_zp); outp
 114:lib/tinymaix/src/tm_layers.c ****                     kptr += chi;
 115:lib/tinymaix/src/tm_layers.c ****                 }
 116:lib/tinymaix/src/tm_layers.c ****             }
 117:lib/tinymaix/src/tm_layers.c ****         }
 118:lib/tinymaix/src/tm_layers.c ****         TM_PERF_ADD(t_pwconv);
 119:lib/tinymaix/src/tm_layers.c ****         return TM_OK;
 120:lib/tinymaix/src/tm_layers.c ****     }
 121:lib/tinymaix/src/tm_layers.c **** 
 122:lib/tinymaix/src/tm_layers.c ****     if(dmul) {TM_PERF_START(t_dwconv);} else {TM_PERF_START(t_conv);};
 123:lib/tinymaix/src/tm_layers.c ****     int oft = 0;
 124:lib/tinymaix/src/tm_layers.c ****     int idx = 0;
 125:lib/tinymaix/src/tm_layers.c ****     for(int y=0; y<kh; y++){    //gen k_oft table
 187              		.loc 1 125 13
 188 00c0 0145     		li	a0,0
 189              	.LBE56:
 124:lib/tinymaix/src/tm_layers.c ****     for(int y=0; y<kh; y++){    //gen k_oft table
 190              		.loc 1 124 9
 191 00c2 8145     		li	a1,0
 123:lib/tinymaix/src/tm_layers.c ****     int idx = 0;
 192              		.loc 1 123 9
 193 00c4 8147     		li	a5,0
 194 00c6 13060600 		addi	a2,a2,%lo(.LANCHOR0)
 195              	.L8:
 196              	.LVL13:
 197              	.LBB59:
 198              		.loc 1 125 5 discriminator 1
 199 00ca 7247     		lw	a4,28(sp)
 200 00cc 635AE542 		bge	a0,a4,.L36
 201 00d0 13972500 		slli	a4,a1,2
GAS LISTING C:\Users\Jesper\AppData\Local\Temp\cclZf3Mh.s 			page 7


 202 00d4 3297     		add	a4,a2,a4
 203              		.loc 1 125 5
 204 00d6 3E83     		mv	t1,a5
 205              	.LBB57:
 126:lib/tinymaix/src/tm_layers.c ****         for(int x=0; x<kw; x++){
 206              		.loc 1 126 17
 207 00d8 8146     		li	a3,0
 208 00da 39A1     		j	.L37
 209              	.LVL14:
 210              	.L5:
 211              	.LBE57:
 212              	.LBE59:
 213              	.LBB60:
  89:lib/tinymaix/src/tm_layers.c **** #endif
 214              		.loc 1 89 29 is_stmt 1 discriminator 3
 215 00dc 93172C00 		slli	a5,s8,2
  89:lib/tinymaix/src/tm_layers.c **** #endif
 216              		.loc 1 89 40 is_stmt 0 discriminator 3
 217 00e0 B38DA701 		add	s11,a5,s10
  89:lib/tinymaix/src/tm_layers.c **** #endif
 218              		.loc 1 89 43 discriminator 3
 219 00e4 DA97     		add	a5,s6,a5
  89:lib/tinymaix/src/tm_layers.c **** #endif
 220              		.loc 1 89 46 discriminator 3
 221 00e6 8843     		lw	a0,0(a5)
 222 00e8 DE45     		lw	a1,212(sp)
  89:lib/tinymaix/src/tm_layers.c **** #endif
 223              		.loc 1 89 25 discriminator 3
 224 00ea 050C     		addi	s8,s8,1
 225              	.LVL15:
  89:lib/tinymaix/src/tm_layers.c **** #endif
 226              		.loc 1 89 46 discriminator 3
 227 00ec 97000000 		call	__mulsf3
 227      E7800000 
 228              	.LVL16:
  89:lib/tinymaix/src/tm_layers.c **** #endif
 229              		.loc 1 89 40 discriminator 3
 230 00f4 23A0AD00 		sw	a0,0(s11)
 231 00f8 7DB7     		j	.L4
 232              	.L6:
 233              	.LBE60:
 234              	.LBB61:
 235              	.LBB62:
 236              	.LBB63:
 237              	.LBB64:
 109:lib/tinymaix/src/tm_layers.c ****                 }
 238              		.loc 1 109 32
 239 00fa 93171A00 		slli	a5,s4,1
 240 00fe 3ED6     		sw	a5,44(sp)
 241              	.LBB65:
 242              	.LBB66:
 243              	.LBB67:
 244              		.file 2 "lib/tinymaix/include/arch_cpu.h"
   1:lib/tinymaix/include/arch_cpu.h **** /* Copyright 2022 Sipeed Technology Co., Ltd. All Rights Reserved.
   2:lib/tinymaix/include/arch_cpu.h **** Licensed under the Apache License, Version 2.0 (the "License");
   3:lib/tinymaix/include/arch_cpu.h **** you may not use this file except in compliance with the License.
   4:lib/tinymaix/include/arch_cpu.h **** You may obtain a copy of the License at
GAS LISTING C:\Users\Jesper\AppData\Local\Temp\cclZf3Mh.s 			page 8


   5:lib/tinymaix/include/arch_cpu.h ****     http://www.apache.org/licenses/LICENSE-2.0
   6:lib/tinymaix/include/arch_cpu.h **** Unless required by applicable law or agreed to in writing, software
   7:lib/tinymaix/include/arch_cpu.h **** distributed under the License is distributed on an "AS IS" BASIS,
   8:lib/tinymaix/include/arch_cpu.h **** WITHOUT WARRANTIES OR CONDITIONS OF ANY KIND, either express or implied.
   9:lib/tinymaix/include/arch_cpu.h **** See the License for the specific language governing permissions and
  10:lib/tinymaix/include/arch_cpu.h **** limitations under the License.
  11:lib/tinymaix/include/arch_cpu.h **** ==============================================================================*/
  12:lib/tinymaix/include/arch_cpu.h **** 
  13:lib/tinymaix/include/arch_cpu.h **** #include "stdlib.h"
  14:lib/tinymaix/include/arch_cpu.h **** #include "stdint.h"
  15:lib/tinymaix/include/arch_cpu.h **** #include "math.h"
  16:lib/tinymaix/include/arch_cpu.h **** #include "float.h"
  17:lib/tinymaix/include/arch_cpu.h **** #include "tinymaix.h"
  18:lib/tinymaix/include/arch_cpu.h **** 
  19:lib/tinymaix/include/arch_cpu.h **** #if (TM_MDL_TYPE != TM_MDL_FP8_143) && (TM_MDL_TYPE != TM_MDL_FP8_152)
  20:lib/tinymaix/include/arch_cpu.h **** //sum = SUM(Ai*Bi)
  21:lib/tinymaix/include/arch_cpu.h **** TM_INLINE void tm_dot_prod(mtype_t* sptr, mtype_t* kptr,uint32_t size, sumtype_t* result)
  22:lib/tinymaix/include/arch_cpu.h **** {
  23:lib/tinymaix/include/arch_cpu.h ****     sumtype_t sum=0;
  24:lib/tinymaix/include/arch_cpu.h ****     uint32_t i = 0;
  25:lib/tinymaix/include/arch_cpu.h ****     uint32_t cnt = (size>>3)<<3;  //8
  26:lib/tinymaix/include/arch_cpu.h ****     for(; i+8-1 <cnt; ){
  27:lib/tinymaix/include/arch_cpu.h ****         sum += sptr[i]*kptr[i];i++;
  28:lib/tinymaix/include/arch_cpu.h ****         sum += sptr[i]*kptr[i];i++;
  29:lib/tinymaix/include/arch_cpu.h ****         sum += sptr[i]*kptr[i];i++;
  30:lib/tinymaix/include/arch_cpu.h ****         sum += sptr[i]*kptr[i];i++;
  31:lib/tinymaix/include/arch_cpu.h ****         sum += sptr[i]*kptr[i];i++;
  32:lib/tinymaix/include/arch_cpu.h ****         sum += sptr[i]*kptr[i];i++;
  33:lib/tinymaix/include/arch_cpu.h ****         sum += sptr[i]*kptr[i];i++;
  34:lib/tinymaix/include/arch_cpu.h ****         sum += sptr[i]*kptr[i];i++;
  35:lib/tinymaix/include/arch_cpu.h ****     }
  36:lib/tinymaix/include/arch_cpu.h ****     for(; i <size; i++){
  37:lib/tinymaix/include/arch_cpu.h ****         sum += sptr[i]*kptr[i]; 
  38:lib/tinymaix/include/arch_cpu.h ****     }
  39:lib/tinymaix/include/arch_cpu.h ****     *result = sum;
  40:lib/tinymaix/include/arch_cpu.h ****     return;
  41:lib/tinymaix/include/arch_cpu.h **** }
  42:lib/tinymaix/include/arch_cpu.h **** 
  43:lib/tinymaix/include/arch_cpu.h **** TM_INLINE  void tm_dot_prod_pack2(mtype_t* sptr, mtype_t* kptr, uint32_t size, sumtype_t* result)
  44:lib/tinymaix/include/arch_cpu.h **** { 
  45:lib/tinymaix/include/arch_cpu.h ****     sumtype_t sum0 = 0;
  46:lib/tinymaix/include/arch_cpu.h ****     sumtype_t sum1 = 0;
  47:lib/tinymaix/include/arch_cpu.h ****     mtype_t* kptr0 = kptr;
  48:lib/tinymaix/include/arch_cpu.h ****     mtype_t* kptr1 = kptr+size;
  49:lib/tinymaix/include/arch_cpu.h **** 
  50:lib/tinymaix/include/arch_cpu.h ****     uint32_t i = 0;
  51:lib/tinymaix/include/arch_cpu.h ****     uint32_t cnt = (size>>3)<<3;  //8
  52:lib/tinymaix/include/arch_cpu.h ****     for(; i+8-1 <cnt; ){
  53:lib/tinymaix/include/arch_cpu.h ****         sum0 += sptr[i]*kptr0[i]; sum1 += sptr[i]*kptr1[i]; i++;
  54:lib/tinymaix/include/arch_cpu.h ****         sum0 += sptr[i]*kptr0[i]; sum1 += sptr[i]*kptr1[i]; i++;
  55:lib/tinymaix/include/arch_cpu.h ****         sum0 += sptr[i]*kptr0[i]; sum1 += sptr[i]*kptr1[i]; i++;
  56:lib/tinymaix/include/arch_cpu.h ****         sum0 += sptr[i]*kptr0[i]; sum1 += sptr[i]*kptr1[i]; i++;
  57:lib/tinymaix/include/arch_cpu.h ****         sum0 += sptr[i]*kptr0[i]; sum1 += sptr[i]*kptr1[i]; i++;
  58:lib/tinymaix/include/arch_cpu.h ****         sum0 += sptr[i]*kptr0[i]; sum1 += sptr[i]*kptr1[i]; i++;
  59:lib/tinymaix/include/arch_cpu.h ****         sum0 += sptr[i]*kptr0[i]; sum1 += sptr[i]*kptr1[i]; i++;
  60:lib/tinymaix/include/arch_cpu.h ****         sum0 += sptr[i]*kptr0[i]; sum1 += sptr[i]*kptr1[i]; i++;
  61:lib/tinymaix/include/arch_cpu.h ****     }
GAS LISTING C:\Users\Jesper\AppData\Local\Temp\cclZf3Mh.s 			page 9


  62:lib/tinymaix/include/arch_cpu.h ****     for(; i <size; i++){
  63:lib/tinymaix/include/arch_cpu.h ****         sum0 += sptr[i]*kptr0[i]; 
  64:lib/tinymaix/include/arch_cpu.h ****         sum1 += sptr[i]*kptr1[i]; 
  65:lib/tinymaix/include/arch_cpu.h ****     }
  66:lib/tinymaix/include/arch_cpu.h **** 
  67:lib/tinymaix/include/arch_cpu.h ****     result[0] = sum0;
  68:lib/tinymaix/include/arch_cpu.h ****     result[1] = sum1;
  69:lib/tinymaix/include/arch_cpu.h ****     return;
  70:lib/tinymaix/include/arch_cpu.h **** }
  71:lib/tinymaix/include/arch_cpu.h **** 
  72:lib/tinymaix/include/arch_cpu.h **** TM_INLINE void tm_dot_prod_gap_3x3x1(mtype_t* sptr, mtype_t* kptr, uint32_t* k_oft, sumtype_t* resu
  73:lib/tinymaix/include/arch_cpu.h **** {
  74:lib/tinymaix/include/arch_cpu.h ****     *result = sptr[k_oft[0]]*kptr[0] + sptr[k_oft[1]]*kptr[1] + sptr[k_oft[2]]*kptr[2] + \
  75:lib/tinymaix/include/arch_cpu.h ****         sptr[k_oft[3]]*kptr[3] + sptr[k_oft[4]]*kptr[4] + sptr[k_oft[5]]*kptr[5] + \
  76:lib/tinymaix/include/arch_cpu.h ****         sptr[k_oft[6]]*kptr[6] + sptr[k_oft[7]]*kptr[7] + sptr[k_oft[8]]*kptr[8] ;
  77:lib/tinymaix/include/arch_cpu.h ****     return;                  
  78:lib/tinymaix/include/arch_cpu.h **** }
  79:lib/tinymaix/include/arch_cpu.h **** 
  80:lib/tinymaix/include/arch_cpu.h **** TM_INLINE void tm_dot_prod_3x3x1(mtype_t* sptr, mtype_t* kptr, sumtype_t* result)
  81:lib/tinymaix/include/arch_cpu.h **** {
  82:lib/tinymaix/include/arch_cpu.h ****     *result = sptr[0]*kptr[0] + sptr[1]*kptr[1] + sptr[2]*kptr[2] + \
  83:lib/tinymaix/include/arch_cpu.h ****         sptr[3]*kptr[3] + sptr[4]*kptr[4] + sptr[5]*kptr[5] + \
  84:lib/tinymaix/include/arch_cpu.h ****         sptr[6]*kptr[6] + sptr[7]*kptr[7] + sptr[8]*kptr[8] ;
  85:lib/tinymaix/include/arch_cpu.h ****     return;
  86:lib/tinymaix/include/arch_cpu.h **** }
  87:lib/tinymaix/include/arch_cpu.h **** 
  88:lib/tinymaix/include/arch_cpu.h **** 
  89:lib/tinymaix/include/arch_cpu.h **** 
  90:lib/tinymaix/include/arch_cpu.h **** #else
  91:lib/tinymaix/include/arch_cpu.h **** /*************************** FP8 SIMULATION **********************************/
  92:lib/tinymaix/include/arch_cpu.h **** #define SUMSCALE 1.0
  93:lib/tinymaix/include/arch_cpu.h **** 
  94:lib/tinymaix/include/arch_cpu.h **** TM_INLINE void tm_dot_prod(mtype_t* sptr, mtype_t* kptr,uint32_t size, sumtype_t* result)
  95:lib/tinymaix/include/arch_cpu.h **** {
  96:lib/tinymaix/include/arch_cpu.h ****     sumtype_t sum=0;
  97:lib/tinymaix/include/arch_cpu.h ****     for(int i=0; i <size; i++){
  98:lib/tinymaix/include/arch_cpu.h ****         float _s = tm_fp8to32(sptr[i]);
  99:lib/tinymaix/include/arch_cpu.h ****         float _k = tm_fp8to32(kptr[i]);
 100:lib/tinymaix/include/arch_cpu.h ****         sum += _s*_k;
 101:lib/tinymaix/include/arch_cpu.h ****         //printf("%.3f*%.3f+",_s,_k);
 102:lib/tinymaix/include/arch_cpu.h ****     }
 103:lib/tinymaix/include/arch_cpu.h ****     //printf("\r\n");
 104:lib/tinymaix/include/arch_cpu.h ****     *result = sum;
 105:lib/tinymaix/include/arch_cpu.h ****     return;
 106:lib/tinymaix/include/arch_cpu.h **** }
 107:lib/tinymaix/include/arch_cpu.h **** 
 108:lib/tinymaix/include/arch_cpu.h **** TM_INLINE void tm_postprocess_sum(sumtype_t sum, btype_t b, int act, mtype_t* outp, \
 109:lib/tinymaix/include/arch_cpu.h ****     sctype_t scale, sctype_t out_s, zptype_t out_zp)
 110:lib/tinymaix/include/arch_cpu.h **** {   //printf("sum=%.6f,", sum);
 111:lib/tinymaix/include/arch_cpu.h ****     sum += tm_fp8to32(b); //printf("%.6f,", sum);
 112:lib/tinymaix/include/arch_cpu.h ****     switch(act){    //activation func
 113:lib/tinymaix/include/arch_cpu.h ****     case TM_ACT_RELU:
 114:lib/tinymaix/include/arch_cpu.h ****         sum = sum>0?sum:0;
 115:lib/tinymaix/include/arch_cpu.h ****         break;
 116:lib/tinymaix/include/arch_cpu.h ****     case TM_ACT_RELU6:
 117:lib/tinymaix/include/arch_cpu.h ****         sum = sum>0?sum:0;
 118:lib/tinymaix/include/arch_cpu.h ****         sum = sum>6?6:sum;
GAS LISTING C:\Users\Jesper\AppData\Local\Temp\cclZf3Mh.s 			page 10


 119:lib/tinymaix/include/arch_cpu.h ****         break;
 120:lib/tinymaix/include/arch_cpu.h ****     default:
 121:lib/tinymaix/include/arch_cpu.h ****         break;
 122:lib/tinymaix/include/arch_cpu.h ****     }
 123:lib/tinymaix/include/arch_cpu.h ****     //printf("%.6f,", sum);
 124:lib/tinymaix/include/arch_cpu.h ****     *outp = tm_fp32to8(sum);
 125:lib/tinymaix/include/arch_cpu.h ****     //printf("  %02x,%.6f\r\n", *outp, tm_fp8to32(*outp));
 126:lib/tinymaix/include/arch_cpu.h ****     return;
 127:lib/tinymaix/include/arch_cpu.h **** }
 128:lib/tinymaix/include/arch_cpu.h **** 
 129:lib/tinymaix/include/arch_cpu.h **** #endif
 130:lib/tinymaix/include/arch_cpu.h **** 
 131:lib/tinymaix/include/arch_cpu.h **** #if (TM_MDL_TYPE==TM_MDL_FP32) || (TM_MDL_TYPE==TM_MDL_FP16) 
 132:lib/tinymaix/include/arch_cpu.h **** 
 133:lib/tinymaix/include/arch_cpu.h **** TM_INLINE void tm_postprocess_sum(int n, sumtype_t* sums, btype_t* bs, int act, mtype_t* outp, \
 134:lib/tinymaix/include/arch_cpu.h ****     sctype_t* scales, sctype_t out_s, zptype_t out_zp)
 135:lib/tinymaix/include/arch_cpu.h **** {
 136:lib/tinymaix/include/arch_cpu.h ****     for(int i = 0; i < n; i++) {
 137:lib/tinymaix/include/arch_cpu.h ****         sumtype_t sum = sums[i];
 138:lib/tinymaix/include/arch_cpu.h ****         sum += bs[i];
 139:lib/tinymaix/include/arch_cpu.h ****         switch(act){    //activation func
 140:lib/tinymaix/include/arch_cpu.h ****         case TM_ACT_RELU:
 141:lib/tinymaix/include/arch_cpu.h ****         case TM_ACT_RELU6: //treat relu6 as relu in float mode //speed up
 142:lib/tinymaix/include/arch_cpu.h ****             sum = sum>0?sum:0;
 143:lib/tinymaix/include/arch_cpu.h ****             break;
 144:lib/tinymaix/include/arch_cpu.h ****         //    sum = sum>0?sum:0;
 145:lib/tinymaix/include/arch_cpu.h ****         //    sum = sum>6?6:sum;
 146:lib/tinymaix/include/arch_cpu.h ****         //    break;
 147:lib/tinymaix/include/arch_cpu.h ****         default:
 148:lib/tinymaix/include/arch_cpu.h ****             break;
 149:lib/tinymaix/include/arch_cpu.h ****         }
 150:lib/tinymaix/include/arch_cpu.h ****         outp[i] = (mtype_t)sum;
 151:lib/tinymaix/include/arch_cpu.h ****     }
 152:lib/tinymaix/include/arch_cpu.h ****     return;
 153:lib/tinymaix/include/arch_cpu.h **** }
 154:lib/tinymaix/include/arch_cpu.h **** 
 155:lib/tinymaix/include/arch_cpu.h **** #elif (TM_MDL_TYPE==TM_MDL_INT8) || (TM_MDL_TYPE==TM_MDL_INT16) 
 156:lib/tinymaix/include/arch_cpu.h **** 
 157:lib/tinymaix/include/arch_cpu.h **** #if !TM_FASTSCALE
 158:lib/tinymaix/include/arch_cpu.h **** TM_INLINE void tm_postprocess_sum(int n, sumtype_t* sums, btype_t* bs, int act, mtype_t* outp, scty
 159:lib/tinymaix/include/arch_cpu.h **** #else
 160:lib/tinymaix/include/arch_cpu.h **** TM_INLINE void tm_postprocess_sum(int n, sumtype_t* sums, btype_t* bs, int act, mtype_t* outp, int3
 161:lib/tinymaix/include/arch_cpu.h **** #endif
 162:lib/tinymaix/include/arch_cpu.h **** {
 163:lib/tinymaix/include/arch_cpu.h ****     for(int i = 0; i < n; i++) {
 164:lib/tinymaix/include/arch_cpu.h ****         sumtype_t sum = sums[i];
 165:lib/tinymaix/include/arch_cpu.h ****         sum += bs[i];
 166:lib/tinymaix/include/arch_cpu.h ****         #if !TM_FASTSCALE
 167:lib/tinymaix/include/arch_cpu.h ****             float sumf = sum*scales[i];
 245              		.loc 2 167 36
 246 0100 B7070000 		lui	a5,%hi(sumscale)
 247 0104 93870700 		addi	a5,a5,%lo(sumscale)
 248 0108 3ED8     		sw	a5,48(sp)
 168:lib/tinymaix/include/arch_cpu.h ****         #else 
 169:lib/tinymaix/include/arch_cpu.h ****             sumtype_t sumf = (sum<<TM_FASTSCALE_SHIFT)/scales[i];
 170:lib/tinymaix/include/arch_cpu.h ****         #endif
 171:lib/tinymaix/include/arch_cpu.h ****         switch(act){    //activation func
GAS LISTING C:\Users\Jesper\AppData\Local\Temp\cclZf3Mh.s 			page 11


 172:lib/tinymaix/include/arch_cpu.h ****         case TM_ACT_RELU:
 173:lib/tinymaix/include/arch_cpu.h ****             sumf = sumf>0?sumf:0;
 174:lib/tinymaix/include/arch_cpu.h ****             break;
 175:lib/tinymaix/include/arch_cpu.h ****         case TM_ACT_RELU6:
 176:lib/tinymaix/include/arch_cpu.h ****             sumf = sumf>0?sumf:0;
 177:lib/tinymaix/include/arch_cpu.h ****         #if (!TM_FASTSCALE)
 178:lib/tinymaix/include/arch_cpu.h ****             sumf = sumf>6?6:sumf;
 249              		.loc 2 178 28
 250 010a B7070000 		lui	a5,%hi(.LC0)
 251 010e 83AD0700 		lw	s11,%lo(.LC0)(a5)
 252              	.LBE67:
 253              	.LBE66:
 254              	.LBE65:
 109:lib/tinymaix/src/tm_layers.c ****                 }
 255              		.loc 1 109 32
 256 0112 02C8     		sw	zero,16(sp)
 257              	.LBE64:
 258              	.LBE63:
  98:lib/tinymaix/src/tm_layers.c ****             for (int x = 0; x < out->w; x++) {
 259              		.loc 1 98 18
 260 0114 02D0     		sw	zero,32(sp)
 261              	.LVL17:
 262              	.L9:
  98:lib/tinymaix/src/tm_layers.c ****             for (int x = 0; x < out->w; x++) {
 263              		.loc 1 98 32 discriminator 1
 264 0116 9247     		lw	a5,4(sp)
  98:lib/tinymaix/src/tm_layers.c ****             for (int x = 0; x < out->w; x++) {
 265              		.loc 1 98 9 discriminator 1
 266 0118 0257     		lw	a4,32(sp)
  98:lib/tinymaix/src/tm_layers.c ****             for (int x = 0; x < out->w; x++) {
 267              		.loc 1 98 32 discriminator 1
 268 011a 83D72700 		lhu	a5,2(a5)
  98:lib/tinymaix/src/tm_layers.c ****             for (int x = 0; x < out->w; x++) {
 269              		.loc 1 98 9 discriminator 1
 270 011e 635DF740 		ble	a5,a4,.L131
  98:lib/tinymaix/src/tm_layers.c ****             for (int x = 0; x < out->w; x++) {
 271              		.loc 1 98 9
 272 0122 02CE     		sw	zero,28(sp)
 273              	.LBB106:
  99:lib/tinymaix/src/tm_layers.c ****                 mtype_t* sptr = (mtype_t*)TM_MATP(in, sy*y, sx*x, 0);
 274              		.loc 1 99 22
 275 0124 02D2     		sw	zero,36(sp)
 276 0126 95A8     		j	.L34
 277              	.LVL18:
 278              	.L32:
 279              	.LBB101:
 100:lib/tinymaix/src/tm_layers.c ****                 wtype_t* kptr = (wtype_t*)w;
 280              		.loc 1 100 17 is_stmt 1
 100:lib/tinymaix/src/tm_layers.c ****                 wtype_t* kptr = (wtype_t*)w;
 281              		.loc 1 100 43 is_stmt 0
 282 0128 C247     		lw	a5,16(sp)
 283 012a 835A4900 		lhu	s5,4(s2)
 102:lib/tinymaix/src/tm_layers.c ****                 for(; c<out->c-BATCH_SIZE+1; ){
 284              		.loc 1 102 21
 285 012e 0144     		li	s0,0
 100:lib/tinymaix/src/tm_layers.c ****                 wtype_t* kptr = (wtype_t*)w;
 286              		.loc 1 100 43
GAS LISTING C:\Users\Jesper\AppData\Local\Temp\cclZf3Mh.s 			page 12


 287 0130 B38AFA02 		mul	s5,s5,a5
 288 0134 F247     		lw	a5,28(sp)
 289 0136 BE9A     		add	s5,s5,a5
 290 0138 83576900 		lhu	a5,6(s2)
 291 013c B387FA02 		mul	a5,s5,a5
 100:lib/tinymaix/src/tm_layers.c ****                 wtype_t* kptr = (wtype_t*)w;
 292              		.loc 1 100 26
 293 0140 832A8900 		lw	s5,8(s2)
 294 0144 BE9A     		add	s5,s5,a5
 295              	.LVL19:
 101:lib/tinymaix/src/tm_layers.c ****                 int c = 0;
 296              		.loc 1 101 17 is_stmt 1
 102:lib/tinymaix/src/tm_layers.c ****                 for(; c<out->c-BATCH_SIZE+1; ){
 297              		.loc 1 102 17
 103:lib/tinymaix/src/tm_layers.c ****                     for(int bat = 0; bat < BATCH_SIZE; bat+=2)
 298              		.loc 1 103 17
 299 0146 D247     		lw	a5,20(sp)
 300 0148 338C4701 		add	s8,a5,s4
 101:lib/tinymaix/src/tm_layers.c ****                 int c = 0;
 301              		.loc 1 101 26 is_stmt 0
 302 014c BE89     		mv	s3,a5
 303              	.LBB74:
 304              	.LBB75:
 305              	.LBB76:
  52:lib/tinymaix/include/arch_cpu.h ****         sum0 += sptr[i]*kptr0[i]; sum1 += sptr[i]*kptr1[i]; i++;
 306              		.loc 2 52 5
 307 014e 9D47     		li	a5,7
 308 0150 B3875741 		sub	a5,a5,s5
 309 0154 3EDA     		sw	a5,52(sp)
 310              	.LVL20:
 311              	.L10:
 312 0156 A247     		lw	a5,8(sp)
 313 0158 338B8700 		add	s6,a5,s0
 314              	.LVL21:
 315              	.LBE76:
 316              	.LBE75:
 317              	.LBE74:
 103:lib/tinymaix/src/tm_layers.c ****                     for(int bat = 0; bat < BATCH_SIZE; bat+=2)
 318              		.loc 1 103 28
 319 015c 9247     		lw	a5,4(sp)
 320 015e 83D76700 		lhu	a5,6(a5)
 103:lib/tinymaix/src/tm_layers.c ****                     for(int bat = 0; bat < BATCH_SIZE; bat+=2)
 321              		.loc 1 103 42
 322 0162 FD17     		addi	a5,a5,-1
 103:lib/tinymaix/src/tm_layers.c ****                     for(int bat = 0; bat < BATCH_SIZE; bat+=2)
 323              		.loc 1 103 17
 324 0164 6349F410 		bgt	a5,s0,.L17
 325 0168 E247     		lw	a5,24(sp)
 326 016a 0A04     		slli	s0,s0,2
 327 016c B38B8700 		add	s7,a5,s0
 328 0170 C257     		lw	a5,48(sp)
 329 0172 3E94     		add	s0,s0,a5
 330              	.LBB79:
 331              	.LBB80:
  26:lib/tinymaix/include/arch_cpu.h ****         sum += sptr[i]*kptr[i];i++;
 332              		.loc 2 26 5
 333 0174 9D47     		li	a5,7
GAS LISTING C:\Users\Jesper\AppData\Local\Temp\cclZf3Mh.s 			page 13


 334 0176 338C5741 		sub	s8,a5,s5
 335              	.L18:
 336              	.LBE80:
 337              	.LBE79:
 111:lib/tinymaix/src/tm_layers.c ****                     tm_dot_prod(sptr, kptr, chi, &sum); //size=maxk*chi //pw maxk==1
 338              		.loc 1 111 28 discriminator 1
 339 017a 9247     		lw	a5,4(sp)
 340 017c 03D76700 		lhu	a4,6(a5)
 111:lib/tinymaix/src/tm_layers.c ****                     tm_dot_prod(sptr, kptr, chi, &sum); //size=maxk*chi //pw maxk==1
 341              		.loc 1 111 17 discriminator 1
 342 0180 A247     		lw	a5,8(sp)
 343 0182 B307FB40 		sub	a5,s6,a5
 344 0186 63C5E720 		bgt	a4,a5,.L31
 345              	.LBE101:
  99:lib/tinymaix/src/tm_layers.c ****                 mtype_t* sptr = (mtype_t*)TM_MATP(in, sy*y, sx*x, 0);
 346              		.loc 1 99 42 discriminator 2
 347 018a 9257     		lw	a5,36(sp)
 348 018c 6257     		lw	a4,56(sp)
 349 018e 5AC4     		sw	s6,8(sp)
 350 0190 8507     		addi	a5,a5,1
 351 0192 3ED2     		sw	a5,36(sp)
 352              	.LVL22:
 353 0194 F247     		lw	a5,28(sp)
 354              	.LVL23:
 355 0196 BA97     		add	a5,a5,a4
 356 0198 3ECE     		sw	a5,28(sp)
 357              	.LVL24:
 358              	.L34:
  99:lib/tinymaix/src/tm_layers.c ****                 mtype_t* sptr = (mtype_t*)TM_MATP(in, sy*y, sx*x, 0);
 359              		.loc 1 99 36 discriminator 1
 360 019a 9247     		lw	a5,4(sp)
  99:lib/tinymaix/src/tm_layers.c ****                 mtype_t* sptr = (mtype_t*)TM_MATP(in, sy*y, sx*x, 0);
 361              		.loc 1 99 13 discriminator 1
 362 019c 1257     		lw	a4,36(sp)
  99:lib/tinymaix/src/tm_layers.c ****                 mtype_t* sptr = (mtype_t*)TM_MATP(in, sy*y, sx*x, 0);
 363              		.loc 1 99 36 discriminator 1
 364 019e 83D74700 		lhu	a5,4(a5)
  99:lib/tinymaix/src/tm_layers.c ****                 mtype_t* sptr = (mtype_t*)TM_MATP(in, sy*y, sx*x, 0);
 365              		.loc 1 99 13 discriminator 1
 366 01a2 E343F7F8 		bgt	a5,a4,.L32
 367              	.LBE106:
  98:lib/tinymaix/src/tm_layers.c ****             for (int x = 0; x < out->w; x++) {
 368              		.loc 1 98 38 discriminator 2
 369 01a6 8257     		lw	a5,32(sp)
 370 01a8 7257     		lw	a4,60(sp)
 371 01aa 8507     		addi	a5,a5,1
 372 01ac 3ED0     		sw	a5,32(sp)
 373              	.LVL25:
 374 01ae C247     		lw	a5,16(sp)
 375              	.LVL26:
 376 01b0 BA97     		add	a5,a5,a4
 377 01b2 3EC8     		sw	a5,16(sp)
 378 01b4 8DB7     		j	.L9
 379              	.LVL27:
 380              	.L95:
 381              	.LBB107:
 382              	.LBB102:
GAS LISTING C:\Users\Jesper\AppData\Local\Temp\cclZf3Mh.s 			page 14


 383              	.LBB83:
 384              	.LBB71:
 163:lib/tinymaix/include/arch_cpu.h ****         sumtype_t sum = sums[i];
 385              		.loc 2 163 5
 386 01b6 26D4     		sw	s1,40(sp)
 387              	.LVL28:
 388              	.L16:
 389              	.LBB68:
 164:lib/tinymaix/include/arch_cpu.h ****         sum += bs[i];
 390              		.loc 2 164 9 is_stmt 1
 165:lib/tinymaix/include/arch_cpu.h ****         #if !TM_FASTSCALE
 391              		.loc 2 165 18 is_stmt 0
 392 01b8 E247     		lw	a5,24(sp)
 164:lib/tinymaix/include/arch_cpu.h ****         sum += bs[i];
 393              		.loc 2 164 19
 394 01ba 03250D00 		lw	a0,0(s10)
 395              	.LVL29:
 165:lib/tinymaix/include/arch_cpu.h ****         #if !TM_FASTSCALE
 396              		.loc 2 165 9 is_stmt 1
 167:lib/tinymaix/include/arch_cpu.h ****         #else 
 397              		.loc 2 167 13
 165:lib/tinymaix/include/arch_cpu.h ****         #if !TM_FASTSCALE
 398              		.loc 2 165 18 is_stmt 0
 399 01be DE97     		add	a5,a5,s7
 400              	.LVL30:
 165:lib/tinymaix/include/arch_cpu.h ****         #if !TM_FASTSCALE
 401              		.loc 2 165 13
 402 01c0 9C43     		lw	a5,0(a5)
 403              	.LVL31:
 167:lib/tinymaix/include/arch_cpu.h ****         #else 
 404              		.loc 2 167 29
 405 01c2 3E95     		add	a0,a0,a5
 406              	.LVL32:
 407 01c4 97000000 		call	__floatsisf
 407      E7800000 
 408              	.LVL33:
 167:lib/tinymaix/include/arch_cpu.h ****         #else 
 409              		.loc 2 167 36
 410 01cc C257     		lw	a5,48(sp)
 411 01ce DE97     		add	a5,s7,a5
 167:lib/tinymaix/include/arch_cpu.h ****         #else 
 412              		.loc 2 167 19
 413 01d0 8C43     		lw	a1,0(a5)
 414 01d2 97000000 		call	__mulsf3
 414      E7800000 
 415              	.LVL34:
 171:lib/tinymaix/include/arch_cpu.h ****         case TM_ACT_RELU:
 416              		.loc 2 171 9
 417 01da EA57     		lw	a5,184(sp)
 418 01dc 0547     		li	a4,1
 167:lib/tinymaix/include/arch_cpu.h ****         #else 
 419              		.loc 2 167 19
 420 01de AA8C     		mv	s9,a0
 421              	.LVL35:
 171:lib/tinymaix/include/arch_cpu.h ****         case TM_ACT_RELU:
 422              		.loc 2 171 9 is_stmt 1
 423 01e0 638EE704 		beq	a5,a4,.L11
GAS LISTING C:\Users\Jesper\AppData\Local\Temp\cclZf3Mh.s 			page 15


 424 01e4 0D47     		li	a4,3
 425 01e6 6386E706 		beq	a5,a4,.L12
 426              	.LVL36:
 427              	.L13:
 179:lib/tinymaix/include/arch_cpu.h ****         #else
 180:lib/tinymaix/include/arch_cpu.h ****             sumf = sumf>(6<<TM_FASTSCALE_SHIFT)?(6<<TM_FASTSCALE_SHIFT):sumf;
 181:lib/tinymaix/include/arch_cpu.h ****         #endif
 182:lib/tinymaix/include/arch_cpu.h ****             break;
 183:lib/tinymaix/include/arch_cpu.h ****         default:
 184:lib/tinymaix/include/arch_cpu.h ****             break;
 185:lib/tinymaix/include/arch_cpu.h ****         }
 186:lib/tinymaix/include/arch_cpu.h ****         #if !TM_FASTSCALE
 187:lib/tinymaix/include/arch_cpu.h ****             outp[i] = (mtype_t)(sumf*out_s_inv + out_zp);  //(mtype_t)((int)(sumf/out_s) + out_zp) 
 428              		.loc 2 187 13
 429              		.loc 2 187 21 is_stmt 0
 430 01ea A257     		lw	a5,40(sp)
 431              		.loc 2 187 37
 432 01ec 3245     		lw	a0,12(sp)
 433 01ee E685     		mv	a1,s9
 434              		.loc 2 187 21
 435 01f0 3307FB00 		add	a4,s6,a5
 436 01f4 BAC2     		sw	a4,68(sp)
 437              		.loc 2 187 37
 438 01f6 97000000 		call	__mulsf3
 438      E7800000 
 439              	.LVL37:
 440 01fe AAC0     		sw	a0,64(sp)
 441              		.loc 2 187 48
 442 0200 0E55     		lw	a0,224(sp)
 443 0202 110D     		addi	s10,s10,4
 444 0204 910B     		addi	s7,s7,4
 445 0206 97000000 		call	__floatsisf
 445      E7800000 
 446              	.LVL38:
 447 020e 8647     		lw	a5,64(sp)
 448 0210 AA85     		mv	a1,a0
 449 0212 3E85     		mv	a0,a5
 450 0214 97000000 		call	__addsf3
 450      E7800000 
 451              	.LVL39:
 452              		.loc 2 187 23
 453 021c 97000000 		call	__fixsfsi
 453      E7800000 
 454              	.LVL40:
 455 0224 1647     		lw	a4,68(sp)
 456              	.LBE68:
 163:lib/tinymaix/include/arch_cpu.h ****         sumtype_t sum = sums[i];
 457              		.loc 2 163 5
 458 0226 A257     		lw	a5,40(sp)
 459              	.LBB69:
 460              		.loc 2 187 23
 461 0228 2300A700 		sb	a0,0(a4)
 462              	.LVL41:
 463              	.LBE69:
 163:lib/tinymaix/include/arch_cpu.h ****         sumtype_t sum = sums[i];
 464              		.loc 2 163 5
 465 022c 0547     		li	a4,1
GAS LISTING C:\Users\Jesper\AppData\Local\Temp\cclZf3Mh.s 			page 16


 466 022e E394E7F8 		bne	a5,a4,.L95
 467              	.LBE71:
 468              	.LBE83:
 469              	.LBE102:
 470              	.LBE107:
 471              	.LBE62:
 472              	.LBE61:
 188:lib/tinymaix/include/arch_cpu.h ****         #else 
 189:lib/tinymaix/include/arch_cpu.h ****             outp[i] = (mtype_t)(((sumf*out_s)>>(TM_FASTSCALE_SHIFT+TM_FASTSCALE_SHIFT))+out_zp);
 190:lib/tinymaix/include/arch_cpu.h ****         #endif
 191:lib/tinymaix/include/arch_cpu.h ****     }
 192:lib/tinymaix/include/arch_cpu.h ****     return;
 473              		.loc 2 192 5 is_stmt 1
 474              	.LVL42:
 475              	.LBB114:
 476              	.LBB111:
 477              	.LBB108:
 478              	.LBB103:
 107:lib/tinymaix/src/tm_layers.c ****                     outp += BATCH_SIZE;
 479              		.loc 1 107 21
 109:lib/tinymaix/src/tm_layers.c ****                 }
 480              		.loc 1 109 26 is_stmt 0
 481 0232 B257     		lw	a5,44(sp)
 107:lib/tinymaix/src/tm_layers.c ****                     outp += BATCH_SIZE;
 482              		.loc 1 107 23
 483 0234 0904     		addi	s0,s0,2
 484              	.LVL43:
 108:lib/tinymaix/src/tm_layers.c ****                     kptr += chi*BATCH_SIZE;//*2;
 485              		.loc 1 108 21 is_stmt 1
 109:lib/tinymaix/src/tm_layers.c ****                 }
 486              		.loc 1 109 21
 109:lib/tinymaix/src/tm_layers.c ****                 }
 487              		.loc 1 109 26 is_stmt 0
 488 0236 BE99     		add	s3,s3,a5
 489              	.LVL44:
 490 0238 3E9C     		add	s8,s8,a5
 491 023a 31BF     		j	.L10
 492              	.LVL45:
 493              	.L11:
 494              	.LBB84:
 495              	.LBB72:
 496              	.LBB70:
 173:lib/tinymaix/include/arch_cpu.h ****             break;
 497              		.loc 2 173 13 is_stmt 1
 173:lib/tinymaix/include/arch_cpu.h ****             break;
 498              		.loc 2 173 31 is_stmt 0
 499 023c 93050000 		mv	a1,zero
 500 0240 97000000 		call	__gtsf2
 500      E7800000 
 501              	.LVL46:
 502 0248 E341A0FA 		bgt	a0,zero,.L13
 503              	.L123:
 504 024c 930C0000 		mv	s9,zero
 505              	.LVL47:
 506 0250 69BF     		j	.L13
 507              	.LVL48:
 508              	.L12:
GAS LISTING C:\Users\Jesper\AppData\Local\Temp\cclZf3Mh.s 			page 17


 176:lib/tinymaix/include/arch_cpu.h ****         #if (!TM_FASTSCALE)
 509              		.loc 2 176 13 is_stmt 1
 176:lib/tinymaix/include/arch_cpu.h ****         #if (!TM_FASTSCALE)
 510              		.loc 2 176 31 is_stmt 0
 511 0252 93050000 		mv	a1,zero
 512 0256 97000000 		call	__gtsf2
 512      E7800000 
 513              	.LVL49:
 514 025e E357A0FE 		ble	a0,zero,.L123
 178:lib/tinymaix/include/arch_cpu.h ****         #else
 515              		.loc 2 178 13 is_stmt 1
 178:lib/tinymaix/include/arch_cpu.h ****         #else
 516              		.loc 2 178 28 is_stmt 0
 517 0262 EE85     		mv	a1,s11
 518 0264 6685     		mv	a0,s9
 519 0266 97000000 		call	__gtsf2
 519      E7800000 
 520              	.LVL50:
 521 026e E35EA0F6 		ble	a0,zero,.L13
 522 0272 EE8C     		mv	s9,s11
 523              	.LVL51:
 524 0274 9DBF     		j	.L13
 525              	.LVL52:
 526              	.L17:
 527              	.LBE70:
 528              	.LBE72:
 529              	.LBE84:
 530              	.LBB85:
 105:lib/tinymaix/src/tm_layers.c ****                     tm_postprocess_sum(BATCH_SIZE, sums, b + c, act, outp, SUMSCALE, OUTSCALE, out_
 531              		.loc 1 105 25 is_stmt 1
 532              	.LBB78:
 533              	.LBB77:
  45:lib/tinymaix/include/arch_cpu.h ****     sumtype_t sum1 = 0;
 534              		.loc 2 45 5
  46:lib/tinymaix/include/arch_cpu.h ****     mtype_t* kptr0 = kptr;
 535              		.loc 2 46 5
  47:lib/tinymaix/include/arch_cpu.h ****     mtype_t* kptr1 = kptr+size;
 536              		.loc 2 47 5
  48:lib/tinymaix/include/arch_cpu.h **** 
 537              		.loc 2 48 5
  50:lib/tinymaix/include/arch_cpu.h ****     uint32_t cnt = (size>>3)<<3;  //8
 538              		.loc 2 50 5
  51:lib/tinymaix/include/arch_cpu.h ****     for(; i+8-1 <cnt; ){
 539              		.loc 2 51 5
  51:lib/tinymaix/include/arch_cpu.h ****     for(; i+8-1 <cnt; ){
 540              		.loc 2 51 14 is_stmt 0
 541 0276 93758AFF 		andi	a1,s4,-8
 542              	.LVL53:
  52:lib/tinymaix/include/arch_cpu.h ****         sum0 += sptr[i]*kptr0[i]; sum1 += sptr[i]*kptr1[i]; i++;
 543              		.loc 2 52 5 is_stmt 1
 544 027a CE86     		mv	a3,s3
  51:lib/tinymaix/include/arch_cpu.h ****     for(; i+8-1 <cnt; ){
 545              		.loc 2 51 14 is_stmt 0
 546 027c 6287     		mv	a4,s8
 547 027e D687     		mv	a5,s5
  46:lib/tinymaix/include/arch_cpu.h ****     mtype_t* kptr0 = kptr;
 548              		.loc 2 46 15
GAS LISTING C:\Users\Jesper\AppData\Local\Temp\cclZf3Mh.s 			page 18


 549 0280 0146     		li	a2,0
  45:lib/tinymaix/include/arch_cpu.h ****     sumtype_t sum1 = 0;
 550              		.loc 2 45 15
 551 0282 0148     		li	a6,0
 552              	.LVL54:
 553              	.L20:
  52:lib/tinymaix/include/arch_cpu.h ****         sum0 += sptr[i]*kptr0[i]; sum1 += sptr[i]*kptr1[i]; i++;
 554              		.loc 2 52 5
 555 0284 5255     		lw	a0,52(sp)
 556 0286 3E95     		add	a0,a0,a5
 557 0288 6376B50C 		bleu	a1,a0,.L19
  53:lib/tinymaix/include/arch_cpu.h ****         sum0 += sptr[i]*kptr0[i]; sum1 += sptr[i]*kptr1[i]; i++;
 558              		.loc 2 53 9 is_stmt 1
  53:lib/tinymaix/include/arch_cpu.h ****         sum0 += sptr[i]*kptr0[i]; sum1 += sptr[i]*kptr1[i]; i++;
 559              		.loc 2 53 21 is_stmt 0
 560 028c 03830700 		lb	t1,0(a5)
  53:lib/tinymaix/include/arch_cpu.h ****         sum0 += sptr[i]*kptr0[i]; sum1 += sptr[i]*kptr1[i]; i++;
 561              		.loc 2 53 30
 562 0290 83880600 		lb	a7,0(a3)
  53:lib/tinymaix/include/arch_cpu.h ****         sum0 += sptr[i]*kptr0[i]; sum1 += sptr[i]*kptr1[i]; i++;
 563              		.loc 2 53 56
 564 0294 03050700 		lb	a0,0(a4)
 565 0298 A107     		addi	a5,a5,8
 566              	.LVL55:
  53:lib/tinymaix/include/arch_cpu.h ****         sum0 += sptr[i]*kptr0[i]; sum1 += sptr[i]*kptr1[i]; i++;
 567              		.loc 2 53 24
 568 029a B3886802 		mul	a7,a7,t1
 569 029e A106     		addi	a3,a3,8
 570 02a0 2107     		addi	a4,a4,8
  53:lib/tinymaix/include/arch_cpu.h ****         sum0 += sptr[i]*kptr0[i]; sum1 += sptr[i]*kptr1[i]; i++;
 571              		.loc 2 53 50
 572 02a2 33056502 		mul	a0,a0,t1
  53:lib/tinymaix/include/arch_cpu.h ****         sum0 += sptr[i]*kptr0[i]; sum1 += sptr[i]*kptr1[i]; i++;
 573              		.loc 2 53 14
 574 02a6 C298     		add	a7,a7,a6
 575              	.LVL56:
  53:lib/tinymaix/include/arch_cpu.h ****         sum0 += sptr[i]*kptr0[i]; sum1 += sptr[i]*kptr1[i]; i++;
 576              		.loc 2 53 35 is_stmt 1
  54:lib/tinymaix/include/arch_cpu.h ****         sum0 += sptr[i]*kptr0[i]; sum1 += sptr[i]*kptr1[i]; i++;
 577              		.loc 2 54 21 is_stmt 0
 578 02a8 038397FF 		lb	t1,-7(a5)
  54:lib/tinymaix/include/arch_cpu.h ****         sum0 += sptr[i]*kptr0[i]; sum1 += sptr[i]*kptr1[i]; i++;
 579              		.loc 2 54 30
 580 02ac 038896FF 		lb	a6,-7(a3)
  53:lib/tinymaix/include/arch_cpu.h ****         sum0 += sptr[i]*kptr0[i]; sum1 += sptr[i]*kptr1[i]; i++;
 581              		.loc 2 53 40
 582 02b0 2A96     		add	a2,a0,a2
 583              	.LVL57:
  53:lib/tinymaix/include/arch_cpu.h ****         sum0 += sptr[i]*kptr0[i]; sum1 += sptr[i]*kptr1[i]; i++;
 584              		.loc 2 53 61 is_stmt 1
  54:lib/tinymaix/include/arch_cpu.h ****         sum0 += sptr[i]*kptr0[i]; sum1 += sptr[i]*kptr1[i]; i++;
 585              		.loc 2 54 9
  54:lib/tinymaix/include/arch_cpu.h ****         sum0 += sptr[i]*kptr0[i]; sum1 += sptr[i]*kptr1[i]; i++;
 586              		.loc 2 54 56 is_stmt 0
 587 02b2 030597FF 		lb	a0,-7(a4)
  54:lib/tinymaix/include/arch_cpu.h ****         sum0 += sptr[i]*kptr0[i]; sum1 += sptr[i]*kptr1[i]; i++;
 588              		.loc 2 54 24
GAS LISTING C:\Users\Jesper\AppData\Local\Temp\cclZf3Mh.s 			page 19


 589 02b6 33086802 		mul	a6,a6,t1
  54:lib/tinymaix/include/arch_cpu.h ****         sum0 += sptr[i]*kptr0[i]; sum1 += sptr[i]*kptr1[i]; i++;
 590              		.loc 2 54 50
 591 02ba 33056502 		mul	a0,a0,t1
  54:lib/tinymaix/include/arch_cpu.h ****         sum0 += sptr[i]*kptr0[i]; sum1 += sptr[i]*kptr1[i]; i++;
 592              		.loc 2 54 14
 593 02be C298     		add	a7,a6,a7
 594              	.LVL58:
  54:lib/tinymaix/include/arch_cpu.h ****         sum0 += sptr[i]*kptr0[i]; sum1 += sptr[i]*kptr1[i]; i++;
 595              		.loc 2 54 35 is_stmt 1
  55:lib/tinymaix/include/arch_cpu.h ****         sum0 += sptr[i]*kptr0[i]; sum1 += sptr[i]*kptr1[i]; i++;
 596              		.loc 2 55 21 is_stmt 0
 597 02c0 0383A7FF 		lb	t1,-6(a5)
  55:lib/tinymaix/include/arch_cpu.h ****         sum0 += sptr[i]*kptr0[i]; sum1 += sptr[i]*kptr1[i]; i++;
 598              		.loc 2 55 30
 599 02c4 0388A6FF 		lb	a6,-6(a3)
  54:lib/tinymaix/include/arch_cpu.h ****         sum0 += sptr[i]*kptr0[i]; sum1 += sptr[i]*kptr1[i]; i++;
 600              		.loc 2 54 40
 601 02c8 3295     		add	a0,a0,a2
 602              	.LVL59:
  54:lib/tinymaix/include/arch_cpu.h ****         sum0 += sptr[i]*kptr0[i]; sum1 += sptr[i]*kptr1[i]; i++;
 603              		.loc 2 54 61 is_stmt 1
  55:lib/tinymaix/include/arch_cpu.h ****         sum0 += sptr[i]*kptr0[i]; sum1 += sptr[i]*kptr1[i]; i++;
 604              		.loc 2 55 9
  55:lib/tinymaix/include/arch_cpu.h ****         sum0 += sptr[i]*kptr0[i]; sum1 += sptr[i]*kptr1[i]; i++;
 605              		.loc 2 55 56 is_stmt 0
 606 02ca 0306A7FF 		lb	a2,-6(a4)
  55:lib/tinymaix/include/arch_cpu.h ****         sum0 += sptr[i]*kptr0[i]; sum1 += sptr[i]*kptr1[i]; i++;
 607              		.loc 2 55 24
 608 02ce 33086802 		mul	a6,a6,t1
  55:lib/tinymaix/include/arch_cpu.h ****         sum0 += sptr[i]*kptr0[i]; sum1 += sptr[i]*kptr1[i]; i++;
 609              		.loc 2 55 50
 610 02d2 33066602 		mul	a2,a2,t1
  55:lib/tinymaix/include/arch_cpu.h ****         sum0 += sptr[i]*kptr0[i]; sum1 += sptr[i]*kptr1[i]; i++;
 611              		.loc 2 55 14
 612 02d6 4698     		add	a6,a6,a7
 613              	.LVL60:
  55:lib/tinymaix/include/arch_cpu.h ****         sum0 += sptr[i]*kptr0[i]; sum1 += sptr[i]*kptr1[i]; i++;
 614              		.loc 2 55 35 is_stmt 1
  56:lib/tinymaix/include/arch_cpu.h ****         sum0 += sptr[i]*kptr0[i]; sum1 += sptr[i]*kptr1[i]; i++;
 615              		.loc 2 56 21 is_stmt 0
 616 02d8 0383B7FF 		lb	t1,-5(a5)
  56:lib/tinymaix/include/arch_cpu.h ****         sum0 += sptr[i]*kptr0[i]; sum1 += sptr[i]*kptr1[i]; i++;
 617              		.loc 2 56 30
 618 02dc 8388B6FF 		lb	a7,-5(a3)
  55:lib/tinymaix/include/arch_cpu.h ****         sum0 += sptr[i]*kptr0[i]; sum1 += sptr[i]*kptr1[i]; i++;
 619              		.loc 2 55 40
 620 02e0 3295     		add	a0,a2,a0
 621              	.LVL61:
  55:lib/tinymaix/include/arch_cpu.h ****         sum0 += sptr[i]*kptr0[i]; sum1 += sptr[i]*kptr1[i]; i++;
 622              		.loc 2 55 61 is_stmt 1
  56:lib/tinymaix/include/arch_cpu.h ****         sum0 += sptr[i]*kptr0[i]; sum1 += sptr[i]*kptr1[i]; i++;
 623              		.loc 2 56 9
  56:lib/tinymaix/include/arch_cpu.h ****         sum0 += sptr[i]*kptr0[i]; sum1 += sptr[i]*kptr1[i]; i++;
 624              		.loc 2 56 56 is_stmt 0
 625 02e2 0306B7FF 		lb	a2,-5(a4)
  56:lib/tinymaix/include/arch_cpu.h ****         sum0 += sptr[i]*kptr0[i]; sum1 += sptr[i]*kptr1[i]; i++;
GAS LISTING C:\Users\Jesper\AppData\Local\Temp\cclZf3Mh.s 			page 20


 626              		.loc 2 56 24
 627 02e6 B3886802 		mul	a7,a7,t1
  56:lib/tinymaix/include/arch_cpu.h ****         sum0 += sptr[i]*kptr0[i]; sum1 += sptr[i]*kptr1[i]; i++;
 628              		.loc 2 56 50
 629 02ea 33066602 		mul	a2,a2,t1
  56:lib/tinymaix/include/arch_cpu.h ****         sum0 += sptr[i]*kptr0[i]; sum1 += sptr[i]*kptr1[i]; i++;
 630              		.loc 2 56 14
 631 02ee 4698     		add	a6,a7,a6
 632              	.LVL62:
  56:lib/tinymaix/include/arch_cpu.h ****         sum0 += sptr[i]*kptr0[i]; sum1 += sptr[i]*kptr1[i]; i++;
 633              		.loc 2 56 35 is_stmt 1
  57:lib/tinymaix/include/arch_cpu.h ****         sum0 += sptr[i]*kptr0[i]; sum1 += sptr[i]*kptr1[i]; i++;
 634              		.loc 2 57 21 is_stmt 0
 635 02f0 0383C7FF 		lb	t1,-4(a5)
  57:lib/tinymaix/include/arch_cpu.h ****         sum0 += sptr[i]*kptr0[i]; sum1 += sptr[i]*kptr1[i]; i++;
 636              		.loc 2 57 30
 637 02f4 8388C6FF 		lb	a7,-4(a3)
  56:lib/tinymaix/include/arch_cpu.h ****         sum0 += sptr[i]*kptr0[i]; sum1 += sptr[i]*kptr1[i]; i++;
 638              		.loc 2 56 40
 639 02f8 2A96     		add	a2,a2,a0
 640              	.LVL63:
  56:lib/tinymaix/include/arch_cpu.h ****         sum0 += sptr[i]*kptr0[i]; sum1 += sptr[i]*kptr1[i]; i++;
 641              		.loc 2 56 61 is_stmt 1
  57:lib/tinymaix/include/arch_cpu.h ****         sum0 += sptr[i]*kptr0[i]; sum1 += sptr[i]*kptr1[i]; i++;
 642              		.loc 2 57 9
  57:lib/tinymaix/include/arch_cpu.h ****         sum0 += sptr[i]*kptr0[i]; sum1 += sptr[i]*kptr1[i]; i++;
 643              		.loc 2 57 56 is_stmt 0
 644 02fa 0305C7FF 		lb	a0,-4(a4)
  57:lib/tinymaix/include/arch_cpu.h ****         sum0 += sptr[i]*kptr0[i]; sum1 += sptr[i]*kptr1[i]; i++;
 645              		.loc 2 57 24
 646 02fe B3886802 		mul	a7,a7,t1
  57:lib/tinymaix/include/arch_cpu.h ****         sum0 += sptr[i]*kptr0[i]; sum1 += sptr[i]*kptr1[i]; i++;
 647              		.loc 2 57 50
 648 0302 33056502 		mul	a0,a0,t1
  57:lib/tinymaix/include/arch_cpu.h ****         sum0 += sptr[i]*kptr0[i]; sum1 += sptr[i]*kptr1[i]; i++;
 649              		.loc 2 57 14
 650 0306 C298     		add	a7,a7,a6
 651              	.LVL64:
  57:lib/tinymaix/include/arch_cpu.h ****         sum0 += sptr[i]*kptr0[i]; sum1 += sptr[i]*kptr1[i]; i++;
 652              		.loc 2 57 35 is_stmt 1
  58:lib/tinymaix/include/arch_cpu.h ****         sum0 += sptr[i]*kptr0[i]; sum1 += sptr[i]*kptr1[i]; i++;
 653              		.loc 2 58 21 is_stmt 0
 654 0308 0383D7FF 		lb	t1,-3(a5)
  58:lib/tinymaix/include/arch_cpu.h ****         sum0 += sptr[i]*kptr0[i]; sum1 += sptr[i]*kptr1[i]; i++;
 655              		.loc 2 58 30
 656 030c 0388D6FF 		lb	a6,-3(a3)
  57:lib/tinymaix/include/arch_cpu.h ****         sum0 += sptr[i]*kptr0[i]; sum1 += sptr[i]*kptr1[i]; i++;
 657              		.loc 2 57 40
 658 0310 2A96     		add	a2,a0,a2
 659              	.LVL65:
  57:lib/tinymaix/include/arch_cpu.h ****         sum0 += sptr[i]*kptr0[i]; sum1 += sptr[i]*kptr1[i]; i++;
 660              		.loc 2 57 61 is_stmt 1
  58:lib/tinymaix/include/arch_cpu.h ****         sum0 += sptr[i]*kptr0[i]; sum1 += sptr[i]*kptr1[i]; i++;
 661              		.loc 2 58 9
  58:lib/tinymaix/include/arch_cpu.h ****         sum0 += sptr[i]*kptr0[i]; sum1 += sptr[i]*kptr1[i]; i++;
 662              		.loc 2 58 56 is_stmt 0
 663 0312 0305D7FF 		lb	a0,-3(a4)
GAS LISTING C:\Users\Jesper\AppData\Local\Temp\cclZf3Mh.s 			page 21


  58:lib/tinymaix/include/arch_cpu.h ****         sum0 += sptr[i]*kptr0[i]; sum1 += sptr[i]*kptr1[i]; i++;
 664              		.loc 2 58 24
 665 0316 33086802 		mul	a6,a6,t1
  58:lib/tinymaix/include/arch_cpu.h ****         sum0 += sptr[i]*kptr0[i]; sum1 += sptr[i]*kptr1[i]; i++;
 666              		.loc 2 58 50
 667 031a 33056502 		mul	a0,a0,t1
  58:lib/tinymaix/include/arch_cpu.h ****         sum0 += sptr[i]*kptr0[i]; sum1 += sptr[i]*kptr1[i]; i++;
 668              		.loc 2 58 14
 669 031e C298     		add	a7,a6,a7
 670              	.LVL66:
  58:lib/tinymaix/include/arch_cpu.h ****         sum0 += sptr[i]*kptr0[i]; sum1 += sptr[i]*kptr1[i]; i++;
 671              		.loc 2 58 35 is_stmt 1
  59:lib/tinymaix/include/arch_cpu.h ****         sum0 += sptr[i]*kptr0[i]; sum1 += sptr[i]*kptr1[i]; i++;
 672              		.loc 2 59 21 is_stmt 0
 673 0320 0383E7FF 		lb	t1,-2(a5)
  59:lib/tinymaix/include/arch_cpu.h ****         sum0 += sptr[i]*kptr0[i]; sum1 += sptr[i]*kptr1[i]; i++;
 674              		.loc 2 59 30
 675 0324 0388E6FF 		lb	a6,-2(a3)
  58:lib/tinymaix/include/arch_cpu.h ****         sum0 += sptr[i]*kptr0[i]; sum1 += sptr[i]*kptr1[i]; i++;
 676              		.loc 2 58 40
 677 0328 3295     		add	a0,a0,a2
 678              	.LVL67:
  58:lib/tinymaix/include/arch_cpu.h ****         sum0 += sptr[i]*kptr0[i]; sum1 += sptr[i]*kptr1[i]; i++;
 679              		.loc 2 58 61 is_stmt 1
  59:lib/tinymaix/include/arch_cpu.h ****         sum0 += sptr[i]*kptr0[i]; sum1 += sptr[i]*kptr1[i]; i++;
 680              		.loc 2 59 9
  59:lib/tinymaix/include/arch_cpu.h ****         sum0 += sptr[i]*kptr0[i]; sum1 += sptr[i]*kptr1[i]; i++;
 681              		.loc 2 59 56 is_stmt 0
 682 032a 0306E7FF 		lb	a2,-2(a4)
  59:lib/tinymaix/include/arch_cpu.h ****         sum0 += sptr[i]*kptr0[i]; sum1 += sptr[i]*kptr1[i]; i++;
 683              		.loc 2 59 24
 684 032e 33086802 		mul	a6,a6,t1
  59:lib/tinymaix/include/arch_cpu.h ****         sum0 += sptr[i]*kptr0[i]; sum1 += sptr[i]*kptr1[i]; i++;
 685              		.loc 2 59 50
 686 0332 33066602 		mul	a2,a2,t1
  59:lib/tinymaix/include/arch_cpu.h ****         sum0 += sptr[i]*kptr0[i]; sum1 += sptr[i]*kptr1[i]; i++;
 687              		.loc 2 59 14
 688 0336 4698     		add	a6,a6,a7
 689              	.LVL68:
  59:lib/tinymaix/include/arch_cpu.h ****         sum0 += sptr[i]*kptr0[i]; sum1 += sptr[i]*kptr1[i]; i++;
 690              		.loc 2 59 35 is_stmt 1
  60:lib/tinymaix/include/arch_cpu.h ****     }
 691              		.loc 2 60 21 is_stmt 0
 692 0338 0383F7FF 		lb	t1,-1(a5)
  60:lib/tinymaix/include/arch_cpu.h ****     }
 693              		.loc 2 60 30
 694 033c 8388F6FF 		lb	a7,-1(a3)
  59:lib/tinymaix/include/arch_cpu.h ****         sum0 += sptr[i]*kptr0[i]; sum1 += sptr[i]*kptr1[i]; i++;
 695              		.loc 2 59 40
 696 0340 3295     		add	a0,a2,a0
 697              	.LVL69:
  59:lib/tinymaix/include/arch_cpu.h ****         sum0 += sptr[i]*kptr0[i]; sum1 += sptr[i]*kptr1[i]; i++;
 698              		.loc 2 59 61 is_stmt 1
  60:lib/tinymaix/include/arch_cpu.h ****     }
 699              		.loc 2 60 9
  60:lib/tinymaix/include/arch_cpu.h ****     }
 700              		.loc 2 60 56 is_stmt 0
GAS LISTING C:\Users\Jesper\AppData\Local\Temp\cclZf3Mh.s 			page 22


 701 0342 0306F7FF 		lb	a2,-1(a4)
  60:lib/tinymaix/include/arch_cpu.h ****     }
 702              		.loc 2 60 24
 703 0346 B3886802 		mul	a7,a7,t1
  60:lib/tinymaix/include/arch_cpu.h ****     }
 704              		.loc 2 60 50
 705 034a 33066602 		mul	a2,a2,t1
  60:lib/tinymaix/include/arch_cpu.h ****     }
 706              		.loc 2 60 14
 707 034e 4698     		add	a6,a7,a6
 708              	.LVL70:
  60:lib/tinymaix/include/arch_cpu.h ****     }
 709              		.loc 2 60 35 is_stmt 1
  60:lib/tinymaix/include/arch_cpu.h ****     }
 710              		.loc 2 60 40 is_stmt 0
 711 0350 2A96     		add	a2,a2,a0
 712              	.LVL71:
  60:lib/tinymaix/include/arch_cpu.h ****     }
 713              		.loc 2 60 61 is_stmt 1
 714 0352 0DBF     		j	.L20
 715              	.LVL72:
 716              	.L19:
  62:lib/tinymaix/include/arch_cpu.h ****         sum0 += sptr[i]*kptr0[i]; 
 717              		.loc 2 62 5 is_stmt 0
 718 0354 63F64503 		bleu	s4,a1,.L21
  63:lib/tinymaix/include/arch_cpu.h ****         sum1 += sptr[i]*kptr1[i]; 
 719              		.loc 2 63 9 is_stmt 1
  63:lib/tinymaix/include/arch_cpu.h ****         sum1 += sptr[i]*kptr1[i]; 
 720              		.loc 2 63 21 is_stmt 0
 721 0358 B387BA00 		add	a5,s5,a1
 722 035c 83860700 		lb	a3,0(a5)
  63:lib/tinymaix/include/arch_cpu.h ****         sum1 += sptr[i]*kptr1[i]; 
 723              		.loc 2 63 30
 724 0360 B387B900 		add	a5,s3,a1
 725 0364 03870700 		lb	a4,0(a5)
  64:lib/tinymaix/include/arch_cpu.h ****     }
 726              		.loc 2 64 30
 727 0368 B307BC00 		add	a5,s8,a1
 728 036c 83870700 		lb	a5,0(a5)
  63:lib/tinymaix/include/arch_cpu.h ****         sum1 += sptr[i]*kptr1[i]; 
 729              		.loc 2 63 24
 730 0370 3307D702 		mul	a4,a4,a3
  62:lib/tinymaix/include/arch_cpu.h ****         sum0 += sptr[i]*kptr0[i]; 
 731              		.loc 2 62 21
 732 0374 8505     		addi	a1,a1,1
 733              	.LVL73:
  64:lib/tinymaix/include/arch_cpu.h ****     }
 734              		.loc 2 64 24
 735 0376 B387D702 		mul	a5,a5,a3
  63:lib/tinymaix/include/arch_cpu.h ****         sum1 += sptr[i]*kptr1[i]; 
 736              		.loc 2 63 14
 737 037a 3A98     		add	a6,a6,a4
 738              	.LVL74:
  64:lib/tinymaix/include/arch_cpu.h ****     }
 739              		.loc 2 64 9 is_stmt 1
  64:lib/tinymaix/include/arch_cpu.h ****     }
 740              		.loc 2 64 14 is_stmt 0
GAS LISTING C:\Users\Jesper\AppData\Local\Temp\cclZf3Mh.s 			page 23


 741 037c 3E96     		add	a2,a2,a5
 742              	.LVL75:
 743 037e D9BF     		j	.L19
 744              	.L21:
  67:lib/tinymaix/include/arch_cpu.h ****     result[1] = sum1;
 745              		.loc 2 67 5 is_stmt 1
  67:lib/tinymaix/include/arch_cpu.h ****     result[1] = sum1;
 746              		.loc 2 67 15 is_stmt 0
 747 0380 C2D4     		sw	a6,104(sp)
  68:lib/tinymaix/include/arch_cpu.h ****     return;
 748              		.loc 2 68 5 is_stmt 1
  68:lib/tinymaix/include/arch_cpu.h ****     return;
 749              		.loc 2 68 15 is_stmt 0
 750 0382 B2D6     		sw	a2,108(sp)
  69:lib/tinymaix/include/arch_cpu.h **** }
 751              		.loc 2 69 5 is_stmt 1
 752              	.LVL76:
 753              	.LBE77:
 754              	.LBE78:
 755              	.LBE85:
 106:lib/tinymaix/src/tm_layers.c ****                     c += BATCH_SIZE;
 756              		.loc 1 106 21
 757              	.LBE103:
 758              	.LBE108:
 759              	.LBE111:
 760              	.LBE114:
 163:lib/tinymaix/include/arch_cpu.h ****         sumtype_t sum = sums[i];
 761              		.loc 2 163 5
 762              	.LBB115:
 763              	.LBB112:
 764              	.LBB109:
 765              	.LBB104:
 766              	.LBB86:
 767              	.LBB73:
 163:lib/tinymaix/include/arch_cpu.h ****         sumtype_t sum = sums[i];
 768              		.loc 2 163 9
 769 0384 130D8106 		addi	s10,sp,104
 770              	.LVL77:
 771 0388 931B2400 		slli	s7,s0,2
 163:lib/tinymaix/include/arch_cpu.h ****         sumtype_t sum = sums[i];
 772              		.loc 2 163 13 is_stmt 0
 773 038c 02D4     		sw	zero,40(sp)
 774 038e 2DB5     		j	.L16
 775              	.LVL78:
 776              	.L31:
 777              	.LBE73:
 778              	.LBE86:
 112:lib/tinymaix/src/tm_layers.c ****                     tm_postprocess_sum(1, &sum, b + c, act, outp, SUMSCALE, OUTSCALE, out_zp); outp
 779              		.loc 1 112 21 is_stmt 1 discriminator 2
 780              	.LBB87:
 781              	.LBB81:
  23:lib/tinymaix/include/arch_cpu.h ****     uint32_t i = 0;
 782              		.loc 2 23 5 discriminator 2
  24:lib/tinymaix/include/arch_cpu.h ****     uint32_t cnt = (size>>3)<<3;  //8
 783              		.loc 2 24 5 discriminator 2
  25:lib/tinymaix/include/arch_cpu.h ****     for(; i+8-1 <cnt; ){
 784              		.loc 2 25 5 discriminator 2
GAS LISTING C:\Users\Jesper\AppData\Local\Temp\cclZf3Mh.s 			page 24


  25:lib/tinymaix/include/arch_cpu.h ****     for(; i+8-1 <cnt; ){
 785              		.loc 2 25 14 is_stmt 0 discriminator 2
 786 0390 13768AFF 		andi	a2,s4,-8
 787              	.LVL79:
  26:lib/tinymaix/include/arch_cpu.h ****         sum += sptr[i]*kptr[i];i++;
 788              		.loc 2 26 5 is_stmt 1 discriminator 2
 789 0394 4E87     		mv	a4,s3
  25:lib/tinymaix/include/arch_cpu.h ****     for(; i+8-1 <cnt; ){
 790              		.loc 2 25 14 is_stmt 0 discriminator 2
 791 0396 D687     		mv	a5,s5
  23:lib/tinymaix/include/arch_cpu.h ****     uint32_t i = 0;
 792              		.loc 2 23 15 discriminator 2
 793 0398 8146     		li	a3,0
 794              	.LVL80:
 795              	.L22:
  26:lib/tinymaix/include/arch_cpu.h ****         sum += sptr[i]*kptr[i];i++;
 796              		.loc 2 26 5
 797 039a B305FC00 		add	a1,s8,a5
 798 039e 63E5C506 		bltu	a1,a2,.L23
 799              	.LVL81:
 800              	.L24:
  36:lib/tinymaix/include/arch_cpu.h ****         sum += sptr[i]*kptr[i]; 
 801              		.loc 2 36 5
 802 03a2 636E460D 		bgtu	s4,a2,.L25
  39:lib/tinymaix/include/arch_cpu.h ****     return;
 803              		.loc 2 39 5 is_stmt 1
 804              	.LVL82:
  40:lib/tinymaix/include/arch_cpu.h **** }
 805              		.loc 2 40 5
 806              	.LBE81:
 807              	.LBE87:
 113:lib/tinymaix/src/tm_layers.c ****                     kptr += chi;
 808              		.loc 1 113 21
 809              	.LBB88:
 810              	.LBB89:
 811              	.LBB90:
 164:lib/tinymaix/include/arch_cpu.h ****         sum += bs[i];
 812              		.loc 2 164 9
 165:lib/tinymaix/include/arch_cpu.h ****         #if !TM_FASTSCALE
 813              		.loc 2 165 9
 167:lib/tinymaix/include/arch_cpu.h ****         #else 
 814              		.loc 2 167 13
 165:lib/tinymaix/include/arch_cpu.h ****         #if !TM_FASTSCALE
 815              		.loc 2 165 13 is_stmt 0
 816 03a6 03A50B00 		lw	a0,0(s7)
 167:lib/tinymaix/include/arch_cpu.h ****         #else 
 817              		.loc 2 167 29
 818 03aa 3695     		add	a0,a3,a0
 819              	.LVL83:
 820 03ac 97000000 		call	__floatsisf
 820      E7800000 
 821              	.LVL84:
 167:lib/tinymaix/include/arch_cpu.h ****         #else 
 822              		.loc 2 167 19
 823 03b4 0C40     		lw	a1,0(s0)
 824 03b6 97000000 		call	__mulsf3
 824      E7800000 
GAS LISTING C:\Users\Jesper\AppData\Local\Temp\cclZf3Mh.s 			page 25


 825              	.LVL85:
 171:lib/tinymaix/include/arch_cpu.h ****         case TM_ACT_RELU:
 826              		.loc 2 171 9
 827 03be EA57     		lw	a5,184(sp)
 828 03c0 0547     		li	a4,1
 167:lib/tinymaix/include/arch_cpu.h ****         #else 
 829              		.loc 2 167 19
 830 03c2 AA8C     		mv	s9,a0
 831              	.LVL86:
 171:lib/tinymaix/include/arch_cpu.h ****         case TM_ACT_RELU:
 832              		.loc 2 171 9 is_stmt 1
 833 03c4 638AE70C 		beq	a5,a4,.L26
 834 03c8 0D47     		li	a4,3
 835 03ca 6382E70E 		beq	a5,a4,.L27
 836              	.LVL87:
 837              	.L28:
 187:lib/tinymaix/include/arch_cpu.h ****         #else 
 838              		.loc 2 187 13
 187:lib/tinymaix/include/arch_cpu.h ****         #else 
 839              		.loc 2 187 37 is_stmt 0
 840 03ce 3245     		lw	a0,12(sp)
 841 03d0 E685     		mv	a1,s9
 842              	.LBE90:
 843              	.LBE89:
 844              	.LBE88:
 113:lib/tinymaix/src/tm_layers.c ****                     kptr += chi;
 845              		.loc 1 113 100
 846 03d2 050B     		addi	s6,s6,1
 847              	.LVL88:
 848              	.LBB97:
 849              	.LBB94:
 850              	.LBB91:
 187:lib/tinymaix/include/arch_cpu.h ****         #else 
 851              		.loc 2 187 37
 852 03d4 97000000 		call	__mulsf3
 852      E7800000 
 853              	.LVL89:
 854 03dc AA8C     		mv	s9,a0
 855              	.LVL90:
 187:lib/tinymaix/include/arch_cpu.h ****         #else 
 856              		.loc 2 187 48
 857 03de 0E55     		lw	a0,224(sp)
 858              	.LBE91:
 859              	.LBE94:
 860              	.LBE97:
 114:lib/tinymaix/src/tm_layers.c ****                 }
 861              		.loc 1 114 26
 862 03e0 D299     		add	s3,s3,s4
 863              	.LVL91:
 864 03e2 910B     		addi	s7,s7,4
 865              	.LVL92:
 866              	.LBB98:
 867              	.LBB95:
 868              	.LBB92:
 187:lib/tinymaix/include/arch_cpu.h ****         #else 
 869              		.loc 2 187 48
 870 03e4 97000000 		call	__floatsisf
GAS LISTING C:\Users\Jesper\AppData\Local\Temp\cclZf3Mh.s 			page 26


 870      E7800000 
 871              	.LVL93:
 872 03ec AA85     		mv	a1,a0
 873 03ee 6685     		mv	a0,s9
 874 03f0 97000000 		call	__addsf3
 874      E7800000 
 875              	.LVL94:
 187:lib/tinymaix/include/arch_cpu.h ****         #else 
 876              		.loc 2 187 23
 877 03f8 97000000 		call	__fixsfsi
 877      E7800000 
 878              	.LVL95:
 879 0400 A30FABFE 		sb	a0,-1(s6)
 880              	.LVL96:
 881              	.LBE92:
 882              	.LBE95:
 883              	.LBE98:
 884              	.LBE104:
 885              	.LBE109:
 886              	.LBE112:
 887              	.LBE115:
 888              		.loc 2 192 5 is_stmt 1
 889              	.LBB116:
 890              	.LBB113:
 891              	.LBB110:
 892              	.LBB105:
 113:lib/tinymaix/src/tm_layers.c ****                     kptr += chi;
 893              		.loc 1 113 96
 114:lib/tinymaix/src/tm_layers.c ****                 }
 894              		.loc 1 114 21
 895 0404 1104     		addi	s0,s0,4
 896 0406 95BB     		j	.L18
 897              	.LVL97:
 898              	.L23:
 899              	.LBB99:
 900              	.LBB82:
  27:lib/tinymaix/include/arch_cpu.h ****         sum += sptr[i]*kptr[i];i++;
 901              		.loc 2 27 9
  27:lib/tinymaix/include/arch_cpu.h ****         sum += sptr[i]*kptr[i];i++;
 902              		.loc 2 27 28 is_stmt 0
 903 0408 83050700 		lb	a1,0(a4)
  27:lib/tinymaix/include/arch_cpu.h ****         sum += sptr[i]*kptr[i];i++;
 904              		.loc 2 27 20
 905 040c 03850700 		lb	a0,0(a5)
 906 0410 2107     		addi	a4,a4,8
 907 0412 A107     		addi	a5,a5,8
 908              	.LVL98:
  27:lib/tinymaix/include/arch_cpu.h ****         sum += sptr[i]*kptr[i];i++;
 909              		.loc 2 27 23
 910 0414 3305B502 		mul	a0,a0,a1
  28:lib/tinymaix/include/arch_cpu.h ****         sum += sptr[i]*kptr[i];i++;
 911              		.loc 2 28 28
 912 0418 830597FF 		lb	a1,-7(a4)
  27:lib/tinymaix/include/arch_cpu.h ****         sum += sptr[i]*kptr[i];i++;
 913              		.loc 2 27 13
 914 041c 3695     		add	a0,a0,a3
 915              	.LVL99:
GAS LISTING C:\Users\Jesper\AppData\Local\Temp\cclZf3Mh.s 			page 27


  27:lib/tinymaix/include/arch_cpu.h ****         sum += sptr[i]*kptr[i];i++;
 916              		.loc 2 27 32 is_stmt 1
  28:lib/tinymaix/include/arch_cpu.h ****         sum += sptr[i]*kptr[i];i++;
 917              		.loc 2 28 9
  28:lib/tinymaix/include/arch_cpu.h ****         sum += sptr[i]*kptr[i];i++;
 918              		.loc 2 28 20 is_stmt 0
 919 041e 838697FF 		lb	a3,-7(a5)
  28:lib/tinymaix/include/arch_cpu.h ****         sum += sptr[i]*kptr[i];i++;
 920              		.loc 2 28 23
 921 0422 B386B602 		mul	a3,a3,a1
  29:lib/tinymaix/include/arch_cpu.h ****         sum += sptr[i]*kptr[i];i++;
 922              		.loc 2 29 28
 923 0426 8305A7FF 		lb	a1,-6(a4)
  28:lib/tinymaix/include/arch_cpu.h ****         sum += sptr[i]*kptr[i];i++;
 924              		.loc 2 28 13
 925 042a AA96     		add	a3,a3,a0
 926              	.LVL100:
  28:lib/tinymaix/include/arch_cpu.h ****         sum += sptr[i]*kptr[i];i++;
 927              		.loc 2 28 32 is_stmt 1
  29:lib/tinymaix/include/arch_cpu.h ****         sum += sptr[i]*kptr[i];i++;
 928              		.loc 2 29 9
  29:lib/tinymaix/include/arch_cpu.h ****         sum += sptr[i]*kptr[i];i++;
 929              		.loc 2 29 20 is_stmt 0
 930 042c 0385A7FF 		lb	a0,-6(a5)
  29:lib/tinymaix/include/arch_cpu.h ****         sum += sptr[i]*kptr[i];i++;
 931              		.loc 2 29 23
 932 0430 3305B502 		mul	a0,a0,a1
  30:lib/tinymaix/include/arch_cpu.h ****         sum += sptr[i]*kptr[i];i++;
 933              		.loc 2 30 28
 934 0434 8305B7FF 		lb	a1,-5(a4)
  29:lib/tinymaix/include/arch_cpu.h ****         sum += sptr[i]*kptr[i];i++;
 935              		.loc 2 29 13
 936 0438 3695     		add	a0,a0,a3
 937              	.LVL101:
  29:lib/tinymaix/include/arch_cpu.h ****         sum += sptr[i]*kptr[i];i++;
 938              		.loc 2 29 32 is_stmt 1
  30:lib/tinymaix/include/arch_cpu.h ****         sum += sptr[i]*kptr[i];i++;
 939              		.loc 2 30 9
  30:lib/tinymaix/include/arch_cpu.h ****         sum += sptr[i]*kptr[i];i++;
 940              		.loc 2 30 20 is_stmt 0
 941 043a 8386B7FF 		lb	a3,-5(a5)
  30:lib/tinymaix/include/arch_cpu.h ****         sum += sptr[i]*kptr[i];i++;
 942              		.loc 2 30 23
 943 043e B386B602 		mul	a3,a3,a1
  31:lib/tinymaix/include/arch_cpu.h ****         sum += sptr[i]*kptr[i];i++;
 944              		.loc 2 31 28
 945 0442 8305C7FF 		lb	a1,-4(a4)
  30:lib/tinymaix/include/arch_cpu.h ****         sum += sptr[i]*kptr[i];i++;
 946              		.loc 2 30 13
 947 0446 AA96     		add	a3,a3,a0
 948              	.LVL102:
  30:lib/tinymaix/include/arch_cpu.h ****         sum += sptr[i]*kptr[i];i++;
 949              		.loc 2 30 32 is_stmt 1
  31:lib/tinymaix/include/arch_cpu.h ****         sum += sptr[i]*kptr[i];i++;
 950              		.loc 2 31 9
  31:lib/tinymaix/include/arch_cpu.h ****         sum += sptr[i]*kptr[i];i++;
 951              		.loc 2 31 20 is_stmt 0
GAS LISTING C:\Users\Jesper\AppData\Local\Temp\cclZf3Mh.s 			page 28


 952 0448 0385C7FF 		lb	a0,-4(a5)
  31:lib/tinymaix/include/arch_cpu.h ****         sum += sptr[i]*kptr[i];i++;
 953              		.loc 2 31 23
 954 044c 3305B502 		mul	a0,a0,a1
  32:lib/tinymaix/include/arch_cpu.h ****         sum += sptr[i]*kptr[i];i++;
 955              		.loc 2 32 28
 956 0450 8305D7FF 		lb	a1,-3(a4)
  31:lib/tinymaix/include/arch_cpu.h ****         sum += sptr[i]*kptr[i];i++;
 957              		.loc 2 31 13
 958 0454 3695     		add	a0,a0,a3
 959              	.LVL103:
  31:lib/tinymaix/include/arch_cpu.h ****         sum += sptr[i]*kptr[i];i++;
 960              		.loc 2 31 32 is_stmt 1
  32:lib/tinymaix/include/arch_cpu.h ****         sum += sptr[i]*kptr[i];i++;
 961              		.loc 2 32 9
  32:lib/tinymaix/include/arch_cpu.h ****         sum += sptr[i]*kptr[i];i++;
 962              		.loc 2 32 20 is_stmt 0
 963 0456 8386D7FF 		lb	a3,-3(a5)
  32:lib/tinymaix/include/arch_cpu.h ****         sum += sptr[i]*kptr[i];i++;
 964              		.loc 2 32 23
 965 045a B386B602 		mul	a3,a3,a1
  33:lib/tinymaix/include/arch_cpu.h ****         sum += sptr[i]*kptr[i];i++;
 966              		.loc 2 33 28
 967 045e 8305E7FF 		lb	a1,-2(a4)
  32:lib/tinymaix/include/arch_cpu.h ****         sum += sptr[i]*kptr[i];i++;
 968              		.loc 2 32 13
 969 0462 AA96     		add	a3,a3,a0
 970              	.LVL104:
  32:lib/tinymaix/include/arch_cpu.h ****         sum += sptr[i]*kptr[i];i++;
 971              		.loc 2 32 32 is_stmt 1
  33:lib/tinymaix/include/arch_cpu.h ****         sum += sptr[i]*kptr[i];i++;
 972              		.loc 2 33 9
  33:lib/tinymaix/include/arch_cpu.h ****         sum += sptr[i]*kptr[i];i++;
 973              		.loc 2 33 20 is_stmt 0
 974 0464 0385E7FF 		lb	a0,-2(a5)
  33:lib/tinymaix/include/arch_cpu.h ****         sum += sptr[i]*kptr[i];i++;
 975              		.loc 2 33 23
 976 0468 3305B502 		mul	a0,a0,a1
  34:lib/tinymaix/include/arch_cpu.h ****     }
 977              		.loc 2 34 28
 978 046c 8305F7FF 		lb	a1,-1(a4)
  33:lib/tinymaix/include/arch_cpu.h ****         sum += sptr[i]*kptr[i];i++;
 979              		.loc 2 33 13
 980 0470 3695     		add	a0,a0,a3
 981              	.LVL105:
  33:lib/tinymaix/include/arch_cpu.h ****         sum += sptr[i]*kptr[i];i++;
 982              		.loc 2 33 32 is_stmt 1
  34:lib/tinymaix/include/arch_cpu.h ****     }
 983              		.loc 2 34 9
  34:lib/tinymaix/include/arch_cpu.h ****     }
 984              		.loc 2 34 20 is_stmt 0
 985 0472 8386F7FF 		lb	a3,-1(a5)
  34:lib/tinymaix/include/arch_cpu.h ****     }
 986              		.loc 2 34 23
 987 0476 B386B602 		mul	a3,a3,a1
  34:lib/tinymaix/include/arch_cpu.h ****     }
 988              		.loc 2 34 13
GAS LISTING C:\Users\Jesper\AppData\Local\Temp\cclZf3Mh.s 			page 29


 989 047a AA96     		add	a3,a3,a0
 990              	.LVL106:
  34:lib/tinymaix/include/arch_cpu.h ****     }
 991              		.loc 2 34 32 is_stmt 1
 992 047c 39BF     		j	.L22
 993              	.LVL107:
 994              	.L25:
  37:lib/tinymaix/include/arch_cpu.h ****     }
 995              		.loc 2 37 9
  37:lib/tinymaix/include/arch_cpu.h ****     }
 996              		.loc 2 37 20 is_stmt 0
 997 047e B387CA00 		add	a5,s5,a2
  37:lib/tinymaix/include/arch_cpu.h ****     }
 998              		.loc 2 37 28
 999 0482 3387C900 		add	a4,s3,a2
  37:lib/tinymaix/include/arch_cpu.h ****     }
 1000              		.loc 2 37 20
 1001 0486 83870700 		lb	a5,0(a5)
  37:lib/tinymaix/include/arch_cpu.h ****     }
 1002              		.loc 2 37 28
 1003 048a 03070700 		lb	a4,0(a4)
  36:lib/tinymaix/include/arch_cpu.h ****         sum += sptr[i]*kptr[i]; 
 1004              		.loc 2 36 21
 1005 048e 0506     		addi	a2,a2,1
 1006              	.LVL108:
  37:lib/tinymaix/include/arch_cpu.h ****     }
 1007              		.loc 2 37 23
 1008 0490 B387E702 		mul	a5,a5,a4
  37:lib/tinymaix/include/arch_cpu.h ****     }
 1009              		.loc 2 37 13
 1010 0494 BE96     		add	a3,a3,a5
 1011              	.LVL109:
 1012 0496 31B7     		j	.L24
 1013              	.LVL110:
 1014              	.L26:
 1015              	.LBE82:
 1016              	.LBE99:
 1017              	.LBB100:
 1018              	.LBB96:
 1019              	.LBB93:
 173:lib/tinymaix/include/arch_cpu.h ****             break;
 1020              		.loc 2 173 13 is_stmt 1
 173:lib/tinymaix/include/arch_cpu.h ****             break;
 1021              		.loc 2 173 31 is_stmt 0
 1022 0498 93050000 		mv	a1,zero
 1023 049c 97000000 		call	__gtsf2
 1023      E7800000 
 1024              	.LVL111:
 1025 04a4 E345A0F2 		bgt	a0,zero,.L28
 1026              	.L125:
 1027 04a8 930C0000 		mv	s9,zero
 1028              	.LVL112:
 1029 04ac 0DB7     		j	.L28
 1030              	.LVL113:
 1031              	.L27:
 176:lib/tinymaix/include/arch_cpu.h ****         #if (!TM_FASTSCALE)
 1032              		.loc 2 176 13 is_stmt 1
GAS LISTING C:\Users\Jesper\AppData\Local\Temp\cclZf3Mh.s 			page 30


 176:lib/tinymaix/include/arch_cpu.h ****         #if (!TM_FASTSCALE)
 1033              		.loc 2 176 31 is_stmt 0
 1034 04ae 93050000 		mv	a1,zero
 1035 04b2 97000000 		call	__gtsf2
 1035      E7800000 
 1036              	.LVL114:
 1037 04ba E357A0FE 		ble	a0,zero,.L125
 178:lib/tinymaix/include/arch_cpu.h ****         #else
 1038              		.loc 2 178 13 is_stmt 1
 178:lib/tinymaix/include/arch_cpu.h ****         #else
 1039              		.loc 2 178 28 is_stmt 0
 1040 04be B7070000 		lui	a5,%hi(.LC0)
 1041 04c2 83A50700 		lw	a1,%lo(.LC0)(a5)
 1042 04c6 6685     		mv	a0,s9
 1043 04c8 97000000 		call	__gtsf2
 1043      E7800000 
 1044              	.LVL115:
 1045 04d0 E35FA0EE 		ble	a0,zero,.L28
 1046 04d4 B7070000 		lui	a5,%hi(.LC0)
 1047 04d8 83AC0700 		lw	s9,%lo(.LC0)(a5)
 1048              	.LVL116:
 1049 04dc CDBD     		j	.L28
 1050              	.LVL117:
 1051              	.L35:
 1052              	.LBE93:
 1053              	.LBE96:
 1054              	.LBE100:
 1055              	.LBE105:
 1056              	.LBE110:
 1057              	.LBE113:
 1058              	.LBE116:
 1059              	.LBB117:
 1060              	.LBB58:
 127:lib/tinymaix/src/tm_layers.c ****             k_oft[idx] = oft;
 1061              		.loc 1 127 13 is_stmt 1 discriminator 3
 1062              		.loc 1 127 24 is_stmt 0 discriminator 3
 1063 04de 23206700 		sw	t1,0(a4)
 128:lib/tinymaix/src/tm_layers.c ****             idx += 1;
 1064              		.loc 1 128 13 is_stmt 1 discriminator 3
 1065              	.LVL118:
 129:lib/tinymaix/src/tm_layers.c ****             oft += chi;
 1066              		.loc 1 129 13 discriminator 3
 126:lib/tinymaix/src/tm_layers.c ****             k_oft[idx] = oft;
 1067              		.loc 1 126 29 is_stmt 0 discriminator 3
 1068 04e2 8506     		addi	a3,a3,1
 1069              	.LVL119:
 1070              		.loc 1 129 17 discriminator 3
 1071 04e4 5293     		add	t1,t1,s4
 1072              	.LVL120:
 1073 04e6 1107     		addi	a4,a4,4
 1074              	.LVL121:
 1075              	.L37:
 126:lib/tinymaix/src/tm_layers.c ****             k_oft[idx] = oft;
 1076              		.loc 1 126 9 discriminator 1
 1077 04e8 E3CB86FE 		blt	a3,s0,.L35
 1078              	.LBE58:
 130:lib/tinymaix/src/tm_layers.c ****         }
GAS LISTING C:\Users\Jesper\AppData\Local\Temp\cclZf3Mh.s 			page 31


 131:lib/tinymaix/src/tm_layers.c ****         oft += (in->w - kw)*chi;
 1079              		.loc 1 131 19 discriminator 2
 1080 04ec 03574900 		lhu	a4,4(s2)
 1081 04f0 C697     		add	a5,a5,a7
 1082 04f2 C295     		add	a1,a1,a6
 1083              	.LVL122:
 1084              		.loc 1 131 9 is_stmt 1 discriminator 2
 1085              		.loc 1 131 23 is_stmt 0 discriminator 2
 1086 04f4 018F     		sub	a4,a4,s0
 1087              		.loc 1 131 28 discriminator 2
 1088 04f6 33074703 		mul	a4,a4,s4
 125:lib/tinymaix/src/tm_layers.c ****         for(int x=0; x<kw; x++){
 1089              		.loc 1 125 25 discriminator 2
 1090 04fa 0505     		addi	a0,a0,1
 1091              	.LVL123:
 1092              		.loc 1 131 13 discriminator 2
 1093 04fc BA97     		add	a5,a4,a5
 1094              	.LVL124:
 1095 04fe F1B6     		j	.L8
 1096              	.LVL125:
 1097              	.L36:
 1098              	.LBE117:
 132:lib/tinymaix/src/tm_layers.c ****     }
 133:lib/tinymaix/src/tm_layers.c ****     chi  = dmul ? 1 : in->c; // dmul>=1 indicate depthwise; dummy chi for dwconv compatible
 1099              		.loc 1 133 5 is_stmt 1
 1100              		.loc 1 133 21 is_stmt 0
 1101 0500 63930900 		bne	s3,zero,.L38
 1102 0504 D28B     		mv	s7,s4
 1103              	.L38:
 1104              	.LVL126:
 134:lib/tinymaix/src/tm_layers.c ****     int slow_flag = 0; //same pad part is slow
 1105              		.loc 1 134 5 is_stmt 1 discriminator 4
 135:lib/tinymaix/src/tm_layers.c ****     for (int y = 0; y < out->h; y++) {
 1106              		.loc 1 135 5 discriminator 4
 1107              	.LBB118:
 1108              		.loc 1 135 10 discriminator 4
 1109              	.LBB119:
 1110              	.LBB120:
 1111              	.LBB121:
 1112              	.LBB122:
 136:lib/tinymaix/src/tm_layers.c ****         int src_y0 = sy*y - pad_top;
 137:lib/tinymaix/src/tm_layers.c ****         for (int x = 0; x < out->w; x++) {
 138:lib/tinymaix/src/tm_layers.c ****             int src_x0 = sx*x - pad_left;
 139:lib/tinymaix/src/tm_layers.c ****             sumtype_t sum;
 140:lib/tinymaix/src/tm_layers.c ****             slow_flag = ((src_y0<0)+(src_x0<0)+(src_y0+kh>in->h)+(src_x0+kw>in->w));
 141:lib/tinymaix/src/tm_layers.c ****             //TM_PERF_START(t_sbuf);
 142:lib/tinymaix/src/tm_layers.c ****             if(!slow_flag) {TM_PERF_START(t_valid); //valid or same valid part
 143:lib/tinymaix/src/tm_layers.c ****                 mtype_t* sptr_base = (mtype_t*)TM_MATP(in, src_y0, src_x0, 0); //?c/dmul:0
 144:lib/tinymaix/src/tm_layers.c ****                 mtype_t* sptr = sptr_base; //= (mtype_t*)TM_MATP(in, src_y0, src_x0, 0); //sbuf 
 145:lib/tinymaix/src/tm_layers.c ****                 uint32_t sidx=0;    //sbuf:cho,chi,maxk //dw:chi==1;
 146:lib/tinymaix/src/tm_layers.c ****                 for (int cc = 0; cc < (dmul?cho:chi); cc++) {
 147:lib/tinymaix/src/tm_layers.c ****                     for (int k = 0; k < maxk; k++) {
 148:lib/tinymaix/src/tm_layers.c ****                         sbuf[sidx+k] = sptr[k_oft[k]];
 149:lib/tinymaix/src/tm_layers.c ****                     }
 150:lib/tinymaix/src/tm_layers.c ****                     sidx += maxk;
 151:lib/tinymaix/src/tm_layers.c ****                     sptr = sptr_base + (dmul?(cc+1)/dmul:(cc+1));
 152:lib/tinymaix/src/tm_layers.c ****                 }
GAS LISTING C:\Users\Jesper\AppData\Local\Temp\cclZf3Mh.s 			page 32


 153:lib/tinymaix/src/tm_layers.c ****             } else {  TM_PERF_START(t_pad);       //same pad part
 154:lib/tinymaix/src/tm_layers.c ****                 int _ky0 = src_y0<0 ? -src_y0 : 0;
 155:lib/tinymaix/src/tm_layers.c ****                 int _kx0 = src_x0<0 ? -src_x0 : 0;
 156:lib/tinymaix/src/tm_layers.c ****                 int _ky1 = in->h-src_y0>kh ? kh : in->h-src_y0;
 157:lib/tinymaix/src/tm_layers.c ****                 int _kx1 = in->w-src_x0>kw ? kw : in->w-src_x0;
 158:lib/tinymaix/src/tm_layers.c ****                 uint32_t sidx=0;    //sbuf:cho,chi,maxk //dw:chi==1;
 159:lib/tinymaix/src/tm_layers.c ****                 uint32_t s_step = (_ky1-_ky0)*(_kx1-_kx0);
 160:lib/tinymaix/src/tm_layers.c ****                 mtype_t* sptr_base = (mtype_t*)TM_MATP(in, src_y0, src_x0, 0);
 161:lib/tinymaix/src/tm_layers.c ****                 mtype_t* sptr = sptr_base;
 162:lib/tinymaix/src/tm_layers.c ****             #if TM_MDL_TYPE == TM_MDL_INT8
 163:lib/tinymaix/src/tm_layers.c ****                 memset(sbuf, in_zp, dmul?cho*maxk:chi*maxk);    //do padding
 1113              		.loc 1 163 54 is_stmt 0 discriminator 4
 1114 0506 B3879B02 		mul	a5,s7,s1
 1115              	.LVL127:
 1116 050a 3EC8     		sw	a5,16(sp)
 1117 050c 63970904 		bne	s3,zero,.L39
 1118 0510 BEC2     		sw	a5,68(sp)
 1119 0512 5ED8     		sw	s7,48(sp)
 1120              	.L42:
 1121 0514 93172400 		slli	a5,s0,2
 1122 0518 BEC0     		sw	a5,64(sp)
 1123              	.LBE122:
 1124              	.LBB131:
 1125              	.LBB132:
 1126              	.LBB133:
 1127              	.LBB134:
 1128              	.LBB135:
 178:lib/tinymaix/include/arch_cpu.h ****         #else
 1129              		.loc 2 178 28 discriminator 4
 1130 051a B7070000 		lui	a5,%hi(.LC0)
 1131 051e 83A70700 		lw	a5,%lo(.LC0)(a5)
 1132 0522 330A5041 		neg	s4,s5
 1133 0526 56D6     		sw	s5,44(sp)
 1134              	.LBE135:
 1135              	.LBE134:
 1136              	.LBE133:
 1137              	.LBE132:
 1138              	.LBE131:
 1139              	.LBE121:
 1140              	.LBE120:
 1141              	.LBE119:
 135:lib/tinymaix/src/tm_layers.c ****     for (int y = 0; y < out->h; y++) {
 1142              		.loc 1 135 14 discriminator 4
 1143 0528 02D0     		sw	zero,32(sp)
 1144              	.LBB212:
 1145              	.LBB206:
 1146              	.LBB200:
 1147              	.LBB164:
 1148              	.LBB158:
 1149              	.LBB148:
 1150              	.LBB142:
 1151              	.LBB136:
 178:lib/tinymaix/include/arch_cpu.h ****         #else
 1152              		.loc 2 178 28 discriminator 4
 1153 052a BEC6     		sw	a5,76(sp)
 1154              	.LVL128:
 1155              	.L43:
GAS LISTING C:\Users\Jesper\AppData\Local\Temp\cclZf3Mh.s 			page 33


 1156              	.LBE136:
 1157              	.LBE142:
 1158              	.LBE148:
 1159              	.LBE158:
 1160              	.LBE164:
 1161              	.LBE200:
 1162              	.LBE206:
 1163              	.LBE212:
 135:lib/tinymaix/src/tm_layers.c ****     for (int y = 0; y < out->h; y++) {
 1164              		.loc 1 135 28 discriminator 1
 1165 052c 9247     		lw	a5,4(sp)
 135:lib/tinymaix/src/tm_layers.c ****     for (int y = 0; y < out->h; y++) {
 1166              		.loc 1 135 5 discriminator 1
 1167 052e 0257     		lw	a4,32(sp)
 135:lib/tinymaix/src/tm_layers.c ****     for (int y = 0; y < out->h; y++) {
 1168              		.loc 1 135 28 discriminator 1
 1169 0530 83D72700 		lhu	a5,2(a5)
 135:lib/tinymaix/src/tm_layers.c ****     for (int y = 0; y < out->h; y++) {
 1170              		.loc 1 135 5 discriminator 1
 1171 0534 6348F702 		bgt	a5,a4,.L86
 1172              	.LVL129:
 1173              	.L131:
 1174              	.LBE118:
 164:lib/tinymaix/src/tm_layers.c ****             #elif (TM_MDL_TYPE == TM_MDL_FP32)||(TM_MDL_TYPE == TM_MDL_FP16)||(TM_MDL_TYPE == TM_MD
 165:lib/tinymaix/src/tm_layers.c ****                 memset(sbuf, 0, (dmul?cho*maxk:chi*maxk)*sizeof(mtype_t));
 166:lib/tinymaix/src/tm_layers.c ****             #else
 167:lib/tinymaix/src/tm_layers.c ****             #error "unsupport mdl type"
 168:lib/tinymaix/src/tm_layers.c ****             #endif
 169:lib/tinymaix/src/tm_layers.c ****                 for (int cc = 0; cc < (dmul?cho:chi); cc++) {
 170:lib/tinymaix/src/tm_layers.c ****                     for(int _ky=_ky0; _ky<_ky1; _ky++){
 171:lib/tinymaix/src/tm_layers.c ****                         for(int _kx=_kx0; _kx<_kx1; _kx++){
 172:lib/tinymaix/src/tm_layers.c ****                             int k = _ky*kw + _kx;
 173:lib/tinymaix/src/tm_layers.c ****                             sbuf[sidx+k] = sptr[k_oft[k]];
 174:lib/tinymaix/src/tm_layers.c ****                         }
 175:lib/tinymaix/src/tm_layers.c ****                     }
 176:lib/tinymaix/src/tm_layers.c ****                     sidx += maxk;
 177:lib/tinymaix/src/tm_layers.c ****                     sptr = sptr_base + (dmul?(cc+1)/dmul:(cc+1));
 178:lib/tinymaix/src/tm_layers.c ****                 }
 179:lib/tinymaix/src/tm_layers.c ****             }
 180:lib/tinymaix/src/tm_layers.c ****             //TM_PERF_ADD(t_sbuf);
 181:lib/tinymaix/src/tm_layers.c ****             mtype_t* sptr = sbuf;    //sbuf prepare ok~
 182:lib/tinymaix/src/tm_layers.c ****             if(maxk*chi==9 && dmul){ //simple opt for 3x3 dwconv
 183:lib/tinymaix/src/tm_layers.c ****                 for(int c=0; c<out->c; c++){
 184:lib/tinymaix/src/tm_layers.c ****                     wtype_t* kptr = (wtype_t*)w + c*chi*maxk;//TM_PERF_START(t_dotp);
 185:lib/tinymaix/src/tm_layers.c ****                     tm_dot_prod_3x3x1(sptr, kptr, &sum);//TM_PERF_ADD(t_dotp);TM_PERF_START(t_post)
 186:lib/tinymaix/src/tm_layers.c ****                     tm_postprocess_sum(1, &sum, b + c, act, outp, SUMSCALE, OUTSCALE, out_zp); outp
 187:lib/tinymaix/src/tm_layers.c ****                     sptr += maxk; //dwconv need move step
 188:lib/tinymaix/src/tm_layers.c ****                 }
 189:lib/tinymaix/src/tm_layers.c ****             }else {
 190:lib/tinymaix/src/tm_layers.c ****                 for(int c=0; c<out->c; c++){
 191:lib/tinymaix/src/tm_layers.c ****                     wtype_t* kptr = (wtype_t*)w + c*chi*maxk;//TM_PERF_START(t_dotp);
 192:lib/tinymaix/src/tm_layers.c ****                     tm_dot_prod(sptr, kptr, maxk*chi, &sum);//TM_PERF_ADD(t_dotp);TM_PERF_START(t_p
 193:lib/tinymaix/src/tm_layers.c ****                     tm_postprocess_sum(1, &sum, b + c, act, outp, SUMSCALE, OUTSCALE, out_zp); outp
 194:lib/tinymaix/src/tm_layers.c ****                     if(dmul) sptr += maxk; //dwconv need move step
 195:lib/tinymaix/src/tm_layers.c ****                 }
 196:lib/tinymaix/src/tm_layers.c ****             }
 197:lib/tinymaix/src/tm_layers.c ****             if(!slow_flag) {TM_PERF_ADD(t_valid);} else {TM_PERF_ADD(t_pad);}
GAS LISTING C:\Users\Jesper\AppData\Local\Temp\cclZf3Mh.s 			page 34


 198:lib/tinymaix/src/tm_layers.c ****         }
 199:lib/tinymaix/src/tm_layers.c ****     }
 200:lib/tinymaix/src/tm_layers.c ****     if(dmul) {TM_PERF_ADD(t_dwconv);} else {TM_PERF_ADD(t_conv);};
 201:lib/tinymaix/src/tm_layers.c ****     return TM_OK;
 1175              		.loc 1 201 12
 1176 0538 014E     		li	t3,0
 1177              	.LVL130:
 1178              	.L1:
 202:lib/tinymaix/src/tm_layers.c **** }
 1179              		.loc 1 202 1
 1180 053a BA50     		lw	ra,172(sp)
 1181              		.cfi_remember_state
 1182              		.cfi_restore 1
 1183 053c 2A54     		lw	s0,168(sp)
 1184              		.cfi_restore 8
 1185 053e 9A54     		lw	s1,164(sp)
 1186              		.cfi_restore 9
 1187 0540 0A59     		lw	s2,160(sp)
 1188              		.cfi_restore 18
 1189 0542 FA49     		lw	s3,156(sp)
 1190              		.cfi_restore 19
 1191 0544 6A4A     		lw	s4,152(sp)
 1192              		.cfi_restore 20
 1193 0546 DA4A     		lw	s5,148(sp)
 1194              		.cfi_restore 21
 1195 0548 4A4B     		lw	s6,144(sp)
 1196              		.cfi_restore 22
 1197 054a BA4B     		lw	s7,140(sp)
 1198              		.cfi_restore 23
 1199 054c 2A4C     		lw	s8,136(sp)
 1200              		.cfi_restore 24
 1201 054e 9A4C     		lw	s9,132(sp)
 1202              		.cfi_restore 25
 1203 0550 0A4D     		lw	s10,128(sp)
 1204              		.cfi_restore 26
 1205 0552 F65D     		lw	s11,124(sp)
 1206              		.cfi_restore 27
 1207 0554 7285     		mv	a0,t3
 1208 0556 4D61     		addi	sp,sp,176
 1209              	.LCFI1:
 1210              		.cfi_def_cfa_offset 0
 1211              	.LVL131:
 1212 0558 8280     		jr	ra
 1213              	.LVL132:
 1214              	.L39:
 1215              	.LCFI2:
 1216              		.cfi_restore_state
 1217              	.LBB217:
 1218              	.LBB213:
 1219              	.LBB207:
 1220              	.LBB201:
 1221              	.LBB165:
 163:lib/tinymaix/src/tm_layers.c ****             #elif (TM_MDL_TYPE == TM_MDL_FP32)||(TM_MDL_TYPE == TM_MDL_FP16)||(TM_MDL_TYPE == TM_MD
 1222              		.loc 1 163 45 discriminator 4
 1223 055a B3879C02 		mul	a5,s9,s1
 1224 055e 66D8     		sw	s9,48(sp)
 1225 0560 BEC2     		sw	a5,68(sp)
GAS LISTING C:\Users\Jesper\AppData\Local\Temp\cclZf3Mh.s 			page 35


 1226 0562 4DBF     		j	.L42
 1227              	.LVL133:
 1228              	.L86:
 1229              	.LBE165:
 1230              	.LBE201:
 1231              	.LBE207:
 136:lib/tinymaix/src/tm_layers.c ****         for (int x = 0; x < out->w; x++) {
 1232              		.loc 1 136 9 is_stmt 1
 137:lib/tinymaix/src/tm_layers.c ****             int src_x0 = sx*x - pad_left;
 1233              		.loc 1 137 9
 1234              	.LBB208:
 137:lib/tinymaix/src/tm_layers.c ****             int src_x0 = sx*x - pad_left;
 1235              		.loc 1 137 14
 1236 0564 3257     		lw	a4,44(sp)
 1237              	.LVL134:
 1238 0566 9357FA41 		srai	a5,s4,31
 137:lib/tinymaix/src/tm_layers.c ****             int src_x0 = sx*x - pad_left;
 1239              		.loc 1 137 18 is_stmt 0
 1240 056a 02D2     		sw	zero,36(sp)
 1241 056c F98F     		and	a5,a5,a4
 1242 056e 3EDA     		sw	a5,52(sp)
 1243 0570 9E47     		lw	a5,196(sp)
 1244 0572 5256     		lw	a2,52(sp)
 1245 0574 3ED4     		sw	a5,40(sp)
 1246 0576 B30AF040 		neg	s5,a5
 1247 057a D257     		lw	a5,52(sp)
 1248 057c 3307F402 		mul	a4,s0,a5
 1249 0580 B7070000 		lui	a5,%hi(sbuf)
 1250 0584 93870700 		addi	a5,a5,%lo(sbuf)
 1251 0588 BA97     		add	a5,a4,a5
 1252 058a 0647     		lw	a4,64(sp)
 1253 058c BECA     		sw	a5,84(sp)
 1254 058e B7070000 		lui	a5,%hi(.LANCHOR0)
 1255 0592 3307C702 		mul	a4,a4,a2
 1256 0596 93860700 		addi	a3,a5,%lo(.LANCHOR0)
 1257 059a 93870700 		addi	a5,a5,%lo(.LANCHOR0)
 1258 059e BECC     		sw	a5,88(sp)
 1259 05a0 B7070000 		lui	a5,%hi(sumscale)
 1260 05a4 93870700 		addi	a5,a5,%lo(sumscale)
 1261 05a8 BEC4     		sw	a5,72(sp)
 1262 05aa 3697     		add	a4,a3,a4
 1263 05ac BAC8     		sw	a4,80(sp)
 1264              	.LVL135:
 1265              	.L46:
 137:lib/tinymaix/src/tm_layers.c ****             int src_x0 = sx*x - pad_left;
 1266              		.loc 1 137 32 discriminator 2
 1267 05ae 9247     		lw	a5,4(sp)
 137:lib/tinymaix/src/tm_layers.c ****             int src_x0 = sx*x - pad_left;
 1268              		.loc 1 137 9 discriminator 2
 1269 05b0 1257     		lw	a4,36(sp)
 137:lib/tinymaix/src/tm_layers.c ****             int src_x0 = sx*x - pad_left;
 1270              		.loc 1 137 32 discriminator 2
 1271 05b2 83D74700 		lhu	a5,4(a5)
 137:lib/tinymaix/src/tm_layers.c ****             int src_x0 = sx*x - pad_left;
 1272              		.loc 1 137 9 discriminator 2
 1273 05b6 634CF700 		bgt	a5,a4,.L85
 1274              	.LBE208:
GAS LISTING C:\Users\Jesper\AppData\Local\Temp\cclZf3Mh.s 			page 36


 1275              	.LBE213:
 135:lib/tinymaix/src/tm_layers.c ****         int src_y0 = sy*y - pad_top;
 1276              		.loc 1 135 34 discriminator 2
 1277 05ba 8257     		lw	a5,32(sp)
 1278 05bc 7257     		lw	a4,60(sp)
 1279 05be 8507     		addi	a5,a5,1
 1280 05c0 3ED0     		sw	a5,32(sp)
 1281              	.LVL136:
 1282 05c2 F257     		lw	a5,60(sp)
 1283              	.LVL137:
 1284 05c4 3E9A     		add	s4,s4,a5
 1285              	.LVL138:
 1286 05c6 B257     		lw	a5,44(sp)
 1287 05c8 998F     		sub	a5,a5,a4
 1288 05ca 3ED6     		sw	a5,44(sp)
 1289 05cc 85B7     		j	.L43
 1290              	.LVL139:
 1291              	.L85:
 1292              	.LBB214:
 1293              	.LBB209:
 1294              	.LBB202:
 138:lib/tinymaix/src/tm_layers.c ****             sumtype_t sum;
 1295              		.loc 1 138 13 is_stmt 1
 139:lib/tinymaix/src/tm_layers.c ****             slow_flag = ((src_y0<0)+(src_x0<0)+(src_y0+kh>in->h)+(src_x0+kw>in->w));
 1296              		.loc 1 139 13
 140:lib/tinymaix/src/tm_layers.c ****             //TM_PERF_START(t_sbuf);
 1297              		.loc 1 140 13
 140:lib/tinymaix/src/tm_layers.c ****             //TM_PERF_START(t_sbuf);
 1298              		.loc 1 140 79 is_stmt 0
 1299 05ce 83564900 		lhu	a3,4(s2)
 140:lib/tinymaix/src/tm_layers.c ****             //TM_PERF_START(t_sbuf);
 1300              		.loc 1 140 44
 1301 05d2 13D7FA01 		srli	a4,s5,31
 1302              	.LVL140:
 140:lib/tinymaix/src/tm_layers.c ****             //TM_PERF_START(t_sbuf);
 1303              		.loc 1 140 33
 1304 05d6 9357FA01 		srli	a5,s4,31
 1305 05da 338B4603 		mul	s6,a3,s4
 140:lib/tinymaix/src/tm_layers.c ****             //TM_PERF_START(t_sbuf);
 1306              		.loc 1 140 36
 1307 05de BA97     		add	a5,a5,a4
 140:lib/tinymaix/src/tm_layers.c ****             //TM_PERF_START(t_sbuf);
 1308              		.loc 1 140 58
 1309 05e0 7247     		lw	a4,28(sp)
 140:lib/tinymaix/src/tm_layers.c ****             //TM_PERF_START(t_sbuf);
 1310              		.loc 1 140 61
 1311 05e2 03562900 		lhu	a2,2(s2)
 140:lib/tinymaix/src/tm_layers.c ****             //TM_PERF_START(t_sbuf);
 1312              		.loc 1 140 58
 1313 05e6 5297     		add	a4,a4,s4
 1314 05e8 3327E600 		slt	a4,a2,a4
 140:lib/tinymaix/src/tm_layers.c ****             //TM_PERF_START(t_sbuf);
 1315              		.loc 1 140 47
 1316 05ec BA97     		add	a5,a5,a4
 140:lib/tinymaix/src/tm_layers.c ****             //TM_PERF_START(t_sbuf);
 1317              		.loc 1 140 76
 1318 05ee 33075401 		add	a4,s0,s5
GAS LISTING C:\Users\Jesper\AppData\Local\Temp\cclZf3Mh.s 			page 37


 1319 05f2 33A7E600 		slt	a4,a3,a4
 140:lib/tinymaix/src/tm_layers.c ****             //TM_PERF_START(t_sbuf);
 1320              		.loc 1 140 23
 1321 05f6 BA97     		add	a5,a5,a4
 1322              	.LVL141:
 142:lib/tinymaix/src/tm_layers.c ****                 mtype_t* sptr_base = (mtype_t*)TM_MATP(in, src_y0, src_x0, 0); //?c/dmul:0
 1323              		.loc 1 142 13 is_stmt 1
 1324 05f8 03576900 		lhu	a4,6(s2)
 1325 05fc 569B     		add	s6,s6,s5
 1326 05fe 3307EB02 		mul	a4,s6,a4
 1327 0602 032B8900 		lw	s6,8(s2)
 1328 0606 3A9B     		add	s6,s6,a4
 142:lib/tinymaix/src/tm_layers.c ****                 mtype_t* sptr_base = (mtype_t*)TM_MATP(in, src_y0, src_x0, 0); //?c/dmul:0
 1329              		.loc 1 142 15 is_stmt 0
 1330 0608 ADE3     		bne	a5,zero,.L47
 1331 060a B7070000 		lui	a5,%hi(sbuf)
 1332              	.LVL142:
 1333 060e 13860700 		addi	a2,a5,%lo(sbuf)
 1334              	.LVL143:
 1335              	.LBB166:
 144:lib/tinymaix/src/tm_layers.c ****                 uint32_t sidx=0;    //sbuf:cho,chi,maxk //dw:chi==1;
 1336              		.loc 1 144 26
 1337 0612 5A87     		mv	a4,s6
 1338              	.LBB167:
 146:lib/tinymaix/src/tm_layers.c ****                     for (int k = 0; k < maxk; k++) {
 1339              		.loc 1 146 26
 1340 0614 8147     		li	a5,0
 1341              	.LVL144:
 1342              	.L48:
 146:lib/tinymaix/src/tm_layers.c ****                     for (int k = 0; k < maxk; k++) {
 1343              		.loc 1 146 17 discriminator 2
 1344 0616 C256     		lw	a3,48(sp)
 1345 0618 63C7D704 		blt	a5,a3,.L99
 1346              	.LVL145:
 1347              	.L64:
 1348              	.LBE167:
 1349              	.LBE166:
 181:lib/tinymaix/src/tm_layers.c ****             if(maxk*chi==9 && dmul){ //simple opt for 3x3 dwconv
 1350              		.loc 1 181 13 is_stmt 1
 182:lib/tinymaix/src/tm_layers.c ****                 for(int c=0; c<out->c; c++){
 1351              		.loc 1 182 13
 182:lib/tinymaix/src/tm_layers.c ****                 for(int c=0; c<out->c; c++){
 1352              		.loc 1 182 15 is_stmt 0
 1353 061c 4247     		lw	a4,16(sp)
 1354 061e A547     		li	a5,9
 1355 0620 6308F70C 		beq	a4,a5,.L53
 1356              	.L54:
 1357              	.LBB171:
 1358              	.LBB159:
 1359              	.LBB149:
 1360              	.LBB143:
 1361              	.LBB137:
 178:lib/tinymaix/include/arch_cpu.h ****         #else
 1362              		.loc 2 178 28 discriminator 1
 1363 0624 B7070000 		lui	a5,%hi(sbuf)
 1364 0628 624D     		lw	s10,24(sp)
 1365 062a A64D     		lw	s11,72(sp)
GAS LISTING C:\Users\Jesper\AppData\Local\Temp\cclZf3Mh.s 			page 38


 1366 062c D24C     		lw	s9,20(sp)
 1367 062e 814B     		li	s7,0
 1368 0630 138C0700 		addi	s8,a5,%lo(sbuf)
 1369 0634 45AC     		j	.L83
 1370              	.LVL146:
 1371              	.L49:
 1372              	.LBE137:
 1373              	.LBE143:
 1374              	.LBE149:
 1375              	.LBE159:
 1376              	.LBE171:
 1377              	.LBB172:
 1378              	.LBB170:
 1379              	.LBB168:
 148:lib/tinymaix/src/tm_layers.c ****                     }
 1380              		.loc 1 148 25 is_stmt 1 discriminator 3
 148:lib/tinymaix/src/tm_layers.c ****                     }
 1381              		.loc 1 148 50 is_stmt 0 discriminator 3
 1382 0636 6645     		lw	a0,88(sp)
 1383 0638 93952600 		slli	a1,a3,2
 1384 063c AA95     		add	a1,a0,a1
 148:lib/tinymaix/src/tm_layers.c ****                     }
 1385              		.loc 1 148 44 discriminator 3
 1386 063e 8C41     		lw	a1,0(a1)
 1387 0640 BA95     		add	a1,a4,a1
 1388 0642 03850500 		lb	a0,0(a1)
 148:lib/tinymaix/src/tm_layers.c ****                     }
 1389              		.loc 1 148 38 discriminator 3
 1390 0646 B305D600 		add	a1,a2,a3
 147:lib/tinymaix/src/tm_layers.c ****                         sbuf[sidx+k] = sptr[k_oft[k]];
 1391              		.loc 1 147 48 discriminator 3
 1392 064a 8506     		addi	a3,a3,1
 1393              	.LVL147:
 148:lib/tinymaix/src/tm_layers.c ****                     }
 1394              		.loc 1 148 38 discriminator 3
 1395 064c 2380A500 		sb	a0,0(a1)
 1396              	.LVL148:
 1397              	.L52:
 147:lib/tinymaix/src/tm_layers.c ****                         sbuf[sidx+k] = sptr[k_oft[k]];
 1398              		.loc 1 147 21 discriminator 1
 1399 0650 E3C396FE 		blt	a3,s1,.L49
 1400              	.LBE168:
 150:lib/tinymaix/src/tm_layers.c ****                     sptr = sptr_base + (dmul?(cc+1)/dmul:(cc+1));
 1401              		.loc 1 150 21 is_stmt 1
 1402              	.LVL149:
 151:lib/tinymaix/src/tm_layers.c ****                 }
 1403              		.loc 1 151 21
 1404 0654 8507     		addi	a5,a5,1
 1405              	.LVL150:
 1406 0656 3E87     		mv	a4,a5
 1407              	.LVL151:
 151:lib/tinymaix/src/tm_layers.c ****                 }
 1408              		.loc 1 151 57 is_stmt 0
 1409 0658 63840900 		beq	s3,zero,.L51
 151:lib/tinymaix/src/tm_layers.c ****                 }
 1410              		.loc 1 151 52 discriminator 1
 1411 065c 33C73703 		div	a4,a5,s3
GAS LISTING C:\Users\Jesper\AppData\Local\Temp\cclZf3Mh.s 			page 39


 1412              	.L51:
 151:lib/tinymaix/src/tm_layers.c ****                 }
 1413              		.loc 1 151 26 discriminator 4
 1414 0660 5A97     		add	a4,s6,a4
 1415              	.LVL152:
 1416 0662 2696     		add	a2,a2,s1
 1417              	.LVL153:
 1418 0664 4DBF     		j	.L48
 1419              	.LVL154:
 1420              	.L99:
 1421              	.LBB169:
 147:lib/tinymaix/src/tm_layers.c ****                         sbuf[sidx+k] = sptr[k_oft[k]];
 1422              		.loc 1 147 30
 1423 0666 8146     		li	a3,0
 1424 0668 E5B7     		j	.L52
 1425              	.LVL155:
 1426              	.L47:
 1427              	.LBE169:
 1428              	.LBE170:
 1429              	.LBE172:
 1430              	.LBB173:
 153:lib/tinymaix/src/tm_layers.c ****                 int _ky0 = src_y0<0 ? -src_y0 : 0;
 1431              		.loc 1 153 43 is_stmt 1 discriminator 4
 154:lib/tinymaix/src/tm_layers.c ****                 int _kx0 = src_x0<0 ? -src_x0 : 0;
 1432              		.loc 1 154 17 discriminator 4
 155:lib/tinymaix/src/tm_layers.c ****                 int _ky1 = in->h-src_y0>kh ? kh : in->h-src_y0;
 1433              		.loc 1 155 17 discriminator 4
 155:lib/tinymaix/src/tm_layers.c ****                 int _ky1 = in->h-src_y0>kh ? kh : in->h-src_y0;
 1434              		.loc 1 155 47 is_stmt 0 discriminator 4
 1435 066a A257     		lw	a5,40(sp)
 1436              	.LVL156:
 1437 066c 93DBFA41 		srai	s7,s5,31
 156:lib/tinymaix/src/tm_layers.c ****                 int _kx1 = in->w-src_x0>kw ? kw : in->w-src_x0;
 1438              		.loc 1 156 33 discriminator 4
 1439 0670 330C4641 		sub	s8,a2,s4
 155:lib/tinymaix/src/tm_layers.c ****                 int _ky1 = in->h-src_y0>kh ? kh : in->h-src_y0;
 1440              		.loc 1 155 47 discriminator 4
 1441 0674 B3FBFB00 		and	s7,s7,a5
 1442              	.LVL157:
 156:lib/tinymaix/src/tm_layers.c ****                 int _kx1 = in->w-src_x0>kw ? kw : in->w-src_x0;
 1443              		.loc 1 156 17 is_stmt 1 discriminator 4
 156:lib/tinymaix/src/tm_layers.c ****                 int _kx1 = in->w-src_x0>kw ? kw : in->w-src_x0;
 1444              		.loc 1 156 21 is_stmt 0 discriminator 4
 1445 0678 F247     		lw	a5,28(sp)
 1446 067a 63D38701 		ble	s8,a5,.L56
 1447 067e 3E8C     		mv	s8,a5
 1448              	.L56:
 1449              	.LVL158:
 157:lib/tinymaix/src/tm_layers.c ****                 uint32_t sidx=0;    //sbuf:cho,chi,maxk //dw:chi==1;
 1450              		.loc 1 157 17 is_stmt 1 discriminator 4
 157:lib/tinymaix/src/tm_layers.c ****                 uint32_t sidx=0;    //sbuf:cho,chi,maxk //dw:chi==1;
 1451              		.loc 1 157 33 is_stmt 0 discriminator 4
 1452 0680 B38C5641 		sub	s9,a3,s5
 157:lib/tinymaix/src/tm_layers.c ****                 uint32_t sidx=0;    //sbuf:cho,chi,maxk //dw:chi==1;
 1453              		.loc 1 157 21 discriminator 4
 1454 0684 63539401 		ble	s9,s0,.L57
 1455 0688 A28C     		mv	s9,s0
GAS LISTING C:\Users\Jesper\AppData\Local\Temp\cclZf3Mh.s 			page 40


 1456              	.L57:
 1457              	.LVL159:
 158:lib/tinymaix/src/tm_layers.c ****                 uint32_t s_step = (_ky1-_ky0)*(_kx1-_kx0);
 1458              		.loc 1 158 17 is_stmt 1 discriminator 4
 159:lib/tinymaix/src/tm_layers.c ****                 mtype_t* sptr_base = (mtype_t*)TM_MATP(in, src_y0, src_x0, 0);
 1459              		.loc 1 159 17 discriminator 4
 160:lib/tinymaix/src/tm_layers.c ****                 mtype_t* sptr = sptr_base;
 1460              		.loc 1 160 17 discriminator 4
 161:lib/tinymaix/src/tm_layers.c ****             #if TM_MDL_TYPE == TM_MDL_INT8
 1461              		.loc 1 161 17 discriminator 4
 163:lib/tinymaix/src/tm_layers.c ****             #elif (TM_MDL_TYPE == TM_MDL_FP32)||(TM_MDL_TYPE == TM_MDL_FP16)||(TM_MDL_TYPE == TM_MD
 1462              		.loc 1 163 17 discriminator 4
 1463 068a 1646     		lw	a2,68(sp)
 1464              	.LVL160:
 1465 068c EE45     		lw	a1,216(sp)
 1466 068e B7070000 		lui	a5,%hi(sbuf)
 1467 0692 13850700 		addi	a0,a5,%lo(sbuf)
 1468 0696 97000000 		call	memset
 1468      E7800000 
 1469              	.LVL161:
 169:lib/tinymaix/src/tm_layers.c ****                     for(int _ky=_ky0; _ky<_ky1; _ky++){
 1470              		.loc 1 169 17 discriminator 4
 1471              	.LBB123:
 169:lib/tinymaix/src/tm_layers.c ****                     for(int _ky=_ky0; _ky<_ky1; _ky++){
 1472              		.loc 1 169 22 discriminator 4
 169:lib/tinymaix/src/tm_layers.c ****                     for(int _ky=_ky0; _ky<_ky1; _ky++){
 1473              		.loc 1 169 17 is_stmt 0 discriminator 4
 1474 069e D646     		lw	a3,84(sp)
 1475              	.LBE123:
 161:lib/tinymaix/src/tm_layers.c ****             #if TM_MDL_TYPE == TM_MDL_INT8
 1476              		.loc 1 161 26 discriminator 4
 1477 06a0 DA87     		mv	a5,s6
 1478              	.LBB130:
 169:lib/tinymaix/src/tm_layers.c ****                     for(int _ky=_ky0; _ky<_ky1; _ky++){
 1479              		.loc 1 169 26 discriminator 4
 1480 06a2 0146     		li	a2,0
 1481              	.LVL162:
 1482              	.L58:
 169:lib/tinymaix/src/tm_layers.c ****                     for(int _ky=_ky0; _ky<_ky1; _ky++){
 1483              		.loc 1 169 17 discriminator 2
 1484 06a4 4257     		lw	a4,48(sp)
 1485 06a6 E35BE6F6 		bge	a2,a4,.L64
 1486 06aa B688     		mv	a7,a3
 1487 06ac 4648     		lw	a6,80(sp)
 1488              	.LBB124:
 170:lib/tinymaix/src/tm_layers.c ****                         for(int _kx=_kx0; _kx<_kx1; _kx++){
 1489              		.loc 1 170 29
 1490 06ae 5255     		lw	a0,52(sp)
 1491 06b0 1DA0     		j	.L63
 1492              	.LVL163:
 1493              	.L59:
 1494              	.LBB125:
 1495              	.LBB126:
 172:lib/tinymaix/src/tm_layers.c ****                             sbuf[sidx+k] = sptr[k_oft[k]];
 1496              		.loc 1 172 29 is_stmt 1 discriminator 3
 173:lib/tinymaix/src/tm_layers.c ****                         }
 1497              		.loc 1 173 29 discriminator 3
GAS LISTING C:\Users\Jesper\AppData\Local\Temp\cclZf3Mh.s 			page 41


 173:lib/tinymaix/src/tm_layers.c ****                         }
 1498              		.loc 1 173 54 is_stmt 0 discriminator 3
 1499 06b2 13972500 		slli	a4,a1,2
 1500 06b6 4297     		add	a4,a6,a4
 173:lib/tinymaix/src/tm_layers.c ****                         }
 1501              		.loc 1 173 48 discriminator 3
 1502 06b8 1843     		lw	a4,0(a4)
 1503 06ba 3E97     		add	a4,a5,a4
 1504 06bc 03030700 		lb	t1,0(a4)
 173:lib/tinymaix/src/tm_layers.c ****                         }
 1505              		.loc 1 173 42 discriminator 3
 1506 06c0 3387B800 		add	a4,a7,a1
 1507              	.LBE126:
 171:lib/tinymaix/src/tm_layers.c ****                             int k = _ky*kw + _kx;
 1508              		.loc 1 171 56 discriminator 3
 1509 06c4 8505     		addi	a1,a1,1
 1510              	.LVL164:
 1511              	.LBB127:
 173:lib/tinymaix/src/tm_layers.c ****                         }
 1512              		.loc 1 173 42 discriminator 3
 1513 06c6 23006700 		sb	t1,0(a4)
 1514              	.LVL165:
 1515              	.L60:
 1516              	.LBE127:
 171:lib/tinymaix/src/tm_layers.c ****                             int k = _ky*kw + _kx;
 1517              		.loc 1 171 25 discriminator 1
 1518 06ca E3C495FF 		blt	a1,s9,.L59
 1519 06ce 0647     		lw	a4,64(sp)
 1520              	.LBE125:
 170:lib/tinymaix/src/tm_layers.c ****                         for(int _kx=_kx0; _kx<_kx1; _kx++){
 1521              		.loc 1 170 52 discriminator 2
 1522 06d0 0505     		addi	a0,a0,1
 1523              	.LVL166:
 1524 06d2 A298     		add	a7,a7,s0
 1525 06d4 3A98     		add	a6,a6,a4
 1526              	.LVL167:
 1527              	.L63:
 170:lib/tinymaix/src/tm_layers.c ****                         for(int _kx=_kx0; _kx<_kx1; _kx++){
 1528              		.loc 1 170 21 discriminator 1
 1529 06d6 634B8501 		blt	a0,s8,.L101
 1530              	.LBE124:
 176:lib/tinymaix/src/tm_layers.c ****                     sptr = sptr_base + (dmul?(cc+1)/dmul:(cc+1));
 1531              		.loc 1 176 21 is_stmt 1
 1532              	.LVL168:
 177:lib/tinymaix/src/tm_layers.c ****                 }
 1533              		.loc 1 177 21
 1534 06da 0506     		addi	a2,a2,1
 1535              	.LVL169:
 1536 06dc B287     		mv	a5,a2
 1537              	.LVL170:
 177:lib/tinymaix/src/tm_layers.c ****                 }
 1538              		.loc 1 177 57 is_stmt 0
 1539 06de 63840900 		beq	s3,zero,.L62
 177:lib/tinymaix/src/tm_layers.c ****                 }
 1540              		.loc 1 177 52 discriminator 1
 1541 06e2 B3473603 		div	a5,a2,s3
 1542              	.L62:
GAS LISTING C:\Users\Jesper\AppData\Local\Temp\cclZf3Mh.s 			page 42


 177:lib/tinymaix/src/tm_layers.c ****                 }
 1543              		.loc 1 177 26 discriminator 4
 1544 06e6 DA97     		add	a5,s6,a5
 1545              	.LVL171:
 1546 06e8 A696     		add	a3,a3,s1
 1547              	.LVL172:
 1548 06ea 6DBF     		j	.L58
 1549              	.LVL173:
 1550              	.L101:
 1551              	.LBB129:
 1552              	.LBB128:
 171:lib/tinymaix/src/tm_layers.c ****                             int k = _ky*kw + _kx;
 1553              		.loc 1 171 33
 1554 06ec DE85     		mv	a1,s7
 1555 06ee F1BF     		j	.L60
 1556              	.LVL174:
 1557              	.L53:
 1558              	.LBE128:
 1559              	.LBE129:
 1560              	.LBE130:
 1561              	.LBE173:
 182:lib/tinymaix/src/tm_layers.c ****                 for(int c=0; c<out->c; c++){
 1562              		.loc 1 182 28 discriminator 1
 1563 06f0 E38A09F2 		beq	s3,zero,.L54
 1564 06f4 D24D     		lw	s11,20(sp)
 1565 06f6 E24B     		lw	s7,24(sp)
 1566 06f8 264C     		lw	s8,72(sp)
 182:lib/tinymaix/src/tm_layers.c ****                 for(int c=0; c<out->c; c++){
 1567              		.loc 1 182 28
 1568 06fa 224B     		lw	s6,8(sp)
 181:lib/tinymaix/src/tm_layers.c ****             if(maxk*chi==9 && dmul){ //simple opt for 3x3 dwconv
 1569              		.loc 1 181 22
 1570 06fc B7070000 		lui	a5,%hi(sbuf)
 1571 0700 938C0700 		addi	s9,a5,%lo(sbuf)
 1572              	.LVL175:
 1573              	.L65:
 1574              	.LBB174:
 183:lib/tinymaix/src/tm_layers.c ****                     wtype_t* kptr = (wtype_t*)w + c*chi*maxk;//TM_PERF_START(t_dotp);
 1575              		.loc 1 183 35 discriminator 1
 1576 0704 9247     		lw	a5,4(sp)
 1577 0706 83D66700 		lhu	a3,6(a5)
 183:lib/tinymaix/src/tm_layers.c ****                     wtype_t* kptr = (wtype_t*)w + c*chi*maxk;//TM_PERF_START(t_dotp);
 1578              		.loc 1 183 17 discriminator 1
 1579 070a A247     		lw	a5,8(sp)
 1580 070c B307FB40 		sub	a5,s6,a5
 1581 0710 63CCD700 		bgt	a3,a5,.L71
 1582              	.LVL176:
 1583              	.L72:
 1584              	.LBE174:
 197:lib/tinymaix/src/tm_layers.c ****         }
 1585              		.loc 1 197 13 is_stmt 1 discriminator 2
 197:lib/tinymaix/src/tm_layers.c ****         }
 1586              		.loc 1 197 76 discriminator 2
 1587              	.LBE202:
 137:lib/tinymaix/src/tm_layers.c ****             int src_x0 = sx*x - pad_left;
 1588              		.loc 1 137 38 is_stmt 0 discriminator 2
 1589 0714 9257     		lw	a5,36(sp)
GAS LISTING C:\Users\Jesper\AppData\Local\Temp\cclZf3Mh.s 			page 43


 1590 0716 6257     		lw	a4,56(sp)
 1591 0718 5AC4     		sw	s6,8(sp)
 1592 071a 8507     		addi	a5,a5,1
 1593 071c 3ED2     		sw	a5,36(sp)
 1594              	.LVL177:
 1595 071e A257     		lw	a5,40(sp)
 1596              	.LVL178:
 1597 0720 BA9A     		add	s5,s5,a4
 1598              	.LVL179:
 1599 0722 998F     		sub	a5,a5,a4
 1600 0724 3ED4     		sw	a5,40(sp)
 1601 0726 61B5     		j	.L46
 1602              	.LVL180:
 1603              	.L71:
 1604              	.LBB203:
 1605              	.LBB196:
 1606              	.LBB175:
 184:lib/tinymaix/src/tm_layers.c ****                     tm_dot_prod_3x3x1(sptr, kptr, &sum);//TM_PERF_ADD(t_dotp);TM_PERF_START(t_post)
 1607              		.loc 1 184 21 is_stmt 1 discriminator 3
 185:lib/tinymaix/src/tm_layers.c ****                     tm_postprocess_sum(1, &sum, b + c, act, outp, SUMSCALE, OUTSCALE, out_zp); outp
 1608              		.loc 1 185 21 discriminator 3
 1609              	.LBB176:
 1610              	.LBB177:
  82:lib/tinymaix/include/arch_cpu.h ****         sptr[3]*kptr[3] + sptr[4]*kptr[4] + sptr[5]*kptr[5] + \
 1611              		.loc 2 82 5 discriminator 3
  85:lib/tinymaix/include/arch_cpu.h **** }
 1612              		.loc 2 85 5 discriminator 3
 1613              	.LBE177:
 1614              	.LBE176:
 186:lib/tinymaix/src/tm_layers.c ****                     sptr += maxk; //dwconv need move step
 1615              		.loc 1 186 21 discriminator 3
 1616              	.LBB179:
 1617              	.LBB180:
 1618              	.LBB181:
 164:lib/tinymaix/include/arch_cpu.h ****         sum += bs[i];
 1619              		.loc 2 164 9 discriminator 3
 165:lib/tinymaix/include/arch_cpu.h ****         #if !TM_FASTSCALE
 1620              		.loc 2 165 9 discriminator 3
 167:lib/tinymaix/include/arch_cpu.h ****         #else 
 1621              		.loc 2 167 13 discriminator 3
 1622              	.LBE181:
 1623              	.LBE180:
 1624              	.LBE179:
 1625              	.LBB190:
 1626              	.LBB178:
  82:lib/tinymaix/include/arch_cpu.h ****         sptr[3]*kptr[3] + sptr[4]*kptr[4] + sptr[5]*kptr[5] + \
 1627              		.loc 2 82 27 is_stmt 0 discriminator 3
 1628 0728 83860D00 		lb	a3,0(s11)
  82:lib/tinymaix/include/arch_cpu.h ****         sptr[3]*kptr[3] + sptr[4]*kptr[4] + sptr[5]*kptr[5] + \
 1629              		.loc 2 82 19 discriminator 3
 1630 072c 83870C00 		lb	a5,0(s9)
  82:lib/tinymaix/include/arch_cpu.h ****         sptr[3]*kptr[3] + sptr[4]*kptr[4] + sptr[5]*kptr[5] + \
 1631              		.loc 2 82 45 discriminator 3
 1632 0730 03861D00 		lb	a2,1(s11)
  83:lib/tinymaix/include/arch_cpu.h ****         sptr[6]*kptr[6] + sptr[7]*kptr[7] + sptr[8]*kptr[8] ;
 1633              		.loc 2 83 49 discriminator 3
 1634 0734 03855C00 		lb	a0,5(s9)
GAS LISTING C:\Users\Jesper\AppData\Local\Temp\cclZf3Mh.s 			page 44


  82:lib/tinymaix/include/arch_cpu.h ****         sptr[3]*kptr[3] + sptr[4]*kptr[4] + sptr[5]*kptr[5] + \
 1635              		.loc 2 82 22 discriminator 3
 1636 0738 B387D702 		mul	a5,a5,a3
  82:lib/tinymaix/include/arch_cpu.h ****         sptr[3]*kptr[3] + sptr[4]*kptr[4] + sptr[5]*kptr[5] + \
 1637              		.loc 2 82 37 discriminator 3
 1638 073c 83861C00 		lb	a3,1(s9)
  82:lib/tinymaix/include/arch_cpu.h ****         sptr[3]*kptr[3] + sptr[4]*kptr[4] + sptr[5]*kptr[5] + \
 1639              		.loc 2 82 40 discriminator 3
 1640 0740 B386C602 		mul	a3,a3,a2
  82:lib/tinymaix/include/arch_cpu.h ****         sptr[3]*kptr[3] + sptr[4]*kptr[4] + sptr[5]*kptr[5] + \
 1641              		.loc 2 82 63 discriminator 3
 1642 0744 03862D00 		lb	a2,2(s11)
  82:lib/tinymaix/include/arch_cpu.h ****         sptr[3]*kptr[3] + sptr[4]*kptr[4] + sptr[5]*kptr[5] + \
 1643              		.loc 2 82 31 discriminator 3
 1644 0748 B697     		add	a5,a5,a3
  82:lib/tinymaix/include/arch_cpu.h ****         sptr[3]*kptr[3] + sptr[4]*kptr[4] + sptr[5]*kptr[5] + \
 1645              		.loc 2 82 55 discriminator 3
 1646 074a 83862C00 		lb	a3,2(s9)
  82:lib/tinymaix/include/arch_cpu.h ****         sptr[3]*kptr[3] + sptr[4]*kptr[4] + sptr[5]*kptr[5] + \
 1647              		.loc 2 82 58 discriminator 3
 1648 074e B386C602 		mul	a3,a3,a2
 1649              	.LVL181:
  83:lib/tinymaix/include/arch_cpu.h ****         sptr[6]*kptr[6] + sptr[7]*kptr[7] + sptr[8]*kptr[8] ;
 1650              		.loc 2 83 21 discriminator 3
 1651 0752 03863D00 		lb	a2,3(s11)
 1652              	.LVL182:
  82:lib/tinymaix/include/arch_cpu.h ****         sptr[3]*kptr[3] + sptr[4]*kptr[4] + sptr[5]*kptr[5] + \
 1653              		.loc 2 82 49 discriminator 3
 1654 0756 B697     		add	a5,a5,a3
  83:lib/tinymaix/include/arch_cpu.h ****         sptr[6]*kptr[6] + sptr[7]*kptr[7] + sptr[8]*kptr[8] ;
 1655              		.loc 2 83 13 discriminator 3
 1656 0758 83863C00 		lb	a3,3(s9)
 1657              	.LVL183:
  83:lib/tinymaix/include/arch_cpu.h ****         sptr[6]*kptr[6] + sptr[7]*kptr[7] + sptr[8]*kptr[8] ;
 1658              		.loc 2 83 16 discriminator 3
 1659 075c B386C602 		mul	a3,a3,a2
 1660              	.LVL184:
  83:lib/tinymaix/include/arch_cpu.h ****         sptr[6]*kptr[6] + sptr[7]*kptr[7] + sptr[8]*kptr[8] ;
 1661              		.loc 2 83 39 discriminator 3
 1662 0760 03864D00 		lb	a2,4(s11)
 1663              	.LVL185:
  82:lib/tinymaix/include/arch_cpu.h ****         sptr[3]*kptr[3] + sptr[4]*kptr[4] + sptr[5]*kptr[5] + \
 1664              		.loc 2 82 67 discriminator 3
 1665 0764 B697     		add	a5,a5,a3
  83:lib/tinymaix/include/arch_cpu.h ****         sptr[6]*kptr[6] + sptr[7]*kptr[7] + sptr[8]*kptr[8] ;
 1666              		.loc 2 83 31 discriminator 3
 1667 0766 83864C00 		lb	a3,4(s9)
  83:lib/tinymaix/include/arch_cpu.h ****         sptr[6]*kptr[6] + sptr[7]*kptr[7] + sptr[8]*kptr[8] ;
 1668              		.loc 2 83 34 discriminator 3
 1669 076a B386C602 		mul	a3,a3,a2
  83:lib/tinymaix/include/arch_cpu.h ****         sptr[6]*kptr[6] + sptr[7]*kptr[7] + sptr[8]*kptr[8] ;
 1670              		.loc 2 83 25 discriminator 3
 1671 076e B697     		add	a5,a5,a3
  83:lib/tinymaix/include/arch_cpu.h ****         sptr[6]*kptr[6] + sptr[7]*kptr[7] + sptr[8]*kptr[8] ;
 1672              		.loc 2 83 57 discriminator 3
 1673 0770 83865D00 		lb	a3,5(s11)
  83:lib/tinymaix/include/arch_cpu.h ****         sptr[6]*kptr[6] + sptr[7]*kptr[7] + sptr[8]*kptr[8] ;
GAS LISTING C:\Users\Jesper\AppData\Local\Temp\cclZf3Mh.s 			page 45


 1674              		.loc 2 83 52 discriminator 3
 1675 0774 3305D502 		mul	a0,a0,a3
  84:lib/tinymaix/include/arch_cpu.h ****     return;
 1676              		.loc 2 84 21 discriminator 3
 1677 0778 83866D00 		lb	a3,6(s11)
  83:lib/tinymaix/include/arch_cpu.h ****         sptr[6]*kptr[6] + sptr[7]*kptr[7] + sptr[8]*kptr[8] ;
 1678              		.loc 2 83 43 discriminator 3
 1679 077c AA97     		add	a5,a5,a0
  84:lib/tinymaix/include/arch_cpu.h ****     return;
 1680              		.loc 2 84 13 discriminator 3
 1681 077e 03856C00 		lb	a0,6(s9)
  84:lib/tinymaix/include/arch_cpu.h ****     return;
 1682              		.loc 2 84 16 discriminator 3
 1683 0782 3305D502 		mul	a0,a0,a3
  84:lib/tinymaix/include/arch_cpu.h ****     return;
 1684              		.loc 2 84 39 discriminator 3
 1685 0786 83867D00 		lb	a3,7(s11)
 1686              	.LVL186:
  83:lib/tinymaix/include/arch_cpu.h ****         sptr[6]*kptr[6] + sptr[7]*kptr[7] + sptr[8]*kptr[8] ;
 1687              		.loc 2 83 61 discriminator 3
 1688 078a AA97     		add	a5,a5,a0
  84:lib/tinymaix/include/arch_cpu.h ****     return;
 1689              		.loc 2 84 31 discriminator 3
 1690 078c 03857C00 		lb	a0,7(s9)
 1691              	.LVL187:
  84:lib/tinymaix/include/arch_cpu.h ****     return;
 1692              		.loc 2 84 34 discriminator 3
 1693 0790 3305D502 		mul	a0,a0,a3
 1694              	.LVL188:
  84:lib/tinymaix/include/arch_cpu.h ****     return;
 1695              		.loc 2 84 57 discriminator 3
 1696 0794 83868D00 		lb	a3,8(s11)
 1697              	.LVL189:
  84:lib/tinymaix/include/arch_cpu.h ****     return;
 1698              		.loc 2 84 25 discriminator 3
 1699 0798 AA97     		add	a5,a5,a0
  84:lib/tinymaix/include/arch_cpu.h ****     return;
 1700              		.loc 2 84 49 discriminator 3
 1701 079a 03858C00 		lb	a0,8(s9)
  84:lib/tinymaix/include/arch_cpu.h ****     return;
 1702              		.loc 2 84 52 discriminator 3
 1703 079e 3305D502 		mul	a0,a0,a3
 1704              	.LVL190:
  84:lib/tinymaix/include/arch_cpu.h ****     return;
 1705              		.loc 2 84 43 discriminator 3
 1706 07a2 AA97     		add	a5,a5,a0
 1707              	.LBE178:
 1708              	.LBE190:
 1709              	.LBB191:
 1710              	.LBB186:
 1711              	.LBB182:
 165:lib/tinymaix/include/arch_cpu.h ****         #if !TM_FASTSCALE
 1712              		.loc 2 165 13 discriminator 3
 1713 07a4 03A50B00 		lw	a0,0(s7)
 1714              	.LVL191:
 167:lib/tinymaix/include/arch_cpu.h ****         #else 
 1715              		.loc 2 167 29 discriminator 3
GAS LISTING C:\Users\Jesper\AppData\Local\Temp\cclZf3Mh.s 			page 46


 1716 07a8 3E95     		add	a0,a5,a0
 1717 07aa 97000000 		call	__floatsisf
 1717      E7800000 
 1718              	.LVL192:
 167:lib/tinymaix/include/arch_cpu.h ****         #else 
 1719              		.loc 2 167 19 discriminator 3
 1720 07b2 83250C00 		lw	a1,0(s8)
 1721 07b6 97000000 		call	__mulsf3
 1721      E7800000 
 1722              	.LVL193:
 171:lib/tinymaix/include/arch_cpu.h ****         case TM_ACT_RELU:
 1723              		.loc 2 171 9 discriminator 3
 1724 07be EA57     		lw	a5,184(sp)
 1725 07c0 0547     		li	a4,1
 167:lib/tinymaix/include/arch_cpu.h ****         #else 
 1726              		.loc 2 167 19 discriminator 3
 1727 07c2 2A8D     		mv	s10,a0
 1728              	.LVL194:
 171:lib/tinymaix/include/arch_cpu.h ****         case TM_ACT_RELU:
 1729              		.loc 2 171 9 is_stmt 1 discriminator 3
 1730 07c4 6384E704 		beq	a5,a4,.L66
 171:lib/tinymaix/include/arch_cpu.h ****         case TM_ACT_RELU:
 1731              		.loc 2 171 9 is_stmt 0
 1732 07c8 0D47     		li	a4,3
 1733 07ca 638CE704 		beq	a5,a4,.L67
 1734              	.LVL195:
 1735              	.L68:
 187:lib/tinymaix/include/arch_cpu.h ****         #else 
 1736              		.loc 2 187 13 is_stmt 1
 187:lib/tinymaix/include/arch_cpu.h ****         #else 
 1737              		.loc 2 187 37 is_stmt 0
 1738 07ce 3245     		lw	a0,12(sp)
 1739 07d0 EA85     		mv	a1,s10
 1740              	.LBE182:
 1741              	.LBE186:
 1742              	.LBE191:
 186:lib/tinymaix/src/tm_layers.c ****                     sptr += maxk; //dwconv need move step
 1743              		.loc 1 186 100
 1744 07d2 050B     		addi	s6,s6,1
 1745              	.LBB192:
 1746              	.LBB187:
 1747              	.LBB183:
 187:lib/tinymaix/include/arch_cpu.h ****         #else 
 1748              		.loc 2 187 37
 1749 07d4 97000000 		call	__mulsf3
 1749      E7800000 
 1750              	.LVL196:
 1751 07dc AACE     		sw	a0,92(sp)
 187:lib/tinymaix/include/arch_cpu.h ****         #else 
 1752              		.loc 2 187 48
 1753 07de 0E55     		lw	a0,224(sp)
 1754              	.LBE183:
 1755              	.LBE187:
 1756              	.LBE192:
 187:lib/tinymaix/src/tm_layers.c ****                 }
 1757              		.loc 1 187 26
 1758 07e0 A69C     		add	s9,s9,s1
GAS LISTING C:\Users\Jesper\AppData\Local\Temp\cclZf3Mh.s 			page 47


 1759              	.LVL197:
 1760 07e2 A50D     		addi	s11,s11,9
 1761              	.LVL198:
 1762              	.LBB193:
 1763              	.LBB188:
 1764              	.LBB184:
 187:lib/tinymaix/include/arch_cpu.h ****         #else 
 1765              		.loc 2 187 48
 1766 07e4 97000000 		call	__floatsisf
 1766      E7800000 
 1767              	.LVL199:
 1768 07ec F647     		lw	a5,92(sp)
 1769 07ee AA85     		mv	a1,a0
 1770 07f0 910B     		addi	s7,s7,4
 1771              	.LVL200:
 1772 07f2 3E85     		mv	a0,a5
 1773 07f4 97000000 		call	__addsf3
 1773      E7800000 
 1774              	.LVL201:
 187:lib/tinymaix/include/arch_cpu.h ****         #else 
 1775              		.loc 2 187 23
 1776 07fc 97000000 		call	__fixsfsi
 1776      E7800000 
 1777              	.LVL202:
 1778 0804 A30FABFE 		sb	a0,-1(s6)
 1779              	.LVL203:
 1780              	.LBE184:
 1781              	.LBE188:
 1782              	.LBE193:
 1783              	.LBE175:
 1784              	.LBE196:
 1785              	.LBE203:
 1786              	.LBE209:
 1787              	.LBE214:
 1788              	.LBE217:
 1789              		.loc 2 192 5 is_stmt 1
 1790              	.LBB218:
 1791              	.LBB215:
 1792              	.LBB210:
 1793              	.LBB204:
 1794              	.LBB197:
 1795              	.LBB195:
 186:lib/tinymaix/src/tm_layers.c ****                     sptr += maxk; //dwconv need move step
 1796              		.loc 1 186 96
 187:lib/tinymaix/src/tm_layers.c ****                 }
 1797              		.loc 1 187 21
 1798 0808 110C     		addi	s8,s8,4
 1799 080a EDBD     		j	.L65
 1800              	.LVL204:
 1801              	.L66:
 1802              	.LBB194:
 1803              	.LBB189:
 1804              	.LBB185:
 173:lib/tinymaix/include/arch_cpu.h ****             break;
 1805              		.loc 2 173 13
 173:lib/tinymaix/include/arch_cpu.h ****             break;
 1806              		.loc 2 173 31 is_stmt 0
GAS LISTING C:\Users\Jesper\AppData\Local\Temp\cclZf3Mh.s 			page 48


 1807 080c 93050000 		mv	a1,zero
 1808 0810 97000000 		call	__gtsf2
 1808      E7800000 
 1809              	.LVL205:
 1810 0818 E34BA0FA 		bgt	a0,zero,.L68
 1811              	.L127:
 1812 081c 130D0000 		mv	s10,zero
 1813              	.LVL206:
 1814 0820 7DB7     		j	.L68
 1815              	.LVL207:
 1816              	.L67:
 176:lib/tinymaix/include/arch_cpu.h ****         #if (!TM_FASTSCALE)
 1817              		.loc 2 176 13 is_stmt 1
 176:lib/tinymaix/include/arch_cpu.h ****         #if (!TM_FASTSCALE)
 1818              		.loc 2 176 31 is_stmt 0
 1819 0822 93050000 		mv	a1,zero
 1820 0826 97000000 		call	__gtsf2
 1820      E7800000 
 1821              	.LVL208:
 1822 082e E357A0FE 		ble	a0,zero,.L127
 178:lib/tinymaix/include/arch_cpu.h ****         #else
 1823              		.loc 2 178 13 is_stmt 1
 178:lib/tinymaix/include/arch_cpu.h ****         #else
 1824              		.loc 2 178 28 is_stmt 0
 1825 0832 B7070000 		lui	a5,%hi(.LC0)
 1826 0836 83A50700 		lw	a1,%lo(.LC0)(a5)
 1827 083a 6A85     		mv	a0,s10
 1828 083c 97000000 		call	__gtsf2
 1828      E7800000 
 1829              	.LVL209:
 1830 0844 E355A0F8 		ble	a0,zero,.L68
 1831 0848 B7070000 		lui	a5,%hi(.LC0)
 1832 084c 03AD0700 		lw	s10,%lo(.LC0)(a5)
 1833              	.LVL210:
 1834 0850 BDBF     		j	.L68
 1835              	.LVL211:
 1836              	.L84:
 1837              	.LBE185:
 1838              	.LBE189:
 1839              	.LBE194:
 1840              	.LBE195:
 1841              	.LBE197:
 1842              	.LBB198:
 1843              	.LBB160:
 191:lib/tinymaix/src/tm_layers.c ****                     tm_dot_prod(sptr, kptr, maxk*chi, &sum);//TM_PERF_ADD(t_dotp);TM_PERF_START(t_p
 1844              		.loc 1 191 21 is_stmt 1
 192:lib/tinymaix/src/tm_layers.c ****                     tm_postprocess_sum(1, &sum, b + c, act, outp, SUMSCALE, OUTSCALE, out_zp); outp
 1845              		.loc 1 192 21
 1846              	.LBB150:
 1847              	.LBB151:
  23:lib/tinymaix/include/arch_cpu.h ****     uint32_t i = 0;
 1848              		.loc 2 23 5
  24:lib/tinymaix/include/arch_cpu.h ****     uint32_t cnt = (size>>3)<<3;  //8
 1849              		.loc 2 24 5
  25:lib/tinymaix/include/arch_cpu.h ****     for(; i+8-1 <cnt; ){
 1850              		.loc 2 25 5
  25:lib/tinymaix/include/arch_cpu.h ****     for(; i+8-1 <cnt; ){
GAS LISTING C:\Users\Jesper\AppData\Local\Temp\cclZf3Mh.s 			page 49


 1851              		.loc 2 25 14 is_stmt 0
 1852 0852 C247     		lw	a5,16(sp)
  26:lib/tinymaix/include/arch_cpu.h ****         sum += sptr[i]*kptr[i];i++;
 1853              		.loc 2 26 5
 1854 0854 9D45     		li	a1,7
  25:lib/tinymaix/include/arch_cpu.h ****     for(; i+8-1 <cnt; ){
 1855              		.loc 2 25 14
 1856 0856 6687     		mv	a4,s9
 1857 0858 13F687FF 		andi	a2,a5,-8
 1858              	.LVL212:
  26:lib/tinymaix/include/arch_cpu.h ****         sum += sptr[i]*kptr[i];i++;
 1859              		.loc 2 26 5 is_stmt 1
  23:lib/tinymaix/include/arch_cpu.h ****     uint32_t i = 0;
 1860              		.loc 2 23 15 is_stmt 0
 1861 085c 8146     		li	a3,0
  25:lib/tinymaix/include/arch_cpu.h ****     for(; i+8-1 <cnt; ){
 1862              		.loc 2 25 14
 1863 085e E287     		mv	a5,s8
  26:lib/tinymaix/include/arch_cpu.h ****         sum += sptr[i]*kptr[i];i++;
 1864              		.loc 2 26 5
 1865 0860 B3858541 		sub	a1,a1,s8
 1866              	.LVL213:
 1867              	.L73:
 1868 0864 3385F500 		add	a0,a1,a5
 1869 0868 6367C508 		bltu	a0,a2,.L74
 1870              	.LVL214:
 1871              	.L75:
  36:lib/tinymaix/include/arch_cpu.h ****         sum += sptr[i]*kptr[i]; 
 1872              		.loc 2 36 5
 1873 086c C247     		lw	a5,16(sp)
 1874 086e 636FF60E 		bltu	a2,a5,.L76
  39:lib/tinymaix/include/arch_cpu.h ****     return;
 1875              		.loc 2 39 5 is_stmt 1
 1876              	.LVL215:
  40:lib/tinymaix/include/arch_cpu.h **** }
 1877              		.loc 2 40 5
 1878              	.LBE151:
 1879              	.LBE150:
 193:lib/tinymaix/src/tm_layers.c ****                     if(dmul) sptr += maxk; //dwconv need move step
 1880              		.loc 1 193 21
 1881              	.LBB153:
 1882              	.LBB144:
 1883              	.LBB138:
 164:lib/tinymaix/include/arch_cpu.h ****         sum += bs[i];
 1884              		.loc 2 164 9
 165:lib/tinymaix/include/arch_cpu.h ****         #if !TM_FASTSCALE
 1885              		.loc 2 165 9
 167:lib/tinymaix/include/arch_cpu.h ****         #else 
 1886              		.loc 2 167 13
 165:lib/tinymaix/include/arch_cpu.h ****         #if !TM_FASTSCALE
 1887              		.loc 2 165 13 is_stmt 0
 1888 0872 03250D00 		lw	a0,0(s10)
 167:lib/tinymaix/include/arch_cpu.h ****         #else 
 1889              		.loc 2 167 29
 1890 0876 3695     		add	a0,a3,a0
 1891              	.LVL216:
 1892 0878 97000000 		call	__floatsisf
GAS LISTING C:\Users\Jesper\AppData\Local\Temp\cclZf3Mh.s 			page 50


 1892      E7800000 
 1893              	.LVL217:
 167:lib/tinymaix/include/arch_cpu.h ****         #else 
 1894              		.loc 2 167 19
 1895 0880 83A50D00 		lw	a1,0(s11)
 1896 0884 97000000 		call	__mulsf3
 1896      E7800000 
 1897              	.LVL218:
 171:lib/tinymaix/include/arch_cpu.h ****         case TM_ACT_RELU:
 1898              		.loc 2 171 9
 1899 088c EA57     		lw	a5,184(sp)
 1900 088e 0547     		li	a4,1
 167:lib/tinymaix/include/arch_cpu.h ****         #else 
 1901              		.loc 2 167 19
 1902 0890 2A8B     		mv	s6,a0
 1903              	.LVL219:
 171:lib/tinymaix/include/arch_cpu.h ****         case TM_ACT_RELU:
 1904              		.loc 2 171 9 is_stmt 1
 1905 0892 638AE70E 		beq	a5,a4,.L77
 1906 0896 0D47     		li	a4,3
 1907 0898 6382E710 		beq	a5,a4,.L78
 1908              	.LVL220:
 1909              	.L79:
 187:lib/tinymaix/include/arch_cpu.h ****         #else 
 1910              		.loc 2 187 13
 1911              	.LBE138:
 1912              	.LBE144:
 1913              	.LBE153:
 1914              	.LBE160:
 1915              	.LBE198:
 1916              	.LBE204:
 1917              	.LBE210:
 1918              	.LBE215:
 1919              	.LBE218:
 1920              		.loc 2 192 5
 1921              	.LBB219:
 1922              	.LBB216:
 1923              	.LBB211:
 1924              	.LBB205:
 1925              	.LBB199:
 1926              	.LBB161:
 193:lib/tinymaix/src/tm_layers.c ****                     if(dmul) sptr += maxk; //dwconv need move step
 1927              		.loc 1 193 96
 194:lib/tinymaix/src/tm_layers.c ****                 }
 1928              		.loc 1 194 21
 194:lib/tinymaix/src/tm_layers.c ****                 }
 1929              		.loc 1 194 23 is_stmt 0
 1930 089c 63830900 		beq	s3,zero,.L82
 194:lib/tinymaix/src/tm_layers.c ****                 }
 1931              		.loc 1 194 30 is_stmt 1 discriminator 1
 194:lib/tinymaix/src/tm_layers.c ****                 }
 1932              		.loc 1 194 35 is_stmt 0 discriminator 1
 1933 08a0 269C     		add	s8,s8,s1
 1934              	.LVL221:
 1935              	.L82:
 1936              	.LBB154:
 1937              	.LBB145:
GAS LISTING C:\Users\Jesper\AppData\Local\Temp\cclZf3Mh.s 			page 51


 1938              	.LBB139:
 187:lib/tinymaix/include/arch_cpu.h ****         #else 
 1939              		.loc 2 187 21 discriminator 2
 1940 08a2 A247     		lw	a5,8(sp)
 187:lib/tinymaix/include/arch_cpu.h ****         #else 
 1941              		.loc 2 187 37 discriminator 2
 1942 08a4 3245     		lw	a0,12(sp)
 1943 08a6 DA85     		mv	a1,s6
 187:lib/tinymaix/include/arch_cpu.h ****         #else 
 1944              		.loc 2 187 21 discriminator 2
 1945 08a8 DE97     		add	a5,a5,s7
 1946 08aa BECE     		sw	a5,92(sp)
 187:lib/tinymaix/include/arch_cpu.h ****         #else 
 1947              		.loc 2 187 37 discriminator 2
 1948 08ac 97000000 		call	__mulsf3
 1948      E7800000 
 1949              	.LVL222:
 1950 08b4 2A8B     		mv	s6,a0
 187:lib/tinymaix/include/arch_cpu.h ****         #else 
 1951              		.loc 2 187 48 discriminator 2
 1952 08b6 0E55     		lw	a0,224(sp)
 1953              	.LBE139:
 1954              	.LBE145:
 1955              	.LBE154:
 1956              	.LBE161:
 190:lib/tinymaix/src/tm_layers.c ****                     wtype_t* kptr = (wtype_t*)w + c*chi*maxk;//TM_PERF_START(t_dotp);
 1957              		.loc 1 190 41 discriminator 2
 1958 08b8 850B     		addi	s7,s7,1
 1959              	.LVL223:
 1960 08ba 110D     		addi	s10,s10,4
 1961              	.LBB162:
 1962              	.LBB155:
 1963              	.LBB146:
 1964              	.LBB140:
 187:lib/tinymaix/include/arch_cpu.h ****         #else 
 1965              		.loc 2 187 48 discriminator 2
 1966 08bc 97000000 		call	__floatsisf
 1966      E7800000 
 1967              	.LVL224:
 1968 08c4 AA85     		mv	a1,a0
 1969 08c6 5A85     		mv	a0,s6
 1970 08c8 97000000 		call	__addsf3
 1970      E7800000 
 1971              	.LVL225:
 187:lib/tinymaix/include/arch_cpu.h ****         #else 
 1972              		.loc 2 187 23 discriminator 2
 1973 08d0 97000000 		call	__fixsfsi
 1973      E7800000 
 1974              	.LVL226:
 1975 08d8 F647     		lw	a5,92(sp)
 1976 08da 910D     		addi	s11,s11,4
 1977 08dc 2380A700 		sb	a0,0(a5)
 1978              	.LVL227:
 1979 08e0 C247     		lw	a5,16(sp)
 1980 08e2 BE9C     		add	s9,s9,a5
 1981              	.LVL228:
 1982              	.L83:
GAS LISTING C:\Users\Jesper\AppData\Local\Temp\cclZf3Mh.s 			page 52


 1983 08e4 A247     		lw	a5,8(sp)
 1984 08e6 338B7701 		add	s6,a5,s7
 1985              	.LVL229:
 1986              	.LBE140:
 1987              	.LBE146:
 1988              	.LBE155:
 1989              	.LBE162:
 190:lib/tinymaix/src/tm_layers.c ****                     wtype_t* kptr = (wtype_t*)w + c*chi*maxk;//TM_PERF_START(t_dotp);
 1990              		.loc 1 190 35 discriminator 1
 1991 08ea 9247     		lw	a5,4(sp)
 1992 08ec 83D76700 		lhu	a5,6(a5)
 190:lib/tinymaix/src/tm_layers.c ****                     wtype_t* kptr = (wtype_t*)w + c*chi*maxk;//TM_PERF_START(t_dotp);
 1993              		.loc 1 190 17 discriminator 1
 1994 08f0 E3C1FBF6 		bgt	a5,s7,.L84
 1995 08f4 05B5     		j	.L72
 1996              	.LVL230:
 1997              	.L74:
 1998              	.LBB163:
 1999              	.LBB156:
 2000              	.LBB152:
  27:lib/tinymaix/include/arch_cpu.h ****         sum += sptr[i]*kptr[i];i++;
 2001              		.loc 2 27 9 is_stmt 1
  27:lib/tinymaix/include/arch_cpu.h ****         sum += sptr[i]*kptr[i];i++;
 2002              		.loc 2 27 28 is_stmt 0
 2003 08f6 03080700 		lb	a6,0(a4)
  27:lib/tinymaix/include/arch_cpu.h ****         sum += sptr[i]*kptr[i];i++;
 2004              		.loc 2 27 20
 2005 08fa 03850700 		lb	a0,0(a5)
 2006 08fe 2107     		addi	a4,a4,8
 2007 0900 A107     		addi	a5,a5,8
 2008              	.LVL231:
  27:lib/tinymaix/include/arch_cpu.h ****         sum += sptr[i]*kptr[i];i++;
 2009              		.loc 2 27 23
 2010 0902 33050503 		mul	a0,a0,a6
  28:lib/tinymaix/include/arch_cpu.h ****         sum += sptr[i]*kptr[i];i++;
 2011              		.loc 2 28 28
 2012 0906 030897FF 		lb	a6,-7(a4)
  27:lib/tinymaix/include/arch_cpu.h ****         sum += sptr[i]*kptr[i];i++;
 2013              		.loc 2 27 13
 2014 090a 3695     		add	a0,a0,a3
 2015              	.LVL232:
  27:lib/tinymaix/include/arch_cpu.h ****         sum += sptr[i]*kptr[i];i++;
 2016              		.loc 2 27 32 is_stmt 1
  28:lib/tinymaix/include/arch_cpu.h ****         sum += sptr[i]*kptr[i];i++;
 2017              		.loc 2 28 9
  28:lib/tinymaix/include/arch_cpu.h ****         sum += sptr[i]*kptr[i];i++;
 2018              		.loc 2 28 20 is_stmt 0
 2019 090c 838697FF 		lb	a3,-7(a5)
  28:lib/tinymaix/include/arch_cpu.h ****         sum += sptr[i]*kptr[i];i++;
 2020              		.loc 2 28 23
 2021 0910 B3860603 		mul	a3,a3,a6
  29:lib/tinymaix/include/arch_cpu.h ****         sum += sptr[i]*kptr[i];i++;
 2022              		.loc 2 29 28
 2023 0914 0308A7FF 		lb	a6,-6(a4)
  28:lib/tinymaix/include/arch_cpu.h ****         sum += sptr[i]*kptr[i];i++;
 2024              		.loc 2 28 13
 2025 0918 AA96     		add	a3,a3,a0
GAS LISTING C:\Users\Jesper\AppData\Local\Temp\cclZf3Mh.s 			page 53


 2026              	.LVL233:
  28:lib/tinymaix/include/arch_cpu.h ****         sum += sptr[i]*kptr[i];i++;
 2027              		.loc 2 28 32 is_stmt 1
  29:lib/tinymaix/include/arch_cpu.h ****         sum += sptr[i]*kptr[i];i++;
 2028              		.loc 2 29 9
  29:lib/tinymaix/include/arch_cpu.h ****         sum += sptr[i]*kptr[i];i++;
 2029              		.loc 2 29 20 is_stmt 0
 2030 091a 0385A7FF 		lb	a0,-6(a5)
  29:lib/tinymaix/include/arch_cpu.h ****         sum += sptr[i]*kptr[i];i++;
 2031              		.loc 2 29 23
 2032 091e 33050503 		mul	a0,a0,a6
  30:lib/tinymaix/include/arch_cpu.h ****         sum += sptr[i]*kptr[i];i++;
 2033              		.loc 2 30 28
 2034 0922 0308B7FF 		lb	a6,-5(a4)
  29:lib/tinymaix/include/arch_cpu.h ****         sum += sptr[i]*kptr[i];i++;
 2035              		.loc 2 29 13
 2036 0926 3695     		add	a0,a0,a3
 2037              	.LVL234:
  29:lib/tinymaix/include/arch_cpu.h ****         sum += sptr[i]*kptr[i];i++;
 2038              		.loc 2 29 32 is_stmt 1
  30:lib/tinymaix/include/arch_cpu.h ****         sum += sptr[i]*kptr[i];i++;
 2039              		.loc 2 30 9
  30:lib/tinymaix/include/arch_cpu.h ****         sum += sptr[i]*kptr[i];i++;
 2040              		.loc 2 30 20 is_stmt 0
 2041 0928 8386B7FF 		lb	a3,-5(a5)
  30:lib/tinymaix/include/arch_cpu.h ****         sum += sptr[i]*kptr[i];i++;
 2042              		.loc 2 30 23
 2043 092c B3860603 		mul	a3,a3,a6
  31:lib/tinymaix/include/arch_cpu.h ****         sum += sptr[i]*kptr[i];i++;
 2044              		.loc 2 31 28
 2045 0930 0308C7FF 		lb	a6,-4(a4)
  30:lib/tinymaix/include/arch_cpu.h ****         sum += sptr[i]*kptr[i];i++;
 2046              		.loc 2 30 13
 2047 0934 AA96     		add	a3,a3,a0
 2048              	.LVL235:
  30:lib/tinymaix/include/arch_cpu.h ****         sum += sptr[i]*kptr[i];i++;
 2049              		.loc 2 30 32 is_stmt 1
  31:lib/tinymaix/include/arch_cpu.h ****         sum += sptr[i]*kptr[i];i++;
 2050              		.loc 2 31 9
  31:lib/tinymaix/include/arch_cpu.h ****         sum += sptr[i]*kptr[i];i++;
 2051              		.loc 2 31 20 is_stmt 0
 2052 0936 0385C7FF 		lb	a0,-4(a5)
  31:lib/tinymaix/include/arch_cpu.h ****         sum += sptr[i]*kptr[i];i++;
 2053              		.loc 2 31 23
 2054 093a 33050503 		mul	a0,a0,a6
  32:lib/tinymaix/include/arch_cpu.h ****         sum += sptr[i]*kptr[i];i++;
 2055              		.loc 2 32 28
 2056 093e 0308D7FF 		lb	a6,-3(a4)
  31:lib/tinymaix/include/arch_cpu.h ****         sum += sptr[i]*kptr[i];i++;
 2057              		.loc 2 31 13
 2058 0942 3695     		add	a0,a0,a3
 2059              	.LVL236:
  31:lib/tinymaix/include/arch_cpu.h ****         sum += sptr[i]*kptr[i];i++;
 2060              		.loc 2 31 32 is_stmt 1
  32:lib/tinymaix/include/arch_cpu.h ****         sum += sptr[i]*kptr[i];i++;
 2061              		.loc 2 32 9
  32:lib/tinymaix/include/arch_cpu.h ****         sum += sptr[i]*kptr[i];i++;
GAS LISTING C:\Users\Jesper\AppData\Local\Temp\cclZf3Mh.s 			page 54


 2062              		.loc 2 32 20 is_stmt 0
 2063 0944 8386D7FF 		lb	a3,-3(a5)
  32:lib/tinymaix/include/arch_cpu.h ****         sum += sptr[i]*kptr[i];i++;
 2064              		.loc 2 32 23
 2065 0948 B3860603 		mul	a3,a3,a6
  33:lib/tinymaix/include/arch_cpu.h ****         sum += sptr[i]*kptr[i];i++;
 2066              		.loc 2 33 28
 2067 094c 0308E7FF 		lb	a6,-2(a4)
  32:lib/tinymaix/include/arch_cpu.h ****         sum += sptr[i]*kptr[i];i++;
 2068              		.loc 2 32 13
 2069 0950 AA96     		add	a3,a3,a0
 2070              	.LVL237:
  32:lib/tinymaix/include/arch_cpu.h ****         sum += sptr[i]*kptr[i];i++;
 2071              		.loc 2 32 32 is_stmt 1
  33:lib/tinymaix/include/arch_cpu.h ****         sum += sptr[i]*kptr[i];i++;
 2072              		.loc 2 33 9
  33:lib/tinymaix/include/arch_cpu.h ****         sum += sptr[i]*kptr[i];i++;
 2073              		.loc 2 33 20 is_stmt 0
 2074 0952 0385E7FF 		lb	a0,-2(a5)
  33:lib/tinymaix/include/arch_cpu.h ****         sum += sptr[i]*kptr[i];i++;
 2075              		.loc 2 33 23
 2076 0956 33050503 		mul	a0,a0,a6
  34:lib/tinymaix/include/arch_cpu.h ****     }
 2077              		.loc 2 34 28
 2078 095a 0308F7FF 		lb	a6,-1(a4)
  33:lib/tinymaix/include/arch_cpu.h ****         sum += sptr[i]*kptr[i];i++;
 2079              		.loc 2 33 13
 2080 095e 3695     		add	a0,a0,a3
 2081              	.LVL238:
  33:lib/tinymaix/include/arch_cpu.h ****         sum += sptr[i]*kptr[i];i++;
 2082              		.loc 2 33 32 is_stmt 1
  34:lib/tinymaix/include/arch_cpu.h ****     }
 2083              		.loc 2 34 9
  34:lib/tinymaix/include/arch_cpu.h ****     }
 2084              		.loc 2 34 20 is_stmt 0
 2085 0960 8386F7FF 		lb	a3,-1(a5)
  34:lib/tinymaix/include/arch_cpu.h ****     }
 2086              		.loc 2 34 23
 2087 0964 B3860603 		mul	a3,a3,a6
  34:lib/tinymaix/include/arch_cpu.h ****     }
 2088              		.loc 2 34 13
 2089 0968 AA96     		add	a3,a3,a0
 2090              	.LVL239:
  34:lib/tinymaix/include/arch_cpu.h ****     }
 2091              		.loc 2 34 32 is_stmt 1
 2092 096a EDBD     		j	.L73
 2093              	.LVL240:
 2094              	.L76:
  37:lib/tinymaix/include/arch_cpu.h ****     }
 2095              		.loc 2 37 9
  37:lib/tinymaix/include/arch_cpu.h ****     }
 2096              		.loc 2 37 20 is_stmt 0
 2097 096c B307CC00 		add	a5,s8,a2
  37:lib/tinymaix/include/arch_cpu.h ****     }
 2098              		.loc 2 37 28
 2099 0970 3387CC00 		add	a4,s9,a2
  37:lib/tinymaix/include/arch_cpu.h ****     }
GAS LISTING C:\Users\Jesper\AppData\Local\Temp\cclZf3Mh.s 			page 55


 2100              		.loc 2 37 20
 2101 0974 83870700 		lb	a5,0(a5)
  37:lib/tinymaix/include/arch_cpu.h ****     }
 2102              		.loc 2 37 28
 2103 0978 03070700 		lb	a4,0(a4)
  36:lib/tinymaix/include/arch_cpu.h ****         sum += sptr[i]*kptr[i]; 
 2104              		.loc 2 36 21
 2105 097c 0506     		addi	a2,a2,1
 2106              	.LVL241:
  37:lib/tinymaix/include/arch_cpu.h ****     }
 2107              		.loc 2 37 23
 2108 097e B387E702 		mul	a5,a5,a4
  37:lib/tinymaix/include/arch_cpu.h ****     }
 2109              		.loc 2 37 13
 2110 0982 BE96     		add	a3,a3,a5
 2111              	.LVL242:
 2112 0984 E5B5     		j	.L75
 2113              	.LVL243:
 2114              	.L77:
 2115              	.LBE152:
 2116              	.LBE156:
 2117              	.LBB157:
 2118              	.LBB147:
 2119              	.LBB141:
 173:lib/tinymaix/include/arch_cpu.h ****             break;
 2120              		.loc 2 173 13 is_stmt 1
 173:lib/tinymaix/include/arch_cpu.h ****             break;
 2121              		.loc 2 173 31 is_stmt 0
 2122 0986 93050000 		mv	a1,zero
 2123 098a 97000000 		call	__gtsf2
 2123      E7800000 
 2124              	.LVL244:
 2125 0992 E345A0F0 		bgt	a0,zero,.L79
 2126              	.L129:
 2127 0996 130B0000 		mv	s6,zero
 2128              	.LVL245:
 2129 099a 09B7     		j	.L79
 2130              	.LVL246:
 2131              	.L78:
 176:lib/tinymaix/include/arch_cpu.h ****         #if (!TM_FASTSCALE)
 2132              		.loc 2 176 13 is_stmt 1
 176:lib/tinymaix/include/arch_cpu.h ****         #if (!TM_FASTSCALE)
 2133              		.loc 2 176 31 is_stmt 0
 2134 099c 93050000 		mv	a1,zero
 2135 09a0 97000000 		call	__gtsf2
 2135      E7800000 
 2136              	.LVL247:
 2137 09a8 E357A0FE 		ble	a0,zero,.L129
 178:lib/tinymaix/include/arch_cpu.h ****         #else
 2138              		.loc 2 178 13 is_stmt 1
 178:lib/tinymaix/include/arch_cpu.h ****         #else
 2139              		.loc 2 178 28 is_stmt 0
 2140 09ac B645     		lw	a1,76(sp)
 2141 09ae 5A85     		mv	a0,s6
 2142 09b0 97000000 		call	__gtsf2
 2142      E7800000 
 2143              	.LVL248:
GAS LISTING C:\Users\Jesper\AppData\Local\Temp\cclZf3Mh.s 			page 56


 2144 09b8 E352A0EE 		ble	a0,zero,.L79
 2145 09bc 364B     		lw	s6,76(sp)
 2146              	.LVL249:
 2147 09be F9BD     		j	.L79
 2148              	.LVL250:
 2149              	.L87:
 2150              	.LBE141:
 2151              	.LBE147:
 2152              	.LBE157:
 2153              	.LBE163:
 2154              	.LBE199:
 2155              	.LBE205:
 2156              	.LBE211:
 2157              	.LBE216:
 2158              	.LBE219:
  72:lib/tinymaix/src/tm_layers.c ****     if(act >= TM_ACT_MAXCNT) return TM_ERR_UNSUPPORT;
 2159              		.loc 1 72 32
 2160 09c0 1D4E     		li	t3,7
 2161 09c2 A5BE     		j	.L1
 2162              		.cfi_endproc
 2163              	.LFE31:
 2165              		.section	.text.tml_gap,"ax",@progbits
 2166              		.align	1
 2167              		.weak	tml_gap
 2169              	tml_gap:
 2170              	.LFB32:
 203:lib/tinymaix/src/tm_layers.c **** 
 204:lib/tinymaix/src/tm_layers.c **** /*************************** TML_GAP **********************************/
 205:lib/tinymaix/src/tm_layers.c **** tm_err_t TM_WEAK tml_gap(tm_mat_t* in, tm_mat_t* out, sctype_t in_s, zptype_t in_zp, sctype_t out_s
 206:lib/tinymaix/src/tm_layers.c **** {   TM_DBGT_INIT();
 2171              		.loc 1 206 1 is_stmt 1
 2172              		.cfi_startproc
 2173              	.LVL251:
 2174              		.loc 1 206 5
 2175              		.loc 1 206 5
 2176              		.loc 1 206 5
 2177              		.loc 1 206 1 is_stmt 0
 2178 0000 7971     		addi	sp,sp,-48
 2179              	.LCFI3:
 2180              		.cfi_def_cfa_offset 48
 2181 0002 22D4     		sw	s0,40(sp)
 2182 0004 26D2     		sw	s1,36(sp)
 2183 0006 4AD0     		sw	s2,32(sp)
 2184 0008 4ECE     		sw	s3,28(sp)
 2185 000a 52CC     		sw	s4,24(sp)
 2186 000c 56CA     		sw	s5,20(sp)
 2187 000e 5EC6     		sw	s7,12(sp)
 2188 0010 06D6     		sw	ra,44(sp)
 2189 0012 5AC8     		sw	s6,16(sp)
 2190 0014 62C4     		sw	s8,8(sp)
 2191              		.cfi_offset 8, -8
 2192              		.cfi_offset 9, -12
 2193              		.cfi_offset 18, -16
 2194              		.cfi_offset 19, -20
 2195              		.cfi_offset 20, -24
 2196              		.cfi_offset 21, -28
 2197              		.cfi_offset 23, -36
GAS LISTING C:\Users\Jesper\AppData\Local\Temp\cclZf3Mh.s 			page 57


 2198              		.cfi_offset 1, -4
 2199              		.cfi_offset 22, -32
 2200              		.cfi_offset 24, -40
 2201              		.loc 1 206 1
 2202 0016 AA84     		mv	s1,a0
 2203 0018 AE8B     		mv	s7,a1
 2204 001a 3289     		mv	s2,a2
 2205 001c B68A     		mv	s5,a3
 2206 001e BA89     		mv	s3,a4
 2207 0020 3E8A     		mv	s4,a5
 2208              	.LBB220:
 207:lib/tinymaix/src/tm_layers.c ****     mtype_t* data;
 208:lib/tinymaix/src/tm_layers.c ****     for(int c=0; c <out->c; c++){
 2209              		.loc 1 208 13
 2210 0022 0144     		li	s0,0
 2211              	.LBE220:
 206:lib/tinymaix/src/tm_layers.c ****     mtype_t* data;
 2212              		.loc 1 206 5
 2213 0024 97000000 		call	clock
 2213      E7800000 
 2214              	.LVL252:
 206:lib/tinymaix/src/tm_layers.c ****     mtype_t* data;
 2215              		.loc 1 206 19 is_stmt 1
 207:lib/tinymaix/src/tm_layers.c ****     mtype_t* data;
 2216              		.loc 1 207 5
 2217              		.loc 1 208 5
 2218              	.LBB229:
 2219              		.loc 1 208 9
 2220              	.L133:
 2221              		.loc 1 208 24 is_stmt 0 discriminator 1
 2222 002c 03D66B00 		lhu	a2,6(s7)
 2223              		.loc 1 208 5 discriminator 1
 2224 0030 634FC400 		bgt	a2,s0,.L137
 2225              	.LBE229:
 209:lib/tinymaix/src/tm_layers.c ****         sumtype_t sum = 0;
 210:lib/tinymaix/src/tm_layers.c ****         data = in->data + c;
 211:lib/tinymaix/src/tm_layers.c ****         for(int y=0; y <in->h; y++){
 212:lib/tinymaix/src/tm_layers.c ****             for(int x=0; x <in->w; x++){
 213:lib/tinymaix/src/tm_layers.c ****                 sum  += ((sumtype_t)(*data));
 214:lib/tinymaix/src/tm_layers.c ****                 data += out->c;
 215:lib/tinymaix/src/tm_layers.c ****             }
 216:lib/tinymaix/src/tm_layers.c ****         }
 217:lib/tinymaix/src/tm_layers.c ****     #if TM_MDL_TYPE == TM_MDL_INT8 || TM_MDL_TYPE == TM_MDL_INT16
 218:lib/tinymaix/src/tm_layers.c ****         out->data[c] = (mtype_t)((sum/((in->h)*(in->w))-in_zp)*in_s/out_s + out_zp); //requant
 219:lib/tinymaix/src/tm_layers.c ****     #elif TM_MDL_TYPE == TM_MDL_FP32 || TM_MDL_TYPE == TM_MDL_FP16
 220:lib/tinymaix/src/tm_layers.c ****         out->data[c] = (mtype_t)(sum/((in->h)*(in->w)));
 221:lib/tinymaix/src/tm_layers.c ****     //#else //#elif TM_MDL_TYPE == TM_MDL_FP8_143 || TM_MDL_TYPE == TM_MDL_FP8_152
 222:lib/tinymaix/src/tm_layers.c ****     #endif
 223:lib/tinymaix/src/tm_layers.c ****     }
 224:lib/tinymaix/src/tm_layers.c ****     return TM_OK;
 2226              		.loc 1 224 5 is_stmt 1
 225:lib/tinymaix/src/tm_layers.c **** }
 2227              		.loc 1 225 1 is_stmt 0
 2228 0034 B250     		lw	ra,44(sp)
 2229              		.cfi_remember_state
 2230              		.cfi_restore 1
 2231 0036 2254     		lw	s0,40(sp)
GAS LISTING C:\Users\Jesper\AppData\Local\Temp\cclZf3Mh.s 			page 58


 2232              		.cfi_restore 8
 2233              	.LVL253:
 2234 0038 9254     		lw	s1,36(sp)
 2235              		.cfi_restore 9
 2236              	.LVL254:
 2237 003a 0259     		lw	s2,32(sp)
 2238              		.cfi_restore 18
 2239              	.LVL255:
 2240 003c F249     		lw	s3,28(sp)
 2241              		.cfi_restore 19
 2242              	.LVL256:
 2243 003e 624A     		lw	s4,24(sp)
 2244              		.cfi_restore 20
 2245              	.LVL257:
 2246 0040 D24A     		lw	s5,20(sp)
 2247              		.cfi_restore 21
 2248              	.LVL258:
 2249 0042 424B     		lw	s6,16(sp)
 2250              		.cfi_restore 22
 2251 0044 B24B     		lw	s7,12(sp)
 2252              		.cfi_restore 23
 2253              	.LVL259:
 2254 0046 224C     		lw	s8,8(sp)
 2255              		.cfi_restore 24
 2256 0048 0145     		li	a0,0
 2257 004a 4561     		addi	sp,sp,48
 2258              	.LCFI4:
 2259              		.cfi_def_cfa_offset 0
 2260 004c 8280     		jr	ra
 2261              	.LVL260:
 2262              	.L137:
 2263              	.LCFI5:
 2264              		.cfi_restore_state
 2265              	.LBB230:
 2266              	.LBB221:
 209:lib/tinymaix/src/tm_layers.c ****         sumtype_t sum = 0;
 2267              		.loc 1 209 9 is_stmt 1
 210:lib/tinymaix/src/tm_layers.c ****         for(int y=0; y <in->h; y++){
 2268              		.loc 1 210 9
 2269 004e 83D64400 		lhu	a3,4(s1)
 210:lib/tinymaix/src/tm_layers.c ****         for(int y=0; y <in->h; y++){
 2270              		.loc 1 210 14 is_stmt 0
 2271 0052 9C44     		lw	a5,8(s1)
 2272              	.LBB222:
 211:lib/tinymaix/src/tm_layers.c ****             for(int x=0; x <in->w; x++){
 2273              		.loc 1 211 27
 2274 0054 03D72400 		lhu	a4,2(s1)
 2275 0058 3383C602 		mul	t1,a3,a2
 2276              	.LBE222:
 210:lib/tinymaix/src/tm_layers.c ****         for(int y=0; y <in->h; y++){
 2277              		.loc 1 210 14
 2278 005c A297     		add	a5,a5,s0
 2279              	.LVL261:
 211:lib/tinymaix/src/tm_layers.c ****             for(int x=0; x <in->w; x++){
 2280              		.loc 1 211 9 is_stmt 1
 2281              	.LBB225:
 211:lib/tinymaix/src/tm_layers.c ****             for(int x=0; x <in->w; x++){
GAS LISTING C:\Users\Jesper\AppData\Local\Temp\cclZf3Mh.s 			page 59


 2282              		.loc 1 211 13
 211:lib/tinymaix/src/tm_layers.c ****             for(int x=0; x <in->w; x++){
 2283              		.loc 1 211 17 is_stmt 0
 2284 005e 8145     		li	a1,0
 2285              	.LBE225:
 209:lib/tinymaix/src/tm_layers.c ****         data = in->data + c;
 2286              		.loc 1 209 19
 2287 0060 0145     		li	a0,0
 2288              	.LVL262:
 2289              	.L134:
 2290              	.LBB226:
 211:lib/tinymaix/src/tm_layers.c ****             for(int x=0; x <in->w; x++){
 2291              		.loc 1 211 9 discriminator 1
 2292 0062 63C7E506 		bgt	a4,a1,.L138
 2293              	.LBE226:
 218:lib/tinymaix/src/tm_layers.c ****     #elif TM_MDL_TYPE == TM_MDL_FP32 || TM_MDL_TYPE == TM_MDL_FP16
 2294              		.loc 1 218 9 is_stmt 1 discriminator 2
 218:lib/tinymaix/src/tm_layers.c ****     #elif TM_MDL_TYPE == TM_MDL_FP32 || TM_MDL_TYPE == TM_MDL_FP16
 2295              		.loc 1 218 22 is_stmt 0 discriminator 2
 2296 0066 03AB8B00 		lw	s6,8(s7)
 2297 006a 229B     		add	s6,s6,s0
 2298              	.LBE221:
 208:lib/tinymaix/src/tm_layers.c ****         sumtype_t sum = 0;
 2299              		.loc 1 208 30 discriminator 2
 2300 006c 0504     		addi	s0,s0,1
 2301              	.LVL263:
 2302              	.LBB228:
 218:lib/tinymaix/src/tm_layers.c ****     #elif TM_MDL_TYPE == TM_MDL_FP32 || TM_MDL_TYPE == TM_MDL_FP16
 2303              		.loc 1 218 47 discriminator 2
 2304 006e 3307D702 		mul	a4,a4,a3
 218:lib/tinymaix/src/tm_layers.c ****     #elif TM_MDL_TYPE == TM_MDL_FP32 || TM_MDL_TYPE == TM_MDL_FP16
 2305              		.loc 1 218 38 discriminator 2
 2306 0072 3345E502 		div	a0,a0,a4
 2307              	.LVL264:
 218:lib/tinymaix/src/tm_layers.c ****     #elif TM_MDL_TYPE == TM_MDL_FP32 || TM_MDL_TYPE == TM_MDL_FP16
 2308              		.loc 1 218 63 discriminator 2
 2309 0076 33055541 		sub	a0,a0,s5
 2310 007a 97000000 		call	__floatsisf
 2310      E7800000 
 2311              	.LVL265:
 2312 0082 CA85     		mv	a1,s2
 2313 0084 97000000 		call	__mulsf3
 2313      E7800000 
 2314              	.LVL266:
 218:lib/tinymaix/src/tm_layers.c ****     #elif TM_MDL_TYPE == TM_MDL_FP32 || TM_MDL_TYPE == TM_MDL_FP16
 2315              		.loc 1 218 68 discriminator 2
 2316 008c CE85     		mv	a1,s3
 2317 008e 97000000 		call	__divsf3
 2317      E7800000 
 2318              	.LVL267:
 2319 0096 2A8C     		mv	s8,a0
 218:lib/tinymaix/src/tm_layers.c ****     #elif TM_MDL_TYPE == TM_MDL_FP32 || TM_MDL_TYPE == TM_MDL_FP16
 2320              		.loc 1 218 75 discriminator 2
 2321 0098 5285     		mv	a0,s4
 2322 009a 97000000 		call	__floatsisf
 2322      E7800000 
 2323              	.LVL268:
GAS LISTING C:\Users\Jesper\AppData\Local\Temp\cclZf3Mh.s 			page 60


 2324 00a2 AA85     		mv	a1,a0
 2325 00a4 6285     		mv	a0,s8
 2326 00a6 97000000 		call	__addsf3
 2326      E7800000 
 2327              	.LVL269:
 218:lib/tinymaix/src/tm_layers.c ****     #elif TM_MDL_TYPE == TM_MDL_FP32 || TM_MDL_TYPE == TM_MDL_FP16
 2328              		.loc 1 218 24 discriminator 2
 2329 00ae 97000000 		call	__fixsfsi
 2329      E7800000 
 2330              	.LVL270:
 2331 00b6 2300AB00 		sb	a0,0(s6)
 2332 00ba 8DBF     		j	.L133
 2333              	.LVL271:
 2334              	.L135:
 2335              	.LBB227:
 2336              	.LBB223:
 213:lib/tinymaix/src/tm_layers.c ****                 data += out->c;
 2337              		.loc 1 213 17 is_stmt 1 discriminator 3
 213:lib/tinymaix/src/tm_layers.c ****                 data += out->c;
 2338              		.loc 1 213 26 is_stmt 0 discriminator 3
 2339 00bc 038E0800 		lb	t3,0(a7)
 212:lib/tinymaix/src/tm_layers.c ****                 sum  += ((sumtype_t)(*data));
 2340              		.loc 1 212 37 discriminator 3
 2341 00c0 0508     		addi	a6,a6,1
 2342              	.LVL272:
 214:lib/tinymaix/src/tm_layers.c ****             }
 2343              		.loc 1 214 22 discriminator 3
 2344 00c2 B298     		add	a7,a7,a2
 2345              	.LVL273:
 213:lib/tinymaix/src/tm_layers.c ****                 data += out->c;
 2346              		.loc 1 213 22 discriminator 3
 2347 00c4 7295     		add	a0,a0,t3
 2348              	.LVL274:
 214:lib/tinymaix/src/tm_layers.c ****             }
 2349              		.loc 1 214 17 is_stmt 1 discriminator 3
 2350              	.L136:
 212:lib/tinymaix/src/tm_layers.c ****                 sum  += ((sumtype_t)(*data));
 2351              		.loc 1 212 13 is_stmt 0 discriminator 1
 2352 00c6 E34BD8FE 		blt	a6,a3,.L135
 2353 00ca 9A97     		add	a5,a5,t1
 2354              	.LBE223:
 211:lib/tinymaix/src/tm_layers.c ****             for(int x=0; x <in->w; x++){
 2355              		.loc 1 211 33 discriminator 2
 2356 00cc 8505     		addi	a1,a1,1
 2357              	.LVL275:
 2358 00ce 51BF     		j	.L134
 2359              	.LVL276:
 2360              	.L138:
 2361 00d0 BE88     		mv	a7,a5
 2362              	.LBB224:
 212:lib/tinymaix/src/tm_layers.c ****                 sum  += ((sumtype_t)(*data));
 2363              		.loc 1 212 21
 2364 00d2 0148     		li	a6,0
 2365 00d4 CDBF     		j	.L136
 2366              	.LBE224:
 2367              	.LBE227:
 2368              	.LBE228:
GAS LISTING C:\Users\Jesper\AppData\Local\Temp\cclZf3Mh.s 			page 61


 2369              	.LBE230:
 2370              		.cfi_endproc
 2371              	.LFE32:
 2373              		.section	.text.tml_fc,"ax",@progbits
 2374              		.align	1
 2375              		.weak	tml_fc
 2377              	tml_fc:
 2378              	.LFB33:
 226:lib/tinymaix/src/tm_layers.c **** 
 227:lib/tinymaix/src/tm_layers.c **** /*************************** TML_FC **********************************/
 228:lib/tinymaix/src/tm_layers.c **** tm_err_t TM_WEAK tml_fc(tm_mat_t* in, tm_mat_t* out,  wtype_t* w, btype_t* b, \
 229:lib/tinymaix/src/tm_layers.c ****     sctype_t* ws, sctype_t in_s, zptype_t in_zp, sctype_t out_s, zptype_t out_zp)
 230:lib/tinymaix/src/tm_layers.c **** {   TM_DBGT_INIT();
 2379              		.loc 1 230 1 is_stmt 1
 2380              		.cfi_startproc
 2381              	.LVL277:
 2382              		.loc 1 230 5
 2383              		.loc 1 230 5
 2384              		.loc 1 230 5
 2385              		.loc 1 230 1 is_stmt 0
 2386 0000 3971     		addi	sp,sp,-64
 2387              	.LCFI6:
 2388              		.cfi_def_cfa_offset 64
 2389 0002 26DA     		sw	s1,52(sp)
 2390              		.cfi_offset 9, -12
 2391 0004 AA84     		mv	s1,a0
 2392 0006 22DC     		sw	s0,56(sp)
 2393 0008 4AD8     		sw	s2,48(sp)
 2394 000a 4ED6     		sw	s3,44(sp)
 2395 000c 52D4     		sw	s4,40(sp)
 2396 000e 56D2     		sw	s5,36(sp)
 2397 0010 5AD0     		sw	s6,32(sp)
 2398 0012 5ECE     		sw	s7,28(sp)
 2399 0014 62CC     		sw	s8,24(sp)
 2400 0016 66CA     		sw	s9,20(sp)
 2401 0018 06DE     		sw	ra,60(sp)
 2402 001a 6AC8     		sw	s10,16(sp)
 2403 001c 6EC6     		sw	s11,12(sp)
 2404              		.cfi_offset 8, -8
 2405              		.cfi_offset 18, -16
 2406              		.cfi_offset 19, -20
 2407              		.cfi_offset 20, -24
 2408              		.cfi_offset 21, -28
 2409              		.cfi_offset 22, -32
 2410              		.cfi_offset 23, -36
 2411              		.cfi_offset 24, -40
 2412              		.cfi_offset 25, -44
 2413              		.cfi_offset 1, -4
 2414              		.cfi_offset 26, -48
 2415              		.cfi_offset 27, -52
 2416              		.loc 1 230 1
 2417 001e AE8B     		mv	s7,a1
 2418 0020 3289     		mv	s2,a2
 2419 0022 368B     		mv	s6,a3
 2420 0024 BA89     		mv	s3,a4
 2421 0026 3E8A     		mv	s4,a5
 2422 0028 C68A     		mv	s5,a7
GAS LISTING C:\Users\Jesper\AppData\Local\Temp\cclZf3Mh.s 			page 62


 2423              		.loc 1 230 5
 2424 002a 97000000 		call	clock
 2424      E7800000 
 2425              	.LVL278:
 2426              		.loc 1 230 19 is_stmt 1
 231:lib/tinymaix/src/tm_layers.c ****     mtype_t* data = in->data;
 2427              		.loc 1 231 5
 2428              		.loc 1 231 14 is_stmt 0
 2429 0032 03AC8400 		lw	s8,8(s1)
 2430              	.LVL279:
 232:lib/tinymaix/src/tm_layers.c ****     for(int c=0; c <out->c; c++){
 2431              		.loc 1 232 5 is_stmt 1
 2432              	.LBB231:
 2433              		.loc 1 232 9
 2434              	.LBB232:
 2435              	.LBB233:
 2436              	.LBB234:
  26:lib/tinymaix/include/arch_cpu.h ****         sum += sptr[i]*kptr[i];i++;
 2437              		.loc 2 26 5 is_stmt 0
 2438 0036 9D4C     		li	s9,7
 2439              	.LBE234:
 2440              	.LBE233:
 2441              	.LBE232:
 2442              		.loc 1 232 13
 2443 0038 0144     		li	s0,0
 2444              	.LBB245:
 2445              	.LBB240:
 2446              	.LBB235:
  26:lib/tinymaix/include/arch_cpu.h ****         sum += sptr[i]*kptr[i];i++;
 2447              		.loc 2 26 5
 2448 003a B38C8C41 		sub	s9,s9,s8
 2449              	.LVL280:
 2450              	.L141:
 2451              	.LBE235:
 2452              	.LBE240:
 2453              	.LBE245:
 2454              		.loc 1 232 24 discriminator 1
 2455 003e 83D76B00 		lhu	a5,6(s7)
 2456              		.loc 1 232 5 discriminator 1
 2457 0042 6342F402 		bgt	a5,s0,.L146
 2458              	.LBE231:
 233:lib/tinymaix/src/tm_layers.c ****         sumtype_t sum = 0;
 234:lib/tinymaix/src/tm_layers.c ****         tm_dot_prod(data, w+c*in->c, in->c, &sum);
 235:lib/tinymaix/src/tm_layers.c ****         sum += b[c];    //fuse with zp
 236:lib/tinymaix/src/tm_layers.c ****     #if TM_MDL_TYPE == TM_MDL_INT8 || TM_MDL_TYPE == TM_MDL_INT16
 237:lib/tinymaix/src/tm_layers.c ****         out->data[c] = (mtype_t)(sum*in_s*ws[0]/out_s + out_zp); //requant
 238:lib/tinymaix/src/tm_layers.c ****     #else
 239:lib/tinymaix/src/tm_layers.c ****         out->data[c] = (mtype_t)(sum);
 240:lib/tinymaix/src/tm_layers.c ****     #endif
 241:lib/tinymaix/src/tm_layers.c ****     }
 242:lib/tinymaix/src/tm_layers.c ****     return TM_OK;
 2459              		.loc 1 242 5 is_stmt 1
 243:lib/tinymaix/src/tm_layers.c **** }
 2460              		.loc 1 243 1 is_stmt 0
 2461 0046 F250     		lw	ra,60(sp)
 2462              		.cfi_remember_state
 2463              		.cfi_restore 1
GAS LISTING C:\Users\Jesper\AppData\Local\Temp\cclZf3Mh.s 			page 63


 2464 0048 6254     		lw	s0,56(sp)
 2465              		.cfi_restore 8
 2466              	.LVL281:
 2467 004a D254     		lw	s1,52(sp)
 2468              		.cfi_restore 9
 2469              	.LVL282:
 2470 004c 4259     		lw	s2,48(sp)
 2471              		.cfi_restore 18
 2472              	.LVL283:
 2473 004e B259     		lw	s3,44(sp)
 2474              		.cfi_restore 19
 2475              	.LVL284:
 2476 0050 225A     		lw	s4,40(sp)
 2477              		.cfi_restore 20
 2478              	.LVL285:
 2479 0052 925A     		lw	s5,36(sp)
 2480              		.cfi_restore 21
 2481              	.LVL286:
 2482 0054 025B     		lw	s6,32(sp)
 2483              		.cfi_restore 22
 2484              	.LVL287:
 2485 0056 F24B     		lw	s7,28(sp)
 2486              		.cfi_restore 23
 2487              	.LVL288:
 2488 0058 624C     		lw	s8,24(sp)
 2489              		.cfi_restore 24
 2490              	.LVL289:
 2491 005a D24C     		lw	s9,20(sp)
 2492              		.cfi_restore 25
 2493 005c 424D     		lw	s10,16(sp)
 2494              		.cfi_restore 26
 2495 005e B24D     		lw	s11,12(sp)
 2496              		.cfi_restore 27
 2497 0060 0145     		li	a0,0
 2498 0062 2161     		addi	sp,sp,64
 2499              	.LCFI7:
 2500              		.cfi_def_cfa_offset 0
 2501              	.LVL290:
 2502 0064 8280     		jr	ra
 2503              	.LVL291:
 2504              	.L146:
 2505              	.LCFI8:
 2506              		.cfi_restore_state
 2507              	.LBB248:
 2508              	.LBB246:
 233:lib/tinymaix/src/tm_layers.c ****         sumtype_t sum = 0;
 2509              		.loc 1 233 9 is_stmt 1 discriminator 3
 234:lib/tinymaix/src/tm_layers.c ****         sum += b[c];    //fuse with zp
 2510              		.loc 1 234 9 discriminator 3
 234:lib/tinymaix/src/tm_layers.c ****         sum += b[c];    //fuse with zp
 2511              		.loc 1 234 33 is_stmt 0 discriminator 3
 2512 0066 03D66400 		lhu	a2,6(s1)
 2513              	.LBB241:
 2514              	.LBB236:
  25:lib/tinymaix/include/arch_cpu.h ****     for(; i+8-1 <cnt; ){
 2515              		.loc 2 25 14 discriminator 3
 2516 006a E287     		mv	a5,s8
GAS LISTING C:\Users\Jesper\AppData\Local\Temp\cclZf3Mh.s 			page 64


  23:lib/tinymaix/include/arch_cpu.h ****     uint32_t i = 0;
 2517              		.loc 2 23 15 discriminator 3
 2518 006c 8145     		li	a1,0
 2519              	.LBE236:
 2520              	.LBE241:
 234:lib/tinymaix/src/tm_layers.c ****         sum += b[c];    //fuse with zp
 2521              		.loc 1 234 30 discriminator 3
 2522 006e B3068602 		mul	a3,a2,s0
 2523              	.LBB242:
 2524              	.LBB237:
  25:lib/tinymaix/include/arch_cpu.h ****     for(; i+8-1 <cnt; ){
 2525              		.loc 2 25 14 discriminator 3
 2526 0072 137886FF 		andi	a6,a2,-8
 2527              	.LBE237:
 2528              	.LBE242:
 234:lib/tinymaix/src/tm_layers.c ****         sum += b[c];    //fuse with zp
 2529              		.loc 1 234 28 discriminator 3
 2530 0076 CA96     		add	a3,s2,a3
 2531              	.LVL292:
 2532              	.LBB243:
 2533              	.LBB238:
  23:lib/tinymaix/include/arch_cpu.h ****     uint32_t i = 0;
 2534              		.loc 2 23 5 is_stmt 1 discriminator 3
  24:lib/tinymaix/include/arch_cpu.h ****     uint32_t cnt = (size>>3)<<3;  //8
 2535              		.loc 2 24 5 discriminator 3
  25:lib/tinymaix/include/arch_cpu.h ****     for(; i+8-1 <cnt; ){
 2536              		.loc 2 25 5 discriminator 3
  26:lib/tinymaix/include/arch_cpu.h ****         sum += sptr[i]*kptr[i];i++;
 2537              		.loc 2 26 5 discriminator 3
 2538 0078 3687     		mv	a4,a3
 2539              	.LVL293:
 2540              	.L142:
  26:lib/tinymaix/include/arch_cpu.h ****         sum += sptr[i]*kptr[i];i++;
 2541              		.loc 2 26 5 is_stmt 0
 2542 007a 3385FC00 		add	a0,s9,a5
 2543 007e 63640507 		bgtu	a6,a0,.L143
 2544              	.LVL294:
 2545              	.L144:
  36:lib/tinymaix/include/arch_cpu.h ****         sum += sptr[i]*kptr[i]; 
 2546              		.loc 2 36 5
 2547 0082 636DC80C 		bgtu	a2,a6,.L145
  39:lib/tinymaix/include/arch_cpu.h ****     return;
 2548              		.loc 2 39 5 is_stmt 1
 2549              	.LVL295:
  40:lib/tinymaix/include/arch_cpu.h **** }
 2550              		.loc 2 40 5
 2551              	.LBE238:
 2552              	.LBE243:
 235:lib/tinymaix/src/tm_layers.c ****     #if TM_MDL_TYPE == TM_MDL_INT8 || TM_MDL_TYPE == TM_MDL_INT16
 2553              		.loc 1 235 9
 237:lib/tinymaix/src/tm_layers.c ****     #else
 2554              		.loc 1 237 9
 235:lib/tinymaix/src/tm_layers.c ****     #if TM_MDL_TYPE == TM_MDL_INT8 || TM_MDL_TYPE == TM_MDL_INT16
 2555              		.loc 1 235 17 is_stmt 0
 2556 0086 93172400 		slli	a5,s0,2
 2557 008a DA97     		add	a5,s6,a5
 2558              	.LVL296:
GAS LISTING C:\Users\Jesper\AppData\Local\Temp\cclZf3Mh.s 			page 65


 235:lib/tinymaix/src/tm_layers.c ****     #if TM_MDL_TYPE == TM_MDL_INT8 || TM_MDL_TYPE == TM_MDL_INT16
 2559              		.loc 1 235 13
 2560 008c 8843     		lw	a0,0(a5)
 237:lib/tinymaix/src/tm_layers.c ****     #else
 2561              		.loc 1 237 22
 2562 008e 03AD8B00 		lw	s10,8(s7)
 237:lib/tinymaix/src/tm_layers.c ****     #else
 2563              		.loc 1 237 37
 2564 0092 2E95     		add	a0,a1,a0
 2565              	.LVL297:
 2566 0094 97000000 		call	__floatsisf
 2566      E7800000 
 2567              	.LVL298:
 2568 009c D285     		mv	a1,s4
 2569 009e 97000000 		call	__mulsf3
 2569      E7800000 
 2570              	.LVL299:
 237:lib/tinymaix/src/tm_layers.c ****     #else
 2571              		.loc 1 237 42
 2572 00a6 83A50900 		lw	a1,0(s3)
 237:lib/tinymaix/src/tm_layers.c ****     #else
 2573              		.loc 1 237 22
 2574 00aa 229D     		add	s10,s10,s0
 2575              	.LBE246:
 232:lib/tinymaix/src/tm_layers.c ****         sumtype_t sum = 0;
 2576              		.loc 1 232 30
 2577 00ac 0504     		addi	s0,s0,1
 2578              	.LVL300:
 2579              	.LBB247:
 237:lib/tinymaix/src/tm_layers.c ****     #else
 2580              		.loc 1 237 42
 2581 00ae 97000000 		call	__mulsf3
 2581      E7800000 
 2582              	.LVL301:
 237:lib/tinymaix/src/tm_layers.c ****     #else
 2583              		.loc 1 237 48
 2584 00b6 D685     		mv	a1,s5
 2585 00b8 97000000 		call	__divsf3
 2585      E7800000 
 2586              	.LVL302:
 2587 00c0 AA8D     		mv	s11,a0
 237:lib/tinymaix/src/tm_layers.c ****     #else
 2588              		.loc 1 237 55
 2589 00c2 0645     		lw	a0,64(sp)
 2590 00c4 97000000 		call	__floatsisf
 2590      E7800000 
 2591              	.LVL303:
 2592 00cc AA85     		mv	a1,a0
 2593 00ce 6E85     		mv	a0,s11
 2594 00d0 97000000 		call	__addsf3
 2594      E7800000 
 2595              	.LVL304:
 237:lib/tinymaix/src/tm_layers.c ****     #else
 2596              		.loc 1 237 24
 2597 00d8 97000000 		call	__fixsfsi
 2597      E7800000 
 2598              	.LVL305:
GAS LISTING C:\Users\Jesper\AppData\Local\Temp\cclZf3Mh.s 			page 66


 2599 00e0 2300AD00 		sb	a0,0(s10)
 2600              	.LVL306:
 2601 00e4 A9BF     		j	.L141
 2602              	.LVL307:
 2603              	.L143:
 2604              	.LBB244:
 2605              	.LBB239:
  27:lib/tinymaix/include/arch_cpu.h ****         sum += sptr[i]*kptr[i];i++;
 2606              		.loc 2 27 9 is_stmt 1
  27:lib/tinymaix/include/arch_cpu.h ****         sum += sptr[i]*kptr[i];i++;
 2607              		.loc 2 27 28 is_stmt 0
 2608 00e6 83080700 		lb	a7,0(a4)
  27:lib/tinymaix/include/arch_cpu.h ****         sum += sptr[i]*kptr[i];i++;
 2609              		.loc 2 27 20
 2610 00ea 03850700 		lb	a0,0(a5)
 2611 00ee 2107     		addi	a4,a4,8
 2612 00f0 A107     		addi	a5,a5,8
 2613              	.LVL308:
  27:lib/tinymaix/include/arch_cpu.h ****         sum += sptr[i]*kptr[i];i++;
 2614              		.loc 2 27 23
 2615 00f2 33051503 		mul	a0,a0,a7
  28:lib/tinymaix/include/arch_cpu.h ****         sum += sptr[i]*kptr[i];i++;
 2616              		.loc 2 28 28
 2617 00f6 830897FF 		lb	a7,-7(a4)
  27:lib/tinymaix/include/arch_cpu.h ****         sum += sptr[i]*kptr[i];i++;
 2618              		.loc 2 27 13
 2619 00fa 2E95     		add	a0,a0,a1
 2620              	.LVL309:
  27:lib/tinymaix/include/arch_cpu.h ****         sum += sptr[i]*kptr[i];i++;
 2621              		.loc 2 27 32 is_stmt 1
  28:lib/tinymaix/include/arch_cpu.h ****         sum += sptr[i]*kptr[i];i++;
 2622              		.loc 2 28 9
  28:lib/tinymaix/include/arch_cpu.h ****         sum += sptr[i]*kptr[i];i++;
 2623              		.loc 2 28 20 is_stmt 0
 2624 00fc 838597FF 		lb	a1,-7(a5)
  28:lib/tinymaix/include/arch_cpu.h ****         sum += sptr[i]*kptr[i];i++;
 2625              		.loc 2 28 23
 2626 0100 B3851503 		mul	a1,a1,a7
  29:lib/tinymaix/include/arch_cpu.h ****         sum += sptr[i]*kptr[i];i++;
 2627              		.loc 2 29 28
 2628 0104 8308A7FF 		lb	a7,-6(a4)
  28:lib/tinymaix/include/arch_cpu.h ****         sum += sptr[i]*kptr[i];i++;
 2629              		.loc 2 28 13
 2630 0108 AA95     		add	a1,a1,a0
 2631              	.LVL310:
  28:lib/tinymaix/include/arch_cpu.h ****         sum += sptr[i]*kptr[i];i++;
 2632              		.loc 2 28 32 is_stmt 1
  29:lib/tinymaix/include/arch_cpu.h ****         sum += sptr[i]*kptr[i];i++;
 2633              		.loc 2 29 9
  29:lib/tinymaix/include/arch_cpu.h ****         sum += sptr[i]*kptr[i];i++;
 2634              		.loc 2 29 20 is_stmt 0
 2635 010a 0385A7FF 		lb	a0,-6(a5)
  29:lib/tinymaix/include/arch_cpu.h ****         sum += sptr[i]*kptr[i];i++;
 2636              		.loc 2 29 23
 2637 010e 33051503 		mul	a0,a0,a7
  30:lib/tinymaix/include/arch_cpu.h ****         sum += sptr[i]*kptr[i];i++;
 2638              		.loc 2 30 28
GAS LISTING C:\Users\Jesper\AppData\Local\Temp\cclZf3Mh.s 			page 67


 2639 0112 8308B7FF 		lb	a7,-5(a4)
  29:lib/tinymaix/include/arch_cpu.h ****         sum += sptr[i]*kptr[i];i++;
 2640              		.loc 2 29 13
 2641 0116 2E95     		add	a0,a0,a1
 2642              	.LVL311:
  29:lib/tinymaix/include/arch_cpu.h ****         sum += sptr[i]*kptr[i];i++;
 2643              		.loc 2 29 32 is_stmt 1
  30:lib/tinymaix/include/arch_cpu.h ****         sum += sptr[i]*kptr[i];i++;
 2644              		.loc 2 30 9
  30:lib/tinymaix/include/arch_cpu.h ****         sum += sptr[i]*kptr[i];i++;
 2645              		.loc 2 30 20 is_stmt 0
 2646 0118 8385B7FF 		lb	a1,-5(a5)
  30:lib/tinymaix/include/arch_cpu.h ****         sum += sptr[i]*kptr[i];i++;
 2647              		.loc 2 30 23
 2648 011c B3851503 		mul	a1,a1,a7
  31:lib/tinymaix/include/arch_cpu.h ****         sum += sptr[i]*kptr[i];i++;
 2649              		.loc 2 31 28
 2650 0120 8308C7FF 		lb	a7,-4(a4)
  30:lib/tinymaix/include/arch_cpu.h ****         sum += sptr[i]*kptr[i];i++;
 2651              		.loc 2 30 13
 2652 0124 AA95     		add	a1,a1,a0
 2653              	.LVL312:
  30:lib/tinymaix/include/arch_cpu.h ****         sum += sptr[i]*kptr[i];i++;
 2654              		.loc 2 30 32 is_stmt 1
  31:lib/tinymaix/include/arch_cpu.h ****         sum += sptr[i]*kptr[i];i++;
 2655              		.loc 2 31 9
  31:lib/tinymaix/include/arch_cpu.h ****         sum += sptr[i]*kptr[i];i++;
 2656              		.loc 2 31 20 is_stmt 0
 2657 0126 0385C7FF 		lb	a0,-4(a5)
  31:lib/tinymaix/include/arch_cpu.h ****         sum += sptr[i]*kptr[i];i++;
 2658              		.loc 2 31 23
 2659 012a 33051503 		mul	a0,a0,a7
  32:lib/tinymaix/include/arch_cpu.h ****         sum += sptr[i]*kptr[i];i++;
 2660              		.loc 2 32 28
 2661 012e 8308D7FF 		lb	a7,-3(a4)
  31:lib/tinymaix/include/arch_cpu.h ****         sum += sptr[i]*kptr[i];i++;
 2662              		.loc 2 31 13
 2663 0132 2E95     		add	a0,a0,a1
 2664              	.LVL313:
  31:lib/tinymaix/include/arch_cpu.h ****         sum += sptr[i]*kptr[i];i++;
 2665              		.loc 2 31 32 is_stmt 1
  32:lib/tinymaix/include/arch_cpu.h ****         sum += sptr[i]*kptr[i];i++;
 2666              		.loc 2 32 9
  32:lib/tinymaix/include/arch_cpu.h ****         sum += sptr[i]*kptr[i];i++;
 2667              		.loc 2 32 20 is_stmt 0
 2668 0134 8385D7FF 		lb	a1,-3(a5)
  32:lib/tinymaix/include/arch_cpu.h ****         sum += sptr[i]*kptr[i];i++;
 2669              		.loc 2 32 23
 2670 0138 B3851503 		mul	a1,a1,a7
  33:lib/tinymaix/include/arch_cpu.h ****         sum += sptr[i]*kptr[i];i++;
 2671              		.loc 2 33 28
 2672 013c 8308E7FF 		lb	a7,-2(a4)
  32:lib/tinymaix/include/arch_cpu.h ****         sum += sptr[i]*kptr[i];i++;
 2673              		.loc 2 32 13
 2674 0140 AA95     		add	a1,a1,a0
 2675              	.LVL314:
  32:lib/tinymaix/include/arch_cpu.h ****         sum += sptr[i]*kptr[i];i++;
GAS LISTING C:\Users\Jesper\AppData\Local\Temp\cclZf3Mh.s 			page 68


 2676              		.loc 2 32 32 is_stmt 1
  33:lib/tinymaix/include/arch_cpu.h ****         sum += sptr[i]*kptr[i];i++;
 2677              		.loc 2 33 9
  33:lib/tinymaix/include/arch_cpu.h ****         sum += sptr[i]*kptr[i];i++;
 2678              		.loc 2 33 20 is_stmt 0
 2679 0142 0385E7FF 		lb	a0,-2(a5)
  33:lib/tinymaix/include/arch_cpu.h ****         sum += sptr[i]*kptr[i];i++;
 2680              		.loc 2 33 23
 2681 0146 33051503 		mul	a0,a0,a7
  34:lib/tinymaix/include/arch_cpu.h ****     }
 2682              		.loc 2 34 28
 2683 014a 8308F7FF 		lb	a7,-1(a4)
  33:lib/tinymaix/include/arch_cpu.h ****         sum += sptr[i]*kptr[i];i++;
 2684              		.loc 2 33 13
 2685 014e 2E95     		add	a0,a0,a1
 2686              	.LVL315:
  33:lib/tinymaix/include/arch_cpu.h ****         sum += sptr[i]*kptr[i];i++;
 2687              		.loc 2 33 32 is_stmt 1
  34:lib/tinymaix/include/arch_cpu.h ****     }
 2688              		.loc 2 34 9
  34:lib/tinymaix/include/arch_cpu.h ****     }
 2689              		.loc 2 34 20 is_stmt 0
 2690 0150 8385F7FF 		lb	a1,-1(a5)
  34:lib/tinymaix/include/arch_cpu.h ****     }
 2691              		.loc 2 34 23
 2692 0154 B3851503 		mul	a1,a1,a7
  34:lib/tinymaix/include/arch_cpu.h ****     }
 2693              		.loc 2 34 13
 2694 0158 AA95     		add	a1,a1,a0
 2695              	.LVL316:
  34:lib/tinymaix/include/arch_cpu.h ****     }
 2696              		.loc 2 34 32 is_stmt 1
 2697 015a 05B7     		j	.L142
 2698              	.LVL317:
 2699              	.L145:
  37:lib/tinymaix/include/arch_cpu.h ****     }
 2700              		.loc 2 37 9
  37:lib/tinymaix/include/arch_cpu.h ****     }
 2701              		.loc 2 37 20 is_stmt 0
 2702 015c B3070C01 		add	a5,s8,a6
  37:lib/tinymaix/include/arch_cpu.h ****     }
 2703              		.loc 2 37 28
 2704 0160 33870601 		add	a4,a3,a6
  37:lib/tinymaix/include/arch_cpu.h ****     }
 2705              		.loc 2 37 20
 2706 0164 83870700 		lb	a5,0(a5)
  37:lib/tinymaix/include/arch_cpu.h ****     }
 2707              		.loc 2 37 28
 2708 0168 03070700 		lb	a4,0(a4)
  36:lib/tinymaix/include/arch_cpu.h ****         sum += sptr[i]*kptr[i]; 
 2709              		.loc 2 36 21
 2710 016c 0508     		addi	a6,a6,1
 2711              	.LVL318:
  37:lib/tinymaix/include/arch_cpu.h ****     }
 2712              		.loc 2 37 23
 2713 016e B387E702 		mul	a5,a5,a4
  37:lib/tinymaix/include/arch_cpu.h ****     }
GAS LISTING C:\Users\Jesper\AppData\Local\Temp\cclZf3Mh.s 			page 69


 2714              		.loc 2 37 13
 2715 0172 BE95     		add	a1,a1,a5
 2716              	.LVL319:
 2717 0174 39B7     		j	.L144
 2718              	.LBE239:
 2719              	.LBE244:
 2720              	.LBE247:
 2721              	.LBE248:
 2722              		.cfi_endproc
 2723              	.LFE33:
 2725              		.globl	__subsf3
 2726              		.globl	__extendsfdf2
 2727              		.globl	__truncdfsf2
 2728              		.globl	__subdf3
 2729              		.section	.text.tml_softmax,"ax",@progbits
 2730              		.align	1
 2731              		.weak	tml_softmax
 2733              	tml_softmax:
 2734              	.LFB34:
 244:lib/tinymaix/src/tm_layers.c **** 
 245:lib/tinymaix/src/tm_layers.c **** /*************************** TML_SOFTMAX **********************************/
 246:lib/tinymaix/src/tm_layers.c **** tm_err_t TM_WEAK tml_softmax(tm_mat_t* in, tm_mat_t* out, sctype_t in_s, zptype_t in_zp, sctype_t o
 247:lib/tinymaix/src/tm_layers.c **** {   TM_DBGT_INIT(); //note we have float size output buf even in INT8/INT16 mode
 2735              		.loc 1 247 1 is_stmt 1
 2736              		.cfi_startproc
 2737              	.LVL320:
 2738              		.loc 1 247 5
 2739              		.loc 1 247 5
 2740              		.loc 1 247 5
 2741              		.loc 1 247 1 is_stmt 0
 2742 0000 3971     		addi	sp,sp,-64
 2743              	.LCFI9:
 2744              		.cfi_def_cfa_offset 64
 2745 0002 22DC     		sw	s0,56(sp)
 2746 0004 26DA     		sw	s1,52(sp)
 2747 0006 4ED6     		sw	s3,44(sp)
 2748              		.cfi_offset 8, -8
 2749              		.cfi_offset 9, -12
 2750              		.cfi_offset 19, -20
 2751 0008 AA84     		mv	s1,a0
 2752 000a 52D4     		sw	s4,40(sp)
 2753 000c 56D2     		sw	s5,36(sp)
 2754 000e 5AD0     		sw	s6,32(sp)
 2755 0010 5ECE     		sw	s7,28(sp)
 2756 0012 62CC     		sw	s8,24(sp)
 2757 0014 66CA     		sw	s9,20(sp)
 2758 0016 6AC8     		sw	s10,16(sp)
 2759 0018 6EC6     		sw	s11,12(sp)
 2760              		.cfi_offset 20, -24
 2761              		.cfi_offset 21, -28
 2762              		.cfi_offset 22, -32
 2763              		.cfi_offset 23, -36
 2764              		.cfi_offset 24, -40
 2765              		.cfi_offset 25, -44
 2766              		.cfi_offset 26, -48
 2767              		.cfi_offset 27, -52
 2768 001a AE8A     		mv	s5,a1
GAS LISTING C:\Users\Jesper\AppData\Local\Temp\cclZf3Mh.s 			page 70


 2769 001c BE8C     		mv	s9,a5
 2770 001e 06DE     		sw	ra,60(sp)
 2771 0020 4AD8     		sw	s2,48(sp)
 2772              		.cfi_offset 1, -4
 2773              		.cfi_offset 18, -16
 2774              		.loc 1 247 1
 2775 0022 328B     		mv	s6,a2
 2776 0024 B68B     		mv	s7,a3
 2777 0026 3A8C     		mv	s8,a4
 2778              		.loc 1 247 5
 2779 0028 97000000 		call	clock
 2779      E7800000 
 2780              	.LVL321:
 2781              		.loc 1 247 19 is_stmt 1
 248:lib/tinymaix/src/tm_layers.c ****     mtype_t* din = in->data;
 2782              		.loc 1 248 5
 249:lib/tinymaix/src/tm_layers.c ****     float*  dout = (float*)(out->data);
 250:lib/tinymaix/src/tm_layers.c ****     float   dmax =  -FLT_MAX;
 2783              		.loc 1 250 13 is_stmt 0
 2784 0030 B7070000 		lui	a5,%hi(.LC2)
 248:lib/tinymaix/src/tm_layers.c ****     mtype_t* din = in->data;
 2785              		.loc 1 248 14
 2786 0034 83AD8400 		lw	s11,8(s1)
 2787              	.LVL322:
 249:lib/tinymaix/src/tm_layers.c ****     float*  dout = (float*)(out->data);
 2788              		.loc 1 249 5 is_stmt 1
 249:lib/tinymaix/src/tm_layers.c ****     float*  dout = (float*)(out->data);
 2789              		.loc 1 249 13 is_stmt 0
 2790 0038 83A98A00 		lw	s3,8(s5)
 2791              	.LVL323:
 2792              		.loc 1 250 5 is_stmt 1
 251:lib/tinymaix/src/tm_layers.c ****     for(int c=0; c <in->c; c++){
 2793              		.loc 1 251 5
 2794              	.LBB249:
 2795              		.loc 1 251 9
 2796              		.loc 1 251 23 is_stmt 0
 2797 003c 03DA6400 		lhu	s4,6(s1)
 2798              	.LBE249:
 250:lib/tinymaix/src/tm_layers.c ****     for(int c=0; c <in->c; c++){
 2799              		.loc 1 250 13
 2800 0040 03AD0700 		lw	s10,%lo(.LC2)(a5)
 2801              	.LBB250:
 2802              		.loc 1 251 13
 2803 0044 0144     		li	s0,0
 2804              	.LVL324:
 2805              	.L149:
 2806              		.loc 1 251 5 discriminator 1
 2807 0046 63454405 		bgt	s4,s0,.L152
 2808              	.LBE250:
 2809              	.LBB251:
 252:lib/tinymaix/src/tm_layers.c ****     #if TM_MDL_TYPE == TM_MDL_INT8 || TM_MDL_TYPE == TM_MDL_INT16
 253:lib/tinymaix/src/tm_layers.c ****         dout[c] = (float)((sumtype_t)din[c] - in_zp)*in_s;
 254:lib/tinymaix/src/tm_layers.c ****     #else
 255:lib/tinymaix/src/tm_layers.c ****         dout[c] = din[c];
 256:lib/tinymaix/src/tm_layers.c ****     #endif
 257:lib/tinymaix/src/tm_layers.c ****         if(dout[c] > dmax) dmax = dout[c];
 258:lib/tinymaix/src/tm_layers.c ****     }
GAS LISTING C:\Users\Jesper\AppData\Local\Temp\cclZf3Mh.s 			page 71


 259:lib/tinymaix/src/tm_layers.c ****     float sum = 0;
 260:lib/tinymaix/src/tm_layers.c ****     for(int c=0; c <in->c; c++){
 261:lib/tinymaix/src/tm_layers.c ****         dout[c] -= dmax;
 262:lib/tinymaix/src/tm_layers.c ****         dout[c] = (float)tm_exp(dout[c]);
 263:lib/tinymaix/src/tm_layers.c ****         sum     += dout[c];
 264:lib/tinymaix/src/tm_layers.c ****         dout[c] -= 0.000001;  //prevent 1.0 value (cause 256 overflow)
 2810              		.loc 1 264 17
 2811 004a B7070000 		lui	a5,%hi(.LC3)
 2812 004e 03AB0700 		lw	s6,%lo(.LC3)(a5)
 2813              	.LVL325:
 2814 0052 83AB4700 		lw	s7,%lo(.LC3+4)(a5)
 2815              	.LVL326:
 2816 0056 4E84     		mv	s0,s3
 2817              	.LVL327:
 260:lib/tinymaix/src/tm_layers.c ****         dout[c] -= dmax;
 2818              		.loc 1 260 13
 2819 0058 014A     		li	s4,0
 2820              	.LBE251:
 259:lib/tinymaix/src/tm_layers.c ****     for(int c=0; c <in->c; c++){
 2821              		.loc 1 259 11
 2822 005a 13090000 		mv	s2,zero
 2823              	.LVL328:
 2824              	.L153:
 2825              	.LBB252:
 260:lib/tinymaix/src/tm_layers.c ****         dout[c] -= dmax;
 2826              		.loc 1 260 23 discriminator 1
 2827 005e 83D76400 		lhu	a5,6(s1)
 260:lib/tinymaix/src/tm_layers.c ****         dout[c] -= dmax;
 2828              		.loc 1 260 5 discriminator 1
 2829 0062 6345FA06 		bgt	a5,s4,.L154
 2830              	.LBE252:
 2831              	.LBB253:
 265:lib/tinymaix/src/tm_layers.c ****     }
 266:lib/tinymaix/src/tm_layers.c ****     for(int c=0; c <in->c; c++){  //int8/int16 <= fp32, so it is ok
 2832              		.loc 1 266 13
 2833 0066 0144     		li	s0,0
 2834              	.LVL329:
 2835              	.L155:
 2836              		.loc 1 266 23 discriminator 1
 2837 0068 83D76400 		lhu	a5,6(s1)
 2838              		.loc 1 266 5 discriminator 1
 2839 006c 634EF40A 		bgt	a5,s0,.L156
 2840              	.LBE253:
 267:lib/tinymaix/src/tm_layers.c ****     #if TM_MDL_TYPE == TM_MDL_INT8 || TM_MDL_TYPE == TM_MDL_INT16
 268:lib/tinymaix/src/tm_layers.c ****         out->data[c] = (mtype_t)(dout[c]/sum/out_s + out_zp); //requant
 269:lib/tinymaix/src/tm_layers.c ****     #else
 270:lib/tinymaix/src/tm_layers.c ****         out->data[c] = (mtype_t)(dout[c]/sum);
 271:lib/tinymaix/src/tm_layers.c ****     #endif
 272:lib/tinymaix/src/tm_layers.c ****     }
 273:lib/tinymaix/src/tm_layers.c ****     return TM_OK;
 2841              		.loc 1 273 5 is_stmt 1
 274:lib/tinymaix/src/tm_layers.c **** }
 2842              		.loc 1 274 1 is_stmt 0
 2843 0070 F250     		lw	ra,60(sp)
 2844              		.cfi_remember_state
 2845              		.cfi_restore 1
 2846 0072 6254     		lw	s0,56(sp)
GAS LISTING C:\Users\Jesper\AppData\Local\Temp\cclZf3Mh.s 			page 72


 2847              		.cfi_restore 8
 2848              	.LVL330:
 2849 0074 D254     		lw	s1,52(sp)
 2850              		.cfi_restore 9
 2851              	.LVL331:
 2852 0076 4259     		lw	s2,48(sp)
 2853              		.cfi_restore 18
 2854              	.LVL332:
 2855 0078 B259     		lw	s3,44(sp)
 2856              		.cfi_restore 19
 2857              	.LVL333:
 2858 007a 225A     		lw	s4,40(sp)
 2859              		.cfi_restore 20
 2860 007c 925A     		lw	s5,36(sp)
 2861              		.cfi_restore 21
 2862              	.LVL334:
 2863 007e 025B     		lw	s6,32(sp)
 2864              		.cfi_restore 22
 2865 0080 F24B     		lw	s7,28(sp)
 2866              		.cfi_restore 23
 2867 0082 624C     		lw	s8,24(sp)
 2868              		.cfi_restore 24
 2869              	.LVL335:
 2870 0084 D24C     		lw	s9,20(sp)
 2871              		.cfi_restore 25
 2872              	.LVL336:
 2873 0086 424D     		lw	s10,16(sp)
 2874              		.cfi_restore 26
 2875              	.LVL337:
 2876 0088 B24D     		lw	s11,12(sp)
 2877              		.cfi_restore 27
 2878 008a 0145     		li	a0,0
 2879 008c 2161     		addi	sp,sp,64
 2880              	.LCFI10:
 2881              		.cfi_def_cfa_offset 0
 2882 008e 8280     		jr	ra
 2883              	.LVL338:
 2884              	.L152:
 2885              	.LCFI11:
 2886              		.cfi_restore_state
 2887              	.LBB254:
 253:lib/tinymaix/src/tm_layers.c ****     #else
 2888              		.loc 1 253 9 is_stmt 1
 253:lib/tinymaix/src/tm_layers.c ****     #else
 2889              		.loc 1 253 41 is_stmt 0
 2890 0090 B3878D00 		add	a5,s11,s0
 253:lib/tinymaix/src/tm_layers.c ****     #else
 2891              		.loc 1 253 27
 2892 0094 03850700 		lb	a0,0(a5)
 253:lib/tinymaix/src/tm_layers.c ****     #else
 2893              		.loc 1 253 19
 2894 0098 33057541 		sub	a0,a0,s7
 2895 009c 97000000 		call	__floatsisf
 2895      E7800000 
 2896              	.LVL339:
 253:lib/tinymaix/src/tm_layers.c ****     #else
 2897              		.loc 1 253 53
GAS LISTING C:\Users\Jesper\AppData\Local\Temp\cclZf3Mh.s 			page 73


 2898 00a4 DA85     		mv	a1,s6
 2899 00a6 97000000 		call	__mulsf3
 2899      E7800000 
 2900              	.LVL340:
 253:lib/tinymaix/src/tm_layers.c ****     #else
 2901              		.loc 1 253 17
 2902 00ae 93172400 		slli	a5,s0,2
 2903 00b2 CE97     		add	a5,s3,a5
 2904 00b4 88C3     		sw	a0,0(a5)
 257:lib/tinymaix/src/tm_layers.c ****     }
 2905              		.loc 1 257 9 is_stmt 1
 257:lib/tinymaix/src/tm_layers.c ****     }
 2906              		.loc 1 257 11 is_stmt 0
 2907 00b6 EA85     		mv	a1,s10
 253:lib/tinymaix/src/tm_layers.c ****     #else
 2908              		.loc 1 253 53
 2909 00b8 2A89     		mv	s2,a0
 257:lib/tinymaix/src/tm_layers.c ****     }
 2910              		.loc 1 257 11
 2911 00ba 97000000 		call	__gtsf2
 2911      E7800000 
 2912              	.LVL341:
 2913 00c2 6353A000 		ble	a0,zero,.L150
 257:lib/tinymaix/src/tm_layers.c ****     }
 2914              		.loc 1 257 33
 2915 00c6 4A8D     		mv	s10,s2
 2916              	.LVL342:
 2917              	.L150:
 251:lib/tinymaix/src/tm_layers.c ****     #if TM_MDL_TYPE == TM_MDL_INT8 || TM_MDL_TYPE == TM_MDL_INT16
 2918              		.loc 1 251 29 discriminator 2
 2919 00c8 0504     		addi	s0,s0,1
 2920              	.LVL343:
 2921 00ca B5BF     		j	.L149
 2922              	.LVL344:
 2923              	.L154:
 2924              	.LBE254:
 2925              	.LBB255:
 261:lib/tinymaix/src/tm_layers.c ****         dout[c] = (float)tm_exp(dout[c]);
 2926              		.loc 1 261 9 is_stmt 1 discriminator 3
 261:lib/tinymaix/src/tm_layers.c ****         dout[c] = (float)tm_exp(dout[c]);
 2927              		.loc 1 261 17 is_stmt 0 discriminator 3
 2928 00cc 0840     		lw	a0,0(s0)
 2929 00ce EA85     		mv	a1,s10
 260:lib/tinymaix/src/tm_layers.c ****         dout[c] -= dmax;
 2930              		.loc 1 260 29 discriminator 3
 2931 00d0 050A     		addi	s4,s4,1
 2932              	.LVL345:
 261:lib/tinymaix/src/tm_layers.c ****         dout[c] = (float)tm_exp(dout[c]);
 2933              		.loc 1 261 17 discriminator 3
 2934 00d2 97000000 		call	__subsf3
 2934      E7800000 
 2935              	.LVL346:
 2936 00da 08C0     		sw	a0,0(s0)
 262:lib/tinymaix/src/tm_layers.c ****         sum     += dout[c];
 2937              		.loc 1 262 9 is_stmt 1 discriminator 3
 262:lib/tinymaix/src/tm_layers.c ****         sum     += dout[c];
 2938              		.loc 1 262 26 is_stmt 0 discriminator 3
GAS LISTING C:\Users\Jesper\AppData\Local\Temp\cclZf3Mh.s 			page 74


 2939 00dc 97000000 		call	__extendsfdf2
 2939      E7800000 
 2940              	.LVL347:
 2941 00e4 97000000 		call	exp
 2941      E7800000 
 2942              	.LVL348:
 262:lib/tinymaix/src/tm_layers.c ****         sum     += dout[c];
 2943              		.loc 1 262 19 discriminator 3
 2944 00ec 97000000 		call	__truncdfsf2
 2944      E7800000 
 2945              	.LVL349:
 263:lib/tinymaix/src/tm_layers.c ****         dout[c] -= 0.000001;  //prevent 1.0 value (cause 256 overflow)
 2946              		.loc 1 263 17 discriminator 3
 2947 00f4 AA85     		mv	a1,a0
 262:lib/tinymaix/src/tm_layers.c ****         sum     += dout[c];
 2948              		.loc 1 262 19 discriminator 3
 2949 00f6 AA8D     		mv	s11,a0
 263:lib/tinymaix/src/tm_layers.c ****         dout[c] -= 0.000001;  //prevent 1.0 value (cause 256 overflow)
 2950              		.loc 1 263 9 is_stmt 1 discriminator 3
 263:lib/tinymaix/src/tm_layers.c ****         dout[c] -= 0.000001;  //prevent 1.0 value (cause 256 overflow)
 2951              		.loc 1 263 17 is_stmt 0 discriminator 3
 2952 00f8 4A85     		mv	a0,s2
 2953 00fa 97000000 		call	__addsf3
 2953      E7800000 
 2954              	.LVL350:
 2955 0102 2A89     		mv	s2,a0
 2956              	.LVL351:
 264:lib/tinymaix/src/tm_layers.c ****     }
 2957              		.loc 1 264 9 is_stmt 1 discriminator 3
 264:lib/tinymaix/src/tm_layers.c ****     }
 2958              		.loc 1 264 17 is_stmt 0 discriminator 3
 2959 0104 6E85     		mv	a0,s11
 2960              	.LVL352:
 2961 0106 97000000 		call	__extendsfdf2
 2961      E7800000 
 2962              	.LVL353:
 2963 010e 5A86     		mv	a2,s6
 2964 0110 DE86     		mv	a3,s7
 2965 0112 97000000 		call	__subdf3
 2965      E7800000 
 2966              	.LVL354:
 2967 011a 97000000 		call	__truncdfsf2
 2967      E7800000 
 2968              	.LVL355:
 2969 0122 08C0     		sw	a0,0(s0)
 2970 0124 1104     		addi	s0,s0,4
 2971 0126 25BF     		j	.L153
 2972              	.LVL356:
 2973              	.L156:
 2974              	.LBE255:
 2975              	.LBB256:
 268:lib/tinymaix/src/tm_layers.c ****     #else
 2976              		.loc 1 268 9 is_stmt 1 discriminator 3
 268:lib/tinymaix/src/tm_layers.c ****     #else
 2977              		.loc 1 268 38 is_stmt 0 discriminator 3
 2978 0128 93172400 		slli	a5,s0,2
 2979 012c CE97     		add	a5,s3,a5
GAS LISTING C:\Users\Jesper\AppData\Local\Temp\cclZf3Mh.s 			page 75


 268:lib/tinymaix/src/tm_layers.c ****     #else
 2980              		.loc 1 268 41 discriminator 3
 2981 012e 8843     		lw	a0,0(a5)
 2982 0130 CA85     		mv	a1,s2
 268:lib/tinymaix/src/tm_layers.c ****     #else
 2983              		.loc 1 268 22 discriminator 3
 2984 0132 03AA8A00 		lw	s4,8(s5)
 268:lib/tinymaix/src/tm_layers.c ****     #else
 2985              		.loc 1 268 41 discriminator 3
 2986 0136 97000000 		call	__divsf3
 2986      E7800000 
 2987              	.LVL357:
 268:lib/tinymaix/src/tm_layers.c ****     #else
 2988              		.loc 1 268 45 discriminator 3
 2989 013e E285     		mv	a1,s8
 2990 0140 97000000 		call	__divsf3
 2990      E7800000 
 2991              	.LVL358:
 2992 0148 2A8B     		mv	s6,a0
 268:lib/tinymaix/src/tm_layers.c ****     #else
 2993              		.loc 1 268 52 discriminator 3
 2994 014a 6685     		mv	a0,s9
 2995 014c 97000000 		call	__floatsisf
 2995      E7800000 
 2996              	.LVL359:
 2997 0154 AA85     		mv	a1,a0
 2998 0156 5A85     		mv	a0,s6
 2999 0158 97000000 		call	__addsf3
 2999      E7800000 
 3000              	.LVL360:
 268:lib/tinymaix/src/tm_layers.c ****     #else
 3001              		.loc 1 268 22 discriminator 3
 3002 0160 229A     		add	s4,s4,s0
 268:lib/tinymaix/src/tm_layers.c ****     #else
 3003              		.loc 1 268 24 discriminator 3
 3004 0162 97000000 		call	__fixsfsi
 3004      E7800000 
 3005              	.LVL361:
 3006 016a 2300AA00 		sb	a0,0(s4)
 266:lib/tinymaix/src/tm_layers.c ****     #if TM_MDL_TYPE == TM_MDL_INT8 || TM_MDL_TYPE == TM_MDL_INT16
 3007              		.loc 1 266 29 discriminator 3
 3008 016e 0504     		addi	s0,s0,1
 3009              	.LVL362:
 3010 0170 E5BD     		j	.L155
 3011              	.LBE256:
 3012              		.cfi_endproc
 3013              	.LFE34:
 3015              		.section	.text.tml_reshape,"ax",@progbits
 3016              		.align	1
 3017              		.weak	tml_reshape
 3019              	tml_reshape:
 3020              	.LFB35:
 275:lib/tinymaix/src/tm_layers.c **** 
 276:lib/tinymaix/src/tm_layers.c **** /*************************** TML_RESHAPE **********************************/
 277:lib/tinymaix/src/tm_layers.c **** tm_err_t TM_WEAK tml_reshape(tm_mat_t* in, tm_mat_t* out, sctype_t in_s, zptype_t in_zp, sctype_t o
 278:lib/tinymaix/src/tm_layers.c **** {   
 3021              		.loc 1 278 1 is_stmt 1
GAS LISTING C:\Users\Jesper\AppData\Local\Temp\cclZf3Mh.s 			page 76


 3022              		.cfi_startproc
 3023              	.LVL363:
 279:lib/tinymaix/src/tm_layers.c ****     //in fact do nothing... out shape
 280:lib/tinymaix/src/tm_layers.c ****     return TM_OK;
 3024              		.loc 1 280 5
 281:lib/tinymaix/src/tm_layers.c **** }
 3025              		.loc 1 281 1 is_stmt 0
 3026 0000 0145     		li	a0,0
 3027              	.LVL364:
 3028 0002 8280     		ret
 3029              		.cfi_endproc
 3030              	.LFE35:
 3032              		.section	.text.tml_add,"ax",@progbits
 3033              		.align	1
 3034              		.weak	tml_add
 3036              	tml_add:
 3037              	.LFB36:
 282:lib/tinymaix/src/tm_layers.c **** 
 283:lib/tinymaix/src/tm_layers.c **** 
 284:lib/tinymaix/src/tm_layers.c **** tm_err_t TM_WEAK tml_add(tm_mat_t* in0, tm_mat_t* in1, tm_mat_t* out, \
 285:lib/tinymaix/src/tm_layers.c ****     sctype_t in_s0, zptype_t in_zp0, sctype_t in_s1, zptype_t in_zp1, sctype_t out_s, zptype_t out_
 286:lib/tinymaix/src/tm_layers.c **** {   //TODO: check in0 shape == in1 shape 
 3038              		.loc 1 286 1 is_stmt 1
 3039              		.cfi_startproc
 3040              	.LVL365:
 287:lib/tinymaix/src/tm_layers.c ****     //It is simple and experimental implement for ADD, could be more way faster
 288:lib/tinymaix/src/tm_layers.c ****     mtype_t* d0 = in0->data;
 3041              		.loc 1 288 5
 286:lib/tinymaix/src/tm_layers.c ****     //It is simple and experimental implement for ADD, could be more way faster
 3042              		.loc 1 286 1 is_stmt 0
 3043 0000 1D71     		addi	sp,sp,-96
 3044              	.LCFI12:
 3045              		.cfi_def_cfa_offset 96
 3046 0002 D2C4     		sw	s4,72(sp)
 3047              		.cfi_offset 20, -24
 3048 0004 3E8A     		mv	s4,a5
 289:lib/tinymaix/src/tm_layers.c ****     mtype_t* d1 = in1->data;
 3049              		.loc 1 289 14
 3050 0006 9C45     		lw	a5,8(a1)
 3051              	.LVL366:
 286:lib/tinymaix/src/tm_layers.c ****     //It is simple and experimental implement for ADD, could be more way faster
 3052              		.loc 1 286 1
 3053 0008 A2CC     		sw	s0,88(sp)
 3054              		.cfi_offset 8, -8
 290:lib/tinymaix/src/tm_layers.c ****     mtype_t* res = out->data; 
 291:lib/tinymaix/src/tm_layers.c ****     int size = in0->h*in0->w*in0->c;
 3055              		.loc 1 291 19
 3056 000a 03542500 		lhu	s0,2(a0)
 289:lib/tinymaix/src/tm_layers.c ****     mtype_t* d1 = in1->data;
 3057              		.loc 1 289 14
 3058 000e 3ECC     		sw	a5,24(sp)
 3059              		.loc 1 291 26
 3060 0010 83574500 		lhu	a5,4(a0)
 286:lib/tinymaix/src/tm_layers.c ****     //It is simple and experimental implement for ADD, could be more way faster
 3061              		.loc 1 286 1
 3062 0014 6AD8     		sw	s10,48(sp)
 3063              		.cfi_offset 26, -48
GAS LISTING C:\Users\Jesper\AppData\Local\Temp\cclZf3Mh.s 			page 77


 288:lib/tinymaix/src/tm_layers.c ****     mtype_t* d1 = in1->data;
 3064              		.loc 1 288 14
 3065 0016 032D8500 		lw	s10,8(a0)
 3066              	.LVL367:
 289:lib/tinymaix/src/tm_layers.c ****     mtype_t* res = out->data; 
 3067              		.loc 1 289 5 is_stmt 1
 290:lib/tinymaix/src/tm_layers.c ****     int size = in0->h*in0->w*in0->c;
 3068              		.loc 1 290 5
 3069              		.loc 1 291 22 is_stmt 0
 3070 001a 3304F402 		mul	s0,s0,a5
 3071              		.loc 1 291 33
 3072 001e 83576500 		lhu	a5,6(a0)
 292:lib/tinymaix/src/tm_layers.c ****     TM_PRINTF("s0=%.3f,zp0=%d; s1=%.3f,zp1=%d\r\n", in_s0, in_zp0, in_s1, in_zp1);
 3073              		.loc 1 292 5
 3074 0022 5285     		mv	a0,s4
 3075              	.LVL368:
 286:lib/tinymaix/src/tm_layers.c ****     //It is simple and experimental implement for ADD, could be more way faster
 3076              		.loc 1 286 1
 3077 0024 86CE     		sw	ra,92(sp)
 3078 0026 A6CA     		sw	s1,84(sp)
 3079 0028 CAC8     		sw	s2,80(sp)
 3080 002a CEC6     		sw	s3,76(sp)
 3081              		.cfi_offset 1, -4
 3082              		.cfi_offset 9, -12
 3083              		.cfi_offset 18, -16
 3084              		.cfi_offset 19, -20
 3085 002c 3689     		mv	s2,a3
 3086 002e BA89     		mv	s3,a4
 3087 0030 D6C2     		sw	s5,68(sp)
 291:lib/tinymaix/src/tm_layers.c ****     TM_PRINTF("s0=%.3f,zp0=%d; s1=%.3f,zp1=%d\r\n", in_s0, in_zp0, in_s1, in_zp1);
 3088              		.loc 1 291 9
 3089 0032 3304F402 		mul	s0,s0,a5
 3090              		.cfi_offset 21, -28
 286:lib/tinymaix/src/tm_layers.c ****     //It is simple and experimental implement for ADD, could be more way faster
 3091              		.loc 1 286 1
 3092 0036 C28A     		mv	s5,a6
 3093 0038 DAC0     		sw	s6,64(sp)
 3094 003a 5EDE     		sw	s7,60(sp)
 3095 003c 62DC     		sw	s8,56(sp)
 3096 003e 6ED6     		sw	s11,44(sp)
 3097              		.cfi_offset 22, -32
 3098              		.cfi_offset 23, -36
 3099              		.cfi_offset 24, -40
 3100              		.cfi_offset 27, -52
 3101 0040 468C     		mv	s8,a7
 290:lib/tinymaix/src/tm_layers.c ****     int size = in0->h*in0->w*in0->c;
 3102              		.loc 1 290 14
 3103 0042 832D8600 		lw	s11,8(a2)
 3104              	.LVL369:
 291:lib/tinymaix/src/tm_layers.c ****     TM_PRINTF("s0=%.3f,zp0=%d; s1=%.3f,zp1=%d\r\n", in_s0, in_zp0, in_s1, in_zp1);
 3105              		.loc 1 291 5 is_stmt 1
 3106              		.loc 1 292 5
 286:lib/tinymaix/src/tm_layers.c ****     //It is simple and experimental implement for ADD, could be more way faster
 3107              		.loc 1 286 1 is_stmt 0
 3108 0046 66DA     		sw	s9,52(sp)
 3109              		.cfi_offset 25, -44
 3110              		.loc 1 292 5
GAS LISTING C:\Users\Jesper\AppData\Local\Temp\cclZf3Mh.s 			page 78


 3111 0048 97000000 		call	__extendsfdf2
 3111      E7800000 
 3112              	.LVL370:
 3113 0050 2AC8     		sw	a0,16(sp)
 3114 0052 4A85     		mv	a0,s2
 3115 0054 2ECA     		sw	a1,20(sp)
 3116 0056 97000000 		call	__extendsfdf2
 3116      E7800000 
 3117              	.LVL371:
 3118 005e 4248     		lw	a6,16(sp)
 3119 0060 D248     		lw	a7,20(sp)
 3120 0062 2A86     		mv	a2,a0
 3121 0064 37050000 		lui	a0,%hi(.LC4)
 3122 0068 56C0     		sw	s5,0(sp)
 3123 006a 4E87     		mv	a4,s3
 3124 006c AE86     		mv	a3,a1
 3125 006e 13050500 		addi	a0,a0,%lo(.LC4)
 3126 0072 97000000 		call	printf
 3126      E7800000 
 3127              	.LVL372:
 293:lib/tinymaix/src/tm_layers.c **** #if TM_MDL_TYPE == TM_MDL_FP16 || TM_MDL_TYPE == TM_MDL_FP32 || TM_MDL_TYPE == TM_MDL_INT8
 294:lib/tinymaix/src/tm_layers.c ****     int i;
 3128              		.loc 1 294 5 is_stmt 1
 295:lib/tinymaix/src/tm_layers.c ****     for(i=0; i+4<=size; ){
 3129              		.loc 1 295 5
 3130 007a 624B     		lw	s6,24(sp)
 3131 007c 9377C4FF 		andi	a5,s0,-4
 3132 0080 EA84     		mv	s1,s10
 3133 0082 EE8B     		mv	s7,s11
 3134 0084 EA97     		add	a5,a5,s10
 3135              	.LVL373:
 3136              	.L161:
 3137              		.loc 1 295 5 is_stmt 0 discriminator 1
 3138 0086 6396F402 		bne	s1,a5,.L162
 3139 008a 9374C4FF 		andi	s1,s0,-4
 3140              	.LVL374:
 3141              	.L163:
 296:lib/tinymaix/src/tm_layers.c ****         res[i] = TM_QUANT(TM_DEQUANT(d0[i],in_s0,in_zp0)+TM_DEQUANT(d1[i],in_s1,in_zp1), out_s, out
 297:lib/tinymaix/src/tm_layers.c ****         res[i] = TM_QUANT(TM_DEQUANT(d0[i],in_s0,in_zp0)+TM_DEQUANT(d1[i],in_s1,in_zp1), out_s, out
 298:lib/tinymaix/src/tm_layers.c ****         res[i] = TM_QUANT(TM_DEQUANT(d0[i],in_s0,in_zp0)+TM_DEQUANT(d1[i],in_s1,in_zp1), out_s, out
 299:lib/tinymaix/src/tm_layers.c ****         res[i] = TM_QUANT(TM_DEQUANT(d0[i],in_s0,in_zp0)+TM_DEQUANT(d1[i],in_s1,in_zp1), out_s, out
 300:lib/tinymaix/src/tm_layers.c ****     }
 301:lib/tinymaix/src/tm_layers.c ****     for(; i<size; i++){
 3142              		.loc 1 301 5 discriminator 1
 3143 008e 63C6841C 		blt	s1,s0,.L164
 302:lib/tinymaix/src/tm_layers.c ****         res[i] = TM_QUANT(TM_DEQUANT(d0[i],in_s0,in_zp0)+TM_DEQUANT(d1[i],in_s1,in_zp1), out_s, out
 303:lib/tinymaix/src/tm_layers.c ****     }
 304:lib/tinymaix/src/tm_layers.c **** #else
 305:lib/tinymaix/src/tm_layers.c ****     #error "ADD not support this data type yet"
 306:lib/tinymaix/src/tm_layers.c **** #endif
 307:lib/tinymaix/src/tm_layers.c ****     return TM_OK;
 3144              		.loc 1 307 5 is_stmt 1
 308:lib/tinymaix/src/tm_layers.c **** }
 3145              		.loc 1 308 1 is_stmt 0
 3146 0092 F640     		lw	ra,92(sp)
 3147              		.cfi_remember_state
 3148              		.cfi_restore 1
GAS LISTING C:\Users\Jesper\AppData\Local\Temp\cclZf3Mh.s 			page 79


 3149 0094 6644     		lw	s0,88(sp)
 3150              		.cfi_restore 8
 3151              	.LVL375:
 3152 0096 D644     		lw	s1,84(sp)
 3153              		.cfi_restore 9
 3154              	.LVL376:
 3155 0098 4649     		lw	s2,80(sp)
 3156              		.cfi_restore 18
 3157              	.LVL377:
 3158 009a B649     		lw	s3,76(sp)
 3159              		.cfi_restore 19
 3160              	.LVL378:
 3161 009c 264A     		lw	s4,72(sp)
 3162              		.cfi_restore 20
 3163              	.LVL379:
 3164 009e 964A     		lw	s5,68(sp)
 3165              		.cfi_restore 21
 3166              	.LVL380:
 3167 00a0 064B     		lw	s6,64(sp)
 3168              		.cfi_restore 22
 3169 00a2 F25B     		lw	s7,60(sp)
 3170              		.cfi_restore 23
 3171 00a4 625C     		lw	s8,56(sp)
 3172              		.cfi_restore 24
 3173              	.LVL381:
 3174 00a6 D25C     		lw	s9,52(sp)
 3175              		.cfi_restore 25
 3176 00a8 425D     		lw	s10,48(sp)
 3177              		.cfi_restore 26
 3178              	.LVL382:
 3179 00aa B25D     		lw	s11,44(sp)
 3180              		.cfi_restore 27
 3181              	.LVL383:
 3182 00ac 0145     		li	a0,0
 3183 00ae 2561     		addi	sp,sp,96
 3184              	.LCFI13:
 3185              		.cfi_def_cfa_offset 0
 3186              	.LVL384:
 3187 00b0 8280     		jr	ra
 3188              	.LVL385:
 3189              	.L162:
 3190              	.LCFI14:
 3191              		.cfi_restore_state
 296:lib/tinymaix/src/tm_layers.c ****         res[i] = TM_QUANT(TM_DEQUANT(d0[i],in_s0,in_zp0)+TM_DEQUANT(d1[i],in_s1,in_zp1), out_s, out
 3192              		.loc 1 296 18
 3193 00b2 0655     		lw	a0,96(sp)
 3194 00b4 3ECE     		sw	a5,28(sp)
 296:lib/tinymaix/src/tm_layers.c ****         res[i] = TM_QUANT(TM_DEQUANT(d0[i],in_s0,in_zp0)+TM_DEQUANT(d1[i],in_s1,in_zp1), out_s, out
 3195              		.loc 1 296 9 is_stmt 1
 3196 00b6 9104     		addi	s1,s1,4
 3197              	.LVL386:
 296:lib/tinymaix/src/tm_layers.c ****         res[i] = TM_QUANT(TM_DEQUANT(d0[i],in_s0,in_zp0)+TM_DEQUANT(d1[i],in_s1,in_zp1), out_s, out
 3198              		.loc 1 296 18 is_stmt 0
 3199 00b8 97000000 		call	__floatsisf
 3199      E7800000 
 3200              	.LVL387:
 3201 00c0 AA8C     		mv	s9,a0
GAS LISTING C:\Users\Jesper\AppData\Local\Temp\cclZf3Mh.s 			page 80


 3202 00c2 0385C4FF 		lb	a0,-4(s1)
 3203 00c6 110B     		addi	s6,s6,4
 3204 00c8 910B     		addi	s7,s7,4
 3205 00ca 33053541 		sub	a0,a0,s3
 3206 00ce 97000000 		call	__floatsisf
 3206      E7800000 
 3207              	.LVL388:
 3208 00d6 CA85     		mv	a1,s2
 3209 00d8 97000000 		call	__mulsf3
 3209      E7800000 
 3210              	.LVL389:
 3211 00e0 2AC8     		sw	a0,16(sp)
 3212 00e2 0305CBFF 		lb	a0,-4(s6)
 3213 00e6 33055541 		sub	a0,a0,s5
 3214 00ea 97000000 		call	__floatsisf
 3214      E7800000 
 3215              	.LVL390:
 3216 00f2 D285     		mv	a1,s4
 3217 00f4 97000000 		call	__mulsf3
 3217      E7800000 
 3218              	.LVL391:
 3219 00fc 4247     		lw	a4,16(sp)
 3220 00fe AA85     		mv	a1,a0
 3221 0100 3A85     		mv	a0,a4
 3222 0102 97000000 		call	__addsf3
 3222      E7800000 
 3223              	.LVL392:
 3224 010a E285     		mv	a1,s8
 3225 010c 97000000 		call	__divsf3
 3225      E7800000 
 3226              	.LVL393:
 3227 0114 E685     		mv	a1,s9
 3228 0116 97000000 		call	__addsf3
 3228      E7800000 
 3229              	.LVL394:
 3230 011e 97000000 		call	__fixsfsi
 3230      E7800000 
 3231              	.LVL395:
 3232 0126 238EABFE 		sb	a0,-4(s7)
 296:lib/tinymaix/src/tm_layers.c ****         res[i] = TM_QUANT(TM_DEQUANT(d0[i],in_s0,in_zp0)+TM_DEQUANT(d1[i],in_s1,in_zp1), out_s, out
 3233              		.loc 1 296 106 is_stmt 1
 3234              	.LVL396:
 297:lib/tinymaix/src/tm_layers.c ****         res[i] = TM_QUANT(TM_DEQUANT(d0[i],in_s0,in_zp0)+TM_DEQUANT(d1[i],in_s1,in_zp1), out_s, out
 3235              		.loc 1 297 9
 297:lib/tinymaix/src/tm_layers.c ****         res[i] = TM_QUANT(TM_DEQUANT(d0[i],in_s0,in_zp0)+TM_DEQUANT(d1[i],in_s1,in_zp1), out_s, out
 3236              		.loc 1 297 18 is_stmt 0
 3237 012a 0385D4FF 		lb	a0,-3(s1)
 3238 012e 33053541 		sub	a0,a0,s3
 3239 0132 97000000 		call	__floatsisf
 3239      E7800000 
 3240              	.LVL397:
 3241 013a CA85     		mv	a1,s2
 3242 013c 97000000 		call	__mulsf3
 3242      E7800000 
 3243              	.LVL398:
 3244 0144 2AC8     		sw	a0,16(sp)
 3245 0146 0305DBFF 		lb	a0,-3(s6)
GAS LISTING C:\Users\Jesper\AppData\Local\Temp\cclZf3Mh.s 			page 81


 3246 014a 33055541 		sub	a0,a0,s5
 3247 014e 97000000 		call	__floatsisf
 3247      E7800000 
 3248              	.LVL399:
 3249 0156 D285     		mv	a1,s4
 3250 0158 97000000 		call	__mulsf3
 3250      E7800000 
 3251              	.LVL400:
 3252 0160 4247     		lw	a4,16(sp)
 3253 0162 AA85     		mv	a1,a0
 3254 0164 3A85     		mv	a0,a4
 3255 0166 97000000 		call	__addsf3
 3255      E7800000 
 3256              	.LVL401:
 3257 016e E285     		mv	a1,s8
 3258 0170 97000000 		call	__divsf3
 3258      E7800000 
 3259              	.LVL402:
 3260 0178 E685     		mv	a1,s9
 3261 017a 97000000 		call	__addsf3
 3261      E7800000 
 3262              	.LVL403:
 3263 0182 97000000 		call	__fixsfsi
 3263      E7800000 
 3264              	.LVL404:
 3265 018a A38EABFE 		sb	a0,-3(s7)
 297:lib/tinymaix/src/tm_layers.c ****         res[i] = TM_QUANT(TM_DEQUANT(d0[i],in_s0,in_zp0)+TM_DEQUANT(d1[i],in_s1,in_zp1), out_s, out
 3266              		.loc 1 297 106 is_stmt 1
 298:lib/tinymaix/src/tm_layers.c ****         res[i] = TM_QUANT(TM_DEQUANT(d0[i],in_s0,in_zp0)+TM_DEQUANT(d1[i],in_s1,in_zp1), out_s, out
 3267              		.loc 1 298 9
 298:lib/tinymaix/src/tm_layers.c ****         res[i] = TM_QUANT(TM_DEQUANT(d0[i],in_s0,in_zp0)+TM_DEQUANT(d1[i],in_s1,in_zp1), out_s, out
 3268              		.loc 1 298 18 is_stmt 0
 3269 018e 0385E4FF 		lb	a0,-2(s1)
 3270 0192 33053541 		sub	a0,a0,s3
 3271 0196 97000000 		call	__floatsisf
 3271      E7800000 
 3272              	.LVL405:
 3273 019e CA85     		mv	a1,s2
 3274 01a0 97000000 		call	__mulsf3
 3274      E7800000 
 3275              	.LVL406:
 3276 01a8 2AC8     		sw	a0,16(sp)
 3277 01aa 0305EBFF 		lb	a0,-2(s6)
 3278 01ae 33055541 		sub	a0,a0,s5
 3279 01b2 97000000 		call	__floatsisf
 3279      E7800000 
 3280              	.LVL407:
 3281 01ba D285     		mv	a1,s4
 3282 01bc 97000000 		call	__mulsf3
 3282      E7800000 
 3283              	.LVL408:
 3284 01c4 4247     		lw	a4,16(sp)
 3285 01c6 AA85     		mv	a1,a0
 3286 01c8 3A85     		mv	a0,a4
 3287 01ca 97000000 		call	__addsf3
 3287      E7800000 
 3288              	.LVL409:
GAS LISTING C:\Users\Jesper\AppData\Local\Temp\cclZf3Mh.s 			page 82


 3289 01d2 E285     		mv	a1,s8
 3290 01d4 97000000 		call	__divsf3
 3290      E7800000 
 3291              	.LVL410:
 3292 01dc E685     		mv	a1,s9
 3293 01de 97000000 		call	__addsf3
 3293      E7800000 
 3294              	.LVL411:
 3295 01e6 97000000 		call	__fixsfsi
 3295      E7800000 
 3296              	.LVL412:
 3297 01ee 238FABFE 		sb	a0,-2(s7)
 298:lib/tinymaix/src/tm_layers.c ****         res[i] = TM_QUANT(TM_DEQUANT(d0[i],in_s0,in_zp0)+TM_DEQUANT(d1[i],in_s1,in_zp1), out_s, out
 3298              		.loc 1 298 106 is_stmt 1
 299:lib/tinymaix/src/tm_layers.c ****     }
 3299              		.loc 1 299 9
 299:lib/tinymaix/src/tm_layers.c ****     }
 3300              		.loc 1 299 18 is_stmt 0
 3301 01f2 0385F4FF 		lb	a0,-1(s1)
 3302 01f6 33053541 		sub	a0,a0,s3
 3303 01fa 97000000 		call	__floatsisf
 3303      E7800000 
 3304              	.LVL413:
 3305 0202 CA85     		mv	a1,s2
 3306 0204 97000000 		call	__mulsf3
 3306      E7800000 
 3307              	.LVL414:
 3308 020c 2AC8     		sw	a0,16(sp)
 3309 020e 0305FBFF 		lb	a0,-1(s6)
 3310 0212 33055541 		sub	a0,a0,s5
 3311 0216 97000000 		call	__floatsisf
 3311      E7800000 
 3312              	.LVL415:
 3313 021e D285     		mv	a1,s4
 3314 0220 97000000 		call	__mulsf3
 3314      E7800000 
 3315              	.LVL416:
 3316 0228 4247     		lw	a4,16(sp)
 3317 022a AA85     		mv	a1,a0
 3318 022c 3A85     		mv	a0,a4
 3319 022e 97000000 		call	__addsf3
 3319      E7800000 
 3320              	.LVL417:
 3321 0236 E285     		mv	a1,s8
 3322 0238 97000000 		call	__divsf3
 3322      E7800000 
 3323              	.LVL418:
 3324 0240 E685     		mv	a1,s9
 3325 0242 97000000 		call	__addsf3
 3325      E7800000 
 3326              	.LVL419:
 3327 024a 97000000 		call	__fixsfsi
 3327      E7800000 
 3328              	.LVL420:
 3329 0252 A38FABFE 		sb	a0,-1(s7)
 299:lib/tinymaix/src/tm_layers.c ****     }
 3330              		.loc 1 299 106 is_stmt 1
GAS LISTING C:\Users\Jesper\AppData\Local\Temp\cclZf3Mh.s 			page 83


 3331 0256 F247     		lw	a5,28(sp)
 3332 0258 3DB5     		j	.L161
 3333              	.LVL421:
 3334              	.L164:
 302:lib/tinymaix/src/tm_layers.c ****     }
 3335              		.loc 1 302 9 discriminator 2
 302:lib/tinymaix/src/tm_layers.c ****     }
 3336              		.loc 1 302 18 is_stmt 0 discriminator 2
 3337 025a B3079D00 		add	a5,s10,s1
 3338 025e 03850700 		lb	a0,0(a5)
 302:lib/tinymaix/src/tm_layers.c ****     }
 3339              		.loc 1 302 16 discriminator 2
 3340 0262 338B9D00 		add	s6,s11,s1
 302:lib/tinymaix/src/tm_layers.c ****     }
 3341              		.loc 1 302 18 discriminator 2
 3342 0266 33053541 		sub	a0,a0,s3
 3343 026a 97000000 		call	__floatsisf
 3343      E7800000 
 3344              	.LVL422:
 3345 0272 CA85     		mv	a1,s2
 3346 0274 97000000 		call	__mulsf3
 3346      E7800000 
 3347              	.LVL423:
 3348 027c E247     		lw	a5,24(sp)
 3349 027e AA8B     		mv	s7,a0
 3350 0280 A697     		add	a5,a5,s1
 3351 0282 03850700 		lb	a0,0(a5)
 301:lib/tinymaix/src/tm_layers.c ****         res[i] = TM_QUANT(TM_DEQUANT(d0[i],in_s0,in_zp0)+TM_DEQUANT(d1[i],in_s1,in_zp1), out_s, out
 3352              		.loc 1 301 20 discriminator 2
 3353 0286 8504     		addi	s1,s1,1
 3354              	.LVL424:
 302:lib/tinymaix/src/tm_layers.c ****     }
 3355              		.loc 1 302 18 discriminator 2
 3356 0288 33055541 		sub	a0,a0,s5
 3357 028c 97000000 		call	__floatsisf
 3357      E7800000 
 3358              	.LVL425:
 3359 0294 D285     		mv	a1,s4
 3360 0296 97000000 		call	__mulsf3
 3360      E7800000 
 3361              	.LVL426:
 3362 029e AA85     		mv	a1,a0
 3363 02a0 5E85     		mv	a0,s7
 3364 02a2 97000000 		call	__addsf3
 3364      E7800000 
 3365              	.LVL427:
 3366 02aa E285     		mv	a1,s8
 3367 02ac 97000000 		call	__divsf3
 3367      E7800000 
 3368              	.LVL428:
 3369 02b4 AA8B     		mv	s7,a0
 3370 02b6 0655     		lw	a0,96(sp)
 3371 02b8 97000000 		call	__floatsisf
 3371      E7800000 
 3372              	.LVL429:
 3373 02c0 AA85     		mv	a1,a0
 3374 02c2 5E85     		mv	a0,s7
GAS LISTING C:\Users\Jesper\AppData\Local\Temp\cclZf3Mh.s 			page 84


 3375 02c4 97000000 		call	__addsf3
 3375      E7800000 
 3376              	.LVL430:
 3377 02cc 97000000 		call	__fixsfsi
 3377      E7800000 
 3378              	.LVL431:
 3379 02d4 2300AB00 		sb	a0,0(s6)
 3380 02d8 5DBB     		j	.L163
 3381              		.cfi_endproc
 3382              	.LFE36:
 3384              		.section	.bss.k_oft,"aw",@nobits
 3385              		.align	2
 3386              		.set	.LANCHOR0,. + 0
 3389              	k_oft:
 3390 0000 00000000 		.zero	100
 3390      00000000 
 3390      00000000 
 3390      00000000 
 3390      00000000 
 3391              		.section	.bss.sbuf,"aw",@nobits
 3392              		.align	2
 3395              	sbuf:
 3396 0000 00000000 		.zero	2304
 3396      00000000 
 3396      00000000 
 3396      00000000 
 3396      00000000 
 3397              		.section	.bss.sumscale,"aw",@nobits
 3398              		.align	2
 3401              	sumscale:
 3402 0000 00000000 		.zero	4000
 3402      00000000 
 3402      00000000 
 3402      00000000 
 3402      00000000 
 3403              		.section	.rodata.tml_add.str1.4,"aMS",@progbits,1
 3404              		.align	2
 3405              	.LC4:
 3406 0000 73303D25 		.string	"s0=%.3f,zp0=%d; s1=%.3f,zp1=%d\r\n"
 3406      2E33662C 
 3406      7A70303D 
 3406      25643B20 
 3406      73313D25 
 3407              		.section	.rodata.tml_conv2d_dwconv2d.cst4,"aM",@progbits,4
 3408              		.align	2
 3409              	.LC0:
 3410 0000 0000C040 		.word	1086324736
 3411              	.LC1:
 3412 0004 0000803F 		.word	1065353216
 3413              		.section	.rodata.tml_softmax.cst4,"aM",@progbits,4
 3414              		.align	2
 3415              	.LC2:
 3416 0000 FFFF7FFF 		.word	-8388609
 3417              		.section	.rodata.tml_softmax.cst8,"aM",@progbits,8
 3418              		.align	3
 3419              	.LC3:
 3420 0000 8DEDB5A0 		.word	-1598689907
GAS LISTING C:\Users\Jesper\AppData\Local\Temp\cclZf3Mh.s 			page 85


 3421 0004 F7C6B03E 		.word	1051772663
 3422              		.text
 3423              	.Letext0:
 3424              		.file 3 "c:\\users\\jesper\\documents\\ml_sommarjobb\\toolchain-gd32v-v201-win\\toolchain-gd32v-v2
 3425              		.file 4 "c:\\users\\jesper\\documents\\ml_sommarjobb\\toolchain-gd32v-v201-win\\toolchain-gd32v-v2
 3426              		.file 5 "c:\\users\\jesper\\documents\\ml_sommarjobb\\toolchain-gd32v-v201-win\\toolchain-gd32v-v2
 3427              		.file 6 "c:\\users\\jesper\\documents\\ml_sommarjobb\\toolchain-gd32v-v201-win\\toolchain-gd32v-v2
 3428              		.file 7 "c:\\users\\jesper\\documents\\ml_sommarjobb\\toolchain-gd32v-v201-win\\toolchain-gd32v-v2
 3429              		.file 8 "c:\\users\\jesper\\documents\\ml_sommarjobb\\toolchain-gd32v-v201-win\\toolchain-gd32v-v2
 3430              		.file 9 "c:\\users\\jesper\\documents\\ml_sommarjobb\\toolchain-gd32v-v201-win\\toolchain-gd32v-v2
 3431              		.file 10 "c:\\users\\jesper\\documents\\ml_sommarjobb\\toolchain-gd32v-v201-win\\toolchain-gd32v-v
 3432              		.file 11 "lib/tinymaix/include/tinymaix.h"
 3433              		.file 12 "c:\\users\\jesper\\documents\\ml_sommarjobb\\toolchain-gd32v-v201-win\\toolchain-gd32v-v
 3434              		.file 13 "c:\\users\\jesper\\documents\\ml_sommarjobb\\toolchain-gd32v-v201-win\\toolchain-gd32v-v
 3435              		.file 14 "c:\\users\\jesper\\documents\\ml_sommarjobb\\toolchain-gd32v-v201-win\\toolchain-gd32v-v
GAS LISTING C:\Users\Jesper\AppData\Local\Temp\cclZf3Mh.s 			page 86


DEFINED SYMBOLS
                            *ABS*:0000000000000000 tm_layers.c
C:\Users\Jesper\AppData\Local\Temp\cclZf3Mh.s:19     .text.tml_conv2d_dwconv2d:0000000000000000 tml_conv2d_dwconv2d
C:\Users\Jesper\AppData\Local\Temp\cclZf3Mh.s:23     .text.tml_conv2d_dwconv2d:0000000000000000 .L0 
C:\Users\Jesper\AppData\Local\Temp\cclZf3Mh.s:25     .text.tml_conv2d_dwconv2d:0000000000000000 .L0 
C:\Users\Jesper\AppData\Local\Temp\cclZf3Mh.s:26     .text.tml_conv2d_dwconv2d:0000000000000000 .L0 
C:\Users\Jesper\AppData\Local\Temp\cclZf3Mh.s:27     .text.tml_conv2d_dwconv2d:0000000000000000 .L0 
C:\Users\Jesper\AppData\Local\Temp\cclZf3Mh.s:28     .text.tml_conv2d_dwconv2d:0000000000000000 .L0 
C:\Users\Jesper\AppData\Local\Temp\cclZf3Mh.s:29     .text.tml_conv2d_dwconv2d:0000000000000000 .L0 
C:\Users\Jesper\AppData\Local\Temp\cclZf3Mh.s:30     .text.tml_conv2d_dwconv2d:0000000000000000 .L0 
C:\Users\Jesper\AppData\Local\Temp\cclZf3Mh.s:31     .text.tml_conv2d_dwconv2d:0000000000000000 .L0 
C:\Users\Jesper\AppData\Local\Temp\cclZf3Mh.s:32     .text.tml_conv2d_dwconv2d:0000000000000000 .L0 
C:\Users\Jesper\AppData\Local\Temp\cclZf3Mh.s:33     .text.tml_conv2d_dwconv2d:0000000000000000 .L0 
C:\Users\Jesper\AppData\Local\Temp\cclZf3Mh.s:34     .text.tml_conv2d_dwconv2d:0000000000000000 .L0 
C:\Users\Jesper\AppData\Local\Temp\cclZf3Mh.s:35     .text.tml_conv2d_dwconv2d:0000000000000000 .L0 
C:\Users\Jesper\AppData\Local\Temp\cclZf3Mh.s:37     .text.tml_conv2d_dwconv2d:0000000000000002 .L0 
C:\Users\Jesper\AppData\Local\Temp\cclZf3Mh.s:40     .text.tml_conv2d_dwconv2d:0000000000000004 .L0 
C:\Users\Jesper\AppData\Local\Temp\cclZf3Mh.s:41     .text.tml_conv2d_dwconv2d:0000000000000006 .L0 
C:\Users\Jesper\AppData\Local\Temp\cclZf3Mh.s:45     .text.tml_conv2d_dwconv2d:000000000000000a .L0 
C:\Users\Jesper\AppData\Local\Temp\cclZf3Mh.s:47     .text.tml_conv2d_dwconv2d:000000000000000e .L0 
C:\Users\Jesper\AppData\Local\Temp\cclZf3Mh.s:50     .text.tml_conv2d_dwconv2d:0000000000000010 .L0 
C:\Users\Jesper\AppData\Local\Temp\cclZf3Mh.s:53     .text.tml_conv2d_dwconv2d:0000000000000018 .L0 
C:\Users\Jesper\AppData\Local\Temp\cclZf3Mh.s:64     .text.tml_conv2d_dwconv2d:000000000000002e .L0 
C:\Users\Jesper\AppData\Local\Temp\cclZf3Mh.s:65     .text.tml_conv2d_dwconv2d:000000000000002e .L0 
C:\Users\Jesper\AppData\Local\Temp\cclZf3Mh.s:66     .text.tml_conv2d_dwconv2d:000000000000002e .L0 
C:\Users\Jesper\AppData\Local\Temp\cclZf3Mh.s:67     .text.tml_conv2d_dwconv2d:000000000000002e .L0 
C:\Users\Jesper\AppData\Local\Temp\cclZf3Mh.s:68     .text.tml_conv2d_dwconv2d:000000000000002e .L0 
C:\Users\Jesper\AppData\Local\Temp\cclZf3Mh.s:69     .text.tml_conv2d_dwconv2d:000000000000002e .L0 
C:\Users\Jesper\AppData\Local\Temp\cclZf3Mh.s:70     .text.tml_conv2d_dwconv2d:000000000000002e .L0 
C:\Users\Jesper\AppData\Local\Temp\cclZf3Mh.s:71     .text.tml_conv2d_dwconv2d:000000000000002e .L0 
C:\Users\Jesper\AppData\Local\Temp\cclZf3Mh.s:72     .text.tml_conv2d_dwconv2d:000000000000002e .L0 
C:\Users\Jesper\AppData\Local\Temp\cclZf3Mh.s:73     .text.tml_conv2d_dwconv2d:000000000000002e .L0 
C:\Users\Jesper\AppData\Local\Temp\cclZf3Mh.s:74     .text.tml_conv2d_dwconv2d:000000000000002e .L0 
C:\Users\Jesper\AppData\Local\Temp\cclZf3Mh.s:76     .text.tml_conv2d_dwconv2d:000000000000002e .L0 
C:\Users\Jesper\AppData\Local\Temp\cclZf3Mh.s:78     .text.tml_conv2d_dwconv2d:0000000000000030 .L0 
C:\Users\Jesper\AppData\Local\Temp\cclZf3Mh.s:82     .text.tml_conv2d_dwconv2d:0000000000000036 .L0 
C:\Users\Jesper\AppData\Local\Temp\cclZf3Mh.s:85     .text.tml_conv2d_dwconv2d:000000000000003a .L0 
C:\Users\Jesper\AppData\Local\Temp\cclZf3Mh.s:86     .text.tml_conv2d_dwconv2d:000000000000003a .L0 
C:\Users\Jesper\AppData\Local\Temp\cclZf3Mh.s:88     .text.tml_conv2d_dwconv2d:000000000000003e .L0 
C:\Users\Jesper\AppData\Local\Temp\cclZf3Mh.s:90     .text.tml_conv2d_dwconv2d:0000000000000040 .L0 
C:\Users\Jesper\AppData\Local\Temp\cclZf3Mh.s:92     .text.tml_conv2d_dwconv2d:0000000000000044 .L0 
C:\Users\Jesper\AppData\Local\Temp\cclZf3Mh.s:93     .text.tml_conv2d_dwconv2d:0000000000000044 .L0 
C:\Users\Jesper\AppData\Local\Temp\cclZf3Mh.s:96     .text.tml_conv2d_dwconv2d:0000000000000048 .L0 
C:\Users\Jesper\AppData\Local\Temp\cclZf3Mh.s:98     .text.tml_conv2d_dwconv2d:000000000000004a .L0 
C:\Users\Jesper\AppData\Local\Temp\cclZf3Mh.s:100    .text.tml_conv2d_dwconv2d:000000000000004e .L0 
C:\Users\Jesper\AppData\Local\Temp\cclZf3Mh.s:101    .text.tml_conv2d_dwconv2d:000000000000004e .L0 
C:\Users\Jesper\AppData\Local\Temp\cclZf3Mh.s:104    .text.tml_conv2d_dwconv2d:0000000000000052 .L0 
C:\Users\Jesper\AppData\Local\Temp\cclZf3Mh.s:105    .text.tml_conv2d_dwconv2d:0000000000000052 .L0 
C:\Users\Jesper\AppData\Local\Temp\cclZf3Mh.s:107    .text.tml_conv2d_dwconv2d:0000000000000054 .L0 
C:\Users\Jesper\AppData\Local\Temp\cclZf3Mh.s:109    .text.tml_conv2d_dwconv2d:0000000000000056 .L0 
C:\Users\Jesper\AppData\Local\Temp\cclZf3Mh.s:111    .text.tml_conv2d_dwconv2d:000000000000005a .L0 
C:\Users\Jesper\AppData\Local\Temp\cclZf3Mh.s:112    .text.tml_conv2d_dwconv2d:000000000000005a .L0 
C:\Users\Jesper\AppData\Local\Temp\cclZf3Mh.s:116    .text.tml_conv2d_dwconv2d:0000000000000062 .L0 
C:\Users\Jesper\AppData\Local\Temp\cclZf3Mh.s:119    .text.tml_conv2d_dwconv2d:0000000000000066 .L0 
C:\Users\Jesper\AppData\Local\Temp\cclZf3Mh.s:121    .text.tml_conv2d_dwconv2d:0000000000000068 .L0 
C:\Users\Jesper\AppData\Local\Temp\cclZf3Mh.s:125    .text.tml_conv2d_dwconv2d:000000000000006e .L0 
C:\Users\Jesper\AppData\Local\Temp\cclZf3Mh.s:130    .text.tml_conv2d_dwconv2d:0000000000000074 .L0 
GAS LISTING C:\Users\Jesper\AppData\Local\Temp\cclZf3Mh.s 			page 87


C:\Users\Jesper\AppData\Local\Temp\cclZf3Mh.s:131    .text.tml_conv2d_dwconv2d:0000000000000074 .L0 
C:\Users\Jesper\AppData\Local\Temp\cclZf3Mh.s:133    .text.tml_conv2d_dwconv2d:0000000000000076 .L0 
C:\Users\Jesper\AppData\Local\Temp\cclZf3Mh.s:135    .text.tml_conv2d_dwconv2d:000000000000007a .L0 
C:\Users\Jesper\AppData\Local\Temp\cclZf3Mh.s:138    .text.tml_conv2d_dwconv2d:000000000000007e .L0 
C:\Users\Jesper\AppData\Local\Temp\cclZf3Mh.s:139    .text.tml_conv2d_dwconv2d:000000000000007e .L0 
C:\Users\Jesper\AppData\Local\Temp\cclZf3Mh.s:142    .text.tml_conv2d_dwconv2d:0000000000000082 .L0 
C:\Users\Jesper\AppData\Local\Temp\cclZf3Mh.s:143    .text.tml_conv2d_dwconv2d:0000000000000082 .L0 
C:\Users\Jesper\AppData\Local\Temp\cclZf3Mh.s:144    .text.tml_conv2d_dwconv2d:0000000000000082 .L0 
C:\Users\Jesper\AppData\Local\Temp\cclZf3Mh.s:145    .text.tml_conv2d_dwconv2d:0000000000000082 .L0 
C:\Users\Jesper\AppData\Local\Temp\cclZf3Mh.s:146    .text.tml_conv2d_dwconv2d:0000000000000082 .L0 
C:\Users\Jesper\AppData\Local\Temp\cclZf3Mh.s:3401   .bss.sumscale:0000000000000000 sumscale
C:\Users\Jesper\AppData\Local\Temp\cclZf3Mh.s:157    .text.tml_conv2d_dwconv2d:0000000000000092 .L0 
C:\Users\Jesper\AppData\Local\Temp\cclZf3Mh.s:160    .text.tml_conv2d_dwconv2d:0000000000000096 .L0 
C:\Users\Jesper\AppData\Local\Temp\cclZf3Mh.s:166    .text.tml_conv2d_dwconv2d:00000000000000a0 .L0 
C:\Users\Jesper\AppData\Local\Temp\cclZf3Mh.s:167    .text.tml_conv2d_dwconv2d:00000000000000a0 .L0 
C:\Users\Jesper\AppData\Local\Temp\cclZf3Mh.s:168    .text.tml_conv2d_dwconv2d:00000000000000a0 .L0 
C:\Users\Jesper\AppData\Local\Temp\cclZf3Mh.s:170    .text.tml_conv2d_dwconv2d:00000000000000a2 .L0 
C:\Users\Jesper\AppData\Local\Temp\cclZf3Mh.s:174    .text.tml_conv2d_dwconv2d:00000000000000a6 .L0 
C:\Users\Jesper\AppData\Local\Temp\cclZf3Mh.s:177    .text.tml_conv2d_dwconv2d:00000000000000aa .L0 
C:\Users\Jesper\AppData\Local\Temp\cclZf3Mh.s:178    .text.tml_conv2d_dwconv2d:00000000000000aa .L0 
C:\Users\Jesper\AppData\Local\Temp\cclZf3Mh.s:188    .text.tml_conv2d_dwconv2d:00000000000000c0 .L0 
C:\Users\Jesper\AppData\Local\Temp\cclZf3Mh.s:191    .text.tml_conv2d_dwconv2d:00000000000000c2 .L0 
C:\Users\Jesper\AppData\Local\Temp\cclZf3Mh.s:193    .text.tml_conv2d_dwconv2d:00000000000000c4 .L0 
C:\Users\Jesper\AppData\Local\Temp\cclZf3Mh.s:199    .text.tml_conv2d_dwconv2d:00000000000000ca .L0 
C:\Users\Jesper\AppData\Local\Temp\cclZf3Mh.s:204    .text.tml_conv2d_dwconv2d:00000000000000d6 .L0 
C:\Users\Jesper\AppData\Local\Temp\cclZf3Mh.s:207    .text.tml_conv2d_dwconv2d:00000000000000d8 .L0 
C:\Users\Jesper\AppData\Local\Temp\cclZf3Mh.s:215    .text.tml_conv2d_dwconv2d:00000000000000dc .L0 
C:\Users\Jesper\AppData\Local\Temp\cclZf3Mh.s:217    .text.tml_conv2d_dwconv2d:00000000000000e0 .L0 
C:\Users\Jesper\AppData\Local\Temp\cclZf3Mh.s:219    .text.tml_conv2d_dwconv2d:00000000000000e4 .L0 
C:\Users\Jesper\AppData\Local\Temp\cclZf3Mh.s:221    .text.tml_conv2d_dwconv2d:00000000000000e6 .L0 
C:\Users\Jesper\AppData\Local\Temp\cclZf3Mh.s:224    .text.tml_conv2d_dwconv2d:00000000000000ea .L0 
C:\Users\Jesper\AppData\Local\Temp\cclZf3Mh.s:227    .text.tml_conv2d_dwconv2d:00000000000000ec .L0 
C:\Users\Jesper\AppData\Local\Temp\cclZf3Mh.s:230    .text.tml_conv2d_dwconv2d:00000000000000f4 .L0 
C:\Users\Jesper\AppData\Local\Temp\cclZf3Mh.s:239    .text.tml_conv2d_dwconv2d:00000000000000fa .L0 
C:\Users\Jesper\AppData\Local\Temp\cclZf3Mh.s:246    .text.tml_conv2d_dwconv2d:0000000000000100 .L0 
C:\Users\Jesper\AppData\Local\Temp\cclZf3Mh.s:250    .text.tml_conv2d_dwconv2d:000000000000010a .L0 
C:\Users\Jesper\AppData\Local\Temp\cclZf3Mh.s:256    .text.tml_conv2d_dwconv2d:0000000000000112 .L0 
C:\Users\Jesper\AppData\Local\Temp\cclZf3Mh.s:260    .text.tml_conv2d_dwconv2d:0000000000000114 .L0 
C:\Users\Jesper\AppData\Local\Temp\cclZf3Mh.s:264    .text.tml_conv2d_dwconv2d:0000000000000116 .L0 
C:\Users\Jesper\AppData\Local\Temp\cclZf3Mh.s:266    .text.tml_conv2d_dwconv2d:0000000000000118 .L0 
C:\Users\Jesper\AppData\Local\Temp\cclZf3Mh.s:268    .text.tml_conv2d_dwconv2d:000000000000011a .L0 
C:\Users\Jesper\AppData\Local\Temp\cclZf3Mh.s:270    .text.tml_conv2d_dwconv2d:000000000000011e .L0 
C:\Users\Jesper\AppData\Local\Temp\cclZf3Mh.s:272    .text.tml_conv2d_dwconv2d:0000000000000122 .L0 
C:\Users\Jesper\AppData\Local\Temp\cclZf3Mh.s:275    .text.tml_conv2d_dwconv2d:0000000000000124 .L0 
C:\Users\Jesper\AppData\Local\Temp\cclZf3Mh.s:281    .text.tml_conv2d_dwconv2d:0000000000000128 .L0 
C:\Users\Jesper\AppData\Local\Temp\cclZf3Mh.s:282    .text.tml_conv2d_dwconv2d:0000000000000128 .L0 
C:\Users\Jesper\AppData\Local\Temp\cclZf3Mh.s:285    .text.tml_conv2d_dwconv2d:000000000000012e .L0 
C:\Users\Jesper\AppData\Local\Temp\cclZf3Mh.s:287    .text.tml_conv2d_dwconv2d:0000000000000130 .L0 
C:\Users\Jesper\AppData\Local\Temp\cclZf3Mh.s:293    .text.tml_conv2d_dwconv2d:0000000000000140 .L0 
C:\Users\Jesper\AppData\Local\Temp\cclZf3Mh.s:297    .text.tml_conv2d_dwconv2d:0000000000000146 .L0 
C:\Users\Jesper\AppData\Local\Temp\cclZf3Mh.s:298    .text.tml_conv2d_dwconv2d:0000000000000146 .L0 
C:\Users\Jesper\AppData\Local\Temp\cclZf3Mh.s:299    .text.tml_conv2d_dwconv2d:0000000000000146 .L0 
C:\Users\Jesper\AppData\Local\Temp\cclZf3Mh.s:302    .text.tml_conv2d_dwconv2d:000000000000014c .L0 
C:\Users\Jesper\AppData\Local\Temp\cclZf3Mh.s:307    .text.tml_conv2d_dwconv2d:000000000000014e .L0 
C:\Users\Jesper\AppData\Local\Temp\cclZf3Mh.s:319    .text.tml_conv2d_dwconv2d:000000000000015c .L0 
C:\Users\Jesper\AppData\Local\Temp\cclZf3Mh.s:322    .text.tml_conv2d_dwconv2d:0000000000000162 .L0 
C:\Users\Jesper\AppData\Local\Temp\cclZf3Mh.s:324    .text.tml_conv2d_dwconv2d:0000000000000164 .L0 
GAS LISTING C:\Users\Jesper\AppData\Local\Temp\cclZf3Mh.s 			page 88


C:\Users\Jesper\AppData\Local\Temp\cclZf3Mh.s:333    .text.tml_conv2d_dwconv2d:0000000000000174 .L0 
C:\Users\Jesper\AppData\Local\Temp\cclZf3Mh.s:339    .text.tml_conv2d_dwconv2d:000000000000017a .L0 
C:\Users\Jesper\AppData\Local\Temp\cclZf3Mh.s:342    .text.tml_conv2d_dwconv2d:0000000000000180 .L0 
C:\Users\Jesper\AppData\Local\Temp\cclZf3Mh.s:347    .text.tml_conv2d_dwconv2d:000000000000018a .L0 
C:\Users\Jesper\AppData\Local\Temp\cclZf3Mh.s:360    .text.tml_conv2d_dwconv2d:000000000000019a .L0 
C:\Users\Jesper\AppData\Local\Temp\cclZf3Mh.s:362    .text.tml_conv2d_dwconv2d:000000000000019c .L0 
C:\Users\Jesper\AppData\Local\Temp\cclZf3Mh.s:364    .text.tml_conv2d_dwconv2d:000000000000019e .L0 
C:\Users\Jesper\AppData\Local\Temp\cclZf3Mh.s:366    .text.tml_conv2d_dwconv2d:00000000000001a2 .L0 
C:\Users\Jesper\AppData\Local\Temp\cclZf3Mh.s:369    .text.tml_conv2d_dwconv2d:00000000000001a6 .L0 
C:\Users\Jesper\AppData\Local\Temp\cclZf3Mh.s:386    .text.tml_conv2d_dwconv2d:00000000000001b6 .L0 
C:\Users\Jesper\AppData\Local\Temp\cclZf3Mh.s:391    .text.tml_conv2d_dwconv2d:00000000000001b8 .L0 
C:\Users\Jesper\AppData\Local\Temp\cclZf3Mh.s:392    .text.tml_conv2d_dwconv2d:00000000000001b8 .L0 
C:\Users\Jesper\AppData\Local\Temp\cclZf3Mh.s:394    .text.tml_conv2d_dwconv2d:00000000000001ba .L0 
C:\Users\Jesper\AppData\Local\Temp\cclZf3Mh.s:397    .text.tml_conv2d_dwconv2d:00000000000001be .L0 
C:\Users\Jesper\AppData\Local\Temp\cclZf3Mh.s:398    .text.tml_conv2d_dwconv2d:00000000000001be .L0 
C:\Users\Jesper\AppData\Local\Temp\cclZf3Mh.s:399    .text.tml_conv2d_dwconv2d:00000000000001be .L0 
C:\Users\Jesper\AppData\Local\Temp\cclZf3Mh.s:402    .text.tml_conv2d_dwconv2d:00000000000001c0 .L0 
C:\Users\Jesper\AppData\Local\Temp\cclZf3Mh.s:405    .text.tml_conv2d_dwconv2d:00000000000001c2 .L0 
C:\Users\Jesper\AppData\Local\Temp\cclZf3Mh.s:410    .text.tml_conv2d_dwconv2d:00000000000001cc .L0 
C:\Users\Jesper\AppData\Local\Temp\cclZf3Mh.s:413    .text.tml_conv2d_dwconv2d:00000000000001d0 .L0 
C:\Users\Jesper\AppData\Local\Temp\cclZf3Mh.s:417    .text.tml_conv2d_dwconv2d:00000000000001da .L0 
C:\Users\Jesper\AppData\Local\Temp\cclZf3Mh.s:420    .text.tml_conv2d_dwconv2d:00000000000001de .L0 
C:\Users\Jesper\AppData\Local\Temp\cclZf3Mh.s:423    .text.tml_conv2d_dwconv2d:00000000000001e0 .L0 
C:\Users\Jesper\AppData\Local\Temp\cclZf3Mh.s:429    .text.tml_conv2d_dwconv2d:00000000000001ea .L0 
C:\Users\Jesper\AppData\Local\Temp\cclZf3Mh.s:430    .text.tml_conv2d_dwconv2d:00000000000001ea .L0 
C:\Users\Jesper\AppData\Local\Temp\cclZf3Mh.s:432    .text.tml_conv2d_dwconv2d:00000000000001ec .L0 
C:\Users\Jesper\AppData\Local\Temp\cclZf3Mh.s:435    .text.tml_conv2d_dwconv2d:00000000000001f0 .L0 
C:\Users\Jesper\AppData\Local\Temp\cclZf3Mh.s:438    .text.tml_conv2d_dwconv2d:00000000000001f6 .L0 
C:\Users\Jesper\AppData\Local\Temp\cclZf3Mh.s:442    .text.tml_conv2d_dwconv2d:0000000000000200 .L0 
C:\Users\Jesper\AppData\Local\Temp\cclZf3Mh.s:453    .text.tml_conv2d_dwconv2d:000000000000021c .L0 
C:\Users\Jesper\AppData\Local\Temp\cclZf3Mh.s:458    .text.tml_conv2d_dwconv2d:0000000000000226 .L0 
C:\Users\Jesper\AppData\Local\Temp\cclZf3Mh.s:461    .text.tml_conv2d_dwconv2d:0000000000000228 .L0 
C:\Users\Jesper\AppData\Local\Temp\cclZf3Mh.s:465    .text.tml_conv2d_dwconv2d:000000000000022c .L0 
C:\Users\Jesper\AppData\Local\Temp\cclZf3Mh.s:479    .text.tml_conv2d_dwconv2d:0000000000000232 .L0 
C:\Users\Jesper\AppData\Local\Temp\cclZf3Mh.s:480    .text.tml_conv2d_dwconv2d:0000000000000232 .L0 
C:\Users\Jesper\AppData\Local\Temp\cclZf3Mh.s:481    .text.tml_conv2d_dwconv2d:0000000000000232 .L0 
C:\Users\Jesper\AppData\Local\Temp\cclZf3Mh.s:483    .text.tml_conv2d_dwconv2d:0000000000000234 .L0 
C:\Users\Jesper\AppData\Local\Temp\cclZf3Mh.s:486    .text.tml_conv2d_dwconv2d:0000000000000236 .L0 
C:\Users\Jesper\AppData\Local\Temp\cclZf3Mh.s:487    .text.tml_conv2d_dwconv2d:0000000000000236 .L0 
C:\Users\Jesper\AppData\Local\Temp\cclZf3Mh.s:488    .text.tml_conv2d_dwconv2d:0000000000000236 .L0 
C:\Users\Jesper\AppData\Local\Temp\cclZf3Mh.s:498    .text.tml_conv2d_dwconv2d:000000000000023c .L0 
C:\Users\Jesper\AppData\Local\Temp\cclZf3Mh.s:499    .text.tml_conv2d_dwconv2d:000000000000023c .L0 
C:\Users\Jesper\AppData\Local\Temp\cclZf3Mh.s:510    .text.tml_conv2d_dwconv2d:0000000000000252 .L0 
C:\Users\Jesper\AppData\Local\Temp\cclZf3Mh.s:511    .text.tml_conv2d_dwconv2d:0000000000000252 .L0 
C:\Users\Jesper\AppData\Local\Temp\cclZf3Mh.s:516    .text.tml_conv2d_dwconv2d:0000000000000262 .L0 
C:\Users\Jesper\AppData\Local\Temp\cclZf3Mh.s:517    .text.tml_conv2d_dwconv2d:0000000000000262 .L0 
C:\Users\Jesper\AppData\Local\Temp\cclZf3Mh.s:534    .text.tml_conv2d_dwconv2d:0000000000000276 .L0 
C:\Users\Jesper\AppData\Local\Temp\cclZf3Mh.s:535    .text.tml_conv2d_dwconv2d:0000000000000276 .L0 
C:\Users\Jesper\AppData\Local\Temp\cclZf3Mh.s:536    .text.tml_conv2d_dwconv2d:0000000000000276 .L0 
C:\Users\Jesper\AppData\Local\Temp\cclZf3Mh.s:537    .text.tml_conv2d_dwconv2d:0000000000000276 .L0 
C:\Users\Jesper\AppData\Local\Temp\cclZf3Mh.s:538    .text.tml_conv2d_dwconv2d:0000000000000276 .L0 
C:\Users\Jesper\AppData\Local\Temp\cclZf3Mh.s:539    .text.tml_conv2d_dwconv2d:0000000000000276 .L0 
C:\Users\Jesper\AppData\Local\Temp\cclZf3Mh.s:540    .text.tml_conv2d_dwconv2d:0000000000000276 .L0 
C:\Users\Jesper\AppData\Local\Temp\cclZf3Mh.s:541    .text.tml_conv2d_dwconv2d:0000000000000276 .L0 
C:\Users\Jesper\AppData\Local\Temp\cclZf3Mh.s:544    .text.tml_conv2d_dwconv2d:000000000000027a .L0 
C:\Users\Jesper\AppData\Local\Temp\cclZf3Mh.s:546    .text.tml_conv2d_dwconv2d:000000000000027c .L0 
C:\Users\Jesper\AppData\Local\Temp\cclZf3Mh.s:549    .text.tml_conv2d_dwconv2d:0000000000000280 .L0 
GAS LISTING C:\Users\Jesper\AppData\Local\Temp\cclZf3Mh.s 			page 89


C:\Users\Jesper\AppData\Local\Temp\cclZf3Mh.s:551    .text.tml_conv2d_dwconv2d:0000000000000282 .L0 
C:\Users\Jesper\AppData\Local\Temp\cclZf3Mh.s:555    .text.tml_conv2d_dwconv2d:0000000000000284 .L0 
C:\Users\Jesper\AppData\Local\Temp\cclZf3Mh.s:559    .text.tml_conv2d_dwconv2d:000000000000028c .L0 
C:\Users\Jesper\AppData\Local\Temp\cclZf3Mh.s:560    .text.tml_conv2d_dwconv2d:000000000000028c .L0 
C:\Users\Jesper\AppData\Local\Temp\cclZf3Mh.s:562    .text.tml_conv2d_dwconv2d:0000000000000290 .L0 
C:\Users\Jesper\AppData\Local\Temp\cclZf3Mh.s:564    .text.tml_conv2d_dwconv2d:0000000000000294 .L0 
C:\Users\Jesper\AppData\Local\Temp\cclZf3Mh.s:568    .text.tml_conv2d_dwconv2d:000000000000029a .L0 
C:\Users\Jesper\AppData\Local\Temp\cclZf3Mh.s:572    .text.tml_conv2d_dwconv2d:00000000000002a2 .L0 
C:\Users\Jesper\AppData\Local\Temp\cclZf3Mh.s:574    .text.tml_conv2d_dwconv2d:00000000000002a6 .L0 
C:\Users\Jesper\AppData\Local\Temp\cclZf3Mh.s:577    .text.tml_conv2d_dwconv2d:00000000000002a8 .L0 
C:\Users\Jesper\AppData\Local\Temp\cclZf3Mh.s:578    .text.tml_conv2d_dwconv2d:00000000000002a8 .L0 
C:\Users\Jesper\AppData\Local\Temp\cclZf3Mh.s:580    .text.tml_conv2d_dwconv2d:00000000000002ac .L0 
C:\Users\Jesper\AppData\Local\Temp\cclZf3Mh.s:582    .text.tml_conv2d_dwconv2d:00000000000002b0 .L0 
C:\Users\Jesper\AppData\Local\Temp\cclZf3Mh.s:585    .text.tml_conv2d_dwconv2d:00000000000002b2 .L0 
C:\Users\Jesper\AppData\Local\Temp\cclZf3Mh.s:586    .text.tml_conv2d_dwconv2d:00000000000002b2 .L0 
C:\Users\Jesper\AppData\Local\Temp\cclZf3Mh.s:587    .text.tml_conv2d_dwconv2d:00000000000002b2 .L0 
C:\Users\Jesper\AppData\Local\Temp\cclZf3Mh.s:589    .text.tml_conv2d_dwconv2d:00000000000002b6 .L0 
C:\Users\Jesper\AppData\Local\Temp\cclZf3Mh.s:591    .text.tml_conv2d_dwconv2d:00000000000002ba .L0 
C:\Users\Jesper\AppData\Local\Temp\cclZf3Mh.s:593    .text.tml_conv2d_dwconv2d:00000000000002be .L0 
C:\Users\Jesper\AppData\Local\Temp\cclZf3Mh.s:596    .text.tml_conv2d_dwconv2d:00000000000002c0 .L0 
C:\Users\Jesper\AppData\Local\Temp\cclZf3Mh.s:597    .text.tml_conv2d_dwconv2d:00000000000002c0 .L0 
C:\Users\Jesper\AppData\Local\Temp\cclZf3Mh.s:599    .text.tml_conv2d_dwconv2d:00000000000002c4 .L0 
C:\Users\Jesper\AppData\Local\Temp\cclZf3Mh.s:601    .text.tml_conv2d_dwconv2d:00000000000002c8 .L0 
C:\Users\Jesper\AppData\Local\Temp\cclZf3Mh.s:604    .text.tml_conv2d_dwconv2d:00000000000002ca .L0 
C:\Users\Jesper\AppData\Local\Temp\cclZf3Mh.s:605    .text.tml_conv2d_dwconv2d:00000000000002ca .L0 
C:\Users\Jesper\AppData\Local\Temp\cclZf3Mh.s:606    .text.tml_conv2d_dwconv2d:00000000000002ca .L0 
C:\Users\Jesper\AppData\Local\Temp\cclZf3Mh.s:608    .text.tml_conv2d_dwconv2d:00000000000002ce .L0 
C:\Users\Jesper\AppData\Local\Temp\cclZf3Mh.s:610    .text.tml_conv2d_dwconv2d:00000000000002d2 .L0 
C:\Users\Jesper\AppData\Local\Temp\cclZf3Mh.s:612    .text.tml_conv2d_dwconv2d:00000000000002d6 .L0 
C:\Users\Jesper\AppData\Local\Temp\cclZf3Mh.s:615    .text.tml_conv2d_dwconv2d:00000000000002d8 .L0 
C:\Users\Jesper\AppData\Local\Temp\cclZf3Mh.s:616    .text.tml_conv2d_dwconv2d:00000000000002d8 .L0 
C:\Users\Jesper\AppData\Local\Temp\cclZf3Mh.s:618    .text.tml_conv2d_dwconv2d:00000000000002dc .L0 
C:\Users\Jesper\AppData\Local\Temp\cclZf3Mh.s:620    .text.tml_conv2d_dwconv2d:00000000000002e0 .L0 
C:\Users\Jesper\AppData\Local\Temp\cclZf3Mh.s:623    .text.tml_conv2d_dwconv2d:00000000000002e2 .L0 
C:\Users\Jesper\AppData\Local\Temp\cclZf3Mh.s:624    .text.tml_conv2d_dwconv2d:00000000000002e2 .L0 
C:\Users\Jesper\AppData\Local\Temp\cclZf3Mh.s:625    .text.tml_conv2d_dwconv2d:00000000000002e2 .L0 
C:\Users\Jesper\AppData\Local\Temp\cclZf3Mh.s:627    .text.tml_conv2d_dwconv2d:00000000000002e6 .L0 
C:\Users\Jesper\AppData\Local\Temp\cclZf3Mh.s:629    .text.tml_conv2d_dwconv2d:00000000000002ea .L0 
C:\Users\Jesper\AppData\Local\Temp\cclZf3Mh.s:631    .text.tml_conv2d_dwconv2d:00000000000002ee .L0 
C:\Users\Jesper\AppData\Local\Temp\cclZf3Mh.s:634    .text.tml_conv2d_dwconv2d:00000000000002f0 .L0 
C:\Users\Jesper\AppData\Local\Temp\cclZf3Mh.s:635    .text.tml_conv2d_dwconv2d:00000000000002f0 .L0 
C:\Users\Jesper\AppData\Local\Temp\cclZf3Mh.s:637    .text.tml_conv2d_dwconv2d:00000000000002f4 .L0 
C:\Users\Jesper\AppData\Local\Temp\cclZf3Mh.s:639    .text.tml_conv2d_dwconv2d:00000000000002f8 .L0 
C:\Users\Jesper\AppData\Local\Temp\cclZf3Mh.s:642    .text.tml_conv2d_dwconv2d:00000000000002fa .L0 
C:\Users\Jesper\AppData\Local\Temp\cclZf3Mh.s:643    .text.tml_conv2d_dwconv2d:00000000000002fa .L0 
C:\Users\Jesper\AppData\Local\Temp\cclZf3Mh.s:644    .text.tml_conv2d_dwconv2d:00000000000002fa .L0 
C:\Users\Jesper\AppData\Local\Temp\cclZf3Mh.s:646    .text.tml_conv2d_dwconv2d:00000000000002fe .L0 
C:\Users\Jesper\AppData\Local\Temp\cclZf3Mh.s:648    .text.tml_conv2d_dwconv2d:0000000000000302 .L0 
C:\Users\Jesper\AppData\Local\Temp\cclZf3Mh.s:650    .text.tml_conv2d_dwconv2d:0000000000000306 .L0 
C:\Users\Jesper\AppData\Local\Temp\cclZf3Mh.s:653    .text.tml_conv2d_dwconv2d:0000000000000308 .L0 
C:\Users\Jesper\AppData\Local\Temp\cclZf3Mh.s:654    .text.tml_conv2d_dwconv2d:0000000000000308 .L0 
C:\Users\Jesper\AppData\Local\Temp\cclZf3Mh.s:656    .text.tml_conv2d_dwconv2d:000000000000030c .L0 
C:\Users\Jesper\AppData\Local\Temp\cclZf3Mh.s:658    .text.tml_conv2d_dwconv2d:0000000000000310 .L0 
C:\Users\Jesper\AppData\Local\Temp\cclZf3Mh.s:661    .text.tml_conv2d_dwconv2d:0000000000000312 .L0 
C:\Users\Jesper\AppData\Local\Temp\cclZf3Mh.s:662    .text.tml_conv2d_dwconv2d:0000000000000312 .L0 
C:\Users\Jesper\AppData\Local\Temp\cclZf3Mh.s:663    .text.tml_conv2d_dwconv2d:0000000000000312 .L0 
C:\Users\Jesper\AppData\Local\Temp\cclZf3Mh.s:665    .text.tml_conv2d_dwconv2d:0000000000000316 .L0 
GAS LISTING C:\Users\Jesper\AppData\Local\Temp\cclZf3Mh.s 			page 90


C:\Users\Jesper\AppData\Local\Temp\cclZf3Mh.s:667    .text.tml_conv2d_dwconv2d:000000000000031a .L0 
C:\Users\Jesper\AppData\Local\Temp\cclZf3Mh.s:669    .text.tml_conv2d_dwconv2d:000000000000031e .L0 
C:\Users\Jesper\AppData\Local\Temp\cclZf3Mh.s:672    .text.tml_conv2d_dwconv2d:0000000000000320 .L0 
C:\Users\Jesper\AppData\Local\Temp\cclZf3Mh.s:673    .text.tml_conv2d_dwconv2d:0000000000000320 .L0 
C:\Users\Jesper\AppData\Local\Temp\cclZf3Mh.s:675    .text.tml_conv2d_dwconv2d:0000000000000324 .L0 
C:\Users\Jesper\AppData\Local\Temp\cclZf3Mh.s:677    .text.tml_conv2d_dwconv2d:0000000000000328 .L0 
C:\Users\Jesper\AppData\Local\Temp\cclZf3Mh.s:680    .text.tml_conv2d_dwconv2d:000000000000032a .L0 
C:\Users\Jesper\AppData\Local\Temp\cclZf3Mh.s:681    .text.tml_conv2d_dwconv2d:000000000000032a .L0 
C:\Users\Jesper\AppData\Local\Temp\cclZf3Mh.s:682    .text.tml_conv2d_dwconv2d:000000000000032a .L0 
C:\Users\Jesper\AppData\Local\Temp\cclZf3Mh.s:684    .text.tml_conv2d_dwconv2d:000000000000032e .L0 
C:\Users\Jesper\AppData\Local\Temp\cclZf3Mh.s:686    .text.tml_conv2d_dwconv2d:0000000000000332 .L0 
C:\Users\Jesper\AppData\Local\Temp\cclZf3Mh.s:688    .text.tml_conv2d_dwconv2d:0000000000000336 .L0 
C:\Users\Jesper\AppData\Local\Temp\cclZf3Mh.s:691    .text.tml_conv2d_dwconv2d:0000000000000338 .L0 
C:\Users\Jesper\AppData\Local\Temp\cclZf3Mh.s:692    .text.tml_conv2d_dwconv2d:0000000000000338 .L0 
C:\Users\Jesper\AppData\Local\Temp\cclZf3Mh.s:694    .text.tml_conv2d_dwconv2d:000000000000033c .L0 
C:\Users\Jesper\AppData\Local\Temp\cclZf3Mh.s:696    .text.tml_conv2d_dwconv2d:0000000000000340 .L0 
C:\Users\Jesper\AppData\Local\Temp\cclZf3Mh.s:699    .text.tml_conv2d_dwconv2d:0000000000000342 .L0 
C:\Users\Jesper\AppData\Local\Temp\cclZf3Mh.s:700    .text.tml_conv2d_dwconv2d:0000000000000342 .L0 
C:\Users\Jesper\AppData\Local\Temp\cclZf3Mh.s:701    .text.tml_conv2d_dwconv2d:0000000000000342 .L0 
C:\Users\Jesper\AppData\Local\Temp\cclZf3Mh.s:703    .text.tml_conv2d_dwconv2d:0000000000000346 .L0 
C:\Users\Jesper\AppData\Local\Temp\cclZf3Mh.s:705    .text.tml_conv2d_dwconv2d:000000000000034a .L0 
C:\Users\Jesper\AppData\Local\Temp\cclZf3Mh.s:707    .text.tml_conv2d_dwconv2d:000000000000034e .L0 
C:\Users\Jesper\AppData\Local\Temp\cclZf3Mh.s:710    .text.tml_conv2d_dwconv2d:0000000000000350 .L0 
C:\Users\Jesper\AppData\Local\Temp\cclZf3Mh.s:711    .text.tml_conv2d_dwconv2d:0000000000000350 .L0 
C:\Users\Jesper\AppData\Local\Temp\cclZf3Mh.s:714    .text.tml_conv2d_dwconv2d:0000000000000352 .L0 
C:\Users\Jesper\AppData\Local\Temp\cclZf3Mh.s:718    .text.tml_conv2d_dwconv2d:0000000000000354 .L0 
C:\Users\Jesper\AppData\Local\Temp\cclZf3Mh.s:720    .text.tml_conv2d_dwconv2d:0000000000000358 .L0 
C:\Users\Jesper\AppData\Local\Temp\cclZf3Mh.s:721    .text.tml_conv2d_dwconv2d:0000000000000358 .L0 
C:\Users\Jesper\AppData\Local\Temp\cclZf3Mh.s:724    .text.tml_conv2d_dwconv2d:0000000000000360 .L0 
C:\Users\Jesper\AppData\Local\Temp\cclZf3Mh.s:727    .text.tml_conv2d_dwconv2d:0000000000000368 .L0 
C:\Users\Jesper\AppData\Local\Temp\cclZf3Mh.s:730    .text.tml_conv2d_dwconv2d:0000000000000370 .L0 
C:\Users\Jesper\AppData\Local\Temp\cclZf3Mh.s:732    .text.tml_conv2d_dwconv2d:0000000000000374 .L0 
C:\Users\Jesper\AppData\Local\Temp\cclZf3Mh.s:735    .text.tml_conv2d_dwconv2d:0000000000000376 .L0 
C:\Users\Jesper\AppData\Local\Temp\cclZf3Mh.s:737    .text.tml_conv2d_dwconv2d:000000000000037a .L0 
C:\Users\Jesper\AppData\Local\Temp\cclZf3Mh.s:740    .text.tml_conv2d_dwconv2d:000000000000037c .L0 
C:\Users\Jesper\AppData\Local\Temp\cclZf3Mh.s:741    .text.tml_conv2d_dwconv2d:000000000000037c .L0 
C:\Users\Jesper\AppData\Local\Temp\cclZf3Mh.s:746    .text.tml_conv2d_dwconv2d:0000000000000380 .L0 
C:\Users\Jesper\AppData\Local\Temp\cclZf3Mh.s:747    .text.tml_conv2d_dwconv2d:0000000000000380 .L0 
C:\Users\Jesper\AppData\Local\Temp\cclZf3Mh.s:749    .text.tml_conv2d_dwconv2d:0000000000000382 .L0 
C:\Users\Jesper\AppData\Local\Temp\cclZf3Mh.s:750    .text.tml_conv2d_dwconv2d:0000000000000382 .L0 
C:\Users\Jesper\AppData\Local\Temp\cclZf3Mh.s:756    .text.tml_conv2d_dwconv2d:0000000000000384 .L0 
C:\Users\Jesper\AppData\Local\Temp\cclZf3Mh.s:761    .text.tml_conv2d_dwconv2d:0000000000000384 .L0 
C:\Users\Jesper\AppData\Local\Temp\cclZf3Mh.s:768    .text.tml_conv2d_dwconv2d:0000000000000384 .L0 
C:\Users\Jesper\AppData\Local\Temp\cclZf3Mh.s:769    .text.tml_conv2d_dwconv2d:0000000000000384 .L0 
C:\Users\Jesper\AppData\Local\Temp\cclZf3Mh.s:773    .text.tml_conv2d_dwconv2d:000000000000038c .L0 
C:\Users\Jesper\AppData\Local\Temp\cclZf3Mh.s:782    .text.tml_conv2d_dwconv2d:0000000000000390 .L0 
C:\Users\Jesper\AppData\Local\Temp\cclZf3Mh.s:783    .text.tml_conv2d_dwconv2d:0000000000000390 .L0 
C:\Users\Jesper\AppData\Local\Temp\cclZf3Mh.s:784    .text.tml_conv2d_dwconv2d:0000000000000390 .L0 
C:\Users\Jesper\AppData\Local\Temp\cclZf3Mh.s:785    .text.tml_conv2d_dwconv2d:0000000000000390 .L0 
C:\Users\Jesper\AppData\Local\Temp\cclZf3Mh.s:786    .text.tml_conv2d_dwconv2d:0000000000000390 .L0 
C:\Users\Jesper\AppData\Local\Temp\cclZf3Mh.s:789    .text.tml_conv2d_dwconv2d:0000000000000394 .L0 
C:\Users\Jesper\AppData\Local\Temp\cclZf3Mh.s:791    .text.tml_conv2d_dwconv2d:0000000000000396 .L0 
C:\Users\Jesper\AppData\Local\Temp\cclZf3Mh.s:793    .text.tml_conv2d_dwconv2d:0000000000000398 .L0 
C:\Users\Jesper\AppData\Local\Temp\cclZf3Mh.s:797    .text.tml_conv2d_dwconv2d:000000000000039a .L0 
C:\Users\Jesper\AppData\Local\Temp\cclZf3Mh.s:802    .text.tml_conv2d_dwconv2d:00000000000003a2 .L0 
C:\Users\Jesper\AppData\Local\Temp\cclZf3Mh.s:805    .text.tml_conv2d_dwconv2d:00000000000003a6 .L0 
C:\Users\Jesper\AppData\Local\Temp\cclZf3Mh.s:808    .text.tml_conv2d_dwconv2d:00000000000003a6 .L0 
GAS LISTING C:\Users\Jesper\AppData\Local\Temp\cclZf3Mh.s 			page 91


C:\Users\Jesper\AppData\Local\Temp\cclZf3Mh.s:812    .text.tml_conv2d_dwconv2d:00000000000003a6 .L0 
C:\Users\Jesper\AppData\Local\Temp\cclZf3Mh.s:813    .text.tml_conv2d_dwconv2d:00000000000003a6 .L0 
C:\Users\Jesper\AppData\Local\Temp\cclZf3Mh.s:814    .text.tml_conv2d_dwconv2d:00000000000003a6 .L0 
C:\Users\Jesper\AppData\Local\Temp\cclZf3Mh.s:815    .text.tml_conv2d_dwconv2d:00000000000003a6 .L0 
C:\Users\Jesper\AppData\Local\Temp\cclZf3Mh.s:816    .text.tml_conv2d_dwconv2d:00000000000003a6 .L0 
C:\Users\Jesper\AppData\Local\Temp\cclZf3Mh.s:818    .text.tml_conv2d_dwconv2d:00000000000003aa .L0 
C:\Users\Jesper\AppData\Local\Temp\cclZf3Mh.s:823    .text.tml_conv2d_dwconv2d:00000000000003b4 .L0 
C:\Users\Jesper\AppData\Local\Temp\cclZf3Mh.s:827    .text.tml_conv2d_dwconv2d:00000000000003be .L0 
C:\Users\Jesper\AppData\Local\Temp\cclZf3Mh.s:830    .text.tml_conv2d_dwconv2d:00000000000003c2 .L0 
C:\Users\Jesper\AppData\Local\Temp\cclZf3Mh.s:833    .text.tml_conv2d_dwconv2d:00000000000003c4 .L0 
C:\Users\Jesper\AppData\Local\Temp\cclZf3Mh.s:839    .text.tml_conv2d_dwconv2d:00000000000003ce .L0 
C:\Users\Jesper\AppData\Local\Temp\cclZf3Mh.s:840    .text.tml_conv2d_dwconv2d:00000000000003ce .L0 
C:\Users\Jesper\AppData\Local\Temp\cclZf3Mh.s:846    .text.tml_conv2d_dwconv2d:00000000000003d2 .L0 
C:\Users\Jesper\AppData\Local\Temp\cclZf3Mh.s:852    .text.tml_conv2d_dwconv2d:00000000000003d4 .L0 
C:\Users\Jesper\AppData\Local\Temp\cclZf3Mh.s:857    .text.tml_conv2d_dwconv2d:00000000000003de .L0 
C:\Users\Jesper\AppData\Local\Temp\cclZf3Mh.s:862    .text.tml_conv2d_dwconv2d:00000000000003e0 .L0 
C:\Users\Jesper\AppData\Local\Temp\cclZf3Mh.s:870    .text.tml_conv2d_dwconv2d:00000000000003e4 .L0 
C:\Users\Jesper\AppData\Local\Temp\cclZf3Mh.s:877    .text.tml_conv2d_dwconv2d:00000000000003f8 .L0 
C:\Users\Jesper\AppData\Local\Temp\cclZf3Mh.s:893    .text.tml_conv2d_dwconv2d:0000000000000404 .L0 
C:\Users\Jesper\AppData\Local\Temp\cclZf3Mh.s:894    .text.tml_conv2d_dwconv2d:0000000000000404 .L0 
C:\Users\Jesper\AppData\Local\Temp\cclZf3Mh.s:895    .text.tml_conv2d_dwconv2d:0000000000000404 .L0 
C:\Users\Jesper\AppData\Local\Temp\cclZf3Mh.s:902    .text.tml_conv2d_dwconv2d:0000000000000408 .L0 
C:\Users\Jesper\AppData\Local\Temp\cclZf3Mh.s:903    .text.tml_conv2d_dwconv2d:0000000000000408 .L0 
C:\Users\Jesper\AppData\Local\Temp\cclZf3Mh.s:905    .text.tml_conv2d_dwconv2d:000000000000040c .L0 
C:\Users\Jesper\AppData\Local\Temp\cclZf3Mh.s:910    .text.tml_conv2d_dwconv2d:0000000000000414 .L0 
C:\Users\Jesper\AppData\Local\Temp\cclZf3Mh.s:912    .text.tml_conv2d_dwconv2d:0000000000000418 .L0 
C:\Users\Jesper\AppData\Local\Temp\cclZf3Mh.s:914    .text.tml_conv2d_dwconv2d:000000000000041c .L0 
C:\Users\Jesper\AppData\Local\Temp\cclZf3Mh.s:917    .text.tml_conv2d_dwconv2d:000000000000041e .L0 
C:\Users\Jesper\AppData\Local\Temp\cclZf3Mh.s:918    .text.tml_conv2d_dwconv2d:000000000000041e .L0 
C:\Users\Jesper\AppData\Local\Temp\cclZf3Mh.s:919    .text.tml_conv2d_dwconv2d:000000000000041e .L0 
C:\Users\Jesper\AppData\Local\Temp\cclZf3Mh.s:921    .text.tml_conv2d_dwconv2d:0000000000000422 .L0 
C:\Users\Jesper\AppData\Local\Temp\cclZf3Mh.s:923    .text.tml_conv2d_dwconv2d:0000000000000426 .L0 
C:\Users\Jesper\AppData\Local\Temp\cclZf3Mh.s:925    .text.tml_conv2d_dwconv2d:000000000000042a .L0 
C:\Users\Jesper\AppData\Local\Temp\cclZf3Mh.s:928    .text.tml_conv2d_dwconv2d:000000000000042c .L0 
C:\Users\Jesper\AppData\Local\Temp\cclZf3Mh.s:929    .text.tml_conv2d_dwconv2d:000000000000042c .L0 
C:\Users\Jesper\AppData\Local\Temp\cclZf3Mh.s:930    .text.tml_conv2d_dwconv2d:000000000000042c .L0 
C:\Users\Jesper\AppData\Local\Temp\cclZf3Mh.s:932    .text.tml_conv2d_dwconv2d:0000000000000430 .L0 
C:\Users\Jesper\AppData\Local\Temp\cclZf3Mh.s:934    .text.tml_conv2d_dwconv2d:0000000000000434 .L0 
C:\Users\Jesper\AppData\Local\Temp\cclZf3Mh.s:936    .text.tml_conv2d_dwconv2d:0000000000000438 .L0 
C:\Users\Jesper\AppData\Local\Temp\cclZf3Mh.s:939    .text.tml_conv2d_dwconv2d:000000000000043a .L0 
C:\Users\Jesper\AppData\Local\Temp\cclZf3Mh.s:940    .text.tml_conv2d_dwconv2d:000000000000043a .L0 
C:\Users\Jesper\AppData\Local\Temp\cclZf3Mh.s:941    .text.tml_conv2d_dwconv2d:000000000000043a .L0 
C:\Users\Jesper\AppData\Local\Temp\cclZf3Mh.s:943    .text.tml_conv2d_dwconv2d:000000000000043e .L0 
C:\Users\Jesper\AppData\Local\Temp\cclZf3Mh.s:945    .text.tml_conv2d_dwconv2d:0000000000000442 .L0 
C:\Users\Jesper\AppData\Local\Temp\cclZf3Mh.s:947    .text.tml_conv2d_dwconv2d:0000000000000446 .L0 
C:\Users\Jesper\AppData\Local\Temp\cclZf3Mh.s:950    .text.tml_conv2d_dwconv2d:0000000000000448 .L0 
C:\Users\Jesper\AppData\Local\Temp\cclZf3Mh.s:951    .text.tml_conv2d_dwconv2d:0000000000000448 .L0 
C:\Users\Jesper\AppData\Local\Temp\cclZf3Mh.s:952    .text.tml_conv2d_dwconv2d:0000000000000448 .L0 
C:\Users\Jesper\AppData\Local\Temp\cclZf3Mh.s:954    .text.tml_conv2d_dwconv2d:000000000000044c .L0 
C:\Users\Jesper\AppData\Local\Temp\cclZf3Mh.s:956    .text.tml_conv2d_dwconv2d:0000000000000450 .L0 
C:\Users\Jesper\AppData\Local\Temp\cclZf3Mh.s:958    .text.tml_conv2d_dwconv2d:0000000000000454 .L0 
C:\Users\Jesper\AppData\Local\Temp\cclZf3Mh.s:961    .text.tml_conv2d_dwconv2d:0000000000000456 .L0 
C:\Users\Jesper\AppData\Local\Temp\cclZf3Mh.s:962    .text.tml_conv2d_dwconv2d:0000000000000456 .L0 
C:\Users\Jesper\AppData\Local\Temp\cclZf3Mh.s:963    .text.tml_conv2d_dwconv2d:0000000000000456 .L0 
C:\Users\Jesper\AppData\Local\Temp\cclZf3Mh.s:965    .text.tml_conv2d_dwconv2d:000000000000045a .L0 
C:\Users\Jesper\AppData\Local\Temp\cclZf3Mh.s:967    .text.tml_conv2d_dwconv2d:000000000000045e .L0 
C:\Users\Jesper\AppData\Local\Temp\cclZf3Mh.s:969    .text.tml_conv2d_dwconv2d:0000000000000462 .L0 
GAS LISTING C:\Users\Jesper\AppData\Local\Temp\cclZf3Mh.s 			page 92


C:\Users\Jesper\AppData\Local\Temp\cclZf3Mh.s:972    .text.tml_conv2d_dwconv2d:0000000000000464 .L0 
C:\Users\Jesper\AppData\Local\Temp\cclZf3Mh.s:973    .text.tml_conv2d_dwconv2d:0000000000000464 .L0 
C:\Users\Jesper\AppData\Local\Temp\cclZf3Mh.s:974    .text.tml_conv2d_dwconv2d:0000000000000464 .L0 
C:\Users\Jesper\AppData\Local\Temp\cclZf3Mh.s:976    .text.tml_conv2d_dwconv2d:0000000000000468 .L0 
C:\Users\Jesper\AppData\Local\Temp\cclZf3Mh.s:978    .text.tml_conv2d_dwconv2d:000000000000046c .L0 
C:\Users\Jesper\AppData\Local\Temp\cclZf3Mh.s:980    .text.tml_conv2d_dwconv2d:0000000000000470 .L0 
C:\Users\Jesper\AppData\Local\Temp\cclZf3Mh.s:983    .text.tml_conv2d_dwconv2d:0000000000000472 .L0 
C:\Users\Jesper\AppData\Local\Temp\cclZf3Mh.s:984    .text.tml_conv2d_dwconv2d:0000000000000472 .L0 
C:\Users\Jesper\AppData\Local\Temp\cclZf3Mh.s:985    .text.tml_conv2d_dwconv2d:0000000000000472 .L0 
C:\Users\Jesper\AppData\Local\Temp\cclZf3Mh.s:987    .text.tml_conv2d_dwconv2d:0000000000000476 .L0 
C:\Users\Jesper\AppData\Local\Temp\cclZf3Mh.s:989    .text.tml_conv2d_dwconv2d:000000000000047a .L0 
C:\Users\Jesper\AppData\Local\Temp\cclZf3Mh.s:992    .text.tml_conv2d_dwconv2d:000000000000047c .L0 
C:\Users\Jesper\AppData\Local\Temp\cclZf3Mh.s:996    .text.tml_conv2d_dwconv2d:000000000000047e .L0 
C:\Users\Jesper\AppData\Local\Temp\cclZf3Mh.s:997    .text.tml_conv2d_dwconv2d:000000000000047e .L0 
C:\Users\Jesper\AppData\Local\Temp\cclZf3Mh.s:999    .text.tml_conv2d_dwconv2d:0000000000000482 .L0 
C:\Users\Jesper\AppData\Local\Temp\cclZf3Mh.s:1001   .text.tml_conv2d_dwconv2d:0000000000000486 .L0 
C:\Users\Jesper\AppData\Local\Temp\cclZf3Mh.s:1003   .text.tml_conv2d_dwconv2d:000000000000048a .L0 
C:\Users\Jesper\AppData\Local\Temp\cclZf3Mh.s:1005   .text.tml_conv2d_dwconv2d:000000000000048e .L0 
C:\Users\Jesper\AppData\Local\Temp\cclZf3Mh.s:1008   .text.tml_conv2d_dwconv2d:0000000000000490 .L0 
C:\Users\Jesper\AppData\Local\Temp\cclZf3Mh.s:1010   .text.tml_conv2d_dwconv2d:0000000000000494 .L0 
C:\Users\Jesper\AppData\Local\Temp\cclZf3Mh.s:1021   .text.tml_conv2d_dwconv2d:0000000000000498 .L0 
C:\Users\Jesper\AppData\Local\Temp\cclZf3Mh.s:1022   .text.tml_conv2d_dwconv2d:0000000000000498 .L0 
C:\Users\Jesper\AppData\Local\Temp\cclZf3Mh.s:1033   .text.tml_conv2d_dwconv2d:00000000000004ae .L0 
C:\Users\Jesper\AppData\Local\Temp\cclZf3Mh.s:1034   .text.tml_conv2d_dwconv2d:00000000000004ae .L0 
C:\Users\Jesper\AppData\Local\Temp\cclZf3Mh.s:1039   .text.tml_conv2d_dwconv2d:00000000000004be .L0 
C:\Users\Jesper\AppData\Local\Temp\cclZf3Mh.s:1040   .text.tml_conv2d_dwconv2d:00000000000004be .L0 
C:\Users\Jesper\AppData\Local\Temp\cclZf3Mh.s:1062   .text.tml_conv2d_dwconv2d:00000000000004de .L0 
C:\Users\Jesper\AppData\Local\Temp\cclZf3Mh.s:1063   .text.tml_conv2d_dwconv2d:00000000000004de .L0 
C:\Users\Jesper\AppData\Local\Temp\cclZf3Mh.s:1066   .text.tml_conv2d_dwconv2d:00000000000004e2 .L0 
C:\Users\Jesper\AppData\Local\Temp\cclZf3Mh.s:1067   .text.tml_conv2d_dwconv2d:00000000000004e2 .L0 
C:\Users\Jesper\AppData\Local\Temp\cclZf3Mh.s:1068   .text.tml_conv2d_dwconv2d:00000000000004e2 .L0 
C:\Users\Jesper\AppData\Local\Temp\cclZf3Mh.s:1071   .text.tml_conv2d_dwconv2d:00000000000004e4 .L0 
C:\Users\Jesper\AppData\Local\Temp\cclZf3Mh.s:1077   .text.tml_conv2d_dwconv2d:00000000000004e8 .L0 
C:\Users\Jesper\AppData\Local\Temp\cclZf3Mh.s:1080   .text.tml_conv2d_dwconv2d:00000000000004ec .L0 
C:\Users\Jesper\AppData\Local\Temp\cclZf3Mh.s:1085   .text.tml_conv2d_dwconv2d:00000000000004f4 .L0 
C:\Users\Jesper\AppData\Local\Temp\cclZf3Mh.s:1086   .text.tml_conv2d_dwconv2d:00000000000004f4 .L0 
C:\Users\Jesper\AppData\Local\Temp\cclZf3Mh.s:1088   .text.tml_conv2d_dwconv2d:00000000000004f6 .L0 
C:\Users\Jesper\AppData\Local\Temp\cclZf3Mh.s:1090   .text.tml_conv2d_dwconv2d:00000000000004fa .L0 
C:\Users\Jesper\AppData\Local\Temp\cclZf3Mh.s:1093   .text.tml_conv2d_dwconv2d:00000000000004fc .L0 
C:\Users\Jesper\AppData\Local\Temp\cclZf3Mh.s:1100   .text.tml_conv2d_dwconv2d:0000000000000500 .L0 
C:\Users\Jesper\AppData\Local\Temp\cclZf3Mh.s:1101   .text.tml_conv2d_dwconv2d:0000000000000500 .L0 
C:\Users\Jesper\AppData\Local\Temp\cclZf3Mh.s:1106   .text.tml_conv2d_dwconv2d:0000000000000506 .L0 
C:\Users\Jesper\AppData\Local\Temp\cclZf3Mh.s:1108   .text.tml_conv2d_dwconv2d:0000000000000506 .L0 
C:\Users\Jesper\AppData\Local\Temp\cclZf3Mh.s:1113   .text.tml_conv2d_dwconv2d:0000000000000506 .L0 
C:\Users\Jesper\AppData\Local\Temp\cclZf3Mh.s:1114   .text.tml_conv2d_dwconv2d:0000000000000506 .L0 
C:\Users\Jesper\AppData\Local\Temp\cclZf3Mh.s:1130   .text.tml_conv2d_dwconv2d:000000000000051a .L0 
C:\Users\Jesper\AppData\Local\Temp\cclZf3Mh.s:1143   .text.tml_conv2d_dwconv2d:0000000000000528 .L0 
C:\Users\Jesper\AppData\Local\Temp\cclZf3Mh.s:1153   .text.tml_conv2d_dwconv2d:000000000000052a .L0 
C:\Users\Jesper\AppData\Local\Temp\cclZf3Mh.s:1165   .text.tml_conv2d_dwconv2d:000000000000052c .L0 
C:\Users\Jesper\AppData\Local\Temp\cclZf3Mh.s:1167   .text.tml_conv2d_dwconv2d:000000000000052e .L0 
C:\Users\Jesper\AppData\Local\Temp\cclZf3Mh.s:1169   .text.tml_conv2d_dwconv2d:0000000000000530 .L0 
C:\Users\Jesper\AppData\Local\Temp\cclZf3Mh.s:1171   .text.tml_conv2d_dwconv2d:0000000000000534 .L0 
C:\Users\Jesper\AppData\Local\Temp\cclZf3Mh.s:1176   .text.tml_conv2d_dwconv2d:0000000000000538 .L0 
C:\Users\Jesper\AppData\Local\Temp\cclZf3Mh.s:1180   .text.tml_conv2d_dwconv2d:000000000000053a .L0 
C:\Users\Jesper\AppData\Local\Temp\cclZf3Mh.s:1181   .text.tml_conv2d_dwconv2d:000000000000053c .L0 
C:\Users\Jesper\AppData\Local\Temp\cclZf3Mh.s:1182   .text.tml_conv2d_dwconv2d:000000000000053c .L0 
C:\Users\Jesper\AppData\Local\Temp\cclZf3Mh.s:1184   .text.tml_conv2d_dwconv2d:000000000000053e .L0 
GAS LISTING C:\Users\Jesper\AppData\Local\Temp\cclZf3Mh.s 			page 93


C:\Users\Jesper\AppData\Local\Temp\cclZf3Mh.s:1186   .text.tml_conv2d_dwconv2d:0000000000000540 .L0 
C:\Users\Jesper\AppData\Local\Temp\cclZf3Mh.s:1188   .text.tml_conv2d_dwconv2d:0000000000000542 .L0 
C:\Users\Jesper\AppData\Local\Temp\cclZf3Mh.s:1190   .text.tml_conv2d_dwconv2d:0000000000000544 .L0 
C:\Users\Jesper\AppData\Local\Temp\cclZf3Mh.s:1192   .text.tml_conv2d_dwconv2d:0000000000000546 .L0 
C:\Users\Jesper\AppData\Local\Temp\cclZf3Mh.s:1194   .text.tml_conv2d_dwconv2d:0000000000000548 .L0 
C:\Users\Jesper\AppData\Local\Temp\cclZf3Mh.s:1196   .text.tml_conv2d_dwconv2d:000000000000054a .L0 
C:\Users\Jesper\AppData\Local\Temp\cclZf3Mh.s:1198   .text.tml_conv2d_dwconv2d:000000000000054c .L0 
C:\Users\Jesper\AppData\Local\Temp\cclZf3Mh.s:1200   .text.tml_conv2d_dwconv2d:000000000000054e .L0 
C:\Users\Jesper\AppData\Local\Temp\cclZf3Mh.s:1202   .text.tml_conv2d_dwconv2d:0000000000000550 .L0 
C:\Users\Jesper\AppData\Local\Temp\cclZf3Mh.s:1204   .text.tml_conv2d_dwconv2d:0000000000000552 .L0 
C:\Users\Jesper\AppData\Local\Temp\cclZf3Mh.s:1206   .text.tml_conv2d_dwconv2d:0000000000000554 .L0 
C:\Users\Jesper\AppData\Local\Temp\cclZf3Mh.s:1210   .text.tml_conv2d_dwconv2d:0000000000000558 .L0 
C:\Users\Jesper\AppData\Local\Temp\cclZf3Mh.s:1216   .text.tml_conv2d_dwconv2d:000000000000055a .L0 
C:\Users\Jesper\AppData\Local\Temp\cclZf3Mh.s:1223   .text.tml_conv2d_dwconv2d:000000000000055a .L0 
C:\Users\Jesper\AppData\Local\Temp\cclZf3Mh.s:1233   .text.tml_conv2d_dwconv2d:0000000000000564 .L0 
C:\Users\Jesper\AppData\Local\Temp\cclZf3Mh.s:1235   .text.tml_conv2d_dwconv2d:0000000000000564 .L0 
C:\Users\Jesper\AppData\Local\Temp\cclZf3Mh.s:1236   .text.tml_conv2d_dwconv2d:0000000000000564 .L0 
C:\Users\Jesper\AppData\Local\Temp\cclZf3Mh.s:1240   .text.tml_conv2d_dwconv2d:000000000000056a .L0 
C:\Users\Jesper\AppData\Local\Temp\cclZf3Mh.s:3395   .bss.sbuf:0000000000000000 sbuf
C:\Users\Jesper\AppData\Local\Temp\cclZf3Mh.s:1267   .text.tml_conv2d_dwconv2d:00000000000005ae .L0 
C:\Users\Jesper\AppData\Local\Temp\cclZf3Mh.s:1269   .text.tml_conv2d_dwconv2d:00000000000005b0 .L0 
C:\Users\Jesper\AppData\Local\Temp\cclZf3Mh.s:1271   .text.tml_conv2d_dwconv2d:00000000000005b2 .L0 
C:\Users\Jesper\AppData\Local\Temp\cclZf3Mh.s:1273   .text.tml_conv2d_dwconv2d:00000000000005b6 .L0 
C:\Users\Jesper\AppData\Local\Temp\cclZf3Mh.s:1277   .text.tml_conv2d_dwconv2d:00000000000005ba .L0 
C:\Users\Jesper\AppData\Local\Temp\cclZf3Mh.s:1296   .text.tml_conv2d_dwconv2d:00000000000005ce .L0 
C:\Users\Jesper\AppData\Local\Temp\cclZf3Mh.s:1297   .text.tml_conv2d_dwconv2d:00000000000005ce .L0 
C:\Users\Jesper\AppData\Local\Temp\cclZf3Mh.s:1298   .text.tml_conv2d_dwconv2d:00000000000005ce .L0 
C:\Users\Jesper\AppData\Local\Temp\cclZf3Mh.s:1299   .text.tml_conv2d_dwconv2d:00000000000005ce .L0 
C:\Users\Jesper\AppData\Local\Temp\cclZf3Mh.s:1301   .text.tml_conv2d_dwconv2d:00000000000005d2 .L0 
C:\Users\Jesper\AppData\Local\Temp\cclZf3Mh.s:1304   .text.tml_conv2d_dwconv2d:00000000000005d6 .L0 
C:\Users\Jesper\AppData\Local\Temp\cclZf3Mh.s:1307   .text.tml_conv2d_dwconv2d:00000000000005de .L0 
C:\Users\Jesper\AppData\Local\Temp\cclZf3Mh.s:1309   .text.tml_conv2d_dwconv2d:00000000000005e0 .L0 
C:\Users\Jesper\AppData\Local\Temp\cclZf3Mh.s:1311   .text.tml_conv2d_dwconv2d:00000000000005e2 .L0 
C:\Users\Jesper\AppData\Local\Temp\cclZf3Mh.s:1313   .text.tml_conv2d_dwconv2d:00000000000005e6 .L0 
C:\Users\Jesper\AppData\Local\Temp\cclZf3Mh.s:1316   .text.tml_conv2d_dwconv2d:00000000000005ec .L0 
C:\Users\Jesper\AppData\Local\Temp\cclZf3Mh.s:1318   .text.tml_conv2d_dwconv2d:00000000000005ee .L0 
C:\Users\Jesper\AppData\Local\Temp\cclZf3Mh.s:1321   .text.tml_conv2d_dwconv2d:00000000000005f6 .L0 
C:\Users\Jesper\AppData\Local\Temp\cclZf3Mh.s:1324   .text.tml_conv2d_dwconv2d:00000000000005f8 .L0 
C:\Users\Jesper\AppData\Local\Temp\cclZf3Mh.s:1330   .text.tml_conv2d_dwconv2d:0000000000000608 .L0 
C:\Users\Jesper\AppData\Local\Temp\cclZf3Mh.s:1337   .text.tml_conv2d_dwconv2d:0000000000000612 .L0 
C:\Users\Jesper\AppData\Local\Temp\cclZf3Mh.s:1340   .text.tml_conv2d_dwconv2d:0000000000000614 .L0 
C:\Users\Jesper\AppData\Local\Temp\cclZf3Mh.s:1344   .text.tml_conv2d_dwconv2d:0000000000000616 .L0 
C:\Users\Jesper\AppData\Local\Temp\cclZf3Mh.s:1351   .text.tml_conv2d_dwconv2d:000000000000061c .L0 
C:\Users\Jesper\AppData\Local\Temp\cclZf3Mh.s:1352   .text.tml_conv2d_dwconv2d:000000000000061c .L0 
C:\Users\Jesper\AppData\Local\Temp\cclZf3Mh.s:1353   .text.tml_conv2d_dwconv2d:000000000000061c .L0 
C:\Users\Jesper\AppData\Local\Temp\cclZf3Mh.s:1363   .text.tml_conv2d_dwconv2d:0000000000000624 .L0 
C:\Users\Jesper\AppData\Local\Temp\cclZf3Mh.s:1381   .text.tml_conv2d_dwconv2d:0000000000000636 .L0 
C:\Users\Jesper\AppData\Local\Temp\cclZf3Mh.s:1382   .text.tml_conv2d_dwconv2d:0000000000000636 .L0 
C:\Users\Jesper\AppData\Local\Temp\cclZf3Mh.s:1386   .text.tml_conv2d_dwconv2d:000000000000063e .L0 
C:\Users\Jesper\AppData\Local\Temp\cclZf3Mh.s:1390   .text.tml_conv2d_dwconv2d:0000000000000646 .L0 
C:\Users\Jesper\AppData\Local\Temp\cclZf3Mh.s:1392   .text.tml_conv2d_dwconv2d:000000000000064a .L0 
C:\Users\Jesper\AppData\Local\Temp\cclZf3Mh.s:1395   .text.tml_conv2d_dwconv2d:000000000000064c .L0 
C:\Users\Jesper\AppData\Local\Temp\cclZf3Mh.s:1399   .text.tml_conv2d_dwconv2d:0000000000000650 .L0 
C:\Users\Jesper\AppData\Local\Temp\cclZf3Mh.s:1403   .text.tml_conv2d_dwconv2d:0000000000000654 .L0 
C:\Users\Jesper\AppData\Local\Temp\cclZf3Mh.s:1404   .text.tml_conv2d_dwconv2d:0000000000000654 .L0 
C:\Users\Jesper\AppData\Local\Temp\cclZf3Mh.s:1409   .text.tml_conv2d_dwconv2d:0000000000000658 .L0 
C:\Users\Jesper\AppData\Local\Temp\cclZf3Mh.s:1411   .text.tml_conv2d_dwconv2d:000000000000065c .L0 
GAS LISTING C:\Users\Jesper\AppData\Local\Temp\cclZf3Mh.s 			page 94


C:\Users\Jesper\AppData\Local\Temp\cclZf3Mh.s:1414   .text.tml_conv2d_dwconv2d:0000000000000660 .L0 
C:\Users\Jesper\AppData\Local\Temp\cclZf3Mh.s:1423   .text.tml_conv2d_dwconv2d:0000000000000666 .L0 
C:\Users\Jesper\AppData\Local\Temp\cclZf3Mh.s:1432   .text.tml_conv2d_dwconv2d:000000000000066a .L0 
C:\Users\Jesper\AppData\Local\Temp\cclZf3Mh.s:1433   .text.tml_conv2d_dwconv2d:000000000000066a .L0 
C:\Users\Jesper\AppData\Local\Temp\cclZf3Mh.s:1434   .text.tml_conv2d_dwconv2d:000000000000066a .L0 
C:\Users\Jesper\AppData\Local\Temp\cclZf3Mh.s:1435   .text.tml_conv2d_dwconv2d:000000000000066a .L0 
C:\Users\Jesper\AppData\Local\Temp\cclZf3Mh.s:1439   .text.tml_conv2d_dwconv2d:0000000000000670 .L0 
C:\Users\Jesper\AppData\Local\Temp\cclZf3Mh.s:1441   .text.tml_conv2d_dwconv2d:0000000000000674 .L0 
C:\Users\Jesper\AppData\Local\Temp\cclZf3Mh.s:1444   .text.tml_conv2d_dwconv2d:0000000000000678 .L0 
C:\Users\Jesper\AppData\Local\Temp\cclZf3Mh.s:1445   .text.tml_conv2d_dwconv2d:0000000000000678 .L0 
C:\Users\Jesper\AppData\Local\Temp\cclZf3Mh.s:1451   .text.tml_conv2d_dwconv2d:0000000000000680 .L0 
C:\Users\Jesper\AppData\Local\Temp\cclZf3Mh.s:1452   .text.tml_conv2d_dwconv2d:0000000000000680 .L0 
C:\Users\Jesper\AppData\Local\Temp\cclZf3Mh.s:1454   .text.tml_conv2d_dwconv2d:0000000000000684 .L0 
C:\Users\Jesper\AppData\Local\Temp\cclZf3Mh.s:1459   .text.tml_conv2d_dwconv2d:000000000000068a .L0 
C:\Users\Jesper\AppData\Local\Temp\cclZf3Mh.s:1460   .text.tml_conv2d_dwconv2d:000000000000068a .L0 
C:\Users\Jesper\AppData\Local\Temp\cclZf3Mh.s:1461   .text.tml_conv2d_dwconv2d:000000000000068a .L0 
C:\Users\Jesper\AppData\Local\Temp\cclZf3Mh.s:1462   .text.tml_conv2d_dwconv2d:000000000000068a .L0 
C:\Users\Jesper\AppData\Local\Temp\cclZf3Mh.s:1463   .text.tml_conv2d_dwconv2d:000000000000068a .L0 
C:\Users\Jesper\AppData\Local\Temp\cclZf3Mh.s:1472   .text.tml_conv2d_dwconv2d:000000000000069e .L0 
C:\Users\Jesper\AppData\Local\Temp\cclZf3Mh.s:1473   .text.tml_conv2d_dwconv2d:000000000000069e .L0 
C:\Users\Jesper\AppData\Local\Temp\cclZf3Mh.s:1474   .text.tml_conv2d_dwconv2d:000000000000069e .L0 
C:\Users\Jesper\AppData\Local\Temp\cclZf3Mh.s:1477   .text.tml_conv2d_dwconv2d:00000000000006a0 .L0 
C:\Users\Jesper\AppData\Local\Temp\cclZf3Mh.s:1480   .text.tml_conv2d_dwconv2d:00000000000006a2 .L0 
C:\Users\Jesper\AppData\Local\Temp\cclZf3Mh.s:1484   .text.tml_conv2d_dwconv2d:00000000000006a4 .L0 
C:\Users\Jesper\AppData\Local\Temp\cclZf3Mh.s:1490   .text.tml_conv2d_dwconv2d:00000000000006ae .L0 
C:\Users\Jesper\AppData\Local\Temp\cclZf3Mh.s:1497   .text.tml_conv2d_dwconv2d:00000000000006b2 .L0 
C:\Users\Jesper\AppData\Local\Temp\cclZf3Mh.s:1498   .text.tml_conv2d_dwconv2d:00000000000006b2 .L0 
C:\Users\Jesper\AppData\Local\Temp\cclZf3Mh.s:1499   .text.tml_conv2d_dwconv2d:00000000000006b2 .L0 
C:\Users\Jesper\AppData\Local\Temp\cclZf3Mh.s:1502   .text.tml_conv2d_dwconv2d:00000000000006b8 .L0 
C:\Users\Jesper\AppData\Local\Temp\cclZf3Mh.s:1506   .text.tml_conv2d_dwconv2d:00000000000006c0 .L0 
C:\Users\Jesper\AppData\Local\Temp\cclZf3Mh.s:1509   .text.tml_conv2d_dwconv2d:00000000000006c4 .L0 
C:\Users\Jesper\AppData\Local\Temp\cclZf3Mh.s:1513   .text.tml_conv2d_dwconv2d:00000000000006c6 .L0 
C:\Users\Jesper\AppData\Local\Temp\cclZf3Mh.s:1518   .text.tml_conv2d_dwconv2d:00000000000006ca .L0 
C:\Users\Jesper\AppData\Local\Temp\cclZf3Mh.s:1522   .text.tml_conv2d_dwconv2d:00000000000006d0 .L0 
C:\Users\Jesper\AppData\Local\Temp\cclZf3Mh.s:1529   .text.tml_conv2d_dwconv2d:00000000000006d6 .L0 
C:\Users\Jesper\AppData\Local\Temp\cclZf3Mh.s:1533   .text.tml_conv2d_dwconv2d:00000000000006da .L0 
C:\Users\Jesper\AppData\Local\Temp\cclZf3Mh.s:1534   .text.tml_conv2d_dwconv2d:00000000000006da .L0 
C:\Users\Jesper\AppData\Local\Temp\cclZf3Mh.s:1539   .text.tml_conv2d_dwconv2d:00000000000006de .L0 
C:\Users\Jesper\AppData\Local\Temp\cclZf3Mh.s:1541   .text.tml_conv2d_dwconv2d:00000000000006e2 .L0 
C:\Users\Jesper\AppData\Local\Temp\cclZf3Mh.s:1544   .text.tml_conv2d_dwconv2d:00000000000006e6 .L0 
C:\Users\Jesper\AppData\Local\Temp\cclZf3Mh.s:1554   .text.tml_conv2d_dwconv2d:00000000000006ec .L0 
C:\Users\Jesper\AppData\Local\Temp\cclZf3Mh.s:1563   .text.tml_conv2d_dwconv2d:00000000000006f0 .L0 
C:\Users\Jesper\AppData\Local\Temp\cclZf3Mh.s:1568   .text.tml_conv2d_dwconv2d:00000000000006fa .L0 
C:\Users\Jesper\AppData\Local\Temp\cclZf3Mh.s:1570   .text.tml_conv2d_dwconv2d:00000000000006fc .L0 
C:\Users\Jesper\AppData\Local\Temp\cclZf3Mh.s:1576   .text.tml_conv2d_dwconv2d:0000000000000704 .L0 
C:\Users\Jesper\AppData\Local\Temp\cclZf3Mh.s:1579   .text.tml_conv2d_dwconv2d:000000000000070a .L0 
C:\Users\Jesper\AppData\Local\Temp\cclZf3Mh.s:1586   .text.tml_conv2d_dwconv2d:0000000000000714 .L0 
C:\Users\Jesper\AppData\Local\Temp\cclZf3Mh.s:1588   .text.tml_conv2d_dwconv2d:0000000000000714 .L0 
C:\Users\Jesper\AppData\Local\Temp\cclZf3Mh.s:1589   .text.tml_conv2d_dwconv2d:0000000000000714 .L0 
C:\Users\Jesper\AppData\Local\Temp\cclZf3Mh.s:1608   .text.tml_conv2d_dwconv2d:0000000000000728 .L0 
C:\Users\Jesper\AppData\Local\Temp\cclZf3Mh.s:1611   .text.tml_conv2d_dwconv2d:0000000000000728 .L0 
C:\Users\Jesper\AppData\Local\Temp\cclZf3Mh.s:1612   .text.tml_conv2d_dwconv2d:0000000000000728 .L0 
C:\Users\Jesper\AppData\Local\Temp\cclZf3Mh.s:1615   .text.tml_conv2d_dwconv2d:0000000000000728 .L0 
C:\Users\Jesper\AppData\Local\Temp\cclZf3Mh.s:1619   .text.tml_conv2d_dwconv2d:0000000000000728 .L0 
C:\Users\Jesper\AppData\Local\Temp\cclZf3Mh.s:1620   .text.tml_conv2d_dwconv2d:0000000000000728 .L0 
C:\Users\Jesper\AppData\Local\Temp\cclZf3Mh.s:1621   .text.tml_conv2d_dwconv2d:0000000000000728 .L0 
C:\Users\Jesper\AppData\Local\Temp\cclZf3Mh.s:1627   .text.tml_conv2d_dwconv2d:0000000000000728 .L0 
GAS LISTING C:\Users\Jesper\AppData\Local\Temp\cclZf3Mh.s 			page 95


C:\Users\Jesper\AppData\Local\Temp\cclZf3Mh.s:1628   .text.tml_conv2d_dwconv2d:0000000000000728 .L0 
C:\Users\Jesper\AppData\Local\Temp\cclZf3Mh.s:1630   .text.tml_conv2d_dwconv2d:000000000000072c .L0 
C:\Users\Jesper\AppData\Local\Temp\cclZf3Mh.s:1632   .text.tml_conv2d_dwconv2d:0000000000000730 .L0 
C:\Users\Jesper\AppData\Local\Temp\cclZf3Mh.s:1634   .text.tml_conv2d_dwconv2d:0000000000000734 .L0 
C:\Users\Jesper\AppData\Local\Temp\cclZf3Mh.s:1636   .text.tml_conv2d_dwconv2d:0000000000000738 .L0 
C:\Users\Jesper\AppData\Local\Temp\cclZf3Mh.s:1638   .text.tml_conv2d_dwconv2d:000000000000073c .L0 
C:\Users\Jesper\AppData\Local\Temp\cclZf3Mh.s:1640   .text.tml_conv2d_dwconv2d:0000000000000740 .L0 
C:\Users\Jesper\AppData\Local\Temp\cclZf3Mh.s:1642   .text.tml_conv2d_dwconv2d:0000000000000744 .L0 
C:\Users\Jesper\AppData\Local\Temp\cclZf3Mh.s:1644   .text.tml_conv2d_dwconv2d:0000000000000748 .L0 
C:\Users\Jesper\AppData\Local\Temp\cclZf3Mh.s:1646   .text.tml_conv2d_dwconv2d:000000000000074a .L0 
C:\Users\Jesper\AppData\Local\Temp\cclZf3Mh.s:1648   .text.tml_conv2d_dwconv2d:000000000000074e .L0 
C:\Users\Jesper\AppData\Local\Temp\cclZf3Mh.s:1651   .text.tml_conv2d_dwconv2d:0000000000000752 .L0 
C:\Users\Jesper\AppData\Local\Temp\cclZf3Mh.s:1654   .text.tml_conv2d_dwconv2d:0000000000000756 .L0 
C:\Users\Jesper\AppData\Local\Temp\cclZf3Mh.s:1656   .text.tml_conv2d_dwconv2d:0000000000000758 .L0 
C:\Users\Jesper\AppData\Local\Temp\cclZf3Mh.s:1659   .text.tml_conv2d_dwconv2d:000000000000075c .L0 
C:\Users\Jesper\AppData\Local\Temp\cclZf3Mh.s:1662   .text.tml_conv2d_dwconv2d:0000000000000760 .L0 
C:\Users\Jesper\AppData\Local\Temp\cclZf3Mh.s:1665   .text.tml_conv2d_dwconv2d:0000000000000764 .L0 
C:\Users\Jesper\AppData\Local\Temp\cclZf3Mh.s:1667   .text.tml_conv2d_dwconv2d:0000000000000766 .L0 
C:\Users\Jesper\AppData\Local\Temp\cclZf3Mh.s:1669   .text.tml_conv2d_dwconv2d:000000000000076a .L0 
C:\Users\Jesper\AppData\Local\Temp\cclZf3Mh.s:1671   .text.tml_conv2d_dwconv2d:000000000000076e .L0 
C:\Users\Jesper\AppData\Local\Temp\cclZf3Mh.s:1673   .text.tml_conv2d_dwconv2d:0000000000000770 .L0 
C:\Users\Jesper\AppData\Local\Temp\cclZf3Mh.s:1675   .text.tml_conv2d_dwconv2d:0000000000000774 .L0 
C:\Users\Jesper\AppData\Local\Temp\cclZf3Mh.s:1677   .text.tml_conv2d_dwconv2d:0000000000000778 .L0 
C:\Users\Jesper\AppData\Local\Temp\cclZf3Mh.s:1679   .text.tml_conv2d_dwconv2d:000000000000077c .L0 
C:\Users\Jesper\AppData\Local\Temp\cclZf3Mh.s:1681   .text.tml_conv2d_dwconv2d:000000000000077e .L0 
C:\Users\Jesper\AppData\Local\Temp\cclZf3Mh.s:1683   .text.tml_conv2d_dwconv2d:0000000000000782 .L0 
C:\Users\Jesper\AppData\Local\Temp\cclZf3Mh.s:1685   .text.tml_conv2d_dwconv2d:0000000000000786 .L0 
C:\Users\Jesper\AppData\Local\Temp\cclZf3Mh.s:1688   .text.tml_conv2d_dwconv2d:000000000000078a .L0 
C:\Users\Jesper\AppData\Local\Temp\cclZf3Mh.s:1690   .text.tml_conv2d_dwconv2d:000000000000078c .L0 
C:\Users\Jesper\AppData\Local\Temp\cclZf3Mh.s:1693   .text.tml_conv2d_dwconv2d:0000000000000790 .L0 
C:\Users\Jesper\AppData\Local\Temp\cclZf3Mh.s:1696   .text.tml_conv2d_dwconv2d:0000000000000794 .L0 
C:\Users\Jesper\AppData\Local\Temp\cclZf3Mh.s:1699   .text.tml_conv2d_dwconv2d:0000000000000798 .L0 
C:\Users\Jesper\AppData\Local\Temp\cclZf3Mh.s:1701   .text.tml_conv2d_dwconv2d:000000000000079a .L0 
C:\Users\Jesper\AppData\Local\Temp\cclZf3Mh.s:1703   .text.tml_conv2d_dwconv2d:000000000000079e .L0 
C:\Users\Jesper\AppData\Local\Temp\cclZf3Mh.s:1706   .text.tml_conv2d_dwconv2d:00000000000007a2 .L0 
C:\Users\Jesper\AppData\Local\Temp\cclZf3Mh.s:1713   .text.tml_conv2d_dwconv2d:00000000000007a4 .L0 
C:\Users\Jesper\AppData\Local\Temp\cclZf3Mh.s:1716   .text.tml_conv2d_dwconv2d:00000000000007a8 .L0 
C:\Users\Jesper\AppData\Local\Temp\cclZf3Mh.s:1720   .text.tml_conv2d_dwconv2d:00000000000007b2 .L0 
C:\Users\Jesper\AppData\Local\Temp\cclZf3Mh.s:1724   .text.tml_conv2d_dwconv2d:00000000000007be .L0 
C:\Users\Jesper\AppData\Local\Temp\cclZf3Mh.s:1727   .text.tml_conv2d_dwconv2d:00000000000007c2 .L0 
C:\Users\Jesper\AppData\Local\Temp\cclZf3Mh.s:1730   .text.tml_conv2d_dwconv2d:00000000000007c4 .L0 
C:\Users\Jesper\AppData\Local\Temp\cclZf3Mh.s:1732   .text.tml_conv2d_dwconv2d:00000000000007c8 .L0 
C:\Users\Jesper\AppData\Local\Temp\cclZf3Mh.s:1737   .text.tml_conv2d_dwconv2d:00000000000007ce .L0 
C:\Users\Jesper\AppData\Local\Temp\cclZf3Mh.s:1738   .text.tml_conv2d_dwconv2d:00000000000007ce .L0 
C:\Users\Jesper\AppData\Local\Temp\cclZf3Mh.s:1744   .text.tml_conv2d_dwconv2d:00000000000007d2 .L0 
C:\Users\Jesper\AppData\Local\Temp\cclZf3Mh.s:1749   .text.tml_conv2d_dwconv2d:00000000000007d4 .L0 
C:\Users\Jesper\AppData\Local\Temp\cclZf3Mh.s:1753   .text.tml_conv2d_dwconv2d:00000000000007de .L0 
C:\Users\Jesper\AppData\Local\Temp\cclZf3Mh.s:1758   .text.tml_conv2d_dwconv2d:00000000000007e0 .L0 
C:\Users\Jesper\AppData\Local\Temp\cclZf3Mh.s:1766   .text.tml_conv2d_dwconv2d:00000000000007e4 .L0 
C:\Users\Jesper\AppData\Local\Temp\cclZf3Mh.s:1776   .text.tml_conv2d_dwconv2d:00000000000007fc .L0 
C:\Users\Jesper\AppData\Local\Temp\cclZf3Mh.s:1796   .text.tml_conv2d_dwconv2d:0000000000000808 .L0 
C:\Users\Jesper\AppData\Local\Temp\cclZf3Mh.s:1797   .text.tml_conv2d_dwconv2d:0000000000000808 .L0 
C:\Users\Jesper\AppData\Local\Temp\cclZf3Mh.s:1798   .text.tml_conv2d_dwconv2d:0000000000000808 .L0 
C:\Users\Jesper\AppData\Local\Temp\cclZf3Mh.s:1806   .text.tml_conv2d_dwconv2d:000000000000080c .L0 
C:\Users\Jesper\AppData\Local\Temp\cclZf3Mh.s:1807   .text.tml_conv2d_dwconv2d:000000000000080c .L0 
C:\Users\Jesper\AppData\Local\Temp\cclZf3Mh.s:1818   .text.tml_conv2d_dwconv2d:0000000000000822 .L0 
C:\Users\Jesper\AppData\Local\Temp\cclZf3Mh.s:1819   .text.tml_conv2d_dwconv2d:0000000000000822 .L0 
GAS LISTING C:\Users\Jesper\AppData\Local\Temp\cclZf3Mh.s 			page 96


C:\Users\Jesper\AppData\Local\Temp\cclZf3Mh.s:1824   .text.tml_conv2d_dwconv2d:0000000000000832 .L0 
C:\Users\Jesper\AppData\Local\Temp\cclZf3Mh.s:1825   .text.tml_conv2d_dwconv2d:0000000000000832 .L0 
C:\Users\Jesper\AppData\Local\Temp\cclZf3Mh.s:1845   .text.tml_conv2d_dwconv2d:0000000000000852 .L0 
C:\Users\Jesper\AppData\Local\Temp\cclZf3Mh.s:1848   .text.tml_conv2d_dwconv2d:0000000000000852 .L0 
C:\Users\Jesper\AppData\Local\Temp\cclZf3Mh.s:1849   .text.tml_conv2d_dwconv2d:0000000000000852 .L0 
C:\Users\Jesper\AppData\Local\Temp\cclZf3Mh.s:1850   .text.tml_conv2d_dwconv2d:0000000000000852 .L0 
C:\Users\Jesper\AppData\Local\Temp\cclZf3Mh.s:1851   .text.tml_conv2d_dwconv2d:0000000000000852 .L0 
C:\Users\Jesper\AppData\Local\Temp\cclZf3Mh.s:1852   .text.tml_conv2d_dwconv2d:0000000000000852 .L0 
C:\Users\Jesper\AppData\Local\Temp\cclZf3Mh.s:1854   .text.tml_conv2d_dwconv2d:0000000000000854 .L0 
C:\Users\Jesper\AppData\Local\Temp\cclZf3Mh.s:1856   .text.tml_conv2d_dwconv2d:0000000000000856 .L0 
C:\Users\Jesper\AppData\Local\Temp\cclZf3Mh.s:1860   .text.tml_conv2d_dwconv2d:000000000000085c .L0 
C:\Users\Jesper\AppData\Local\Temp\cclZf3Mh.s:1861   .text.tml_conv2d_dwconv2d:000000000000085c .L0 
C:\Users\Jesper\AppData\Local\Temp\cclZf3Mh.s:1863   .text.tml_conv2d_dwconv2d:000000000000085e .L0 
C:\Users\Jesper\AppData\Local\Temp\cclZf3Mh.s:1865   .text.tml_conv2d_dwconv2d:0000000000000860 .L0 
C:\Users\Jesper\AppData\Local\Temp\cclZf3Mh.s:1873   .text.tml_conv2d_dwconv2d:000000000000086c .L0 
C:\Users\Jesper\AppData\Local\Temp\cclZf3Mh.s:1877   .text.tml_conv2d_dwconv2d:0000000000000872 .L0 
C:\Users\Jesper\AppData\Local\Temp\cclZf3Mh.s:1880   .text.tml_conv2d_dwconv2d:0000000000000872 .L0 
C:\Users\Jesper\AppData\Local\Temp\cclZf3Mh.s:1884   .text.tml_conv2d_dwconv2d:0000000000000872 .L0 
C:\Users\Jesper\AppData\Local\Temp\cclZf3Mh.s:1885   .text.tml_conv2d_dwconv2d:0000000000000872 .L0 
C:\Users\Jesper\AppData\Local\Temp\cclZf3Mh.s:1886   .text.tml_conv2d_dwconv2d:0000000000000872 .L0 
C:\Users\Jesper\AppData\Local\Temp\cclZf3Mh.s:1887   .text.tml_conv2d_dwconv2d:0000000000000872 .L0 
C:\Users\Jesper\AppData\Local\Temp\cclZf3Mh.s:1888   .text.tml_conv2d_dwconv2d:0000000000000872 .L0 
C:\Users\Jesper\AppData\Local\Temp\cclZf3Mh.s:1890   .text.tml_conv2d_dwconv2d:0000000000000876 .L0 
C:\Users\Jesper\AppData\Local\Temp\cclZf3Mh.s:1895   .text.tml_conv2d_dwconv2d:0000000000000880 .L0 
C:\Users\Jesper\AppData\Local\Temp\cclZf3Mh.s:1899   .text.tml_conv2d_dwconv2d:000000000000088c .L0 
C:\Users\Jesper\AppData\Local\Temp\cclZf3Mh.s:1902   .text.tml_conv2d_dwconv2d:0000000000000890 .L0 
C:\Users\Jesper\AppData\Local\Temp\cclZf3Mh.s:1905   .text.tml_conv2d_dwconv2d:0000000000000892 .L0 
C:\Users\Jesper\AppData\Local\Temp\cclZf3Mh.s:1920   .text.tml_conv2d_dwconv2d:000000000000089c .L0 
C:\Users\Jesper\AppData\Local\Temp\cclZf3Mh.s:1927   .text.tml_conv2d_dwconv2d:000000000000089c .L0 
C:\Users\Jesper\AppData\Local\Temp\cclZf3Mh.s:1928   .text.tml_conv2d_dwconv2d:000000000000089c .L0 
C:\Users\Jesper\AppData\Local\Temp\cclZf3Mh.s:1929   .text.tml_conv2d_dwconv2d:000000000000089c .L0 
C:\Users\Jesper\AppData\Local\Temp\cclZf3Mh.s:1930   .text.tml_conv2d_dwconv2d:000000000000089c .L0 
C:\Users\Jesper\AppData\Local\Temp\cclZf3Mh.s:1932   .text.tml_conv2d_dwconv2d:00000000000008a0 .L0 
C:\Users\Jesper\AppData\Local\Temp\cclZf3Mh.s:1933   .text.tml_conv2d_dwconv2d:00000000000008a0 .L0 
C:\Users\Jesper\AppData\Local\Temp\cclZf3Mh.s:1940   .text.tml_conv2d_dwconv2d:00000000000008a2 .L0 
C:\Users\Jesper\AppData\Local\Temp\cclZf3Mh.s:1942   .text.tml_conv2d_dwconv2d:00000000000008a4 .L0 
C:\Users\Jesper\AppData\Local\Temp\cclZf3Mh.s:1945   .text.tml_conv2d_dwconv2d:00000000000008a8 .L0 
C:\Users\Jesper\AppData\Local\Temp\cclZf3Mh.s:1948   .text.tml_conv2d_dwconv2d:00000000000008ac .L0 
C:\Users\Jesper\AppData\Local\Temp\cclZf3Mh.s:1952   .text.tml_conv2d_dwconv2d:00000000000008b6 .L0 
C:\Users\Jesper\AppData\Local\Temp\cclZf3Mh.s:1958   .text.tml_conv2d_dwconv2d:00000000000008b8 .L0 
C:\Users\Jesper\AppData\Local\Temp\cclZf3Mh.s:1966   .text.tml_conv2d_dwconv2d:00000000000008bc .L0 
C:\Users\Jesper\AppData\Local\Temp\cclZf3Mh.s:1973   .text.tml_conv2d_dwconv2d:00000000000008d0 .L0 
C:\Users\Jesper\AppData\Local\Temp\cclZf3Mh.s:1991   .text.tml_conv2d_dwconv2d:00000000000008ea .L0 
C:\Users\Jesper\AppData\Local\Temp\cclZf3Mh.s:1994   .text.tml_conv2d_dwconv2d:00000000000008f0 .L0 
C:\Users\Jesper\AppData\Local\Temp\cclZf3Mh.s:2002   .text.tml_conv2d_dwconv2d:00000000000008f6 .L0 
C:\Users\Jesper\AppData\Local\Temp\cclZf3Mh.s:2003   .text.tml_conv2d_dwconv2d:00000000000008f6 .L0 
C:\Users\Jesper\AppData\Local\Temp\cclZf3Mh.s:2005   .text.tml_conv2d_dwconv2d:00000000000008fa .L0 
C:\Users\Jesper\AppData\Local\Temp\cclZf3Mh.s:2010   .text.tml_conv2d_dwconv2d:0000000000000902 .L0 
C:\Users\Jesper\AppData\Local\Temp\cclZf3Mh.s:2012   .text.tml_conv2d_dwconv2d:0000000000000906 .L0 
C:\Users\Jesper\AppData\Local\Temp\cclZf3Mh.s:2014   .text.tml_conv2d_dwconv2d:000000000000090a .L0 
C:\Users\Jesper\AppData\Local\Temp\cclZf3Mh.s:2017   .text.tml_conv2d_dwconv2d:000000000000090c .L0 
C:\Users\Jesper\AppData\Local\Temp\cclZf3Mh.s:2018   .text.tml_conv2d_dwconv2d:000000000000090c .L0 
C:\Users\Jesper\AppData\Local\Temp\cclZf3Mh.s:2019   .text.tml_conv2d_dwconv2d:000000000000090c .L0 
C:\Users\Jesper\AppData\Local\Temp\cclZf3Mh.s:2021   .text.tml_conv2d_dwconv2d:0000000000000910 .L0 
C:\Users\Jesper\AppData\Local\Temp\cclZf3Mh.s:2023   .text.tml_conv2d_dwconv2d:0000000000000914 .L0 
C:\Users\Jesper\AppData\Local\Temp\cclZf3Mh.s:2025   .text.tml_conv2d_dwconv2d:0000000000000918 .L0 
C:\Users\Jesper\AppData\Local\Temp\cclZf3Mh.s:2028   .text.tml_conv2d_dwconv2d:000000000000091a .L0 
GAS LISTING C:\Users\Jesper\AppData\Local\Temp\cclZf3Mh.s 			page 97


C:\Users\Jesper\AppData\Local\Temp\cclZf3Mh.s:2029   .text.tml_conv2d_dwconv2d:000000000000091a .L0 
C:\Users\Jesper\AppData\Local\Temp\cclZf3Mh.s:2030   .text.tml_conv2d_dwconv2d:000000000000091a .L0 
C:\Users\Jesper\AppData\Local\Temp\cclZf3Mh.s:2032   .text.tml_conv2d_dwconv2d:000000000000091e .L0 
C:\Users\Jesper\AppData\Local\Temp\cclZf3Mh.s:2034   .text.tml_conv2d_dwconv2d:0000000000000922 .L0 
C:\Users\Jesper\AppData\Local\Temp\cclZf3Mh.s:2036   .text.tml_conv2d_dwconv2d:0000000000000926 .L0 
C:\Users\Jesper\AppData\Local\Temp\cclZf3Mh.s:2039   .text.tml_conv2d_dwconv2d:0000000000000928 .L0 
C:\Users\Jesper\AppData\Local\Temp\cclZf3Mh.s:2040   .text.tml_conv2d_dwconv2d:0000000000000928 .L0 
C:\Users\Jesper\AppData\Local\Temp\cclZf3Mh.s:2041   .text.tml_conv2d_dwconv2d:0000000000000928 .L0 
C:\Users\Jesper\AppData\Local\Temp\cclZf3Mh.s:2043   .text.tml_conv2d_dwconv2d:000000000000092c .L0 
C:\Users\Jesper\AppData\Local\Temp\cclZf3Mh.s:2045   .text.tml_conv2d_dwconv2d:0000000000000930 .L0 
C:\Users\Jesper\AppData\Local\Temp\cclZf3Mh.s:2047   .text.tml_conv2d_dwconv2d:0000000000000934 .L0 
C:\Users\Jesper\AppData\Local\Temp\cclZf3Mh.s:2050   .text.tml_conv2d_dwconv2d:0000000000000936 .L0 
C:\Users\Jesper\AppData\Local\Temp\cclZf3Mh.s:2051   .text.tml_conv2d_dwconv2d:0000000000000936 .L0 
C:\Users\Jesper\AppData\Local\Temp\cclZf3Mh.s:2052   .text.tml_conv2d_dwconv2d:0000000000000936 .L0 
C:\Users\Jesper\AppData\Local\Temp\cclZf3Mh.s:2054   .text.tml_conv2d_dwconv2d:000000000000093a .L0 
C:\Users\Jesper\AppData\Local\Temp\cclZf3Mh.s:2056   .text.tml_conv2d_dwconv2d:000000000000093e .L0 
C:\Users\Jesper\AppData\Local\Temp\cclZf3Mh.s:2058   .text.tml_conv2d_dwconv2d:0000000000000942 .L0 
C:\Users\Jesper\AppData\Local\Temp\cclZf3Mh.s:2061   .text.tml_conv2d_dwconv2d:0000000000000944 .L0 
C:\Users\Jesper\AppData\Local\Temp\cclZf3Mh.s:2062   .text.tml_conv2d_dwconv2d:0000000000000944 .L0 
C:\Users\Jesper\AppData\Local\Temp\cclZf3Mh.s:2063   .text.tml_conv2d_dwconv2d:0000000000000944 .L0 
C:\Users\Jesper\AppData\Local\Temp\cclZf3Mh.s:2065   .text.tml_conv2d_dwconv2d:0000000000000948 .L0 
C:\Users\Jesper\AppData\Local\Temp\cclZf3Mh.s:2067   .text.tml_conv2d_dwconv2d:000000000000094c .L0 
C:\Users\Jesper\AppData\Local\Temp\cclZf3Mh.s:2069   .text.tml_conv2d_dwconv2d:0000000000000950 .L0 
C:\Users\Jesper\AppData\Local\Temp\cclZf3Mh.s:2072   .text.tml_conv2d_dwconv2d:0000000000000952 .L0 
C:\Users\Jesper\AppData\Local\Temp\cclZf3Mh.s:2073   .text.tml_conv2d_dwconv2d:0000000000000952 .L0 
C:\Users\Jesper\AppData\Local\Temp\cclZf3Mh.s:2074   .text.tml_conv2d_dwconv2d:0000000000000952 .L0 
C:\Users\Jesper\AppData\Local\Temp\cclZf3Mh.s:2076   .text.tml_conv2d_dwconv2d:0000000000000956 .L0 
C:\Users\Jesper\AppData\Local\Temp\cclZf3Mh.s:2078   .text.tml_conv2d_dwconv2d:000000000000095a .L0 
C:\Users\Jesper\AppData\Local\Temp\cclZf3Mh.s:2080   .text.tml_conv2d_dwconv2d:000000000000095e .L0 
C:\Users\Jesper\AppData\Local\Temp\cclZf3Mh.s:2083   .text.tml_conv2d_dwconv2d:0000000000000960 .L0 
C:\Users\Jesper\AppData\Local\Temp\cclZf3Mh.s:2084   .text.tml_conv2d_dwconv2d:0000000000000960 .L0 
C:\Users\Jesper\AppData\Local\Temp\cclZf3Mh.s:2085   .text.tml_conv2d_dwconv2d:0000000000000960 .L0 
C:\Users\Jesper\AppData\Local\Temp\cclZf3Mh.s:2087   .text.tml_conv2d_dwconv2d:0000000000000964 .L0 
C:\Users\Jesper\AppData\Local\Temp\cclZf3Mh.s:2089   .text.tml_conv2d_dwconv2d:0000000000000968 .L0 
C:\Users\Jesper\AppData\Local\Temp\cclZf3Mh.s:2092   .text.tml_conv2d_dwconv2d:000000000000096a .L0 
C:\Users\Jesper\AppData\Local\Temp\cclZf3Mh.s:2096   .text.tml_conv2d_dwconv2d:000000000000096c .L0 
C:\Users\Jesper\AppData\Local\Temp\cclZf3Mh.s:2097   .text.tml_conv2d_dwconv2d:000000000000096c .L0 
C:\Users\Jesper\AppData\Local\Temp\cclZf3Mh.s:2099   .text.tml_conv2d_dwconv2d:0000000000000970 .L0 
C:\Users\Jesper\AppData\Local\Temp\cclZf3Mh.s:2101   .text.tml_conv2d_dwconv2d:0000000000000974 .L0 
C:\Users\Jesper\AppData\Local\Temp\cclZf3Mh.s:2103   .text.tml_conv2d_dwconv2d:0000000000000978 .L0 
C:\Users\Jesper\AppData\Local\Temp\cclZf3Mh.s:2105   .text.tml_conv2d_dwconv2d:000000000000097c .L0 
C:\Users\Jesper\AppData\Local\Temp\cclZf3Mh.s:2108   .text.tml_conv2d_dwconv2d:000000000000097e .L0 
C:\Users\Jesper\AppData\Local\Temp\cclZf3Mh.s:2110   .text.tml_conv2d_dwconv2d:0000000000000982 .L0 
C:\Users\Jesper\AppData\Local\Temp\cclZf3Mh.s:2121   .text.tml_conv2d_dwconv2d:0000000000000986 .L0 
C:\Users\Jesper\AppData\Local\Temp\cclZf3Mh.s:2122   .text.tml_conv2d_dwconv2d:0000000000000986 .L0 
C:\Users\Jesper\AppData\Local\Temp\cclZf3Mh.s:2133   .text.tml_conv2d_dwconv2d:000000000000099c .L0 
C:\Users\Jesper\AppData\Local\Temp\cclZf3Mh.s:2134   .text.tml_conv2d_dwconv2d:000000000000099c .L0 
C:\Users\Jesper\AppData\Local\Temp\cclZf3Mh.s:2139   .text.tml_conv2d_dwconv2d:00000000000009ac .L0 
C:\Users\Jesper\AppData\Local\Temp\cclZf3Mh.s:2140   .text.tml_conv2d_dwconv2d:00000000000009ac .L0 
C:\Users\Jesper\AppData\Local\Temp\cclZf3Mh.s:2160   .text.tml_conv2d_dwconv2d:00000000000009c0 .L0 
C:\Users\Jesper\AppData\Local\Temp\cclZf3Mh.s:2162   .text.tml_conv2d_dwconv2d:00000000000009c4 .L0 
C:\Users\Jesper\AppData\Local\Temp\cclZf3Mh.s:2169   .text.tml_gap:0000000000000000 tml_gap
C:\Users\Jesper\AppData\Local\Temp\cclZf3Mh.s:2172   .text.tml_gap:0000000000000000 .L0 
C:\Users\Jesper\AppData\Local\Temp\cclZf3Mh.s:2174   .text.tml_gap:0000000000000000 .L0 
C:\Users\Jesper\AppData\Local\Temp\cclZf3Mh.s:2175   .text.tml_gap:0000000000000000 .L0 
C:\Users\Jesper\AppData\Local\Temp\cclZf3Mh.s:2176   .text.tml_gap:0000000000000000 .L0 
C:\Users\Jesper\AppData\Local\Temp\cclZf3Mh.s:2177   .text.tml_gap:0000000000000000 .L0 
GAS LISTING C:\Users\Jesper\AppData\Local\Temp\cclZf3Mh.s 			page 98


C:\Users\Jesper\AppData\Local\Temp\cclZf3Mh.s:2178   .text.tml_gap:0000000000000000 .L0 
C:\Users\Jesper\AppData\Local\Temp\cclZf3Mh.s:2180   .text.tml_gap:0000000000000002 .L0 
C:\Users\Jesper\AppData\Local\Temp\cclZf3Mh.s:2191   .text.tml_gap:0000000000000016 .L0 
C:\Users\Jesper\AppData\Local\Temp\cclZf3Mh.s:2192   .text.tml_gap:0000000000000016 .L0 
C:\Users\Jesper\AppData\Local\Temp\cclZf3Mh.s:2193   .text.tml_gap:0000000000000016 .L0 
C:\Users\Jesper\AppData\Local\Temp\cclZf3Mh.s:2194   .text.tml_gap:0000000000000016 .L0 
C:\Users\Jesper\AppData\Local\Temp\cclZf3Mh.s:2195   .text.tml_gap:0000000000000016 .L0 
C:\Users\Jesper\AppData\Local\Temp\cclZf3Mh.s:2196   .text.tml_gap:0000000000000016 .L0 
C:\Users\Jesper\AppData\Local\Temp\cclZf3Mh.s:2197   .text.tml_gap:0000000000000016 .L0 
C:\Users\Jesper\AppData\Local\Temp\cclZf3Mh.s:2198   .text.tml_gap:0000000000000016 .L0 
C:\Users\Jesper\AppData\Local\Temp\cclZf3Mh.s:2199   .text.tml_gap:0000000000000016 .L0 
C:\Users\Jesper\AppData\Local\Temp\cclZf3Mh.s:2200   .text.tml_gap:0000000000000016 .L0 
C:\Users\Jesper\AppData\Local\Temp\cclZf3Mh.s:2202   .text.tml_gap:0000000000000016 .L0 
C:\Users\Jesper\AppData\Local\Temp\cclZf3Mh.s:2210   .text.tml_gap:0000000000000022 .L0 
C:\Users\Jesper\AppData\Local\Temp\cclZf3Mh.s:2213   .text.tml_gap:0000000000000024 .L0 
C:\Users\Jesper\AppData\Local\Temp\cclZf3Mh.s:2216   .text.tml_gap:000000000000002c .L0 
C:\Users\Jesper\AppData\Local\Temp\cclZf3Mh.s:2217   .text.tml_gap:000000000000002c .L0 
C:\Users\Jesper\AppData\Local\Temp\cclZf3Mh.s:2219   .text.tml_gap:000000000000002c .L0 
C:\Users\Jesper\AppData\Local\Temp\cclZf3Mh.s:2221   .text.tml_gap:000000000000002c .L0 
C:\Users\Jesper\AppData\Local\Temp\cclZf3Mh.s:2222   .text.tml_gap:000000000000002c .L0 
C:\Users\Jesper\AppData\Local\Temp\cclZf3Mh.s:2224   .text.tml_gap:0000000000000030 .L0 
C:\Users\Jesper\AppData\Local\Temp\cclZf3Mh.s:2227   .text.tml_gap:0000000000000034 .L0 
C:\Users\Jesper\AppData\Local\Temp\cclZf3Mh.s:2228   .text.tml_gap:0000000000000034 .L0 
C:\Users\Jesper\AppData\Local\Temp\cclZf3Mh.s:2229   .text.tml_gap:0000000000000036 .L0 
C:\Users\Jesper\AppData\Local\Temp\cclZf3Mh.s:2230   .text.tml_gap:0000000000000036 .L0 
C:\Users\Jesper\AppData\Local\Temp\cclZf3Mh.s:2232   .text.tml_gap:0000000000000038 .L0 
C:\Users\Jesper\AppData\Local\Temp\cclZf3Mh.s:2235   .text.tml_gap:000000000000003a .L0 
C:\Users\Jesper\AppData\Local\Temp\cclZf3Mh.s:2238   .text.tml_gap:000000000000003c .L0 
C:\Users\Jesper\AppData\Local\Temp\cclZf3Mh.s:2241   .text.tml_gap:000000000000003e .L0 
C:\Users\Jesper\AppData\Local\Temp\cclZf3Mh.s:2244   .text.tml_gap:0000000000000040 .L0 
C:\Users\Jesper\AppData\Local\Temp\cclZf3Mh.s:2247   .text.tml_gap:0000000000000042 .L0 
C:\Users\Jesper\AppData\Local\Temp\cclZf3Mh.s:2250   .text.tml_gap:0000000000000044 .L0 
C:\Users\Jesper\AppData\Local\Temp\cclZf3Mh.s:2252   .text.tml_gap:0000000000000046 .L0 
C:\Users\Jesper\AppData\Local\Temp\cclZf3Mh.s:2255   .text.tml_gap:0000000000000048 .L0 
C:\Users\Jesper\AppData\Local\Temp\cclZf3Mh.s:2259   .text.tml_gap:000000000000004c .L0 
C:\Users\Jesper\AppData\Local\Temp\cclZf3Mh.s:2264   .text.tml_gap:000000000000004e .L0 
C:\Users\Jesper\AppData\Local\Temp\cclZf3Mh.s:2268   .text.tml_gap:000000000000004e .L0 
C:\Users\Jesper\AppData\Local\Temp\cclZf3Mh.s:2269   .text.tml_gap:000000000000004e .L0 
C:\Users\Jesper\AppData\Local\Temp\cclZf3Mh.s:2271   .text.tml_gap:0000000000000052 .L0 
C:\Users\Jesper\AppData\Local\Temp\cclZf3Mh.s:2274   .text.tml_gap:0000000000000054 .L0 
C:\Users\Jesper\AppData\Local\Temp\cclZf3Mh.s:2278   .text.tml_gap:000000000000005c .L0 
C:\Users\Jesper\AppData\Local\Temp\cclZf3Mh.s:2282   .text.tml_gap:000000000000005e .L0 
C:\Users\Jesper\AppData\Local\Temp\cclZf3Mh.s:2283   .text.tml_gap:000000000000005e .L0 
C:\Users\Jesper\AppData\Local\Temp\cclZf3Mh.s:2284   .text.tml_gap:000000000000005e .L0 
C:\Users\Jesper\AppData\Local\Temp\cclZf3Mh.s:2287   .text.tml_gap:0000000000000060 .L0 
C:\Users\Jesper\AppData\Local\Temp\cclZf3Mh.s:2292   .text.tml_gap:0000000000000062 .L0 
C:\Users\Jesper\AppData\Local\Temp\cclZf3Mh.s:2295   .text.tml_gap:0000000000000066 .L0 
C:\Users\Jesper\AppData\Local\Temp\cclZf3Mh.s:2296   .text.tml_gap:0000000000000066 .L0 
C:\Users\Jesper\AppData\Local\Temp\cclZf3Mh.s:2300   .text.tml_gap:000000000000006c .L0 
C:\Users\Jesper\AppData\Local\Temp\cclZf3Mh.s:2304   .text.tml_gap:000000000000006e .L0 
C:\Users\Jesper\AppData\Local\Temp\cclZf3Mh.s:2306   .text.tml_gap:0000000000000072 .L0 
C:\Users\Jesper\AppData\Local\Temp\cclZf3Mh.s:2309   .text.tml_gap:0000000000000076 .L0 
C:\Users\Jesper\AppData\Local\Temp\cclZf3Mh.s:2316   .text.tml_gap:000000000000008c .L0 
C:\Users\Jesper\AppData\Local\Temp\cclZf3Mh.s:2321   .text.tml_gap:0000000000000098 .L0 
C:\Users\Jesper\AppData\Local\Temp\cclZf3Mh.s:2329   .text.tml_gap:00000000000000ae .L0 
C:\Users\Jesper\AppData\Local\Temp\cclZf3Mh.s:2338   .text.tml_gap:00000000000000bc .L0 
C:\Users\Jesper\AppData\Local\Temp\cclZf3Mh.s:2339   .text.tml_gap:00000000000000bc .L0 
GAS LISTING C:\Users\Jesper\AppData\Local\Temp\cclZf3Mh.s 			page 99


C:\Users\Jesper\AppData\Local\Temp\cclZf3Mh.s:2341   .text.tml_gap:00000000000000c0 .L0 
C:\Users\Jesper\AppData\Local\Temp\cclZf3Mh.s:2344   .text.tml_gap:00000000000000c2 .L0 
C:\Users\Jesper\AppData\Local\Temp\cclZf3Mh.s:2347   .text.tml_gap:00000000000000c4 .L0 
C:\Users\Jesper\AppData\Local\Temp\cclZf3Mh.s:2351   .text.tml_gap:00000000000000c6 .L0 
C:\Users\Jesper\AppData\Local\Temp\cclZf3Mh.s:2352   .text.tml_gap:00000000000000c6 .L0 
C:\Users\Jesper\AppData\Local\Temp\cclZf3Mh.s:2356   .text.tml_gap:00000000000000cc .L0 
C:\Users\Jesper\AppData\Local\Temp\cclZf3Mh.s:2364   .text.tml_gap:00000000000000d2 .L0 
C:\Users\Jesper\AppData\Local\Temp\cclZf3Mh.s:2370   .text.tml_gap:00000000000000d6 .L0 
C:\Users\Jesper\AppData\Local\Temp\cclZf3Mh.s:2377   .text.tml_fc:0000000000000000 tml_fc
C:\Users\Jesper\AppData\Local\Temp\cclZf3Mh.s:2380   .text.tml_fc:0000000000000000 .L0 
C:\Users\Jesper\AppData\Local\Temp\cclZf3Mh.s:2382   .text.tml_fc:0000000000000000 .L0 
C:\Users\Jesper\AppData\Local\Temp\cclZf3Mh.s:2383   .text.tml_fc:0000000000000000 .L0 
C:\Users\Jesper\AppData\Local\Temp\cclZf3Mh.s:2384   .text.tml_fc:0000000000000000 .L0 
C:\Users\Jesper\AppData\Local\Temp\cclZf3Mh.s:2385   .text.tml_fc:0000000000000000 .L0 
C:\Users\Jesper\AppData\Local\Temp\cclZf3Mh.s:2386   .text.tml_fc:0000000000000000 .L0 
C:\Users\Jesper\AppData\Local\Temp\cclZf3Mh.s:2388   .text.tml_fc:0000000000000002 .L0 
C:\Users\Jesper\AppData\Local\Temp\cclZf3Mh.s:2390   .text.tml_fc:0000000000000004 .L0 
C:\Users\Jesper\AppData\Local\Temp\cclZf3Mh.s:2404   .text.tml_fc:000000000000001e .L0 
C:\Users\Jesper\AppData\Local\Temp\cclZf3Mh.s:2405   .text.tml_fc:000000000000001e .L0 
C:\Users\Jesper\AppData\Local\Temp\cclZf3Mh.s:2406   .text.tml_fc:000000000000001e .L0 
C:\Users\Jesper\AppData\Local\Temp\cclZf3Mh.s:2407   .text.tml_fc:000000000000001e .L0 
C:\Users\Jesper\AppData\Local\Temp\cclZf3Mh.s:2408   .text.tml_fc:000000000000001e .L0 
C:\Users\Jesper\AppData\Local\Temp\cclZf3Mh.s:2409   .text.tml_fc:000000000000001e .L0 
C:\Users\Jesper\AppData\Local\Temp\cclZf3Mh.s:2410   .text.tml_fc:000000000000001e .L0 
C:\Users\Jesper\AppData\Local\Temp\cclZf3Mh.s:2411   .text.tml_fc:000000000000001e .L0 
C:\Users\Jesper\AppData\Local\Temp\cclZf3Mh.s:2412   .text.tml_fc:000000000000001e .L0 
C:\Users\Jesper\AppData\Local\Temp\cclZf3Mh.s:2413   .text.tml_fc:000000000000001e .L0 
C:\Users\Jesper\AppData\Local\Temp\cclZf3Mh.s:2414   .text.tml_fc:000000000000001e .L0 
C:\Users\Jesper\AppData\Local\Temp\cclZf3Mh.s:2415   .text.tml_fc:000000000000001e .L0 
C:\Users\Jesper\AppData\Local\Temp\cclZf3Mh.s:2417   .text.tml_fc:000000000000001e .L0 
C:\Users\Jesper\AppData\Local\Temp\cclZf3Mh.s:2424   .text.tml_fc:000000000000002a .L0 
C:\Users\Jesper\AppData\Local\Temp\cclZf3Mh.s:2427   .text.tml_fc:0000000000000032 .L0 
C:\Users\Jesper\AppData\Local\Temp\cclZf3Mh.s:2428   .text.tml_fc:0000000000000032 .L0 
C:\Users\Jesper\AppData\Local\Temp\cclZf3Mh.s:2429   .text.tml_fc:0000000000000032 .L0 
C:\Users\Jesper\AppData\Local\Temp\cclZf3Mh.s:2433   .text.tml_fc:0000000000000036 .L0 
C:\Users\Jesper\AppData\Local\Temp\cclZf3Mh.s:2437   .text.tml_fc:0000000000000036 .L0 
C:\Users\Jesper\AppData\Local\Temp\cclZf3Mh.s:2438   .text.tml_fc:0000000000000036 .L0 
C:\Users\Jesper\AppData\Local\Temp\cclZf3Mh.s:2443   .text.tml_fc:0000000000000038 .L0 
C:\Users\Jesper\AppData\Local\Temp\cclZf3Mh.s:2448   .text.tml_fc:000000000000003a .L0 
C:\Users\Jesper\AppData\Local\Temp\cclZf3Mh.s:2455   .text.tml_fc:000000000000003e .L0 
C:\Users\Jesper\AppData\Local\Temp\cclZf3Mh.s:2457   .text.tml_fc:0000000000000042 .L0 
C:\Users\Jesper\AppData\Local\Temp\cclZf3Mh.s:2460   .text.tml_fc:0000000000000046 .L0 
C:\Users\Jesper\AppData\Local\Temp\cclZf3Mh.s:2461   .text.tml_fc:0000000000000046 .L0 
C:\Users\Jesper\AppData\Local\Temp\cclZf3Mh.s:2462   .text.tml_fc:0000000000000048 .L0 
C:\Users\Jesper\AppData\Local\Temp\cclZf3Mh.s:2463   .text.tml_fc:0000000000000048 .L0 
C:\Users\Jesper\AppData\Local\Temp\cclZf3Mh.s:2465   .text.tml_fc:000000000000004a .L0 
C:\Users\Jesper\AppData\Local\Temp\cclZf3Mh.s:2468   .text.tml_fc:000000000000004c .L0 
C:\Users\Jesper\AppData\Local\Temp\cclZf3Mh.s:2471   .text.tml_fc:000000000000004e .L0 
C:\Users\Jesper\AppData\Local\Temp\cclZf3Mh.s:2474   .text.tml_fc:0000000000000050 .L0 
C:\Users\Jesper\AppData\Local\Temp\cclZf3Mh.s:2477   .text.tml_fc:0000000000000052 .L0 
C:\Users\Jesper\AppData\Local\Temp\cclZf3Mh.s:2480   .text.tml_fc:0000000000000054 .L0 
C:\Users\Jesper\AppData\Local\Temp\cclZf3Mh.s:2483   .text.tml_fc:0000000000000056 .L0 
C:\Users\Jesper\AppData\Local\Temp\cclZf3Mh.s:2486   .text.tml_fc:0000000000000058 .L0 
C:\Users\Jesper\AppData\Local\Temp\cclZf3Mh.s:2489   .text.tml_fc:000000000000005a .L0 
C:\Users\Jesper\AppData\Local\Temp\cclZf3Mh.s:2492   .text.tml_fc:000000000000005c .L0 
C:\Users\Jesper\AppData\Local\Temp\cclZf3Mh.s:2494   .text.tml_fc:000000000000005e .L0 
C:\Users\Jesper\AppData\Local\Temp\cclZf3Mh.s:2496   .text.tml_fc:0000000000000060 .L0 
GAS LISTING C:\Users\Jesper\AppData\Local\Temp\cclZf3Mh.s 			page 100


C:\Users\Jesper\AppData\Local\Temp\cclZf3Mh.s:2500   .text.tml_fc:0000000000000064 .L0 
C:\Users\Jesper\AppData\Local\Temp\cclZf3Mh.s:2506   .text.tml_fc:0000000000000066 .L0 
C:\Users\Jesper\AppData\Local\Temp\cclZf3Mh.s:2510   .text.tml_fc:0000000000000066 .L0 
C:\Users\Jesper\AppData\Local\Temp\cclZf3Mh.s:2511   .text.tml_fc:0000000000000066 .L0 
C:\Users\Jesper\AppData\Local\Temp\cclZf3Mh.s:2512   .text.tml_fc:0000000000000066 .L0 
C:\Users\Jesper\AppData\Local\Temp\cclZf3Mh.s:2516   .text.tml_fc:000000000000006a .L0 
C:\Users\Jesper\AppData\Local\Temp\cclZf3Mh.s:2518   .text.tml_fc:000000000000006c .L0 
C:\Users\Jesper\AppData\Local\Temp\cclZf3Mh.s:2522   .text.tml_fc:000000000000006e .L0 
C:\Users\Jesper\AppData\Local\Temp\cclZf3Mh.s:2526   .text.tml_fc:0000000000000072 .L0 
C:\Users\Jesper\AppData\Local\Temp\cclZf3Mh.s:2530   .text.tml_fc:0000000000000076 .L0 
C:\Users\Jesper\AppData\Local\Temp\cclZf3Mh.s:2535   .text.tml_fc:0000000000000078 .L0 
C:\Users\Jesper\AppData\Local\Temp\cclZf3Mh.s:2536   .text.tml_fc:0000000000000078 .L0 
C:\Users\Jesper\AppData\Local\Temp\cclZf3Mh.s:2537   .text.tml_fc:0000000000000078 .L0 
C:\Users\Jesper\AppData\Local\Temp\cclZf3Mh.s:2538   .text.tml_fc:0000000000000078 .L0 
C:\Users\Jesper\AppData\Local\Temp\cclZf3Mh.s:2542   .text.tml_fc:000000000000007a .L0 
C:\Users\Jesper\AppData\Local\Temp\cclZf3Mh.s:2547   .text.tml_fc:0000000000000082 .L0 
C:\Users\Jesper\AppData\Local\Temp\cclZf3Mh.s:2550   .text.tml_fc:0000000000000086 .L0 
C:\Users\Jesper\AppData\Local\Temp\cclZf3Mh.s:2553   .text.tml_fc:0000000000000086 .L0 
C:\Users\Jesper\AppData\Local\Temp\cclZf3Mh.s:2554   .text.tml_fc:0000000000000086 .L0 
C:\Users\Jesper\AppData\Local\Temp\cclZf3Mh.s:2555   .text.tml_fc:0000000000000086 .L0 
C:\Users\Jesper\AppData\Local\Temp\cclZf3Mh.s:2556   .text.tml_fc:0000000000000086 .L0 
C:\Users\Jesper\AppData\Local\Temp\cclZf3Mh.s:2560   .text.tml_fc:000000000000008c .L0 
C:\Users\Jesper\AppData\Local\Temp\cclZf3Mh.s:2562   .text.tml_fc:000000000000008e .L0 
C:\Users\Jesper\AppData\Local\Temp\cclZf3Mh.s:2564   .text.tml_fc:0000000000000092 .L0 
C:\Users\Jesper\AppData\Local\Temp\cclZf3Mh.s:2572   .text.tml_fc:00000000000000a6 .L0 
C:\Users\Jesper\AppData\Local\Temp\cclZf3Mh.s:2574   .text.tml_fc:00000000000000aa .L0 
C:\Users\Jesper\AppData\Local\Temp\cclZf3Mh.s:2577   .text.tml_fc:00000000000000ac .L0 
C:\Users\Jesper\AppData\Local\Temp\cclZf3Mh.s:2581   .text.tml_fc:00000000000000ae .L0 
C:\Users\Jesper\AppData\Local\Temp\cclZf3Mh.s:2584   .text.tml_fc:00000000000000b6 .L0 
C:\Users\Jesper\AppData\Local\Temp\cclZf3Mh.s:2589   .text.tml_fc:00000000000000c2 .L0 
C:\Users\Jesper\AppData\Local\Temp\cclZf3Mh.s:2597   .text.tml_fc:00000000000000d8 .L0 
C:\Users\Jesper\AppData\Local\Temp\cclZf3Mh.s:2607   .text.tml_fc:00000000000000e6 .L0 
C:\Users\Jesper\AppData\Local\Temp\cclZf3Mh.s:2608   .text.tml_fc:00000000000000e6 .L0 
C:\Users\Jesper\AppData\Local\Temp\cclZf3Mh.s:2610   .text.tml_fc:00000000000000ea .L0 
C:\Users\Jesper\AppData\Local\Temp\cclZf3Mh.s:2615   .text.tml_fc:00000000000000f2 .L0 
C:\Users\Jesper\AppData\Local\Temp\cclZf3Mh.s:2617   .text.tml_fc:00000000000000f6 .L0 
C:\Users\Jesper\AppData\Local\Temp\cclZf3Mh.s:2619   .text.tml_fc:00000000000000fa .L0 
C:\Users\Jesper\AppData\Local\Temp\cclZf3Mh.s:2622   .text.tml_fc:00000000000000fc .L0 
C:\Users\Jesper\AppData\Local\Temp\cclZf3Mh.s:2623   .text.tml_fc:00000000000000fc .L0 
C:\Users\Jesper\AppData\Local\Temp\cclZf3Mh.s:2624   .text.tml_fc:00000000000000fc .L0 
C:\Users\Jesper\AppData\Local\Temp\cclZf3Mh.s:2626   .text.tml_fc:0000000000000100 .L0 
C:\Users\Jesper\AppData\Local\Temp\cclZf3Mh.s:2628   .text.tml_fc:0000000000000104 .L0 
C:\Users\Jesper\AppData\Local\Temp\cclZf3Mh.s:2630   .text.tml_fc:0000000000000108 .L0 
C:\Users\Jesper\AppData\Local\Temp\cclZf3Mh.s:2633   .text.tml_fc:000000000000010a .L0 
C:\Users\Jesper\AppData\Local\Temp\cclZf3Mh.s:2634   .text.tml_fc:000000000000010a .L0 
C:\Users\Jesper\AppData\Local\Temp\cclZf3Mh.s:2635   .text.tml_fc:000000000000010a .L0 
C:\Users\Jesper\AppData\Local\Temp\cclZf3Mh.s:2637   .text.tml_fc:000000000000010e .L0 
C:\Users\Jesper\AppData\Local\Temp\cclZf3Mh.s:2639   .text.tml_fc:0000000000000112 .L0 
C:\Users\Jesper\AppData\Local\Temp\cclZf3Mh.s:2641   .text.tml_fc:0000000000000116 .L0 
C:\Users\Jesper\AppData\Local\Temp\cclZf3Mh.s:2644   .text.tml_fc:0000000000000118 .L0 
C:\Users\Jesper\AppData\Local\Temp\cclZf3Mh.s:2645   .text.tml_fc:0000000000000118 .L0 
C:\Users\Jesper\AppData\Local\Temp\cclZf3Mh.s:2646   .text.tml_fc:0000000000000118 .L0 
C:\Users\Jesper\AppData\Local\Temp\cclZf3Mh.s:2648   .text.tml_fc:000000000000011c .L0 
C:\Users\Jesper\AppData\Local\Temp\cclZf3Mh.s:2650   .text.tml_fc:0000000000000120 .L0 
C:\Users\Jesper\AppData\Local\Temp\cclZf3Mh.s:2652   .text.tml_fc:0000000000000124 .L0 
C:\Users\Jesper\AppData\Local\Temp\cclZf3Mh.s:2655   .text.tml_fc:0000000000000126 .L0 
C:\Users\Jesper\AppData\Local\Temp\cclZf3Mh.s:2656   .text.tml_fc:0000000000000126 .L0 
GAS LISTING C:\Users\Jesper\AppData\Local\Temp\cclZf3Mh.s 			page 101


C:\Users\Jesper\AppData\Local\Temp\cclZf3Mh.s:2657   .text.tml_fc:0000000000000126 .L0 
C:\Users\Jesper\AppData\Local\Temp\cclZf3Mh.s:2659   .text.tml_fc:000000000000012a .L0 
C:\Users\Jesper\AppData\Local\Temp\cclZf3Mh.s:2661   .text.tml_fc:000000000000012e .L0 
C:\Users\Jesper\AppData\Local\Temp\cclZf3Mh.s:2663   .text.tml_fc:0000000000000132 .L0 
C:\Users\Jesper\AppData\Local\Temp\cclZf3Mh.s:2666   .text.tml_fc:0000000000000134 .L0 
C:\Users\Jesper\AppData\Local\Temp\cclZf3Mh.s:2667   .text.tml_fc:0000000000000134 .L0 
C:\Users\Jesper\AppData\Local\Temp\cclZf3Mh.s:2668   .text.tml_fc:0000000000000134 .L0 
C:\Users\Jesper\AppData\Local\Temp\cclZf3Mh.s:2670   .text.tml_fc:0000000000000138 .L0 
C:\Users\Jesper\AppData\Local\Temp\cclZf3Mh.s:2672   .text.tml_fc:000000000000013c .L0 
C:\Users\Jesper\AppData\Local\Temp\cclZf3Mh.s:2674   .text.tml_fc:0000000000000140 .L0 
C:\Users\Jesper\AppData\Local\Temp\cclZf3Mh.s:2677   .text.tml_fc:0000000000000142 .L0 
C:\Users\Jesper\AppData\Local\Temp\cclZf3Mh.s:2678   .text.tml_fc:0000000000000142 .L0 
C:\Users\Jesper\AppData\Local\Temp\cclZf3Mh.s:2679   .text.tml_fc:0000000000000142 .L0 
C:\Users\Jesper\AppData\Local\Temp\cclZf3Mh.s:2681   .text.tml_fc:0000000000000146 .L0 
C:\Users\Jesper\AppData\Local\Temp\cclZf3Mh.s:2683   .text.tml_fc:000000000000014a .L0 
C:\Users\Jesper\AppData\Local\Temp\cclZf3Mh.s:2685   .text.tml_fc:000000000000014e .L0 
C:\Users\Jesper\AppData\Local\Temp\cclZf3Mh.s:2688   .text.tml_fc:0000000000000150 .L0 
C:\Users\Jesper\AppData\Local\Temp\cclZf3Mh.s:2689   .text.tml_fc:0000000000000150 .L0 
C:\Users\Jesper\AppData\Local\Temp\cclZf3Mh.s:2690   .text.tml_fc:0000000000000150 .L0 
C:\Users\Jesper\AppData\Local\Temp\cclZf3Mh.s:2692   .text.tml_fc:0000000000000154 .L0 
C:\Users\Jesper\AppData\Local\Temp\cclZf3Mh.s:2694   .text.tml_fc:0000000000000158 .L0 
C:\Users\Jesper\AppData\Local\Temp\cclZf3Mh.s:2697   .text.tml_fc:000000000000015a .L0 
C:\Users\Jesper\AppData\Local\Temp\cclZf3Mh.s:2701   .text.tml_fc:000000000000015c .L0 
C:\Users\Jesper\AppData\Local\Temp\cclZf3Mh.s:2702   .text.tml_fc:000000000000015c .L0 
C:\Users\Jesper\AppData\Local\Temp\cclZf3Mh.s:2704   .text.tml_fc:0000000000000160 .L0 
C:\Users\Jesper\AppData\Local\Temp\cclZf3Mh.s:2706   .text.tml_fc:0000000000000164 .L0 
C:\Users\Jesper\AppData\Local\Temp\cclZf3Mh.s:2708   .text.tml_fc:0000000000000168 .L0 
C:\Users\Jesper\AppData\Local\Temp\cclZf3Mh.s:2710   .text.tml_fc:000000000000016c .L0 
C:\Users\Jesper\AppData\Local\Temp\cclZf3Mh.s:2713   .text.tml_fc:000000000000016e .L0 
C:\Users\Jesper\AppData\Local\Temp\cclZf3Mh.s:2715   .text.tml_fc:0000000000000172 .L0 
C:\Users\Jesper\AppData\Local\Temp\cclZf3Mh.s:2722   .text.tml_fc:0000000000000176 .L0 
C:\Users\Jesper\AppData\Local\Temp\cclZf3Mh.s:2733   .text.tml_softmax:0000000000000000 tml_softmax
C:\Users\Jesper\AppData\Local\Temp\cclZf3Mh.s:2736   .text.tml_softmax:0000000000000000 .L0 
C:\Users\Jesper\AppData\Local\Temp\cclZf3Mh.s:2738   .text.tml_softmax:0000000000000000 .L0 
C:\Users\Jesper\AppData\Local\Temp\cclZf3Mh.s:2739   .text.tml_softmax:0000000000000000 .L0 
C:\Users\Jesper\AppData\Local\Temp\cclZf3Mh.s:2740   .text.tml_softmax:0000000000000000 .L0 
C:\Users\Jesper\AppData\Local\Temp\cclZf3Mh.s:2741   .text.tml_softmax:0000000000000000 .L0 
C:\Users\Jesper\AppData\Local\Temp\cclZf3Mh.s:2742   .text.tml_softmax:0000000000000000 .L0 
C:\Users\Jesper\AppData\Local\Temp\cclZf3Mh.s:2744   .text.tml_softmax:0000000000000002 .L0 
C:\Users\Jesper\AppData\Local\Temp\cclZf3Mh.s:2748   .text.tml_softmax:0000000000000008 .L0 
C:\Users\Jesper\AppData\Local\Temp\cclZf3Mh.s:2749   .text.tml_softmax:0000000000000008 .L0 
C:\Users\Jesper\AppData\Local\Temp\cclZf3Mh.s:2750   .text.tml_softmax:0000000000000008 .L0 
C:\Users\Jesper\AppData\Local\Temp\cclZf3Mh.s:2760   .text.tml_softmax:000000000000001a .L0 
C:\Users\Jesper\AppData\Local\Temp\cclZf3Mh.s:2761   .text.tml_softmax:000000000000001a .L0 
C:\Users\Jesper\AppData\Local\Temp\cclZf3Mh.s:2762   .text.tml_softmax:000000000000001a .L0 
C:\Users\Jesper\AppData\Local\Temp\cclZf3Mh.s:2763   .text.tml_softmax:000000000000001a .L0 
C:\Users\Jesper\AppData\Local\Temp\cclZf3Mh.s:2764   .text.tml_softmax:000000000000001a .L0 
C:\Users\Jesper\AppData\Local\Temp\cclZf3Mh.s:2765   .text.tml_softmax:000000000000001a .L0 
C:\Users\Jesper\AppData\Local\Temp\cclZf3Mh.s:2766   .text.tml_softmax:000000000000001a .L0 
C:\Users\Jesper\AppData\Local\Temp\cclZf3Mh.s:2767   .text.tml_softmax:000000000000001a .L0 
C:\Users\Jesper\AppData\Local\Temp\cclZf3Mh.s:2772   .text.tml_softmax:0000000000000022 .L0 
C:\Users\Jesper\AppData\Local\Temp\cclZf3Mh.s:2773   .text.tml_softmax:0000000000000022 .L0 
C:\Users\Jesper\AppData\Local\Temp\cclZf3Mh.s:2775   .text.tml_softmax:0000000000000022 .L0 
C:\Users\Jesper\AppData\Local\Temp\cclZf3Mh.s:2779   .text.tml_softmax:0000000000000028 .L0 
C:\Users\Jesper\AppData\Local\Temp\cclZf3Mh.s:2782   .text.tml_softmax:0000000000000030 .L0 
C:\Users\Jesper\AppData\Local\Temp\cclZf3Mh.s:2783   .text.tml_softmax:0000000000000030 .L0 
C:\Users\Jesper\AppData\Local\Temp\cclZf3Mh.s:2784   .text.tml_softmax:0000000000000030 .L0 
GAS LISTING C:\Users\Jesper\AppData\Local\Temp\cclZf3Mh.s 			page 102


C:\Users\Jesper\AppData\Local\Temp\cclZf3Mh.s:2786   .text.tml_softmax:0000000000000034 .L0 
C:\Users\Jesper\AppData\Local\Temp\cclZf3Mh.s:2789   .text.tml_softmax:0000000000000038 .L0 
C:\Users\Jesper\AppData\Local\Temp\cclZf3Mh.s:2790   .text.tml_softmax:0000000000000038 .L0 
C:\Users\Jesper\AppData\Local\Temp\cclZf3Mh.s:2793   .text.tml_softmax:000000000000003c .L0 
C:\Users\Jesper\AppData\Local\Temp\cclZf3Mh.s:2795   .text.tml_softmax:000000000000003c .L0 
C:\Users\Jesper\AppData\Local\Temp\cclZf3Mh.s:2796   .text.tml_softmax:000000000000003c .L0 
C:\Users\Jesper\AppData\Local\Temp\cclZf3Mh.s:2797   .text.tml_softmax:000000000000003c .L0 
C:\Users\Jesper\AppData\Local\Temp\cclZf3Mh.s:2800   .text.tml_softmax:0000000000000040 .L0 
C:\Users\Jesper\AppData\Local\Temp\cclZf3Mh.s:2803   .text.tml_softmax:0000000000000044 .L0 
C:\Users\Jesper\AppData\Local\Temp\cclZf3Mh.s:2807   .text.tml_softmax:0000000000000046 .L0 
C:\Users\Jesper\AppData\Local\Temp\cclZf3Mh.s:2811   .text.tml_softmax:000000000000004a .L0 
C:\Users\Jesper\AppData\Local\Temp\cclZf3Mh.s:2819   .text.tml_softmax:0000000000000058 .L0 
C:\Users\Jesper\AppData\Local\Temp\cclZf3Mh.s:2822   .text.tml_softmax:000000000000005a .L0 
C:\Users\Jesper\AppData\Local\Temp\cclZf3Mh.s:2827   .text.tml_softmax:000000000000005e .L0 
C:\Users\Jesper\AppData\Local\Temp\cclZf3Mh.s:2829   .text.tml_softmax:0000000000000062 .L0 
C:\Users\Jesper\AppData\Local\Temp\cclZf3Mh.s:2833   .text.tml_softmax:0000000000000066 .L0 
C:\Users\Jesper\AppData\Local\Temp\cclZf3Mh.s:2837   .text.tml_softmax:0000000000000068 .L0 
C:\Users\Jesper\AppData\Local\Temp\cclZf3Mh.s:2839   .text.tml_softmax:000000000000006c .L0 
C:\Users\Jesper\AppData\Local\Temp\cclZf3Mh.s:2842   .text.tml_softmax:0000000000000070 .L0 
C:\Users\Jesper\AppData\Local\Temp\cclZf3Mh.s:2843   .text.tml_softmax:0000000000000070 .L0 
C:\Users\Jesper\AppData\Local\Temp\cclZf3Mh.s:2844   .text.tml_softmax:0000000000000072 .L0 
C:\Users\Jesper\AppData\Local\Temp\cclZf3Mh.s:2845   .text.tml_softmax:0000000000000072 .L0 
C:\Users\Jesper\AppData\Local\Temp\cclZf3Mh.s:2847   .text.tml_softmax:0000000000000074 .L0 
C:\Users\Jesper\AppData\Local\Temp\cclZf3Mh.s:2850   .text.tml_softmax:0000000000000076 .L0 
C:\Users\Jesper\AppData\Local\Temp\cclZf3Mh.s:2853   .text.tml_softmax:0000000000000078 .L0 
C:\Users\Jesper\AppData\Local\Temp\cclZf3Mh.s:2856   .text.tml_softmax:000000000000007a .L0 
C:\Users\Jesper\AppData\Local\Temp\cclZf3Mh.s:2859   .text.tml_softmax:000000000000007c .L0 
C:\Users\Jesper\AppData\Local\Temp\cclZf3Mh.s:2861   .text.tml_softmax:000000000000007e .L0 
C:\Users\Jesper\AppData\Local\Temp\cclZf3Mh.s:2864   .text.tml_softmax:0000000000000080 .L0 
C:\Users\Jesper\AppData\Local\Temp\cclZf3Mh.s:2866   .text.tml_softmax:0000000000000082 .L0 
C:\Users\Jesper\AppData\Local\Temp\cclZf3Mh.s:2868   .text.tml_softmax:0000000000000084 .L0 
C:\Users\Jesper\AppData\Local\Temp\cclZf3Mh.s:2871   .text.tml_softmax:0000000000000086 .L0 
C:\Users\Jesper\AppData\Local\Temp\cclZf3Mh.s:2874   .text.tml_softmax:0000000000000088 .L0 
C:\Users\Jesper\AppData\Local\Temp\cclZf3Mh.s:2877   .text.tml_softmax:000000000000008a .L0 
C:\Users\Jesper\AppData\Local\Temp\cclZf3Mh.s:2881   .text.tml_softmax:000000000000008e .L0 
C:\Users\Jesper\AppData\Local\Temp\cclZf3Mh.s:2886   .text.tml_softmax:0000000000000090 .L0 
C:\Users\Jesper\AppData\Local\Temp\cclZf3Mh.s:2889   .text.tml_softmax:0000000000000090 .L0 
C:\Users\Jesper\AppData\Local\Temp\cclZf3Mh.s:2890   .text.tml_softmax:0000000000000090 .L0 
C:\Users\Jesper\AppData\Local\Temp\cclZf3Mh.s:2892   .text.tml_softmax:0000000000000094 .L0 
C:\Users\Jesper\AppData\Local\Temp\cclZf3Mh.s:2894   .text.tml_softmax:0000000000000098 .L0 
C:\Users\Jesper\AppData\Local\Temp\cclZf3Mh.s:2898   .text.tml_softmax:00000000000000a4 .L0 
C:\Users\Jesper\AppData\Local\Temp\cclZf3Mh.s:2902   .text.tml_softmax:00000000000000ae .L0 
C:\Users\Jesper\AppData\Local\Temp\cclZf3Mh.s:2906   .text.tml_softmax:00000000000000b6 .L0 
C:\Users\Jesper\AppData\Local\Temp\cclZf3Mh.s:2907   .text.tml_softmax:00000000000000b6 .L0 
C:\Users\Jesper\AppData\Local\Temp\cclZf3Mh.s:2909   .text.tml_softmax:00000000000000b8 .L0 
C:\Users\Jesper\AppData\Local\Temp\cclZf3Mh.s:2911   .text.tml_softmax:00000000000000ba .L0 
C:\Users\Jesper\AppData\Local\Temp\cclZf3Mh.s:2915   .text.tml_softmax:00000000000000c6 .L0 
C:\Users\Jesper\AppData\Local\Temp\cclZf3Mh.s:2919   .text.tml_softmax:00000000000000c8 .L0 
C:\Users\Jesper\AppData\Local\Temp\cclZf3Mh.s:2927   .text.tml_softmax:00000000000000cc .L0 
C:\Users\Jesper\AppData\Local\Temp\cclZf3Mh.s:2928   .text.tml_softmax:00000000000000cc .L0 
C:\Users\Jesper\AppData\Local\Temp\cclZf3Mh.s:2931   .text.tml_softmax:00000000000000d0 .L0 
C:\Users\Jesper\AppData\Local\Temp\cclZf3Mh.s:2934   .text.tml_softmax:00000000000000d2 .L0 
C:\Users\Jesper\AppData\Local\Temp\cclZf3Mh.s:2938   .text.tml_softmax:00000000000000dc .L0 
C:\Users\Jesper\AppData\Local\Temp\cclZf3Mh.s:2939   .text.tml_softmax:00000000000000dc .L0 
C:\Users\Jesper\AppData\Local\Temp\cclZf3Mh.s:2944   .text.tml_softmax:00000000000000ec .L0 
C:\Users\Jesper\AppData\Local\Temp\cclZf3Mh.s:2947   .text.tml_softmax:00000000000000f4 .L0 
C:\Users\Jesper\AppData\Local\Temp\cclZf3Mh.s:2949   .text.tml_softmax:00000000000000f6 .L0 
GAS LISTING C:\Users\Jesper\AppData\Local\Temp\cclZf3Mh.s 			page 103


C:\Users\Jesper\AppData\Local\Temp\cclZf3Mh.s:2951   .text.tml_softmax:00000000000000f8 .L0 
C:\Users\Jesper\AppData\Local\Temp\cclZf3Mh.s:2952   .text.tml_softmax:00000000000000f8 .L0 
C:\Users\Jesper\AppData\Local\Temp\cclZf3Mh.s:2958   .text.tml_softmax:0000000000000104 .L0 
C:\Users\Jesper\AppData\Local\Temp\cclZf3Mh.s:2959   .text.tml_softmax:0000000000000104 .L0 
C:\Users\Jesper\AppData\Local\Temp\cclZf3Mh.s:2977   .text.tml_softmax:0000000000000128 .L0 
C:\Users\Jesper\AppData\Local\Temp\cclZf3Mh.s:2978   .text.tml_softmax:0000000000000128 .L0 
C:\Users\Jesper\AppData\Local\Temp\cclZf3Mh.s:2981   .text.tml_softmax:000000000000012e .L0 
C:\Users\Jesper\AppData\Local\Temp\cclZf3Mh.s:2984   .text.tml_softmax:0000000000000132 .L0 
C:\Users\Jesper\AppData\Local\Temp\cclZf3Mh.s:2986   .text.tml_softmax:0000000000000136 .L0 
C:\Users\Jesper\AppData\Local\Temp\cclZf3Mh.s:2989   .text.tml_softmax:000000000000013e .L0 
C:\Users\Jesper\AppData\Local\Temp\cclZf3Mh.s:2994   .text.tml_softmax:000000000000014a .L0 
C:\Users\Jesper\AppData\Local\Temp\cclZf3Mh.s:3002   .text.tml_softmax:0000000000000160 .L0 
C:\Users\Jesper\AppData\Local\Temp\cclZf3Mh.s:3004   .text.tml_softmax:0000000000000162 .L0 
C:\Users\Jesper\AppData\Local\Temp\cclZf3Mh.s:3008   .text.tml_softmax:000000000000016e .L0 
C:\Users\Jesper\AppData\Local\Temp\cclZf3Mh.s:3012   .text.tml_softmax:0000000000000172 .L0 
C:\Users\Jesper\AppData\Local\Temp\cclZf3Mh.s:3019   .text.tml_reshape:0000000000000000 tml_reshape
C:\Users\Jesper\AppData\Local\Temp\cclZf3Mh.s:3022   .text.tml_reshape:0000000000000000 .L0 
C:\Users\Jesper\AppData\Local\Temp\cclZf3Mh.s:3024   .text.tml_reshape:0000000000000000 .L0 
C:\Users\Jesper\AppData\Local\Temp\cclZf3Mh.s:3025   .text.tml_reshape:0000000000000000 .L0 
C:\Users\Jesper\AppData\Local\Temp\cclZf3Mh.s:3026   .text.tml_reshape:0000000000000000 .L0 
C:\Users\Jesper\AppData\Local\Temp\cclZf3Mh.s:3029   .text.tml_reshape:0000000000000004 .L0 
C:\Users\Jesper\AppData\Local\Temp\cclZf3Mh.s:3036   .text.tml_add:0000000000000000 tml_add
C:\Users\Jesper\AppData\Local\Temp\cclZf3Mh.s:3039   .text.tml_add:0000000000000000 .L0 
C:\Users\Jesper\AppData\Local\Temp\cclZf3Mh.s:3041   .text.tml_add:0000000000000000 .L0 
C:\Users\Jesper\AppData\Local\Temp\cclZf3Mh.s:3042   .text.tml_add:0000000000000000 .L0 
C:\Users\Jesper\AppData\Local\Temp\cclZf3Mh.s:3043   .text.tml_add:0000000000000000 .L0 
C:\Users\Jesper\AppData\Local\Temp\cclZf3Mh.s:3045   .text.tml_add:0000000000000002 .L0 
C:\Users\Jesper\AppData\Local\Temp\cclZf3Mh.s:3047   .text.tml_add:0000000000000004 .L0 
C:\Users\Jesper\AppData\Local\Temp\cclZf3Mh.s:3050   .text.tml_add:0000000000000006 .L0 
C:\Users\Jesper\AppData\Local\Temp\cclZf3Mh.s:3053   .text.tml_add:0000000000000008 .L0 
C:\Users\Jesper\AppData\Local\Temp\cclZf3Mh.s:3054   .text.tml_add:000000000000000a .L0 
C:\Users\Jesper\AppData\Local\Temp\cclZf3Mh.s:3056   .text.tml_add:000000000000000a .L0 
C:\Users\Jesper\AppData\Local\Temp\cclZf3Mh.s:3058   .text.tml_add:000000000000000e .L0 
C:\Users\Jesper\AppData\Local\Temp\cclZf3Mh.s:3060   .text.tml_add:0000000000000010 .L0 
C:\Users\Jesper\AppData\Local\Temp\cclZf3Mh.s:3062   .text.tml_add:0000000000000014 .L0 
C:\Users\Jesper\AppData\Local\Temp\cclZf3Mh.s:3063   .text.tml_add:0000000000000016 .L0 
C:\Users\Jesper\AppData\Local\Temp\cclZf3Mh.s:3065   .text.tml_add:0000000000000016 .L0 
C:\Users\Jesper\AppData\Local\Temp\cclZf3Mh.s:3068   .text.tml_add:000000000000001a .L0 
C:\Users\Jesper\AppData\Local\Temp\cclZf3Mh.s:3069   .text.tml_add:000000000000001a .L0 
C:\Users\Jesper\AppData\Local\Temp\cclZf3Mh.s:3070   .text.tml_add:000000000000001a .L0 
C:\Users\Jesper\AppData\Local\Temp\cclZf3Mh.s:3072   .text.tml_add:000000000000001e .L0 
C:\Users\Jesper\AppData\Local\Temp\cclZf3Mh.s:3074   .text.tml_add:0000000000000022 .L0 
C:\Users\Jesper\AppData\Local\Temp\cclZf3Mh.s:3077   .text.tml_add:0000000000000024 .L0 
C:\Users\Jesper\AppData\Local\Temp\cclZf3Mh.s:3081   .text.tml_add:000000000000002c .L0 
C:\Users\Jesper\AppData\Local\Temp\cclZf3Mh.s:3082   .text.tml_add:000000000000002c .L0 
C:\Users\Jesper\AppData\Local\Temp\cclZf3Mh.s:3083   .text.tml_add:000000000000002c .L0 
C:\Users\Jesper\AppData\Local\Temp\cclZf3Mh.s:3084   .text.tml_add:000000000000002c .L0 
C:\Users\Jesper\AppData\Local\Temp\cclZf3Mh.s:3089   .text.tml_add:0000000000000032 .L0 
C:\Users\Jesper\AppData\Local\Temp\cclZf3Mh.s:3090   .text.tml_add:0000000000000036 .L0 
C:\Users\Jesper\AppData\Local\Temp\cclZf3Mh.s:3092   .text.tml_add:0000000000000036 .L0 
C:\Users\Jesper\AppData\Local\Temp\cclZf3Mh.s:3097   .text.tml_add:0000000000000040 .L0 
C:\Users\Jesper\AppData\Local\Temp\cclZf3Mh.s:3098   .text.tml_add:0000000000000040 .L0 
C:\Users\Jesper\AppData\Local\Temp\cclZf3Mh.s:3099   .text.tml_add:0000000000000040 .L0 
C:\Users\Jesper\AppData\Local\Temp\cclZf3Mh.s:3100   .text.tml_add:0000000000000040 .L0 
C:\Users\Jesper\AppData\Local\Temp\cclZf3Mh.s:3103   .text.tml_add:0000000000000042 .L0 
C:\Users\Jesper\AppData\Local\Temp\cclZf3Mh.s:3106   .text.tml_add:0000000000000046 .L0 
C:\Users\Jesper\AppData\Local\Temp\cclZf3Mh.s:3107   .text.tml_add:0000000000000046 .L0 
GAS LISTING C:\Users\Jesper\AppData\Local\Temp\cclZf3Mh.s 			page 104


C:\Users\Jesper\AppData\Local\Temp\cclZf3Mh.s:3108   .text.tml_add:0000000000000046 .L0 
C:\Users\Jesper\AppData\Local\Temp\cclZf3Mh.s:3109   .text.tml_add:0000000000000048 .L0 
C:\Users\Jesper\AppData\Local\Temp\cclZf3Mh.s:3111   .text.tml_add:0000000000000048 .L0 
C:\Users\Jesper\AppData\Local\Temp\cclZf3Mh.s:3129   .text.tml_add:000000000000007a .L0 
C:\Users\Jesper\AppData\Local\Temp\cclZf3Mh.s:3130   .text.tml_add:000000000000007a .L0 
C:\Users\Jesper\AppData\Local\Temp\cclZf3Mh.s:3138   .text.tml_add:0000000000000086 .L0 
C:\Users\Jesper\AppData\Local\Temp\cclZf3Mh.s:3143   .text.tml_add:000000000000008e .L0 
C:\Users\Jesper\AppData\Local\Temp\cclZf3Mh.s:3145   .text.tml_add:0000000000000092 .L0 
C:\Users\Jesper\AppData\Local\Temp\cclZf3Mh.s:3146   .text.tml_add:0000000000000092 .L0 
C:\Users\Jesper\AppData\Local\Temp\cclZf3Mh.s:3147   .text.tml_add:0000000000000094 .L0 
C:\Users\Jesper\AppData\Local\Temp\cclZf3Mh.s:3148   .text.tml_add:0000000000000094 .L0 
C:\Users\Jesper\AppData\Local\Temp\cclZf3Mh.s:3150   .text.tml_add:0000000000000096 .L0 
C:\Users\Jesper\AppData\Local\Temp\cclZf3Mh.s:3153   .text.tml_add:0000000000000098 .L0 
C:\Users\Jesper\AppData\Local\Temp\cclZf3Mh.s:3156   .text.tml_add:000000000000009a .L0 
C:\Users\Jesper\AppData\Local\Temp\cclZf3Mh.s:3159   .text.tml_add:000000000000009c .L0 
C:\Users\Jesper\AppData\Local\Temp\cclZf3Mh.s:3162   .text.tml_add:000000000000009e .L0 
C:\Users\Jesper\AppData\Local\Temp\cclZf3Mh.s:3165   .text.tml_add:00000000000000a0 .L0 
C:\Users\Jesper\AppData\Local\Temp\cclZf3Mh.s:3168   .text.tml_add:00000000000000a2 .L0 
C:\Users\Jesper\AppData\Local\Temp\cclZf3Mh.s:3170   .text.tml_add:00000000000000a4 .L0 
C:\Users\Jesper\AppData\Local\Temp\cclZf3Mh.s:3172   .text.tml_add:00000000000000a6 .L0 
C:\Users\Jesper\AppData\Local\Temp\cclZf3Mh.s:3175   .text.tml_add:00000000000000a8 .L0 
C:\Users\Jesper\AppData\Local\Temp\cclZf3Mh.s:3177   .text.tml_add:00000000000000aa .L0 
C:\Users\Jesper\AppData\Local\Temp\cclZf3Mh.s:3180   .text.tml_add:00000000000000ac .L0 
C:\Users\Jesper\AppData\Local\Temp\cclZf3Mh.s:3185   .text.tml_add:00000000000000b0 .L0 
C:\Users\Jesper\AppData\Local\Temp\cclZf3Mh.s:3191   .text.tml_add:00000000000000b2 .L0 
C:\Users\Jesper\AppData\Local\Temp\cclZf3Mh.s:3193   .text.tml_add:00000000000000b2 .L0 
C:\Users\Jesper\AppData\Local\Temp\cclZf3Mh.s:3196   .text.tml_add:00000000000000b6 .L0 
C:\Users\Jesper\AppData\Local\Temp\cclZf3Mh.s:3199   .text.tml_add:00000000000000b8 .L0 
C:\Users\Jesper\AppData\Local\Temp\cclZf3Mh.s:3235   .text.tml_add:000000000000012a .L0 
C:\Users\Jesper\AppData\Local\Temp\cclZf3Mh.s:3236   .text.tml_add:000000000000012a .L0 
C:\Users\Jesper\AppData\Local\Temp\cclZf3Mh.s:3237   .text.tml_add:000000000000012a .L0 
C:\Users\Jesper\AppData\Local\Temp\cclZf3Mh.s:3267   .text.tml_add:000000000000018e .L0 
C:\Users\Jesper\AppData\Local\Temp\cclZf3Mh.s:3268   .text.tml_add:000000000000018e .L0 
C:\Users\Jesper\AppData\Local\Temp\cclZf3Mh.s:3269   .text.tml_add:000000000000018e .L0 
C:\Users\Jesper\AppData\Local\Temp\cclZf3Mh.s:3299   .text.tml_add:00000000000001f2 .L0 
C:\Users\Jesper\AppData\Local\Temp\cclZf3Mh.s:3300   .text.tml_add:00000000000001f2 .L0 
C:\Users\Jesper\AppData\Local\Temp\cclZf3Mh.s:3301   .text.tml_add:00000000000001f2 .L0 
C:\Users\Jesper\AppData\Local\Temp\cclZf3Mh.s:3331   .text.tml_add:0000000000000256 .L0 
C:\Users\Jesper\AppData\Local\Temp\cclZf3Mh.s:3336   .text.tml_add:000000000000025a .L0 
C:\Users\Jesper\AppData\Local\Temp\cclZf3Mh.s:3337   .text.tml_add:000000000000025a .L0 
C:\Users\Jesper\AppData\Local\Temp\cclZf3Mh.s:3340   .text.tml_add:0000000000000262 .L0 
C:\Users\Jesper\AppData\Local\Temp\cclZf3Mh.s:3342   .text.tml_add:0000000000000266 .L0 
C:\Users\Jesper\AppData\Local\Temp\cclZf3Mh.s:3353   .text.tml_add:0000000000000286 .L0 
C:\Users\Jesper\AppData\Local\Temp\cclZf3Mh.s:3356   .text.tml_add:0000000000000288 .L0 
C:\Users\Jesper\AppData\Local\Temp\cclZf3Mh.s:3381   .text.tml_add:00000000000002da .L0 
C:\Users\Jesper\AppData\Local\Temp\cclZf3Mh.s:3386   .bss.k_oft:0000000000000000 .LANCHOR0
C:\Users\Jesper\AppData\Local\Temp\cclZf3Mh.s:3389   .bss.k_oft:0000000000000000 k_oft
C:\Users\Jesper\AppData\Local\Temp\cclZf3Mh.s:2165   .text.tml_conv2d_dwconv2d:00000000000009c4 .L0 
C:\Users\Jesper\AppData\Local\Temp\cclZf3Mh.s:2373   .text.tml_gap:00000000000000d6 .L0 
C:\Users\Jesper\AppData\Local\Temp\cclZf3Mh.s:2729   .text.tml_fc:0000000000000176 .L0 
C:\Users\Jesper\AppData\Local\Temp\cclZf3Mh.s:3015   .text.tml_softmax:0000000000000172 .L0 
C:\Users\Jesper\AppData\Local\Temp\cclZf3Mh.s:3032   .text.tml_reshape:0000000000000004 .L0 
C:\Users\Jesper\AppData\Local\Temp\cclZf3Mh.s:3384   .text.tml_add:00000000000002da .L0 
                     .debug_frame:0000000000000000 .L0 
C:\Users\Jesper\AppData\Local\Temp\cclZf3Mh.s:3411   .rodata.tml_conv2d_dwconv2d.cst4:0000000000000004 .LC1
C:\Users\Jesper\AppData\Local\Temp\cclZf3Mh.s:3409   .rodata.tml_conv2d_dwconv2d.cst4:0000000000000000 .LC0
C:\Users\Jesper\AppData\Local\Temp\cclZf3Mh.s:2149   .text.tml_conv2d_dwconv2d:00000000000009c0 .L87
GAS LISTING C:\Users\Jesper\AppData\Local\Temp\cclZf3Mh.s 			page 105


C:\Users\Jesper\AppData\Local\Temp\cclZf3Mh.s:1178   .text.tml_conv2d_dwconv2d:000000000000053a .L1
C:\Users\Jesper\AppData\Local\Temp\cclZf3Mh.s:122    .text.tml_conv2d_dwconv2d:000000000000006c .L3
C:\Users\Jesper\AppData\Local\Temp\cclZf3Mh.s:210    .text.tml_conv2d_dwconv2d:00000000000000dc .L5
C:\Users\Jesper\AppData\Local\Temp\cclZf3Mh.s:232    .text.tml_conv2d_dwconv2d:00000000000000fa .L6
C:\Users\Jesper\AppData\Local\Temp\cclZf3Mh.s:183    .text.tml_conv2d_dwconv2d:00000000000000b8 .L7
C:\Users\Jesper\AppData\Local\Temp\cclZf3Mh.s:1097   .text.tml_conv2d_dwconv2d:0000000000000500 .L36
C:\Users\Jesper\AppData\Local\Temp\cclZf3Mh.s:1075   .text.tml_conv2d_dwconv2d:00000000000004e8 .L37
C:\Users\Jesper\AppData\Local\Temp\cclZf3Mh.s:172    .text.tml_conv2d_dwconv2d:00000000000000a6 .L4
C:\Users\Jesper\AppData\Local\Temp\cclZf3Mh.s:1173   .text.tml_conv2d_dwconv2d:0000000000000538 .L131
C:\Users\Jesper\AppData\Local\Temp\cclZf3Mh.s:358    .text.tml_conv2d_dwconv2d:000000000000019a .L34
C:\Users\Jesper\AppData\Local\Temp\cclZf3Mh.s:526    .text.tml_conv2d_dwconv2d:0000000000000276 .L17
C:\Users\Jesper\AppData\Local\Temp\cclZf3Mh.s:776    .text.tml_conv2d_dwconv2d:0000000000000390 .L31
C:\Users\Jesper\AppData\Local\Temp\cclZf3Mh.s:278    .text.tml_conv2d_dwconv2d:0000000000000128 .L32
C:\Users\Jesper\AppData\Local\Temp\cclZf3Mh.s:262    .text.tml_conv2d_dwconv2d:0000000000000116 .L9
C:\Users\Jesper\AppData\Local\Temp\cclZf3Mh.s:493    .text.tml_conv2d_dwconv2d:000000000000023c .L11
C:\Users\Jesper\AppData\Local\Temp\cclZf3Mh.s:508    .text.tml_conv2d_dwconv2d:0000000000000252 .L12
C:\Users\Jesper\AppData\Local\Temp\cclZf3Mh.s:380    .text.tml_conv2d_dwconv2d:00000000000001b6 .L95
C:\Users\Jesper\AppData\Local\Temp\cclZf3Mh.s:311    .text.tml_conv2d_dwconv2d:0000000000000156 .L10
C:\Users\Jesper\AppData\Local\Temp\cclZf3Mh.s:427    .text.tml_conv2d_dwconv2d:00000000000001ea .L13
C:\Users\Jesper\AppData\Local\Temp\cclZf3Mh.s:503    .text.tml_conv2d_dwconv2d:000000000000024c .L123
C:\Users\Jesper\AppData\Local\Temp\cclZf3Mh.s:716    .text.tml_conv2d_dwconv2d:0000000000000354 .L19
C:\Users\Jesper\AppData\Local\Temp\cclZf3Mh.s:553    .text.tml_conv2d_dwconv2d:0000000000000284 .L20
C:\Users\Jesper\AppData\Local\Temp\cclZf3Mh.s:744    .text.tml_conv2d_dwconv2d:0000000000000380 .L21
C:\Users\Jesper\AppData\Local\Temp\cclZf3Mh.s:388    .text.tml_conv2d_dwconv2d:00000000000001b8 .L16
C:\Users\Jesper\AppData\Local\Temp\cclZf3Mh.s:898    .text.tml_conv2d_dwconv2d:0000000000000408 .L23
C:\Users\Jesper\AppData\Local\Temp\cclZf3Mh.s:994    .text.tml_conv2d_dwconv2d:000000000000047e .L25
C:\Users\Jesper\AppData\Local\Temp\cclZf3Mh.s:1014   .text.tml_conv2d_dwconv2d:0000000000000498 .L26
C:\Users\Jesper\AppData\Local\Temp\cclZf3Mh.s:1031   .text.tml_conv2d_dwconv2d:00000000000004ae .L27
C:\Users\Jesper\AppData\Local\Temp\cclZf3Mh.s:335    .text.tml_conv2d_dwconv2d:000000000000017a .L18
C:\Users\Jesper\AppData\Local\Temp\cclZf3Mh.s:795    .text.tml_conv2d_dwconv2d:000000000000039a .L22
C:\Users\Jesper\AppData\Local\Temp\cclZf3Mh.s:800    .text.tml_conv2d_dwconv2d:00000000000003a2 .L24
C:\Users\Jesper\AppData\Local\Temp\cclZf3Mh.s:837    .text.tml_conv2d_dwconv2d:00000000000003ce .L28
C:\Users\Jesper\AppData\Local\Temp\cclZf3Mh.s:1026   .text.tml_conv2d_dwconv2d:00000000000004a8 .L125
C:\Users\Jesper\AppData\Local\Temp\cclZf3Mh.s:1051   .text.tml_conv2d_dwconv2d:00000000000004de .L35
C:\Users\Jesper\AppData\Local\Temp\cclZf3Mh.s:195    .text.tml_conv2d_dwconv2d:00000000000000ca .L8
C:\Users\Jesper\AppData\Local\Temp\cclZf3Mh.s:1103   .text.tml_conv2d_dwconv2d:0000000000000506 .L38
C:\Users\Jesper\AppData\Local\Temp\cclZf3Mh.s:1214   .text.tml_conv2d_dwconv2d:000000000000055a .L39
C:\Users\Jesper\AppData\Local\Temp\cclZf3Mh.s:1228   .text.tml_conv2d_dwconv2d:0000000000000564 .L86
C:\Users\Jesper\AppData\Local\Temp\cclZf3Mh.s:1120   .text.tml_conv2d_dwconv2d:0000000000000514 .L42
C:\Users\Jesper\AppData\Local\Temp\cclZf3Mh.s:1291   .text.tml_conv2d_dwconv2d:00000000000005ce .L85
C:\Users\Jesper\AppData\Local\Temp\cclZf3Mh.s:1155   .text.tml_conv2d_dwconv2d:000000000000052c .L43
C:\Users\Jesper\AppData\Local\Temp\cclZf3Mh.s:1426   .text.tml_conv2d_dwconv2d:000000000000066a .L47
C:\Users\Jesper\AppData\Local\Temp\cclZf3Mh.s:1420   .text.tml_conv2d_dwconv2d:0000000000000666 .L99
C:\Users\Jesper\AppData\Local\Temp\cclZf3Mh.s:1557   .text.tml_conv2d_dwconv2d:00000000000006f0 .L53
C:\Users\Jesper\AppData\Local\Temp\cclZf3Mh.s:1982   .text.tml_conv2d_dwconv2d:00000000000008e4 .L83
C:\Users\Jesper\AppData\Local\Temp\cclZf3Mh.s:1371   .text.tml_conv2d_dwconv2d:0000000000000636 .L49
C:\Users\Jesper\AppData\Local\Temp\cclZf3Mh.s:1412   .text.tml_conv2d_dwconv2d:0000000000000660 .L51
C:\Users\Jesper\AppData\Local\Temp\cclZf3Mh.s:1342   .text.tml_conv2d_dwconv2d:0000000000000616 .L48
C:\Users\Jesper\AppData\Local\Temp\cclZf3Mh.s:1397   .text.tml_conv2d_dwconv2d:0000000000000650 .L52
C:\Users\Jesper\AppData\Local\Temp\cclZf3Mh.s:1448   .text.tml_conv2d_dwconv2d:0000000000000680 .L56
C:\Users\Jesper\AppData\Local\Temp\cclZf3Mh.s:1456   .text.tml_conv2d_dwconv2d:000000000000068a .L57
C:\Users\Jesper\AppData\Local\Temp\cclZf3Mh.s:1347   .text.tml_conv2d_dwconv2d:000000000000061c .L64
C:\Users\Jesper\AppData\Local\Temp\cclZf3Mh.s:1527   .text.tml_conv2d_dwconv2d:00000000000006d6 .L63
C:\Users\Jesper\AppData\Local\Temp\cclZf3Mh.s:1493   .text.tml_conv2d_dwconv2d:00000000000006b2 .L59
C:\Users\Jesper\AppData\Local\Temp\cclZf3Mh.s:1550   .text.tml_conv2d_dwconv2d:00000000000006ec .L101
C:\Users\Jesper\AppData\Local\Temp\cclZf3Mh.s:1542   .text.tml_conv2d_dwconv2d:00000000000006e6 .L62
C:\Users\Jesper\AppData\Local\Temp\cclZf3Mh.s:1482   .text.tml_conv2d_dwconv2d:00000000000006a4 .L58
GAS LISTING C:\Users\Jesper\AppData\Local\Temp\cclZf3Mh.s 			page 106


C:\Users\Jesper\AppData\Local\Temp\cclZf3Mh.s:1515   .text.tml_conv2d_dwconv2d:00000000000006ca .L60
C:\Users\Jesper\AppData\Local\Temp\cclZf3Mh.s:1356   .text.tml_conv2d_dwconv2d:0000000000000624 .L54
C:\Users\Jesper\AppData\Local\Temp\cclZf3Mh.s:1603   .text.tml_conv2d_dwconv2d:0000000000000728 .L71
C:\Users\Jesper\AppData\Local\Temp\cclZf3Mh.s:1265   .text.tml_conv2d_dwconv2d:00000000000005ae .L46
C:\Users\Jesper\AppData\Local\Temp\cclZf3Mh.s:1801   .text.tml_conv2d_dwconv2d:000000000000080c .L66
C:\Users\Jesper\AppData\Local\Temp\cclZf3Mh.s:1816   .text.tml_conv2d_dwconv2d:0000000000000822 .L67
C:\Users\Jesper\AppData\Local\Temp\cclZf3Mh.s:1573   .text.tml_conv2d_dwconv2d:0000000000000704 .L65
C:\Users\Jesper\AppData\Local\Temp\cclZf3Mh.s:1735   .text.tml_conv2d_dwconv2d:00000000000007ce .L68
C:\Users\Jesper\AppData\Local\Temp\cclZf3Mh.s:1811   .text.tml_conv2d_dwconv2d:000000000000081c .L127
C:\Users\Jesper\AppData\Local\Temp\cclZf3Mh.s:1997   .text.tml_conv2d_dwconv2d:00000000000008f6 .L74
C:\Users\Jesper\AppData\Local\Temp\cclZf3Mh.s:2094   .text.tml_conv2d_dwconv2d:000000000000096c .L76
C:\Users\Jesper\AppData\Local\Temp\cclZf3Mh.s:2114   .text.tml_conv2d_dwconv2d:0000000000000986 .L77
C:\Users\Jesper\AppData\Local\Temp\cclZf3Mh.s:2131   .text.tml_conv2d_dwconv2d:000000000000099c .L78
C:\Users\Jesper\AppData\Local\Temp\cclZf3Mh.s:1935   .text.tml_conv2d_dwconv2d:00000000000008a2 .L82
C:\Users\Jesper\AppData\Local\Temp\cclZf3Mh.s:1836   .text.tml_conv2d_dwconv2d:0000000000000852 .L84
C:\Users\Jesper\AppData\Local\Temp\cclZf3Mh.s:1583   .text.tml_conv2d_dwconv2d:0000000000000714 .L72
C:\Users\Jesper\AppData\Local\Temp\cclZf3Mh.s:1867   .text.tml_conv2d_dwconv2d:0000000000000864 .L73
C:\Users\Jesper\AppData\Local\Temp\cclZf3Mh.s:1871   .text.tml_conv2d_dwconv2d:000000000000086c .L75
C:\Users\Jesper\AppData\Local\Temp\cclZf3Mh.s:1909   .text.tml_conv2d_dwconv2d:000000000000089c .L79
C:\Users\Jesper\AppData\Local\Temp\cclZf3Mh.s:2126   .text.tml_conv2d_dwconv2d:0000000000000996 .L129
C:\Users\Jesper\AppData\Local\Temp\cclZf3Mh.s:2262   .text.tml_gap:000000000000004e .L137
C:\Users\Jesper\AppData\Local\Temp\cclZf3Mh.s:2360   .text.tml_gap:00000000000000d0 .L138
C:\Users\Jesper\AppData\Local\Temp\cclZf3Mh.s:2220   .text.tml_gap:000000000000002c .L133
C:\Users\Jesper\AppData\Local\Temp\cclZf3Mh.s:2334   .text.tml_gap:00000000000000bc .L135
C:\Users\Jesper\AppData\Local\Temp\cclZf3Mh.s:2289   .text.tml_gap:0000000000000062 .L134
C:\Users\Jesper\AppData\Local\Temp\cclZf3Mh.s:2350   .text.tml_gap:00000000000000c6 .L136
C:\Users\Jesper\AppData\Local\Temp\cclZf3Mh.s:2504   .text.tml_fc:0000000000000066 .L146
C:\Users\Jesper\AppData\Local\Temp\cclZf3Mh.s:2603   .text.tml_fc:00000000000000e6 .L143
C:\Users\Jesper\AppData\Local\Temp\cclZf3Mh.s:2699   .text.tml_fc:000000000000015c .L145
C:\Users\Jesper\AppData\Local\Temp\cclZf3Mh.s:2450   .text.tml_fc:000000000000003e .L141
C:\Users\Jesper\AppData\Local\Temp\cclZf3Mh.s:2540   .text.tml_fc:000000000000007a .L142
C:\Users\Jesper\AppData\Local\Temp\cclZf3Mh.s:2545   .text.tml_fc:0000000000000082 .L144
C:\Users\Jesper\AppData\Local\Temp\cclZf3Mh.s:3415   .rodata.tml_softmax.cst4:0000000000000000 .LC2
C:\Users\Jesper\AppData\Local\Temp\cclZf3Mh.s:3419   .rodata.tml_softmax.cst8:0000000000000000 .LC3
C:\Users\Jesper\AppData\Local\Temp\cclZf3Mh.s:2884   .text.tml_softmax:0000000000000090 .L152
C:\Users\Jesper\AppData\Local\Temp\cclZf3Mh.s:2923   .text.tml_softmax:00000000000000cc .L154
C:\Users\Jesper\AppData\Local\Temp\cclZf3Mh.s:2973   .text.tml_softmax:0000000000000128 .L156
C:\Users\Jesper\AppData\Local\Temp\cclZf3Mh.s:2917   .text.tml_softmax:00000000000000c8 .L150
C:\Users\Jesper\AppData\Local\Temp\cclZf3Mh.s:2805   .text.tml_softmax:0000000000000046 .L149
C:\Users\Jesper\AppData\Local\Temp\cclZf3Mh.s:2824   .text.tml_softmax:000000000000005e .L153
C:\Users\Jesper\AppData\Local\Temp\cclZf3Mh.s:2835   .text.tml_softmax:0000000000000068 .L155
C:\Users\Jesper\AppData\Local\Temp\cclZf3Mh.s:3405   .rodata.tml_add.str1.4:0000000000000000 .LC4
C:\Users\Jesper\AppData\Local\Temp\cclZf3Mh.s:3189   .text.tml_add:00000000000000b2 .L162
C:\Users\Jesper\AppData\Local\Temp\cclZf3Mh.s:3334   .text.tml_add:000000000000025a .L164
C:\Users\Jesper\AppData\Local\Temp\cclZf3Mh.s:3136   .text.tml_add:0000000000000086 .L161
C:\Users\Jesper\AppData\Local\Temp\cclZf3Mh.s:3141   .text.tml_add:000000000000008e .L163
C:\Users\Jesper\AppData\Local\Temp\cclZf3Mh.s:7011   .debug_abbrev:0000000000000000 .Ldebug_abbrev0
C:\Users\Jesper\AppData\Local\Temp\cclZf3Mh.s:16633  .debug_str:0000000000000611 .LASF228
C:\Users\Jesper\AppData\Local\Temp\cclZf3Mh.s:16707  .debug_str:00000000000007b7 .LASF229
C:\Users\Jesper\AppData\Local\Temp\cclZf3Mh.s:16459  .debug_str:0000000000000257 .LASF230
C:\Users\Jesper\AppData\Local\Temp\cclZf3Mh.s:15943  .debug_ranges:0000000000000000 .Ldebug_ranges0
C:\Users\Jesper\AppData\Local\Temp\cclZf3Mh.s:16327  .debug_line:0000000000000000 .Ldebug_line0
C:\Users\Jesper\AppData\Local\Temp\cclZf3Mh.s:16425  .debug_str:00000000000001b1 .LASF0
C:\Users\Jesper\AppData\Local\Temp\cclZf3Mh.s:16619  .debug_str:00000000000005d7 .LASF4
C:\Users\Jesper\AppData\Local\Temp\cclZf3Mh.s:16747  .debug_str:0000000000000889 .LASF1
C:\Users\Jesper\AppData\Local\Temp\cclZf3Mh.s:16709  .debug_str:00000000000007d4 .LASF2
C:\Users\Jesper\AppData\Local\Temp\cclZf3Mh.s:16641  .debug_str:00000000000006b0 .LASF3
GAS LISTING C:\Users\Jesper\AppData\Local\Temp\cclZf3Mh.s 			page 107


C:\Users\Jesper\AppData\Local\Temp\cclZf3Mh.s:16447  .debug_str:000000000000021d .LASF5
C:\Users\Jesper\AppData\Local\Temp\cclZf3Mh.s:16751  .debug_str:000000000000089c .LASF6
C:\Users\Jesper\AppData\Local\Temp\cclZf3Mh.s:16361  .debug_str:000000000000008d .LASF7
C:\Users\Jesper\AppData\Local\Temp\cclZf3Mh.s:16643  .debug_str:00000000000006ba .LASF8
C:\Users\Jesper\AppData\Local\Temp\cclZf3Mh.s:16711  .debug_str:00000000000007e2 .LASF9
C:\Users\Jesper\AppData\Local\Temp\cclZf3Mh.s:16685  .debug_str:000000000000075e .LASF10
C:\Users\Jesper\AppData\Local\Temp\cclZf3Mh.s:16571  .debug_str:00000000000004d7 .LASF11
C:\Users\Jesper\AppData\Local\Temp\cclZf3Mh.s:16501  .debug_str:000000000000037b .LASF12
C:\Users\Jesper\AppData\Local\Temp\cclZf3Mh.s:16439  .debug_str:00000000000001ec .LASF13
C:\Users\Jesper\AppData\Local\Temp\cclZf3Mh.s:16351  .debug_str:0000000000000065 .LASF14
C:\Users\Jesper\AppData\Local\Temp\cclZf3Mh.s:16411  .debug_str:000000000000016c .LASF15
C:\Users\Jesper\AppData\Local\Temp\cclZf3Mh.s:16629  .debug_str:0000000000000601 .LASF16
C:\Users\Jesper\AppData\Local\Temp\cclZf3Mh.s:16691  .debug_str:000000000000077e .LASF17
C:\Users\Jesper\AppData\Local\Temp\cclZf3Mh.s:16409  .debug_str:0000000000000163 .LASF18
C:\Users\Jesper\AppData\Local\Temp\cclZf3Mh.s:16655  .debug_str:00000000000006e3 .LASF19
C:\Users\Jesper\AppData\Local\Temp\cclZf3Mh.s:16627  .debug_str:00000000000005f5 .LASF20
C:\Users\Jesper\AppData\Local\Temp\cclZf3Mh.s:16689  .debug_str:0000000000000777 .LASF21
C:\Users\Jesper\AppData\Local\Temp\cclZf3Mh.s:16761  .debug_str:00000000000008cb .LASF22
C:\Users\Jesper\AppData\Local\Temp\cclZf3Mh.s:16387  .debug_str:0000000000000102 .LASF23
C:\Users\Jesper\AppData\Local\Temp\cclZf3Mh.s:16745  .debug_str:0000000000000880 .LASF24
C:\Users\Jesper\AppData\Local\Temp\cclZf3Mh.s:16545  .debug_str:0000000000000460 .LASF25
C:\Users\Jesper\AppData\Local\Temp\cclZf3Mh.s:16653  .debug_str:00000000000006dc .LASF26
C:\Users\Jesper\AppData\Local\Temp\cclZf3Mh.s:16423  .debug_str:00000000000001a9 .LASF27
C:\Users\Jesper\AppData\Local\Temp\cclZf3Mh.s:16507  .debug_str:000000000000039a .LASF28
C:\Users\Jesper\AppData\Local\Temp\cclZf3Mh.s:16601  .debug_str:0000000000000572 .LASF29
C:\Users\Jesper\AppData\Local\Temp\cclZf3Mh.s:16583  .debug_str:0000000000000516 .LASF30
C:\Users\Jesper\AppData\Local\Temp\cclZf3Mh.s:16371  .debug_str:00000000000000b4 .LASF31
C:\Users\Jesper\AppData\Local\Temp\cclZf3Mh.s:16537  .debug_str:000000000000043c .LASF32
C:\Users\Jesper\AppData\Local\Temp\cclZf3Mh.s:16399  .debug_str:0000000000000136 .LASF37
C:\Users\Jesper\AppData\Local\Temp\cclZf3Mh.s:16495  .debug_str:000000000000035c .LASF33
C:\Users\Jesper\AppData\Local\Temp\cclZf3Mh.s:16671  .debug_str:000000000000072d .LASF34
C:\Users\Jesper\AppData\Local\Temp\cclZf3Mh.s:16649  .debug_str:00000000000006d0 .LASF35
C:\Users\Jesper\AppData\Local\Temp\cclZf3Mh.s:16445  .debug_str:0000000000000218 .LASF36
C:\Users\Jesper\AppData\Local\Temp\cclZf3Mh.s:16677  .debug_str:0000000000000748 .LASF38
C:\Users\Jesper\AppData\Local\Temp\cclZf3Mh.s:16479  .debug_str:0000000000000314 .LASF39
C:\Users\Jesper\AppData\Local\Temp\cclZf3Mh.s:16427  .debug_str:00000000000001b7 .LASF40
C:\Users\Jesper\AppData\Local\Temp\cclZf3Mh.s:16413  .debug_str:0000000000000173 .LASF41
C:\Users\Jesper\AppData\Local\Temp\cclZf3Mh.s:16519  .debug_str:00000000000003cf .LASF42
C:\Users\Jesper\AppData\Local\Temp\cclZf3Mh.s:16625  .debug_str:00000000000005ec .LASF43
C:\Users\Jesper\AppData\Local\Temp\cclZf3Mh.s:16657  .debug_str:00000000000006ec .LASF44
C:\Users\Jesper\AppData\Local\Temp\cclZf3Mh.s:16401  .debug_str:000000000000013e .LASF45
C:\Users\Jesper\AppData\Local\Temp\cclZf3Mh.s:16487  .debug_str:0000000000000336 .LASF46
C:\Users\Jesper\AppData\Local\Temp\cclZf3Mh.s:16611  .debug_str:00000000000005a3 .LASF47
C:\Users\Jesper\AppData\Local\Temp\cclZf3Mh.s:16331  .debug_str:0000000000000005 .LASF48
C:\Users\Jesper\AppData\Local\Temp\cclZf3Mh.s:16605  .debug_str:0000000000000584 .LASF49
C:\Users\Jesper\AppData\Local\Temp\cclZf3Mh.s:16697  .debug_str:0000000000000790 .LASF50
C:\Users\Jesper\AppData\Local\Temp\cclZf3Mh.s:16755  .debug_str:00000000000008b5 .LASF51
C:\Users\Jesper\AppData\Local\Temp\cclZf3Mh.s:16773  .debug_str:000000000000090b .LASF52
C:\Users\Jesper\AppData\Local\Temp\cclZf3Mh.s:16635  .debug_str:0000000000000699 .LASF53
C:\Users\Jesper\AppData\Local\Temp\cclZf3Mh.s:16491  .debug_str:0000000000000345 .LASF54
C:\Users\Jesper\AppData\Local\Temp\cclZf3Mh.s:16389  .debug_str:000000000000010a .LASF55
C:\Users\Jesper\AppData\Local\Temp\cclZf3Mh.s:16721  .debug_str:000000000000080f .LASF56
C:\Users\Jesper\AppData\Local\Temp\cclZf3Mh.s:16577  .debug_str:0000000000000500 .LASF57
C:\Users\Jesper\AppData\Local\Temp\cclZf3Mh.s:16757  .debug_str:00000000000008be .LASF58
C:\Users\Jesper\AppData\Local\Temp\cclZf3Mh.s:16443  .debug_str:0000000000000210 .LASF59
C:\Users\Jesper\AppData\Local\Temp\cclZf3Mh.s:16357  .debug_str:0000000000000080 .LASF60
C:\Users\Jesper\AppData\Local\Temp\cclZf3Mh.s:16591  .debug_str:0000000000000545 .LASF61
GAS LISTING C:\Users\Jesper\AppData\Local\Temp\cclZf3Mh.s 			page 108


C:\Users\Jesper\AppData\Local\Temp\cclZf3Mh.s:16355  .debug_str:0000000000000077 .LASF62
C:\Users\Jesper\AppData\Local\Temp\cclZf3Mh.s:16391  .debug_str:000000000000010f .LASF63
C:\Users\Jesper\AppData\Local\Temp\cclZf3Mh.s:16375  .debug_str:00000000000000cb .LASF64
C:\Users\Jesper\AppData\Local\Temp\cclZf3Mh.s:16631  .debug_str:000000000000060a .LASF65
C:\Users\Jesper\AppData\Local\Temp\cclZf3Mh.s:16785  .debug_str:0000000000000940 .LASF66
C:\Users\Jesper\AppData\Local\Temp\cclZf3Mh.s:16555  .debug_str:0000000000000485 .LASF67
C:\Users\Jesper\AppData\Local\Temp\cclZf3Mh.s:16793  .debug_str:0000000000000960 .LASF68
C:\Users\Jesper\AppData\Local\Temp\cclZf3Mh.s:16763  .debug_str:00000000000008d2 .LASF69
C:\Users\Jesper\AppData\Local\Temp\cclZf3Mh.s:16675  .debug_str:000000000000073f .LASF70
C:\Users\Jesper\AppData\Local\Temp\cclZf3Mh.s:16455  .debug_str:0000000000000243 .LASF71
C:\Users\Jesper\AppData\Local\Temp\cclZf3Mh.s:16651  .debug_str:00000000000006d6 .LASF72
C:\Users\Jesper\AppData\Local\Temp\cclZf3Mh.s:16679  .debug_str:000000000000074d .LASF73
C:\Users\Jesper\AppData\Local\Temp\cclZf3Mh.s:16637  .debug_str:00000000000006a1 .LASF74
C:\Users\Jesper\AppData\Local\Temp\cclZf3Mh.s:16771  .debug_str:0000000000000903 .LASF75
C:\Users\Jesper\AppData\Local\Temp\cclZf3Mh.s:16749  .debug_str:0000000000000895 .LASF76
C:\Users\Jesper\AppData\Local\Temp\cclZf3Mh.s:16365  .debug_str:00000000000000a0 .LASF77
C:\Users\Jesper\AppData\Local\Temp\cclZf3Mh.s:16567  .debug_str:00000000000004c1 .LASF78
C:\Users\Jesper\AppData\Local\Temp\cclZf3Mh.s:16383  .debug_str:00000000000000ec .LASF79
C:\Users\Jesper\AppData\Local\Temp\cclZf3Mh.s:16789  .debug_str:000000000000094f .LASF80
C:\Users\Jesper\AppData\Local\Temp\cclZf3Mh.s:16489  .debug_str:0000000000000340 .LASF81
C:\Users\Jesper\AppData\Local\Temp\cclZf3Mh.s:16461  .debug_str:00000000000002c4 .LASF82
C:\Users\Jesper\AppData\Local\Temp\cclZf3Mh.s:16769  .debug_str:00000000000008ea .LASF83
C:\Users\Jesper\AppData\Local\Temp\cclZf3Mh.s:16741  .debug_str:0000000000000873 .LASF84
C:\Users\Jesper\AppData\Local\Temp\cclZf3Mh.s:16559  .debug_str:0000000000000491 .LASF85
C:\Users\Jesper\AppData\Local\Temp\cclZf3Mh.s:16597  .debug_str:0000000000000558 .LASF86
C:\Users\Jesper\AppData\Local\Temp\cclZf3Mh.s:16407  .debug_str:000000000000015b .LASF87
C:\Users\Jesper\AppData\Local\Temp\cclZf3Mh.s:16437  .debug_str:00000000000001e2 .LASF88
C:\Users\Jesper\AppData\Local\Temp\cclZf3Mh.s:16509  .debug_str:00000000000003a2 .LASF89
C:\Users\Jesper\AppData\Local\Temp\cclZf3Mh.s:16579  .debug_str:0000000000000506 .LASF90
C:\Users\Jesper\AppData\Local\Temp\cclZf3Mh.s:16669  .debug_str:0000000000000725 .LASF91
C:\Users\Jesper\AppData\Local\Temp\cclZf3Mh.s:16483  .debug_str:0000000000000324 .LASF92
C:\Users\Jesper\AppData\Local\Temp\cclZf3Mh.s:16667  .debug_str:0000000000000720 .LASF93
C:\Users\Jesper\AppData\Local\Temp\cclZf3Mh.s:16527  .debug_str:00000000000003f7 .LASF94
C:\Users\Jesper\AppData\Local\Temp\cclZf3Mh.s:16523  .debug_str:00000000000003de .LASF95
C:\Users\Jesper\AppData\Local\Temp\cclZf3Mh.s:16731  .debug_str:000000000000083e .LASF96
C:\Users\Jesper\AppData\Local\Temp\cclZf3Mh.s:16647  .debug_str:00000000000006cb .LASF97
C:\Users\Jesper\AppData\Local\Temp\cclZf3Mh.s:16517  .debug_str:00000000000003ca .LASF98
C:\Users\Jesper\AppData\Local\Temp\cclZf3Mh.s:16449  .debug_str:0000000000000228 .LASF99
C:\Users\Jesper\AppData\Local\Temp\cclZf3Mh.s:16725  .debug_str:000000000000081f .LASF100
C:\Users\Jesper\AppData\Local\Temp\cclZf3Mh.s:16687  .debug_str:0000000000000770 .LASF101
C:\Users\Jesper\AppData\Local\Temp\cclZf3Mh.s:16547  .debug_str:0000000000000466 .LASF102
C:\Users\Jesper\AppData\Local\Temp\cclZf3Mh.s:16433  .debug_str:00000000000001d3 .LASF103
C:\Users\Jesper\AppData\Local\Temp\cclZf3Mh.s:16777  .debug_str:0000000000000918 .LASF104
C:\Users\Jesper\AppData\Local\Temp\cclZf3Mh.s:16581  .debug_str:0000000000000510 .LASF105
C:\Users\Jesper\AppData\Local\Temp\cclZf3Mh.s:16719  .debug_str:000000000000080a .LASF106
C:\Users\Jesper\AppData\Local\Temp\cclZf3Mh.s:16765  .debug_str:00000000000008d8 .LASF107
C:\Users\Jesper\AppData\Local\Temp\cclZf3Mh.s:16735  .debug_str:000000000000084d .LASF108
C:\Users\Jesper\AppData\Local\Temp\cclZf3Mh.s:16441  .debug_str:0000000000000203 .LASF109
C:\Users\Jesper\AppData\Local\Temp\cclZf3Mh.s:16663  .debug_str:0000000000000709 .LASF110
C:\Users\Jesper\AppData\Local\Temp\cclZf3Mh.s:16569  .debug_str:00000000000004c8 .LASF111
C:\Users\Jesper\AppData\Local\Temp\cclZf3Mh.s:16781  .debug_str:000000000000092a .LASF112
C:\Users\Jesper\AppData\Local\Temp\cclZf3Mh.s:16341  .debug_str:000000000000003c .LASF113
C:\Users\Jesper\AppData\Local\Temp\cclZf3Mh.s:16515  .debug_str:00000000000003bd .LASF114
C:\Users\Jesper\AppData\Local\Temp\cclZf3Mh.s:16737  .debug_str:000000000000085a .LASF115
C:\Users\Jesper\AppData\Local\Temp\cclZf3Mh.s:16337  .debug_str:0000000000000023 .LASF116
C:\Users\Jesper\AppData\Local\Temp\cclZf3Mh.s:16673  .debug_str:0000000000000735 .LASF117
C:\Users\Jesper\AppData\Local\Temp\cclZf3Mh.s:16349  .debug_str:0000000000000059 .LASF118
GAS LISTING C:\Users\Jesper\AppData\Local\Temp\cclZf3Mh.s 			page 109


C:\Users\Jesper\AppData\Local\Temp\cclZf3Mh.s:16717  .debug_str:00000000000007fd .LASF119
C:\Users\Jesper\AppData\Local\Temp\cclZf3Mh.s:16377  .debug_str:00000000000000d1 .LASF120
C:\Users\Jesper\AppData\Local\Temp\cclZf3Mh.s:16525  .debug_str:00000000000003e8 .LASF121
C:\Users\Jesper\AppData\Local\Temp\cclZf3Mh.s:16499  .debug_str:000000000000036a .LASF122
C:\Users\Jesper\AppData\Local\Temp\cclZf3Mh.s:16587  .debug_str:000000000000052d .LASF123
C:\Users\Jesper\AppData\Local\Temp\cclZf3Mh.s:16513  .debug_str:00000000000003ac .LASF124
C:\Users\Jesper\AppData\Local\Temp\cclZf3Mh.s:16613  .debug_str:00000000000005ae .LASF125
C:\Users\Jesper\AppData\Local\Temp\cclZf3Mh.s:16431  .debug_str:00000000000001cc .LASF126
C:\Users\Jesper\AppData\Local\Temp\cclZf3Mh.s:16791  .debug_str:0000000000000957 .LASF127
C:\Users\Jesper\AppData\Local\Temp\cclZf3Mh.s:16665  .debug_str:0000000000000718 .LASF128
C:\Users\Jesper\AppData\Local\Temp\cclZf3Mh.s:16783  .debug_str:0000000000000935 .LASF231
C:\Users\Jesper\AppData\Local\Temp\cclZf3Mh.s:16429  .debug_str:00000000000001c0 .LASF129
C:\Users\Jesper\AppData\Local\Temp\cclZf3Mh.s:16393  .debug_str:0000000000000117 .LASF130
C:\Users\Jesper\AppData\Local\Temp\cclZf3Mh.s:16485  .debug_str:000000000000032c .LASF131
C:\Users\Jesper\AppData\Local\Temp\cclZf3Mh.s:16561  .debug_str:000000000000049c .LASF132
C:\Users\Jesper\AppData\Local\Temp\cclZf3Mh.s:16335  .debug_str:0000000000000019 .LASF133
C:\Users\Jesper\AppData\Local\Temp\cclZf3Mh.s:16505  .debug_str:0000000000000392 .LASF134
C:\Users\Jesper\AppData\Local\Temp\cclZf3Mh.s:16497  .debug_str:0000000000000362 .LASF135
C:\Users\Jesper\AppData\Local\Temp\cclZf3Mh.s:16729  .debug_str:0000000000000836 .LASF136
C:\Users\Jesper\AppData\Local\Temp\cclZf3Mh.s:16379  .debug_str:00000000000000df .LASF137
C:\Users\Jesper\AppData\Local\Temp\cclZf3Mh.s:16477  .debug_str:000000000000030a .LASF138
C:\Users\Jesper\AppData\Local\Temp\cclZf3Mh.s:16475  .debug_str:0000000000000301 .LASF139
C:\Users\Jesper\AppData\Local\Temp\cclZf3Mh.s:16723  .debug_str:0000000000000816 .LASF140
C:\Users\Jesper\AppData\Local\Temp\cclZf3Mh.s:16333  .debug_str:0000000000000013 .LASF141
C:\Users\Jesper\AppData\Local\Temp\cclZf3Mh.s:16481  .debug_str:000000000000031d .LASF142
C:\Users\Jesper\AppData\Local\Temp\cclZf3Mh.s:16531  .debug_str:000000000000040d .LASF143
C:\Users\Jesper\AppData\Local\Temp\cclZf3Mh.s:16535  .debug_str:000000000000042b .LASF144
C:\Users\Jesper\AppData\Local\Temp\cclZf3Mh.s:16339  .debug_str:0000000000000031 .LASF145
C:\Users\Jesper\AppData\Local\Temp\cclZf3Mh.s:16533  .debug_str:000000000000041a .LASF146
C:\Users\Jesper\AppData\Local\Temp\cclZf3Mh.s:16539  .debug_str:0000000000000445 .LASF147
C:\Users\Jesper\AppData\Local\Temp\cclZf3Mh.s:16553  .debug_str:0000000000000479 .LASF148
C:\Users\Jesper\AppData\Local\Temp\cclZf3Mh.s:16565  .debug_str:00000000000004b2 .LASF149
C:\Users\Jesper\AppData\Local\Temp\cclZf3Mh.s:16529  .debug_str:0000000000000400 .LASF150
C:\Users\Jesper\AppData\Local\Temp\cclZf3Mh.s:16787  .debug_str:0000000000000946 .LASF151
C:\Users\Jesper\AppData\Local\Temp\cclZf3Mh.s:16343  .debug_str:0000000000000041 .LASF152
C:\Users\Jesper\AppData\Local\Temp\cclZf3Mh.s:16457  .debug_str:000000000000024b .LASF153
C:\Users\Jesper\AppData\Local\Temp\cclZf3Mh.s:16415  .debug_str:000000000000017d .LASF154
C:\Users\Jesper\AppData\Local\Temp\cclZf3Mh.s:16421  .debug_str:000000000000019c .LASF155
C:\Users\Jesper\AppData\Local\Temp\cclZf3Mh.s:16779  .debug_str:000000000000091e .LASF156
C:\Users\Jesper\AppData\Local\Temp\cclZf3Mh.s:16585  .debug_str:000000000000051e .LASF157
C:\Users\Jesper\AppData\Local\Temp\cclZf3Mh.s:16385  .debug_str:00000000000000f4 .LASF158
C:\Users\Jesper\AppData\Local\Temp\cclZf3Mh.s:16621  .debug_str:00000000000005e0 .LASF159
C:\Users\Jesper\AppData\Local\Temp\cclZf3Mh.s:16593  .debug_str:000000000000054b .LASF160
C:\Users\Jesper\AppData\Local\Temp\cclZf3Mh.s:16395  .debug_str:000000000000012a .LASF161
C:\Users\Jesper\AppData\Local\Temp\cclZf3Mh.s:16405  .debug_str:0000000000000152 .LASF162
C:\Users\Jesper\AppData\Local\Temp\cclZf3Mh.s:16759  .debug_str:00000000000008c4 .LASF163
C:\Users\Jesper\AppData\Local\Temp\cclZf3Mh.s:16727  .debug_str:0000000000000825 .LASF232
C:\Users\Jesper\AppData\Local\Temp\cclZf3Mh.s:16661  .debug_str:00000000000006fb .LASF164
C:\Users\Jesper\AppData\Local\Temp\cclZf3Mh.s:16451  .debug_str:000000000000022f .LASF165
C:\Users\Jesper\AppData\Local\Temp\cclZf3Mh.s:16599  .debug_str:0000000000000562 .LASF166
C:\Users\Jesper\AppData\Local\Temp\cclZf3Mh.s:16465  .debug_str:00000000000002d6 .LASF167
C:\Users\Jesper\AppData\Local\Temp\cclZf3Mh.s:16551  .debug_str:0000000000000474 .LASF168
C:\Users\Jesper\AppData\Local\Temp\cclZf3Mh.s:16363  .debug_str:0000000000000097 .LASF169
C:\Users\Jesper\AppData\Local\Temp\cclZf3Mh.s:16573  .debug_str:00000000000004e5 .LASF177
C:\Users\Jesper\AppData\Local\Temp\cclZf3Mh.s:3037   .text.tml_add:0000000000000000 .LFB36
C:\Users\Jesper\AppData\Local\Temp\cclZf3Mh.s:3382   .text.tml_add:00000000000002da .LFE36
C:\Users\Jesper\AppData\Local\Temp\cclZf3Mh.s:8004   .debug_loc:0000000000000000 .LLST177
GAS LISTING C:\Users\Jesper\AppData\Local\Temp\cclZf3Mh.s 			page 110


C:\Users\Jesper\AppData\Local\Temp\cclZf3Mh.s:8027   .debug_loc:000000000000003a .LLST178
C:\Users\Jesper\AppData\Local\Temp\cclZf3Mh.s:8041   .debug_loc:000000000000005b .LLST179
C:\Users\Jesper\AppData\Local\Temp\cclZf3Mh.s:8055   .debug_loc:000000000000007c .LLST180
C:\Users\Jesper\AppData\Local\Temp\cclZf3Mh.s:16681  .debug_str:0000000000000753 .LASF170
C:\Users\Jesper\AppData\Local\Temp\cclZf3Mh.s:8069   .debug_loc:000000000000009d .LLST181
C:\Users\Jesper\AppData\Local\Temp\cclZf3Mh.s:16467  .debug_str:00000000000002dc .LASF171
C:\Users\Jesper\AppData\Local\Temp\cclZf3Mh.s:8093   .debug_loc:00000000000000d6 .LLST182
C:\Users\Jesper\AppData\Local\Temp\cclZf3Mh.s:16359  .debug_str:0000000000000087 .LASF172
C:\Users\Jesper\AppData\Local\Temp\cclZf3Mh.s:8115   .debug_loc:000000000000010d .LLST183
C:\Users\Jesper\AppData\Local\Temp\cclZf3Mh.s:16469  .debug_str:00000000000002e3 .LASF173
C:\Users\Jesper\AppData\Local\Temp\cclZf3Mh.s:8139   .debug_loc:0000000000000146 .LLST184
C:\Users\Jesper\AppData\Local\Temp\cclZf3Mh.s:16369  .debug_str:00000000000000ae .LASF174
C:\Users\Jesper\AppData\Local\Temp\cclZf3Mh.s:8161   .debug_loc:000000000000017d .LLST185
C:\Users\Jesper\AppData\Local\Temp\cclZf3Mh.s:16623  .debug_str:00000000000005e5 .LASF175
C:\Users\Jesper\AppData\Local\Temp\cclZf3Mh.s:8185   .debug_loc:00000000000001b6 .LLST186
C:\Users\Jesper\AppData\Local\Temp\cclZf3Mh.s:8203   .debug_loc:00000000000001e2 .LLST187
C:\Users\Jesper\AppData\Local\Temp\cclZf3Mh.s:8214   .debug_loc:0000000000000200 .LLST188
C:\Users\Jesper\AppData\Local\Temp\cclZf3Mh.s:8237   .debug_loc:000000000000023b .LLST189
C:\Users\Jesper\AppData\Local\Temp\cclZf3Mh.s:16607  .debug_str:000000000000058c .LASF176
C:\Users\Jesper\AppData\Local\Temp\cclZf3Mh.s:8248   .debug_loc:0000000000000259 .LLST190
C:\Users\Jesper\AppData\Local\Temp\cclZf3Mh.s:8259   .debug_loc:0000000000000277 .LLST191
C:\Users\Jesper\AppData\Local\Temp\cclZf3Mh.s:3127   .text.tml_add:000000000000007a .LVL372
C:\Users\Jesper\AppData\Local\Temp\cclZf3Mh.s:16615  .debug_str:00000000000005b7 .LASF178
C:\Users\Jesper\AppData\Local\Temp\cclZf3Mh.s:3020   .text.tml_reshape:0000000000000000 .LFB35
C:\Users\Jesper\AppData\Local\Temp\cclZf3Mh.s:3030   .text.tml_reshape:0000000000000004 .LFE35
C:\Users\Jesper\AppData\Local\Temp\cclZf3Mh.s:8314   .debug_loc:00000000000002eb .LLST176
C:\Users\Jesper\AppData\Local\Temp\cclZf3Mh.s:16775  .debug_str:0000000000000913 .LASF179
C:\Users\Jesper\AppData\Local\Temp\cclZf3Mh.s:16705  .debug_str:00000000000007b1 .LASF180
C:\Users\Jesper\AppData\Local\Temp\cclZf3Mh.s:16563  .debug_str:00000000000004a6 .LASF181
C:\Users\Jesper\AppData\Local\Temp\cclZf3Mh.s:2734   .text.tml_softmax:0000000000000000 .LFB34
C:\Users\Jesper\AppData\Local\Temp\cclZf3Mh.s:3013   .text.tml_softmax:0000000000000172 .LFE34
C:\Users\Jesper\AppData\Local\Temp\cclZf3Mh.s:8328   .debug_loc:000000000000030c .LLST162
C:\Users\Jesper\AppData\Local\Temp\cclZf3Mh.s:8351   .debug_loc:0000000000000346 .LLST163
C:\Users\Jesper\AppData\Local\Temp\cclZf3Mh.s:8373   .debug_loc:000000000000037d .LLST164
C:\Users\Jesper\AppData\Local\Temp\cclZf3Mh.s:8395   .debug_loc:00000000000003b4 .LLST165
C:\Users\Jesper\AppData\Local\Temp\cclZf3Mh.s:8428   .debug_loc:00000000000003fd .LLST166
C:\Users\Jesper\AppData\Local\Temp\cclZf3Mh.s:8457   .debug_loc:0000000000000442 .LLST167
C:\Users\Jesper\AppData\Local\Temp\cclZf3Mh.s:8481   .debug_loc:000000000000047b .LLST168
C:\Users\Jesper\AppData\Local\Temp\cclZf3Mh.s:16733  .debug_str:0000000000000846 .LASF182
C:\Users\Jesper\AppData\Local\Temp\cclZf3Mh.s:16419  .debug_str:0000000000000194 .LASF183
C:\Users\Jesper\AppData\Local\Temp\cclZf3Mh.s:16639  .debug_str:00000000000006aa .LASF184
C:\Users\Jesper\AppData\Local\Temp\cclZf3Mh.s:8503   .debug_loc:00000000000004b2 .LLST169
C:\Users\Jesper\AppData\Local\Temp\cclZf3Mh.s:16353  .debug_str:0000000000000072 .LASF185
C:\Users\Jesper\AppData\Local\Temp\cclZf3Mh.s:8514   .debug_loc:00000000000004d0 .LLST170
C:\Users\Jesper\AppData\Local\Temp\cclZf3Mh.s:16683  .debug_str:0000000000000759 .LASF186
C:\Users\Jesper\AppData\Local\Temp\cclZf3Mh.s:8525   .debug_loc:00000000000004ee .LLST171
C:\Users\Jesper\AppData\Local\Temp\cclZf3Mh.s:8542   .debug_loc:000000000000051c .LLST172
C:\Users\Jesper\AppData\Local\Temp\cclZf3Mh.s:8561   .debug_loc:0000000000000550 .LLST173
C:\Users\Jesper\AppData\Local\Temp\cclZf3Mh.s:8577   .debug_loc:000000000000057a .LLST174
C:\Users\Jesper\AppData\Local\Temp\cclZf3Mh.s:2942   .text.tml_softmax:00000000000000ec .LVL348
C:\Users\Jesper\AppData\Local\Temp\cclZf3Mh.s:8598   .debug_loc:00000000000005b0 .LLST175
C:\Users\Jesper\AppData\Local\Temp\cclZf3Mh.s:2780   .text.tml_softmax:0000000000000030 .LVL321
C:\Users\Jesper\AppData\Local\Temp\cclZf3Mh.s:16463  .debug_str:00000000000002cf .LASF187
C:\Users\Jesper\AppData\Local\Temp\cclZf3Mh.s:2378   .text.tml_fc:0000000000000000 .LFB33
C:\Users\Jesper\AppData\Local\Temp\cclZf3Mh.s:2723   .text.tml_fc:0000000000000176 .LFE33
C:\Users\Jesper\AppData\Local\Temp\cclZf3Mh.s:8609   .debug_loc:00000000000005ce .LLST142
C:\Users\Jesper\AppData\Local\Temp\cclZf3Mh.s:8632   .debug_loc:0000000000000608 .LLST143
GAS LISTING C:\Users\Jesper\AppData\Local\Temp\cclZf3Mh.s 			page 111


C:\Users\Jesper\AppData\Local\Temp\cclZf3Mh.s:8654   .debug_loc:000000000000063f .LLST144
C:\Users\Jesper\AppData\Local\Temp\cclZf3Mh.s:8676   .debug_loc:0000000000000676 .LLST145
C:\Users\Jesper\AppData\Local\Temp\cclZf3Mh.s:8698   .debug_loc:00000000000006ad .LLST146
C:\Users\Jesper\AppData\Local\Temp\cclZf3Mh.s:8720   .debug_loc:00000000000006e4 .LLST147
C:\Users\Jesper\AppData\Local\Temp\cclZf3Mh.s:8742   .debug_loc:000000000000071b .LLST148
C:\Users\Jesper\AppData\Local\Temp\cclZf3Mh.s:8766   .debug_loc:0000000000000754 .LLST149
C:\Users\Jesper\AppData\Local\Temp\cclZf3Mh.s:8780   .debug_loc:0000000000000775 .LLST150
C:\Users\Jesper\AppData\Local\Temp\cclZf3Mh.s:8804   .debug_loc:00000000000007ae .LLST151
C:\Users\Jesper\AppData\Local\Temp\cclZf3Mh.s:8822   .debug_loc:00000000000007da .LLST152
C:\Users\Jesper\AppData\Local\Temp\cclZf3Mh.s:8833   .debug_loc:00000000000007f8 .LLST153
C:\Users\Jesper\AppData\Local\Temp\cclZf3Mh.s:8859   .debug_loc:000000000000083a .LLST154
C:\Users\Jesper\AppData\Local\Temp\cclZf3Mh.s:2435   .text.tml_fc:0000000000000036 .LBB233
C:\Users\Jesper\AppData\Local\Temp\cclZf3Mh.s:8901   .debug_loc:000000000000088c .LLST155
C:\Users\Jesper\AppData\Local\Temp\cclZf3Mh.s:8916   .debug_loc:00000000000008b4 .LLST156
C:\Users\Jesper\AppData\Local\Temp\cclZf3Mh.s:8927   .debug_loc:00000000000008d2 .LLST157
C:\Users\Jesper\AppData\Local\Temp\cclZf3Mh.s:8938   .debug_loc:00000000000008f0 .LLST158
C:\Users\Jesper\AppData\Local\Temp\cclZf3Mh.s:8953   .debug_loc:0000000000000919 .LLST159
C:\Users\Jesper\AppData\Local\Temp\cclZf3Mh.s:9001   .debug_loc:000000000000099b .LLST160
C:\Users\Jesper\AppData\Local\Temp\cclZf3Mh.s:9056   .debug_loc:0000000000000a0f .LLST161
C:\Users\Jesper\AppData\Local\Temp\cclZf3Mh.s:2425   .text.tml_fc:0000000000000032 .LVL278
C:\Users\Jesper\AppData\Local\Temp\cclZf3Mh.s:16645  .debug_str:00000000000006c3 .LASF188
C:\Users\Jesper\AppData\Local\Temp\cclZf3Mh.s:2170   .text.tml_gap:0000000000000000 .LFB32
C:\Users\Jesper\AppData\Local\Temp\cclZf3Mh.s:2371   .text.tml_gap:00000000000000d6 .LFE32
C:\Users\Jesper\AppData\Local\Temp\cclZf3Mh.s:9085   .debug_loc:0000000000000a4d .LLST130
C:\Users\Jesper\AppData\Local\Temp\cclZf3Mh.s:9108   .debug_loc:0000000000000a85 .LLST131
C:\Users\Jesper\AppData\Local\Temp\cclZf3Mh.s:9130   .debug_loc:0000000000000abc .LLST132
C:\Users\Jesper\AppData\Local\Temp\cclZf3Mh.s:9152   .debug_loc:0000000000000af3 .LLST133
C:\Users\Jesper\AppData\Local\Temp\cclZf3Mh.s:9176   .debug_loc:0000000000000b2c .LLST134
C:\Users\Jesper\AppData\Local\Temp\cclZf3Mh.s:9198   .debug_loc:0000000000000b63 .LLST135
C:\Users\Jesper\AppData\Local\Temp\cclZf3Mh.s:9222   .debug_loc:0000000000000b9c .LLST136
C:\Users\Jesper\AppData\Local\Temp\cclZf3Mh.s:9244   .debug_loc:0000000000000bd3 .LLST137
C:\Users\Jesper\AppData\Local\Temp\cclZf3Mh.s:9263   .debug_loc:0000000000000c07 .LLST138
C:\Users\Jesper\AppData\Local\Temp\cclZf3Mh.s:9284   .debug_loc:0000000000000c3d .LLST139
C:\Users\Jesper\AppData\Local\Temp\cclZf3Mh.s:9300   .debug_loc:0000000000000c67 .LLST140
C:\Users\Jesper\AppData\Local\Temp\cclZf3Mh.s:9316   .debug_loc:0000000000000c91 .LLST141
C:\Users\Jesper\AppData\Local\Temp\cclZf3Mh.s:2214   .text.tml_gap:000000000000002c .LVL252
C:\Users\Jesper\AppData\Local\Temp\cclZf3Mh.s:16617  .debug_str:00000000000005c3 .LASF189
C:\Users\Jesper\AppData\Local\Temp\cclZf3Mh.s:20     .text.tml_conv2d_dwconv2d:0000000000000000 .LFB31
C:\Users\Jesper\AppData\Local\Temp\cclZf3Mh.s:2163   .text.tml_conv2d_dwconv2d:00000000000009c4 .LFE31
C:\Users\Jesper\AppData\Local\Temp\cclZf3Mh.s:9333   .debug_loc:0000000000000cbc .LLST0
C:\Users\Jesper\AppData\Local\Temp\cclZf3Mh.s:9356   .debug_loc:0000000000000cf6 .LLST1
C:\Users\Jesper\AppData\Local\Temp\cclZf3Mh.s:9382   .debug_loc:0000000000000d38 .LLST2
C:\Users\Jesper\AppData\Local\Temp\cclZf3Mh.s:9410   .debug_loc:0000000000000d7e .LLST3
C:\Users\Jesper\AppData\Local\Temp\cclZf3Mh.s:9438   .debug_loc:0000000000000dc4 .LLST4
C:\Users\Jesper\AppData\Local\Temp\cclZf3Mh.s:9466   .debug_loc:0000000000000e0a .LLST5
C:\Users\Jesper\AppData\Local\Temp\cclZf3Mh.s:9503   .debug_loc:0000000000000e65 .LLST6
C:\Users\Jesper\AppData\Local\Temp\cclZf3Mh.s:9543   .debug_loc:0000000000000ec6 .LLST7
C:\Users\Jesper\AppData\Local\Temp\cclZf3Mh.s:9571   .debug_loc:0000000000000f0c .LLST8
C:\Users\Jesper\AppData\Local\Temp\cclZf3Mh.s:9599   .debug_loc:0000000000000f52 .LLST9
C:\Users\Jesper\AppData\Local\Temp\cclZf3Mh.s:9621   .debug_loc:0000000000000f89 .LLST10
C:\Users\Jesper\AppData\Local\Temp\cclZf3Mh.s:9643   .debug_loc:0000000000000fc0 .LLST11
C:\Users\Jesper\AppData\Local\Temp\cclZf3Mh.s:16549  .debug_str:000000000000046c .LASF190
C:\Users\Jesper\AppData\Local\Temp\cclZf3Mh.s:9661   .debug_loc:0000000000000fec .LLST12
C:\Users\Jesper\AppData\Local\Temp\cclZf3Mh.s:16739  .debug_str:0000000000000868 .LASF191
C:\Users\Jesper\AppData\Local\Temp\cclZf3Mh.s:9683   .debug_loc:0000000000001023 .LLST13
C:\Users\Jesper\AppData\Local\Temp\cclZf3Mh.s:16715  .debug_str:00000000000007f4 .LASF192
C:\Users\Jesper\AppData\Local\Temp\cclZf3Mh.s:9701   .debug_loc:000000000000104f .LLST14
GAS LISTING C:\Users\Jesper\AppData\Local\Temp\cclZf3Mh.s 			page 112


C:\Users\Jesper\AppData\Local\Temp\cclZf3Mh.s:16473  .debug_str:00000000000002f7 .LASF193
C:\Users\Jesper\AppData\Local\Temp\cclZf3Mh.s:9723   .debug_loc:0000000000001086 .LLST15
C:\Users\Jesper\AppData\Local\Temp\cclZf3Mh.s:16453  .debug_str:000000000000023e .LASF194
C:\Users\Jesper\AppData\Local\Temp\cclZf3Mh.s:9741   .debug_loc:00000000000010b2 .LLST16
C:\Users\Jesper\AppData\Local\Temp\cclZf3Mh.s:9763   .debug_loc:00000000000010e9 .LLST17
C:\Users\Jesper\AppData\Local\Temp\cclZf3Mh.s:9785   .debug_loc:0000000000001120 .LLST18
C:\Users\Jesper\AppData\Local\Temp\cclZf3Mh.s:9803   .debug_loc:000000000000114c .LLST19
C:\Users\Jesper\AppData\Local\Temp\cclZf3Mh.s:9821   .debug_loc:0000000000001178 .LLST20
C:\Users\Jesper\AppData\Local\Temp\cclZf3Mh.s:9839   .debug_loc:00000000000011a4 .LLST21
C:\Users\Jesper\AppData\Local\Temp\cclZf3Mh.s:16703  .debug_str:00000000000007a8 .LASF195
C:\Users\Jesper\AppData\Local\Temp\cclZf3Mh.s:9857   .debug_loc:00000000000011d0 .LLST22
C:\Users\Jesper\AppData\Local\Temp\cclZf3Mh.s:16743  .debug_str:000000000000087b .LASF196
C:\Users\Jesper\AppData\Local\Temp\cclZf3Mh.s:10004  .debug_loc:00000000000012a7 .LLST23
C:\Users\Jesper\AppData\Local\Temp\cclZf3Mh.s:10015  .debug_loc:00000000000012c5 .LLST24
C:\Users\Jesper\AppData\Local\Temp\cclZf3Mh.s:10030  .debug_loc:00000000000012ee .LLST25
C:\Users\Jesper\AppData\Local\Temp\cclZf3Mh.s:10045  .debug_loc:0000000000001317 .LLST26
C:\Users\Jesper\AppData\Local\Temp\cclZf3Mh.s:16659  .debug_str:00000000000006f6 .LASF197
C:\Users\Jesper\AppData\Local\Temp\cclZf3Mh.s:10067  .debug_loc:000000000000134e .LLST27
C:\Users\Jesper\AppData\Local\Temp\cclZf3Mh.s:16589  .debug_str:000000000000053c .LASF198
C:\Users\Jesper\AppData\Local\Temp\cclZf3Mh.s:10180  .debug_loc:0000000000001445 .LLST28
C:\Users\Jesper\AppData\Local\Temp\cclZf3Mh.s:16471  .debug_str:00000000000002ea .LASF199
C:\Users\Jesper\AppData\Local\Temp\cclZf3Mh.s:10193  .debug_loc:0000000000001465 .LLST29
C:\Users\Jesper\AppData\Local\Temp\cclZf3Mh.s:10210  .debug_loc:0000000000001492 .LLST30
C:\Users\Jesper\AppData\Local\Temp\cclZf3Mh.s:10225  .debug_loc:00000000000014bb .LLST31
C:\Users\Jesper\AppData\Local\Temp\cclZf3Mh.s:16403  .debug_str:0000000000000148 .LASF200
C:\Users\Jesper\AppData\Local\Temp\cclZf3Mh.s:10269  .debug_loc:0000000000001516 .LLST32
C:\Users\Jesper\AppData\Local\Temp\cclZf3Mh.s:10428  .debug_loc:00000000000015f8 .LLST33
C:\Users\Jesper\AppData\Local\Temp\cclZf3Mh.s:16381  .debug_str:00000000000000e7 .LASF201
C:\Users\Jesper\AppData\Local\Temp\cclZf3Mh.s:10458  .debug_loc:0000000000001645 .LLST36
C:\Users\Jesper\AppData\Local\Temp\cclZf3Mh.s:10475  .debug_loc:0000000000001672 .LLST37
C:\Users\Jesper\AppData\Local\Temp\cclZf3Mh.s:16767  .debug_str:00000000000008e5 .LASF202
C:\Users\Jesper\AppData\Local\Temp\cclZf3Mh.s:10496  .debug_loc:00000000000016aa .LLST38
C:\Users\Jesper\AppData\Local\Temp\cclZf3Mh.s:16541  .debug_str:0000000000000451 .LASF203
C:\Users\Jesper\AppData\Local\Temp\cclZf3Mh.s:10507  .debug_loc:00000000000016c8 .LLST39
C:\Users\Jesper\AppData\Local\Temp\cclZf3Mh.s:10527  .debug_loc:00000000000016fe .LLST40
C:\Users\Jesper\AppData\Local\Temp\cclZf3Mh.s:10545  .debug_loc:000000000000172a .LLST50
C:\Users\Jesper\AppData\Local\Temp\cclZf3Mh.s:304    .text.tml_conv2d_dwconv2d:000000000000014e .LBB75
C:\Users\Jesper\AppData\Local\Temp\cclZf3Mh.s:10563  .debug_loc:0000000000001756 .LLST51
C:\Users\Jesper\AppData\Local\Temp\cclZf3Mh.s:10572  .debug_loc:000000000000176c .LLST52
C:\Users\Jesper\AppData\Local\Temp\cclZf3Mh.s:10579  .debug_loc:000000000000177f .LLST53
C:\Users\Jesper\AppData\Local\Temp\cclZf3Mh.s:10586  .debug_loc:0000000000001792 .LLST54
C:\Users\Jesper\AppData\Local\Temp\cclZf3Mh.s:10593  .debug_loc:00000000000017a5 .LLST55
C:\Users\Jesper\AppData\Local\Temp\cclZf3Mh.s:10621  .debug_loc:00000000000017f0 .LLST56
C:\Users\Jesper\AppData\Local\Temp\cclZf3Mh.s:10649  .debug_loc:000000000000183b .LLST57
C:\Users\Jesper\AppData\Local\Temp\cclZf3Mh.s:10660  .debug_loc:0000000000001859 .LLST58
C:\Users\Jesper\AppData\Local\Temp\cclZf3Mh.s:10667  .debug_loc:000000000000186c .LLST59
C:\Users\Jesper\AppData\Local\Temp\cclZf3Mh.s:10709  .debug_loc:00000000000018c5 .LLST60
C:\Users\Jesper\AppData\Local\Temp\cclZf3Mh.s:241    .text.tml_conv2d_dwconv2d:0000000000000100 .LBB65
C:\Users\Jesper\AppData\Local\Temp\cclZf3Mh.s:10725  .debug_loc:00000000000018e8 .LLST41
C:\Users\Jesper\AppData\Local\Temp\cclZf3Mh.s:10743  .debug_loc:0000000000001914 .LLST42
C:\Users\Jesper\AppData\Local\Temp\cclZf3Mh.s:10761  .debug_loc:0000000000001943 .LLST43
C:\Users\Jesper\AppData\Local\Temp\cclZf3Mh.s:10776  .debug_loc:000000000000196c .LLST44
C:\Users\Jesper\AppData\Local\Temp\cclZf3Mh.s:10794  .debug_loc:0000000000001998 .LLST45
C:\Users\Jesper\AppData\Local\Temp\cclZf3Mh.s:10819  .debug_loc:00000000000019d5 .LLST46
C:\Users\Jesper\AppData\Local\Temp\cclZf3Mh.s:10837  .debug_loc:0000000000001a01 .LLST47
C:\Users\Jesper\AppData\Local\Temp\cclZf3Mh.s:10867  .debug_loc:0000000000001a49 .LLST48
C:\Users\Jesper\AppData\Local\Temp\cclZf3Mh.s:10906  .debug_loc:0000000000001a91 .LLST49
GAS LISTING C:\Users\Jesper\AppData\Local\Temp\cclZf3Mh.s 			page 113


C:\Users\Jesper\AppData\Local\Temp\cclZf3Mh.s:330    .text.tml_conv2d_dwconv2d:0000000000000174 .LBB79
C:\Users\Jesper\AppData\Local\Temp\cclZf3Mh.s:10937  .debug_loc:0000000000001ae6 .LLST61
C:\Users\Jesper\AppData\Local\Temp\cclZf3Mh.s:10952  .debug_loc:0000000000001b0e .LLST62
C:\Users\Jesper\AppData\Local\Temp\cclZf3Mh.s:10963  .debug_loc:0000000000001b2c .LLST63
C:\Users\Jesper\AppData\Local\Temp\cclZf3Mh.s:10974  .debug_loc:0000000000001b4a .LLST64
C:\Users\Jesper\AppData\Local\Temp\cclZf3Mh.s:10985  .debug_loc:0000000000001b68 .LLST65
C:\Users\Jesper\AppData\Local\Temp\cclZf3Mh.s:11033  .debug_loc:0000000000001bea .LLST66
C:\Users\Jesper\AppData\Local\Temp\cclZf3Mh.s:11088  .debug_loc:0000000000001c5e .LLST67
C:\Users\Jesper\AppData\Local\Temp\cclZf3Mh.s:809    .text.tml_conv2d_dwconv2d:00000000000003a6 .LBB88
C:\Users\Jesper\AppData\Local\Temp\cclZf3Mh.s:11117  .debug_loc:0000000000001c9c .LLST68
C:\Users\Jesper\AppData\Local\Temp\cclZf3Mh.s:11130  .debug_loc:0000000000001cbc .LLST69
C:\Users\Jesper\AppData\Local\Temp\cclZf3Mh.s:11143  .debug_loc:0000000000001cde .LLST70
C:\Users\Jesper\AppData\Local\Temp\cclZf3Mh.s:11185  .debug_loc:0000000000001d2e .LLST71
C:\Users\Jesper\AppData\Local\Temp\cclZf3Mh.s:11202  .debug_loc:0000000000001d59 .LLST72
C:\Users\Jesper\AppData\Local\Temp\cclZf3Mh.s:11228  .debug_loc:0000000000001d9b .LLST73
C:\Users\Jesper\AppData\Local\Temp\cclZf3Mh.s:11245  .debug_loc:0000000000001dc6 .LLST74
C:\Users\Jesper\AppData\Local\Temp\cclZf3Mh.s:11260  .debug_loc:0000000000001dee .LLST75
C:\Users\Jesper\AppData\Local\Temp\cclZf3Mh.s:11273  .debug_loc:0000000000001e0e .LLST76
C:\Users\Jesper\AppData\Local\Temp\cclZf3Mh.s:11286  .debug_loc:0000000000001e2e .LLST77
C:\Users\Jesper\AppData\Local\Temp\cclZf3Mh.s:11303  .debug_loc:0000000000001e52 .LLST78
C:\Users\Jesper\AppData\Local\Temp\cclZf3Mh.s:11330  .debug_loc:0000000000001e9c .LLST34
C:\Users\Jesper\AppData\Local\Temp\cclZf3Mh.s:11355  .debug_loc:0000000000001edd .LLST35
C:\Users\Jesper\AppData\Local\Temp\cclZf3Mh.s:11372  .debug_loc:0000000000001f08 .LLST79
C:\Users\Jesper\AppData\Local\Temp\cclZf3Mh.s:16397  .debug_str:000000000000012f .LASF204
C:\Users\Jesper\AppData\Local\Temp\cclZf3Mh.s:11408  .debug_loc:0000000000001f65 .LLST80
C:\Users\Jesper\AppData\Local\Temp\cclZf3Mh.s:11419  .debug_loc:0000000000001f83 .LLST81
C:\Users\Jesper\AppData\Local\Temp\cclZf3Mh.s:16367  .debug_str:00000000000000a7 .LASF205
C:\Users\Jesper\AppData\Local\Temp\cclZf3Mh.s:11450  .debug_loc:0000000000001fd4 .LLST82
C:\Users\Jesper\AppData\Local\Temp\cclZf3Mh.s:11461  .debug_loc:0000000000001ff2 .LLST83
C:\Users\Jesper\AppData\Local\Temp\cclZf3Mh.s:13040  .debug_loc:000000000000266f .LLST84
C:\Users\Jesper\AppData\Local\Temp\cclZf3Mh.s:16543  .debug_str:0000000000000456 .LASF206
C:\Users\Jesper\AppData\Local\Temp\cclZf3Mh.s:13075  .debug_loc:00000000000026ce .LLST115
C:\Users\Jesper\AppData\Local\Temp\cclZf3Mh.s:16373  .debug_str:00000000000000c6 .LASF207
C:\Users\Jesper\AppData\Local\Temp\cclZf3Mh.s:13090  .debug_loc:00000000000026f7 .LLST116
C:\Users\Jesper\AppData\Local\Temp\cclZf3Mh.s:13132  .debug_loc:000000000000274e .LLST117
C:\Users\Jesper\AppData\Local\Temp\cclZf3Mh.s:13159  .debug_loc:0000000000002791 .LLST118
C:\Users\Jesper\AppData\Local\Temp\cclZf3Mh.s:16693  .debug_str:0000000000000786 .LASF208
C:\Users\Jesper\AppData\Local\Temp\cclZf3Mh.s:13166  .debug_loc:00000000000027a4 .LLST85
C:\Users\Jesper\AppData\Local\Temp\cclZf3Mh.s:16511  .debug_str:00000000000003a7 .LASF209
C:\Users\Jesper\AppData\Local\Temp\cclZf3Mh.s:16695  .debug_str:000000000000078b .LASF210
C:\Users\Jesper\AppData\Local\Temp\cclZf3Mh.s:13174  .debug_loc:00000000000027b9 .LLST86
C:\Users\Jesper\AppData\Local\Temp\cclZf3Mh.s:16345  .debug_str:000000000000004d .LASF211
C:\Users\Jesper\AppData\Local\Temp\cclZf3Mh.s:13181  .debug_loc:00000000000027cc .LLST87
C:\Users\Jesper\AppData\Local\Temp\cclZf3Mh.s:13188  .debug_loc:00000000000027df .LLST88
C:\Users\Jesper\AppData\Local\Temp\cclZf3Mh.s:16603  .debug_str:000000000000057d .LASF212
C:\Users\Jesper\AppData\Local\Temp\cclZf3Mh.s:13247  .debug_loc:0000000000002847 .LLST89
C:\Users\Jesper\AppData\Local\Temp\cclZf3Mh.s:13266  .debug_loc:0000000000002867 .LLST90
C:\Users\Jesper\AppData\Local\Temp\cclZf3Mh.s:13293  .debug_loc:000000000000288f .LLST91
C:\Users\Jesper\AppData\Local\Temp\cclZf3Mh.s:13328  .debug_loc:00000000000028cd .LLST92
C:\Users\Jesper\AppData\Local\Temp\cclZf3Mh.s:13356  .debug_loc:0000000000002911 .LLST93
C:\Users\Jesper\AppData\Local\Temp\cclZf3Mh.s:13363  .debug_loc:0000000000002924 .LLST94
C:\Users\Jesper\AppData\Local\Temp\cclZf3Mh.s:1469   .text.tml_conv2d_dwconv2d:000000000000069e .LVL161
C:\Users\Jesper\AppData\Local\Temp\cclZf3Mh.s:13370  .debug_loc:0000000000002937 .LLST119
C:\Users\Jesper\AppData\Local\Temp\cclZf3Mh.s:1609   .text.tml_conv2d_dwconv2d:0000000000000728 .LBB176
C:\Users\Jesper\AppData\Local\Temp\cclZf3Mh.s:1616   .text.tml_conv2d_dwconv2d:0000000000000728 .LBB179
C:\Users\Jesper\AppData\Local\Temp\cclZf3Mh.s:13387  .debug_loc:0000000000002962 .LLST120
C:\Users\Jesper\AppData\Local\Temp\cclZf3Mh.s:13400  .debug_loc:0000000000002982 .LLST121
GAS LISTING C:\Users\Jesper\AppData\Local\Temp\cclZf3Mh.s 			page 114


C:\Users\Jesper\AppData\Local\Temp\cclZf3Mh.s:13413  .debug_loc:00000000000029a4 .LLST122
C:\Users\Jesper\AppData\Local\Temp\cclZf3Mh.s:13455  .debug_loc:00000000000029f4 .LLST123
C:\Users\Jesper\AppData\Local\Temp\cclZf3Mh.s:13481  .debug_loc:0000000000002a36 .LLST124
C:\Users\Jesper\AppData\Local\Temp\cclZf3Mh.s:13498  .debug_loc:0000000000002a61 .LLST125
C:\Users\Jesper\AppData\Local\Temp\cclZf3Mh.s:13513  .debug_loc:0000000000002a89 .LLST126
C:\Users\Jesper\AppData\Local\Temp\cclZf3Mh.s:13526  .debug_loc:0000000000002aa9 .LLST127
C:\Users\Jesper\AppData\Local\Temp\cclZf3Mh.s:13539  .debug_loc:0000000000002ac9 .LLST128
C:\Users\Jesper\AppData\Local\Temp\cclZf3Mh.s:15477  .debug_loc:00000000000032b4 .LLST129
C:\Users\Jesper\AppData\Local\Temp\cclZf3Mh.s:15504  .debug_loc:00000000000032fe .LLST95
C:\Users\Jesper\AppData\Local\Temp\cclZf3Mh.s:15525  .debug_loc:0000000000003334 .LLST96
C:\Users\Jesper\AppData\Local\Temp\cclZf3Mh.s:1126   .text.tml_conv2d_dwconv2d:000000000000051a .LBB133
C:\Users\Jesper\AppData\Local\Temp\cclZf3Mh.s:15536  .debug_loc:0000000000003352 .LLST97
C:\Users\Jesper\AppData\Local\Temp\cclZf3Mh.s:15549  .debug_loc:0000000000003372 .LLST98
C:\Users\Jesper\AppData\Local\Temp\cclZf3Mh.s:15562  .debug_loc:0000000000003394 .LLST99
C:\Users\Jesper\AppData\Local\Temp\cclZf3Mh.s:15591  .debug_loc:00000000000033cc .LLST100
C:\Users\Jesper\AppData\Local\Temp\cclZf3Mh.s:15618  .debug_loc:0000000000003403 .LLST101
C:\Users\Jesper\AppData\Local\Temp\cclZf3Mh.s:15644  .debug_loc:0000000000003445 .LLST102
C:\Users\Jesper\AppData\Local\Temp\cclZf3Mh.s:15655  .debug_loc:0000000000003463 .LLST103
C:\Users\Jesper\AppData\Local\Temp\cclZf3Mh.s:15670  .debug_loc:000000000000348b .LLST104
C:\Users\Jesper\AppData\Local\Temp\cclZf3Mh.s:15683  .debug_loc:00000000000034ab .LLST105
C:\Users\Jesper\AppData\Local\Temp\cclZf3Mh.s:15696  .debug_loc:00000000000034cb .LLST106
C:\Users\Jesper\AppData\Local\Temp\cclZf3Mh.s:15713  .debug_loc:00000000000034ef .LLST107
C:\Users\Jesper\AppData\Local\Temp\cclZf3Mh.s:1846   .text.tml_conv2d_dwconv2d:0000000000000852 .LBB150
C:\Users\Jesper\AppData\Local\Temp\cclZf3Mh.s:15736  .debug_loc:000000000000352e .LLST108
C:\Users\Jesper\AppData\Local\Temp\cclZf3Mh.s:15751  .debug_loc:0000000000003556 .LLST109
C:\Users\Jesper\AppData\Local\Temp\cclZf3Mh.s:15764  .debug_loc:0000000000003578 .LLST110
C:\Users\Jesper\AppData\Local\Temp\cclZf3Mh.s:15775  .debug_loc:0000000000003596 .LLST111
C:\Users\Jesper\AppData\Local\Temp\cclZf3Mh.s:15786  .debug_loc:00000000000035b4 .LLST112
C:\Users\Jesper\AppData\Local\Temp\cclZf3Mh.s:15834  .debug_loc:0000000000003636 .LLST113
C:\Users\Jesper\AppData\Local\Temp\cclZf3Mh.s:15889  .debug_loc:00000000000036aa .LLST114
C:\Users\Jesper\AppData\Local\Temp\cclZf3Mh.s:16575  .debug_str:00000000000004ed .LASF216
C:\Users\Jesper\AppData\Local\Temp\cclZf3Mh.s:16713  .debug_str:00000000000007ed .LASF213
C:\Users\Jesper\AppData\Local\Temp\cclZf3Mh.s:16417  .debug_str:000000000000018a .LASF214
C:\Users\Jesper\AppData\Local\Temp\cclZf3Mh.s:16557  .debug_str:000000000000048c .LASF215
C:\Users\Jesper\AppData\Local\Temp\cclZf3Mh.s:16493  .debug_str:000000000000034a .LASF217
C:\Users\Jesper\AppData\Local\Temp\cclZf3Mh.s:16435  .debug_str:00000000000001db .LASF218
C:\Users\Jesper\AppData\Local\Temp\cclZf3Mh.s:16609  .debug_str:0000000000000591 .LASF219
C:\Users\Jesper\AppData\Local\Temp\cclZf3Mh.s:16521  .debug_str:00000000000003d9 .LASF220
C:\Users\Jesper\AppData\Local\Temp\cclZf3Mh.s:16329  .debug_str:0000000000000000 .LASF221
C:\Users\Jesper\AppData\Local\Temp\cclZf3Mh.s:16699  .debug_str:000000000000079c .LASF222
C:\Users\Jesper\AppData\Local\Temp\cclZf3Mh.s:16701  .debug_str:00000000000007a2 .LASF223
C:\Users\Jesper\AppData\Local\Temp\cclZf3Mh.s:16503  .debug_str:0000000000000386 .LASF224
C:\Users\Jesper\AppData\Local\Temp\cclZf3Mh.s:16347  .debug_str:0000000000000052 .LASF225
C:\Users\Jesper\AppData\Local\Temp\cclZf3Mh.s:16753  .debug_str:00000000000008af .LASF226
C:\Users\Jesper\AppData\Local\Temp\cclZf3Mh.s:16595  .debug_str:0000000000000551 .LASF227
C:\Users\Jesper\AppData\Local\Temp\cclZf3Mh.s:3044   .text.tml_add:0000000000000002 .LCFI12
C:\Users\Jesper\AppData\Local\Temp\cclZf3Mh.s:3184   .text.tml_add:00000000000000b0 .LCFI13
C:\Users\Jesper\AppData\Local\Temp\cclZf3Mh.s:3190   .text.tml_add:00000000000000b2 .LCFI14
C:\Users\Jesper\AppData\Local\Temp\cclZf3Mh.s:3040   .text.tml_add:0000000000000000 .LVL365
C:\Users\Jesper\AppData\Local\Temp\cclZf3Mh.s:3075   .text.tml_add:0000000000000024 .LVL368
C:\Users\Jesper\AppData\Local\Temp\cclZf3Mh.s:3112   .text.tml_add:0000000000000050 .LVL370
C:\Users\Jesper\AppData\Local\Temp\cclZf3Mh.s:3157   .text.tml_add:000000000000009a .LVL377
C:\Users\Jesper\AppData\Local\Temp\cclZf3Mh.s:3188   .text.tml_add:00000000000000b2 .LVL385
C:\Users\Jesper\AppData\Local\Temp\cclZf3Mh.s:3160   .text.tml_add:000000000000009c .LVL378
C:\Users\Jesper\AppData\Local\Temp\cclZf3Mh.s:3051   .text.tml_add:0000000000000008 .LVL366
C:\Users\Jesper\AppData\Local\Temp\cclZf3Mh.s:3163   .text.tml_add:000000000000009e .LVL379
C:\Users\Jesper\AppData\Local\Temp\cclZf3Mh.s:3166   .text.tml_add:00000000000000a0 .LVL380
GAS LISTING C:\Users\Jesper\AppData\Local\Temp\cclZf3Mh.s 			page 115


C:\Users\Jesper\AppData\Local\Temp\cclZf3Mh.s:3173   .text.tml_add:00000000000000a6 .LVL381
C:\Users\Jesper\AppData\Local\Temp\cclZf3Mh.s:3186   .text.tml_add:00000000000000b0 .LVL384
C:\Users\Jesper\AppData\Local\Temp\cclZf3Mh.s:3066   .text.tml_add:000000000000001a .LVL367
C:\Users\Jesper\AppData\Local\Temp\cclZf3Mh.s:3178   .text.tml_add:00000000000000aa .LVL382
C:\Users\Jesper\AppData\Local\Temp\cclZf3Mh.s:3104   .text.tml_add:0000000000000046 .LVL369
C:\Users\Jesper\AppData\Local\Temp\cclZf3Mh.s:3181   .text.tml_add:00000000000000ac .LVL383
C:\Users\Jesper\AppData\Local\Temp\cclZf3Mh.s:3151   .text.tml_add:0000000000000096 .LVL375
C:\Users\Jesper\AppData\Local\Temp\cclZf3Mh.s:3135   .text.tml_add:0000000000000086 .LVL373
C:\Users\Jesper\AppData\Local\Temp\cclZf3Mh.s:3140   .text.tml_add:000000000000008e .LVL374
C:\Users\Jesper\AppData\Local\Temp\cclZf3Mh.s:3154   .text.tml_add:0000000000000098 .LVL376
C:\Users\Jesper\AppData\Local\Temp\cclZf3Mh.s:3197   .text.tml_add:00000000000000b8 .LVL386
C:\Users\Jesper\AppData\Local\Temp\cclZf3Mh.s:3234   .text.tml_add:000000000000012a .LVL396
C:\Users\Jesper\AppData\Local\Temp\cclZf3Mh.s:3333   .text.tml_add:000000000000025a .LVL421
C:\Users\Jesper\AppData\Local\Temp\cclZf3Mh.s:3354   .text.tml_add:0000000000000288 .LVL424
C:\Users\Jesper\AppData\Local\Temp\cclZf3Mh.s:3378   .text.tml_add:00000000000002d4 .LVL431
C:\Users\Jesper\AppData\Local\Temp\cclZf3Mh.s:3023   .text.tml_reshape:0000000000000000 .LVL363
C:\Users\Jesper\AppData\Local\Temp\cclZf3Mh.s:3027   .text.tml_reshape:0000000000000002 .LVL364
C:\Users\Jesper\AppData\Local\Temp\cclZf3Mh.s:2743   .text.tml_softmax:0000000000000002 .LCFI9
C:\Users\Jesper\AppData\Local\Temp\cclZf3Mh.s:2880   .text.tml_softmax:000000000000008e .LCFI10
C:\Users\Jesper\AppData\Local\Temp\cclZf3Mh.s:2885   .text.tml_softmax:0000000000000090 .LCFI11
C:\Users\Jesper\AppData\Local\Temp\cclZf3Mh.s:2737   .text.tml_softmax:0000000000000000 .LVL320
C:\Users\Jesper\AppData\Local\Temp\cclZf3Mh.s:2851   .text.tml_softmax:0000000000000076 .LVL331
C:\Users\Jesper\AppData\Local\Temp\cclZf3Mh.s:2883   .text.tml_softmax:0000000000000090 .LVL338
C:\Users\Jesper\AppData\Local\Temp\cclZf3Mh.s:2862   .text.tml_softmax:000000000000007e .LVL334
C:\Users\Jesper\AppData\Local\Temp\cclZf3Mh.s:2813   .text.tml_softmax:0000000000000052 .LVL325
C:\Users\Jesper\AppData\Local\Temp\cclZf3Mh.s:2922   .text.tml_softmax:00000000000000cc .LVL344
C:\Users\Jesper\AppData\Local\Temp\cclZf3Mh.s:2815   .text.tml_softmax:0000000000000056 .LVL326
C:\Users\Jesper\AppData\Local\Temp\cclZf3Mh.s:2869   .text.tml_softmax:0000000000000084 .LVL335
C:\Users\Jesper\AppData\Local\Temp\cclZf3Mh.s:2872   .text.tml_softmax:0000000000000086 .LVL336
C:\Users\Jesper\AppData\Local\Temp\cclZf3Mh.s:2787   .text.tml_softmax:0000000000000038 .LVL322
C:\Users\Jesper\AppData\Local\Temp\cclZf3Mh.s:2823   .text.tml_softmax:000000000000005e .LVL328
C:\Users\Jesper\AppData\Local\Temp\cclZf3Mh.s:2791   .text.tml_softmax:000000000000003c .LVL323
C:\Users\Jesper\AppData\Local\Temp\cclZf3Mh.s:2857   .text.tml_softmax:000000000000007a .LVL333
C:\Users\Jesper\AppData\Local\Temp\cclZf3Mh.s:2804   .text.tml_softmax:0000000000000046 .LVL324
C:\Users\Jesper\AppData\Local\Temp\cclZf3Mh.s:2875   .text.tml_softmax:0000000000000088 .LVL337
C:\Users\Jesper\AppData\Local\Temp\cclZf3Mh.s:2854   .text.tml_softmax:0000000000000078 .LVL332
C:\Users\Jesper\AppData\Local\Temp\cclZf3Mh.s:2956   .text.tml_softmax:0000000000000104 .LVL351
C:\Users\Jesper\AppData\Local\Temp\cclZf3Mh.s:2960   .text.tml_softmax:0000000000000106 .LVL352
C:\Users\Jesper\AppData\Local\Temp\cclZf3Mh.s:2817   .text.tml_softmax:0000000000000058 .LVL327
C:\Users\Jesper\AppData\Local\Temp\cclZf3Mh.s:2834   .text.tml_softmax:0000000000000068 .LVL329
C:\Users\Jesper\AppData\Local\Temp\cclZf3Mh.s:2932   .text.tml_softmax:00000000000000d2 .LVL345
C:\Users\Jesper\AppData\Local\Temp\cclZf3Mh.s:2968   .text.tml_softmax:0000000000000122 .LVL355
C:\Users\Jesper\AppData\Local\Temp\cclZf3Mh.s:2972   .text.tml_softmax:0000000000000128 .LVL356
C:\Users\Jesper\AppData\Local\Temp\cclZf3Mh.s:2848   .text.tml_softmax:0000000000000074 .LVL330
C:\Users\Jesper\AppData\Local\Temp\cclZf3Mh.s:2387   .text.tml_fc:0000000000000002 .LCFI6
C:\Users\Jesper\AppData\Local\Temp\cclZf3Mh.s:2499   .text.tml_fc:0000000000000064 .LCFI7
C:\Users\Jesper\AppData\Local\Temp\cclZf3Mh.s:2505   .text.tml_fc:0000000000000066 .LCFI8
C:\Users\Jesper\AppData\Local\Temp\cclZf3Mh.s:2381   .text.tml_fc:0000000000000000 .LVL277
C:\Users\Jesper\AppData\Local\Temp\cclZf3Mh.s:2469   .text.tml_fc:000000000000004c .LVL282
C:\Users\Jesper\AppData\Local\Temp\cclZf3Mh.s:2503   .text.tml_fc:0000000000000066 .LVL291
C:\Users\Jesper\AppData\Local\Temp\cclZf3Mh.s:2487   .text.tml_fc:0000000000000058 .LVL288
C:\Users\Jesper\AppData\Local\Temp\cclZf3Mh.s:2472   .text.tml_fc:000000000000004e .LVL283
C:\Users\Jesper\AppData\Local\Temp\cclZf3Mh.s:2484   .text.tml_fc:0000000000000056 .LVL287
C:\Users\Jesper\AppData\Local\Temp\cclZf3Mh.s:2475   .text.tml_fc:0000000000000050 .LVL284
C:\Users\Jesper\AppData\Local\Temp\cclZf3Mh.s:2478   .text.tml_fc:0000000000000052 .LVL285
C:\Users\Jesper\AppData\Local\Temp\cclZf3Mh.s:2481   .text.tml_fc:0000000000000054 .LVL286
C:\Users\Jesper\AppData\Local\Temp\cclZf3Mh.s:2501   .text.tml_fc:0000000000000064 .LVL290
GAS LISTING C:\Users\Jesper\AppData\Local\Temp\cclZf3Mh.s 			page 116


C:\Users\Jesper\AppData\Local\Temp\cclZf3Mh.s:2430   .text.tml_fc:0000000000000036 .LVL279
C:\Users\Jesper\AppData\Local\Temp\cclZf3Mh.s:2490   .text.tml_fc:000000000000005a .LVL289
C:\Users\Jesper\AppData\Local\Temp\cclZf3Mh.s:2449   .text.tml_fc:000000000000003e .LVL280
C:\Users\Jesper\AppData\Local\Temp\cclZf3Mh.s:2466   .text.tml_fc:000000000000004a .LVL281
C:\Users\Jesper\AppData\Local\Temp\cclZf3Mh.s:2578   .text.tml_fc:00000000000000ae .LVL300
C:\Users\Jesper\AppData\Local\Temp\cclZf3Mh.s:2600   .text.tml_fc:00000000000000e4 .LVL306
C:\Users\Jesper\AppData\Local\Temp\cclZf3Mh.s:2549   .text.tml_fc:0000000000000086 .LVL295
C:\Users\Jesper\AppData\Local\Temp\cclZf3Mh.s:2558   .text.tml_fc:000000000000008c .LVL296
C:\Users\Jesper\AppData\Local\Temp\cclZf3Mh.s:2565   .text.tml_fc:0000000000000094 .LVL297
C:\Users\Jesper\AppData\Local\Temp\cclZf3Mh.s:2567   .text.tml_fc:000000000000009c .LVL298
C:\Users\Jesper\AppData\Local\Temp\cclZf3Mh.s:2602   .text.tml_fc:00000000000000e6 .LVL307
C:\Users\Jesper\AppData\Local\Temp\cclZf3Mh.s:2531   .text.tml_fc:0000000000000078 .LVL292
C:\Users\Jesper\AppData\Local\Temp\cclZf3Mh.s:3437   .debug_info:0000000000000000 .Ldebug_info0
C:\Users\Jesper\AppData\Local\Temp\cclZf3Mh.s:2539   .text.tml_fc:000000000000007a .LVL293
C:\Users\Jesper\AppData\Local\Temp\cclZf3Mh.s:2620   .text.tml_fc:00000000000000fc .LVL309
C:\Users\Jesper\AppData\Local\Temp\cclZf3Mh.s:2631   .text.tml_fc:000000000000010a .LVL310
C:\Users\Jesper\AppData\Local\Temp\cclZf3Mh.s:2642   .text.tml_fc:0000000000000118 .LVL311
C:\Users\Jesper\AppData\Local\Temp\cclZf3Mh.s:2653   .text.tml_fc:0000000000000126 .LVL312
C:\Users\Jesper\AppData\Local\Temp\cclZf3Mh.s:2664   .text.tml_fc:0000000000000134 .LVL313
C:\Users\Jesper\AppData\Local\Temp\cclZf3Mh.s:2675   .text.tml_fc:0000000000000142 .LVL314
C:\Users\Jesper\AppData\Local\Temp\cclZf3Mh.s:2686   .text.tml_fc:0000000000000150 .LVL315
C:\Users\Jesper\AppData\Local\Temp\cclZf3Mh.s:2695   .text.tml_fc:000000000000015a .LVL316
C:\Users\Jesper\AppData\Local\Temp\cclZf3Mh.s:2544   .text.tml_fc:0000000000000082 .LVL294
C:\Users\Jesper\AppData\Local\Temp\cclZf3Mh.s:2613   .text.tml_fc:00000000000000f2 .LVL308
C:\Users\Jesper\AppData\Local\Temp\cclZf3Mh.s:2698   .text.tml_fc:000000000000015c .LVL317
C:\Users\Jesper\AppData\Local\Temp\cclZf3Mh.s:2711   .text.tml_fc:000000000000016e .LVL318
C:\Users\Jesper\AppData\Local\Temp\cclZf3Mh.s:2716   .text.tml_fc:0000000000000174 .LVL319
C:\Users\Jesper\AppData\Local\Temp\cclZf3Mh.s:2179   .text.tml_gap:0000000000000002 .LCFI3
C:\Users\Jesper\AppData\Local\Temp\cclZf3Mh.s:2258   .text.tml_gap:000000000000004c .LCFI4
C:\Users\Jesper\AppData\Local\Temp\cclZf3Mh.s:2263   .text.tml_gap:000000000000004e .LCFI5
C:\Users\Jesper\AppData\Local\Temp\cclZf3Mh.s:2173   .text.tml_gap:0000000000000000 .LVL251
C:\Users\Jesper\AppData\Local\Temp\cclZf3Mh.s:2236   .text.tml_gap:000000000000003a .LVL254
C:\Users\Jesper\AppData\Local\Temp\cclZf3Mh.s:2261   .text.tml_gap:000000000000004e .LVL260
C:\Users\Jesper\AppData\Local\Temp\cclZf3Mh.s:2253   .text.tml_gap:0000000000000046 .LVL259
C:\Users\Jesper\AppData\Local\Temp\cclZf3Mh.s:2239   .text.tml_gap:000000000000003c .LVL255
C:\Users\Jesper\AppData\Local\Temp\cclZf3Mh.s:2248   .text.tml_gap:0000000000000042 .LVL258
C:\Users\Jesper\AppData\Local\Temp\cclZf3Mh.s:2242   .text.tml_gap:000000000000003e .LVL256
C:\Users\Jesper\AppData\Local\Temp\cclZf3Mh.s:2245   .text.tml_gap:0000000000000040 .LVL257
C:\Users\Jesper\AppData\Local\Temp\cclZf3Mh.s:2279   .text.tml_gap:000000000000005e .LVL261
C:\Users\Jesper\AppData\Local\Temp\cclZf3Mh.s:2311   .text.tml_gap:0000000000000082 .LVL265
C:\Users\Jesper\AppData\Local\Temp\cclZf3Mh.s:2333   .text.tml_gap:00000000000000bc .LVL271
C:\Users\Jesper\AppData\Local\Temp\cclZf3Mh.s:2345   .text.tml_gap:00000000000000c4 .LVL273
C:\Users\Jesper\AppData\Local\Temp\cclZf3Mh.s:2348   .text.tml_gap:00000000000000c6 .LVL274
C:\Users\Jesper\AppData\Local\Temp\cclZf3Mh.s:2359   .text.tml_gap:00000000000000d0 .LVL276
C:\Users\Jesper\AppData\Local\Temp\cclZf3Mh.s:2233   .text.tml_gap:0000000000000038 .LVL253
C:\Users\Jesper\AppData\Local\Temp\cclZf3Mh.s:2301   .text.tml_gap:000000000000006e .LVL263
C:\Users\Jesper\AppData\Local\Temp\cclZf3Mh.s:2330   .text.tml_gap:00000000000000b6 .LVL270
C:\Users\Jesper\AppData\Local\Temp\cclZf3Mh.s:2288   .text.tml_gap:0000000000000062 .LVL262
C:\Users\Jesper\AppData\Local\Temp\cclZf3Mh.s:2307   .text.tml_gap:0000000000000076 .LVL264
C:\Users\Jesper\AppData\Local\Temp\cclZf3Mh.s:2342   .text.tml_gap:00000000000000c2 .LVL272
C:\Users\Jesper\AppData\Local\Temp\cclZf3Mh.s:36     .text.tml_conv2d_dwconv2d:0000000000000002 .LCFI0
C:\Users\Jesper\AppData\Local\Temp\cclZf3Mh.s:1209   .text.tml_conv2d_dwconv2d:0000000000000558 .LCFI1
C:\Users\Jesper\AppData\Local\Temp\cclZf3Mh.s:1215   .text.tml_conv2d_dwconv2d:000000000000055a .LCFI2
C:\Users\Jesper\AppData\Local\Temp\cclZf3Mh.s:24     .text.tml_conv2d_dwconv2d:0000000000000000 .LVL0
C:\Users\Jesper\AppData\Local\Temp\cclZf3Mh.s:147    .text.tml_conv2d_dwconv2d:0000000000000086 .LVL8
C:\Users\Jesper\AppData\Local\Temp\cclZf3Mh.s:1177   .text.tml_conv2d_dwconv2d:000000000000053a .LVL130
C:\Users\Jesper\AppData\Local\Temp\cclZf3Mh.s:1213   .text.tml_conv2d_dwconv2d:000000000000055a .LVL132
GAS LISTING C:\Users\Jesper\AppData\Local\Temp\cclZf3Mh.s 			page 117


C:\Users\Jesper\AppData\Local\Temp\cclZf3Mh.s:2148   .text.tml_conv2d_dwconv2d:00000000000009c0 .LVL250
C:\Users\Jesper\AppData\Local\Temp\cclZf3Mh.s:149    .text.tml_conv2d_dwconv2d:0000000000000088 .LVL9
C:\Users\Jesper\AppData\Local\Temp\cclZf3Mh.s:161    .text.tml_conv2d_dwconv2d:000000000000009e .LVL10
C:\Users\Jesper\AppData\Local\Temp\cclZf3Mh.s:261    .text.tml_conv2d_dwconv2d:0000000000000116 .LVL17
C:\Users\Jesper\AppData\Local\Temp\cclZf3Mh.s:1050   .text.tml_conv2d_dwconv2d:00000000000004de .LVL117
C:\Users\Jesper\AppData\Local\Temp\cclZf3Mh.s:1172   .text.tml_conv2d_dwconv2d:0000000000000538 .LVL129
C:\Users\Jesper\AppData\Local\Temp\cclZf3Mh.s:126    .text.tml_conv2d_dwconv2d:0000000000000070 .LVL5
C:\Users\Jesper\AppData\Local\Temp\cclZf3Mh.s:1211   .text.tml_conv2d_dwconv2d:0000000000000558 .LVL131
C:\Users\Jesper\AppData\Local\Temp\cclZf3Mh.s:83     .text.tml_conv2d_dwconv2d:000000000000003a .LVL1
C:\Users\Jesper\AppData\Local\Temp\cclZf3Mh.s:114    .text.tml_conv2d_dwconv2d:0000000000000062 .LVL3
C:\Users\Jesper\AppData\Local\Temp\cclZf3Mh.s:117    .text.tml_conv2d_dwconv2d:0000000000000066 .LVL4
C:\Users\Jesper\AppData\Local\Temp\cclZf3Mh.s:1154   .text.tml_conv2d_dwconv2d:000000000000052c .LVL128
C:\Users\Jesper\AppData\Local\Temp\cclZf3Mh.s:1227   .text.tml_conv2d_dwconv2d:0000000000000564 .LVL133
C:\Users\Jesper\AppData\Local\Temp\cclZf3Mh.s:102    .text.tml_conv2d_dwconv2d:0000000000000052 .LVL2
C:\Users\Jesper\AppData\Local\Temp\cclZf3Mh.s:136    .text.tml_conv2d_dwconv2d:000000000000007e .LVL6
C:\Users\Jesper\AppData\Local\Temp\cclZf3Mh.s:1104   .text.tml_conv2d_dwconv2d:0000000000000506 .LVL126
C:\Users\Jesper\AppData\Local\Temp\cclZf3Mh.s:140    .text.tml_conv2d_dwconv2d:0000000000000082 .LVL7
C:\Users\Jesper\AppData\Local\Temp\cclZf3Mh.s:804    .text.tml_conv2d_dwconv2d:00000000000003a6 .LVL82
C:\Users\Jesper\AppData\Local\Temp\cclZf3Mh.s:821    .text.tml_conv2d_dwconv2d:00000000000003b4 .LVL84
C:\Users\Jesper\AppData\Local\Temp\cclZf3Mh.s:310    .text.tml_conv2d_dwconv2d:0000000000000156 .LVL20
C:\Users\Jesper\AppData\Local\Temp\cclZf3Mh.s:314    .text.tml_conv2d_dwconv2d:000000000000015c .LVL21
C:\Users\Jesper\AppData\Local\Temp\cclZf3Mh.s:357    .text.tml_conv2d_dwconv2d:000000000000019a .LVL24
C:\Users\Jesper\AppData\Local\Temp\cclZf3Mh.s:379    .text.tml_conv2d_dwconv2d:00000000000001b6 .LVL27
C:\Users\Jesper\AppData\Local\Temp\cclZf3Mh.s:484    .text.tml_conv2d_dwconv2d:0000000000000236 .LVL43
C:\Users\Jesper\AppData\Local\Temp\cclZf3Mh.s:492    .text.tml_conv2d_dwconv2d:000000000000023c .LVL45
C:\Users\Jesper\AppData\Local\Temp\cclZf3Mh.s:847    .text.tml_conv2d_dwconv2d:00000000000003d4 .LVL88
C:\Users\Jesper\AppData\Local\Temp\cclZf3Mh.s:880    .text.tml_conv2d_dwconv2d:0000000000000404 .LVL96
C:\Users\Jesper\AppData\Local\Temp\cclZf3Mh.s:1572   .text.tml_conv2d_dwconv2d:0000000000000704 .LVL175
C:\Users\Jesper\AppData\Local\Temp\cclZf3Mh.s:1835   .text.tml_conv2d_dwconv2d:0000000000000852 .LVL211
C:\Users\Jesper\AppData\Local\Temp\cclZf3Mh.s:1903   .text.tml_conv2d_dwconv2d:0000000000000892 .LVL219
C:\Users\Jesper\AppData\Local\Temp\cclZf3Mh.s:1908   .text.tml_conv2d_dwconv2d:000000000000089c .LVL220
C:\Users\Jesper\AppData\Local\Temp\cclZf3Mh.s:1959   .text.tml_conv2d_dwconv2d:00000000000008ba .LVL223
C:\Users\Jesper\AppData\Local\Temp\cclZf3Mh.s:1981   .text.tml_conv2d_dwconv2d:00000000000008e4 .LVL228
C:\Users\Jesper\AppData\Local\Temp\cclZf3Mh.s:1985   .text.tml_conv2d_dwconv2d:00000000000008ea .LVL229
C:\Users\Jesper\AppData\Local\Temp\cclZf3Mh.s:2113   .text.tml_conv2d_dwconv2d:0000000000000986 .LVL243
C:\Users\Jesper\AppData\Local\Temp\cclZf3Mh.s:163    .text.tml_conv2d_dwconv2d:00000000000000a0 .LVL11
C:\Users\Jesper\AppData\Local\Temp\cclZf3Mh.s:171    .text.tml_conv2d_dwconv2d:00000000000000a6 .LVL12
C:\Users\Jesper\AppData\Local\Temp\cclZf3Mh.s:196    .text.tml_conv2d_dwconv2d:00000000000000ca .LVL13
C:\Users\Jesper\AppData\Local\Temp\cclZf3Mh.s:209    .text.tml_conv2d_dwconv2d:00000000000000dc .LVL14
C:\Users\Jesper\AppData\Local\Temp\cclZf3Mh.s:1094   .text.tml_conv2d_dwconv2d:00000000000004fe .LVL124
C:\Users\Jesper\AppData\Local\Temp\cclZf3Mh.s:1115   .text.tml_conv2d_dwconv2d:000000000000050a .LVL127
C:\Users\Jesper\AppData\Local\Temp\cclZf3Mh.s:1065   .text.tml_conv2d_dwconv2d:00000000000004e2 .LVL118
C:\Users\Jesper\AppData\Local\Temp\cclZf3Mh.s:1069   .text.tml_conv2d_dwconv2d:00000000000004e4 .LVL119
C:\Users\Jesper\AppData\Local\Temp\cclZf3Mh.s:1083   .text.tml_conv2d_dwconv2d:00000000000004f4 .LVL122
C:\Users\Jesper\AppData\Local\Temp\cclZf3Mh.s:1096   .text.tml_conv2d_dwconv2d:0000000000000500 .LVL125
C:\Users\Jesper\AppData\Local\Temp\cclZf3Mh.s:1322   .text.tml_conv2d_dwconv2d:00000000000005f8 .LVL141
C:\Users\Jesper\AppData\Local\Temp\cclZf3Mh.s:1332   .text.tml_conv2d_dwconv2d:000000000000060e .LVL142
C:\Users\Jesper\AppData\Local\Temp\cclZf3Mh.s:1334   .text.tml_conv2d_dwconv2d:0000000000000612 .LVL143
C:\Users\Jesper\AppData\Local\Temp\cclZf3Mh.s:1341   .text.tml_conv2d_dwconv2d:0000000000000616 .LVL144
C:\Users\Jesper\AppData\Local\Temp\cclZf3Mh.s:1425   .text.tml_conv2d_dwconv2d:000000000000066a .LVL155
C:\Users\Jesper\AppData\Local\Temp\cclZf3Mh.s:1436   .text.tml_conv2d_dwconv2d:000000000000066c .LVL156
C:\Users\Jesper\AppData\Local\Temp\cclZf3Mh.s:1464   .text.tml_conv2d_dwconv2d:000000000000068c .LVL160
C:\Users\Jesper\AppData\Local\Temp\cclZf3Mh.s:225    .text.tml_conv2d_dwconv2d:00000000000000ec .LVL15
C:\Users\Jesper\AppData\Local\Temp\cclZf3Mh.s:228    .text.tml_conv2d_dwconv2d:00000000000000f4 .LVL16
C:\Users\Jesper\AppData\Local\Temp\cclZf3Mh.s:373    .text.tml_conv2d_dwconv2d:00000000000001ae .LVL25
C:\Users\Jesper\AppData\Local\Temp\cclZf3Mh.s:375    .text.tml_conv2d_dwconv2d:00000000000001b0 .LVL26
C:\Users\Jesper\AppData\Local\Temp\cclZf3Mh.s:277    .text.tml_conv2d_dwconv2d:0000000000000128 .LVL18
GAS LISTING C:\Users\Jesper\AppData\Local\Temp\cclZf3Mh.s 			page 118


C:\Users\Jesper\AppData\Local\Temp\cclZf3Mh.s:352    .text.tml_conv2d_dwconv2d:0000000000000194 .LVL22
C:\Users\Jesper\AppData\Local\Temp\cclZf3Mh.s:354    .text.tml_conv2d_dwconv2d:0000000000000196 .LVL23
C:\Users\Jesper\AppData\Local\Temp\cclZf3Mh.s:295    .text.tml_conv2d_dwconv2d:0000000000000146 .LVL19
C:\Users\Jesper\AppData\Local\Temp\cclZf3Mh.s:863    .text.tml_conv2d_dwconv2d:00000000000003e2 .LVL91
C:\Users\Jesper\AppData\Local\Temp\cclZf3Mh.s:474    .text.tml_conv2d_dwconv2d:0000000000000232 .LVL42
C:\Users\Jesper\AppData\Local\Temp\cclZf3Mh.s:525    .text.tml_conv2d_dwconv2d:0000000000000276 .LVL52
C:\Users\Jesper\AppData\Local\Temp\cclZf3Mh.s:752    .text.tml_conv2d_dwconv2d:0000000000000384 .LVL76
C:\Users\Jesper\AppData\Local\Temp\cclZf3Mh.s:775    .text.tml_conv2d_dwconv2d:0000000000000390 .LVL78
C:\Users\Jesper\AppData\Local\Temp\cclZf3Mh.s:552    .text.tml_conv2d_dwconv2d:0000000000000284 .LVL54
C:\Users\Jesper\AppData\Local\Temp\cclZf3Mh.s:575    .text.tml_conv2d_dwconv2d:00000000000002a8 .LVL56
C:\Users\Jesper\AppData\Local\Temp\cclZf3Mh.s:613    .text.tml_conv2d_dwconv2d:00000000000002d8 .LVL60
C:\Users\Jesper\AppData\Local\Temp\cclZf3Mh.s:651    .text.tml_conv2d_dwconv2d:0000000000000308 .LVL64
C:\Users\Jesper\AppData\Local\Temp\cclZf3Mh.s:689    .text.tml_conv2d_dwconv2d:0000000000000338 .LVL68
C:\Users\Jesper\AppData\Local\Temp\cclZf3Mh.s:602    .text.tml_conv2d_dwconv2d:00000000000002ca .LVL59
C:\Users\Jesper\AppData\Local\Temp\cclZf3Mh.s:640    .text.tml_conv2d_dwconv2d:00000000000002fa .LVL63
C:\Users\Jesper\AppData\Local\Temp\cclZf3Mh.s:678    .text.tml_conv2d_dwconv2d:000000000000032a .LVL67
C:\Users\Jesper\AppData\Local\Temp\cclZf3Mh.s:712    .text.tml_conv2d_dwconv2d:0000000000000352 .LVL71
C:\Users\Jesper\AppData\Local\Temp\cclZf3Mh.s:489    .text.tml_conv2d_dwconv2d:0000000000000238 .LVL44
C:\Users\Jesper\AppData\Local\Temp\cclZf3Mh.s:566    .text.tml_conv2d_dwconv2d:000000000000029a .LVL55
C:\Users\Jesper\AppData\Local\Temp\cclZf3Mh.s:583    .text.tml_conv2d_dwconv2d:00000000000002b2 .LVL57
C:\Users\Jesper\AppData\Local\Temp\cclZf3Mh.s:715    .text.tml_conv2d_dwconv2d:0000000000000354 .LVL72
C:\Users\Jesper\AppData\Local\Temp\cclZf3Mh.s:733    .text.tml_conv2d_dwconv2d:0000000000000376 .LVL73
C:\Users\Jesper\AppData\Local\Temp\cclZf3Mh.s:742    .text.tml_conv2d_dwconv2d:000000000000037e .LVL75
C:\Users\Jesper\AppData\Local\Temp\cclZf3Mh.s:542    .text.tml_conv2d_dwconv2d:000000000000027a .LVL53
C:\Users\Jesper\AppData\Local\Temp\cclZf3Mh.s:770    .text.tml_conv2d_dwconv2d:0000000000000388 .LVL77
C:\Users\Jesper\AppData\Local\Temp\cclZf3Mh.s:387    .text.tml_conv2d_dwconv2d:00000000000001b8 .LVL28
C:\Users\Jesper\AppData\Local\Temp\cclZf3Mh.s:462    .text.tml_conv2d_dwconv2d:000000000000022c .LVL41
C:\Users\Jesper\AppData\Local\Temp\cclZf3Mh.s:395    .text.tml_conv2d_dwconv2d:00000000000001be .LVL29
C:\Users\Jesper\AppData\Local\Temp\cclZf3Mh.s:400    .text.tml_conv2d_dwconv2d:00000000000001c0 .LVL30
C:\Users\Jesper\AppData\Local\Temp\cclZf3Mh.s:403    .text.tml_conv2d_dwconv2d:00000000000001c2 .LVL31
C:\Users\Jesper\AppData\Local\Temp\cclZf3Mh.s:406    .text.tml_conv2d_dwconv2d:00000000000001c4 .LVL32
C:\Users\Jesper\AppData\Local\Temp\cclZf3Mh.s:408    .text.tml_conv2d_dwconv2d:00000000000001cc .LVL33
C:\Users\Jesper\AppData\Local\Temp\cclZf3Mh.s:421    .text.tml_conv2d_dwconv2d:00000000000001e0 .LVL35
C:\Users\Jesper\AppData\Local\Temp\cclZf3Mh.s:426    .text.tml_conv2d_dwconv2d:00000000000001ea .LVL36
C:\Users\Jesper\AppData\Local\Temp\cclZf3Mh.s:501    .text.tml_conv2d_dwconv2d:0000000000000248 .LVL46
C:\Users\Jesper\AppData\Local\Temp\cclZf3Mh.s:505    .text.tml_conv2d_dwconv2d:0000000000000250 .LVL47
C:\Users\Jesper\AppData\Local\Temp\cclZf3Mh.s:507    .text.tml_conv2d_dwconv2d:0000000000000252 .LVL48
C:\Users\Jesper\AppData\Local\Temp\cclZf3Mh.s:513    .text.tml_conv2d_dwconv2d:000000000000025e .LVL49
C:\Users\Jesper\AppData\Local\Temp\cclZf3Mh.s:523    .text.tml_conv2d_dwconv2d:0000000000000274 .LVL51
C:\Users\Jesper\AppData\Local\Temp\cclZf3Mh.s:897    .text.tml_conv2d_dwconv2d:0000000000000408 .LVL97
C:\Users\Jesper\AppData\Local\Temp\cclZf3Mh.s:1013   .text.tml_conv2d_dwconv2d:0000000000000498 .LVL110
C:\Users\Jesper\AppData\Local\Temp\cclZf3Mh.s:794    .text.tml_conv2d_dwconv2d:000000000000039a .LVL80
C:\Users\Jesper\AppData\Local\Temp\cclZf3Mh.s:915    .text.tml_conv2d_dwconv2d:000000000000041e .LVL99
C:\Users\Jesper\AppData\Local\Temp\cclZf3Mh.s:926    .text.tml_conv2d_dwconv2d:000000000000042c .LVL100
C:\Users\Jesper\AppData\Local\Temp\cclZf3Mh.s:937    .text.tml_conv2d_dwconv2d:000000000000043a .LVL101
C:\Users\Jesper\AppData\Local\Temp\cclZf3Mh.s:948    .text.tml_conv2d_dwconv2d:0000000000000448 .LVL102
C:\Users\Jesper\AppData\Local\Temp\cclZf3Mh.s:959    .text.tml_conv2d_dwconv2d:0000000000000456 .LVL103
C:\Users\Jesper\AppData\Local\Temp\cclZf3Mh.s:970    .text.tml_conv2d_dwconv2d:0000000000000464 .LVL104
C:\Users\Jesper\AppData\Local\Temp\cclZf3Mh.s:981    .text.tml_conv2d_dwconv2d:0000000000000472 .LVL105
C:\Users\Jesper\AppData\Local\Temp\cclZf3Mh.s:990    .text.tml_conv2d_dwconv2d:000000000000047c .LVL106
C:\Users\Jesper\AppData\Local\Temp\cclZf3Mh.s:799    .text.tml_conv2d_dwconv2d:00000000000003a2 .LVL81
C:\Users\Jesper\AppData\Local\Temp\cclZf3Mh.s:908    .text.tml_conv2d_dwconv2d:0000000000000414 .LVL98
C:\Users\Jesper\AppData\Local\Temp\cclZf3Mh.s:993    .text.tml_conv2d_dwconv2d:000000000000047e .LVL107
C:\Users\Jesper\AppData\Local\Temp\cclZf3Mh.s:1006   .text.tml_conv2d_dwconv2d:0000000000000490 .LVL108
C:\Users\Jesper\AppData\Local\Temp\cclZf3Mh.s:1011   .text.tml_conv2d_dwconv2d:0000000000000496 .LVL109
C:\Users\Jesper\AppData\Local\Temp\cclZf3Mh.s:787    .text.tml_conv2d_dwconv2d:0000000000000394 .LVL79
C:\Users\Jesper\AppData\Local\Temp\cclZf3Mh.s:865    .text.tml_conv2d_dwconv2d:00000000000003e4 .LVL92
GAS LISTING C:\Users\Jesper\AppData\Local\Temp\cclZf3Mh.s 			page 119


C:\Users\Jesper\AppData\Local\Temp\cclZf3Mh.s:1024   .text.tml_conv2d_dwconv2d:00000000000004a4 .LVL111
C:\Users\Jesper\AppData\Local\Temp\cclZf3Mh.s:1030   .text.tml_conv2d_dwconv2d:00000000000004ae .LVL113
C:\Users\Jesper\AppData\Local\Temp\cclZf3Mh.s:1036   .text.tml_conv2d_dwconv2d:00000000000004ba .LVL114
C:\Users\Jesper\AppData\Local\Temp\cclZf3Mh.s:819    .text.tml_conv2d_dwconv2d:00000000000003ac .LVL83
C:\Users\Jesper\AppData\Local\Temp\cclZf3Mh.s:831    .text.tml_conv2d_dwconv2d:00000000000003c4 .LVL86
C:\Users\Jesper\AppData\Local\Temp\cclZf3Mh.s:836    .text.tml_conv2d_dwconv2d:00000000000003ce .LVL87
C:\Users\Jesper\AppData\Local\Temp\cclZf3Mh.s:855    .text.tml_conv2d_dwconv2d:00000000000003de .LVL90
C:\Users\Jesper\AppData\Local\Temp\cclZf3Mh.s:1028   .text.tml_conv2d_dwconv2d:00000000000004ac .LVL112
C:\Users\Jesper\AppData\Local\Temp\cclZf3Mh.s:1048   .text.tml_conv2d_dwconv2d:00000000000004dc .LVL116
C:\Users\Jesper\AppData\Local\Temp\cclZf3Mh.s:1091   .text.tml_conv2d_dwconv2d:00000000000004fc .LVL123
C:\Users\Jesper\AppData\Local\Temp\cclZf3Mh.s:1072   .text.tml_conv2d_dwconv2d:00000000000004e6 .LVL120
C:\Users\Jesper\AppData\Local\Temp\cclZf3Mh.s:1237   .text.tml_conv2d_dwconv2d:0000000000000566 .LVL134
C:\Users\Jesper\AppData\Local\Temp\cclZf3Mh.s:1281   .text.tml_conv2d_dwconv2d:00000000000005c2 .LVL136
C:\Users\Jesper\AppData\Local\Temp\cclZf3Mh.s:1283   .text.tml_conv2d_dwconv2d:00000000000005c4 .LVL137
C:\Users\Jesper\AppData\Local\Temp\cclZf3Mh.s:1285   .text.tml_conv2d_dwconv2d:00000000000005c6 .LVL138
C:\Users\Jesper\AppData\Local\Temp\cclZf3Mh.s:1290   .text.tml_conv2d_dwconv2d:00000000000005ce .LVL139
C:\Users\Jesper\AppData\Local\Temp\cclZf3Mh.s:1264   .text.tml_conv2d_dwconv2d:00000000000005ae .LVL135
C:\Users\Jesper\AppData\Local\Temp\cclZf3Mh.s:1302   .text.tml_conv2d_dwconv2d:00000000000005d6 .LVL140
C:\Users\Jesper\AppData\Local\Temp\cclZf3Mh.s:1594   .text.tml_conv2d_dwconv2d:000000000000071e .LVL177
C:\Users\Jesper\AppData\Local\Temp\cclZf3Mh.s:1596   .text.tml_conv2d_dwconv2d:0000000000000720 .LVL178
C:\Users\Jesper\AppData\Local\Temp\cclZf3Mh.s:1598   .text.tml_conv2d_dwconv2d:0000000000000722 .LVL179
C:\Users\Jesper\AppData\Local\Temp\cclZf3Mh.s:1602   .text.tml_conv2d_dwconv2d:0000000000000728 .LVL180
C:\Users\Jesper\AppData\Local\Temp\cclZf3Mh.s:1649   .text.tml_conv2d_dwconv2d:0000000000000752 .LVL181
C:\Users\Jesper\AppData\Local\Temp\cclZf3Mh.s:1652   .text.tml_conv2d_dwconv2d:0000000000000756 .LVL182
C:\Users\Jesper\AppData\Local\Temp\cclZf3Mh.s:1657   .text.tml_conv2d_dwconv2d:000000000000075c .LVL183
C:\Users\Jesper\AppData\Local\Temp\cclZf3Mh.s:1660   .text.tml_conv2d_dwconv2d:0000000000000760 .LVL184
C:\Users\Jesper\AppData\Local\Temp\cclZf3Mh.s:1663   .text.tml_conv2d_dwconv2d:0000000000000764 .LVL185
C:\Users\Jesper\AppData\Local\Temp\cclZf3Mh.s:1686   .text.tml_conv2d_dwconv2d:000000000000078a .LVL186
C:\Users\Jesper\AppData\Local\Temp\cclZf3Mh.s:1691   .text.tml_conv2d_dwconv2d:0000000000000790 .LVL187
C:\Users\Jesper\AppData\Local\Temp\cclZf3Mh.s:1694   .text.tml_conv2d_dwconv2d:0000000000000794 .LVL188
C:\Users\Jesper\AppData\Local\Temp\cclZf3Mh.s:1697   .text.tml_conv2d_dwconv2d:0000000000000798 .LVL189
C:\Users\Jesper\AppData\Local\Temp\cclZf3Mh.s:1718   .text.tml_conv2d_dwconv2d:00000000000007b2 .LVL192
C:\Users\Jesper\AppData\Local\Temp\cclZf3Mh.s:1876   .text.tml_conv2d_dwconv2d:0000000000000872 .LVL215
C:\Users\Jesper\AppData\Local\Temp\cclZf3Mh.s:1893   .text.tml_conv2d_dwconv2d:0000000000000880 .LVL217
C:\Users\Jesper\AppData\Local\Temp\cclZf3Mh.s:1346   .text.tml_conv2d_dwconv2d:000000000000061c .LVL145
C:\Users\Jesper\AppData\Local\Temp\cclZf3Mh.s:1370   .text.tml_conv2d_dwconv2d:0000000000000636 .LVL146
C:\Users\Jesper\AppData\Local\Temp\cclZf3Mh.s:1556   .text.tml_conv2d_dwconv2d:00000000000006f0 .LVL174
C:\Users\Jesper\AppData\Local\Temp\cclZf3Mh.s:1582   .text.tml_conv2d_dwconv2d:0000000000000714 .LVL176
C:\Users\Jesper\AppData\Local\Temp\cclZf3Mh.s:1759   .text.tml_conv2d_dwconv2d:00000000000007e2 .LVL197
C:\Users\Jesper\AppData\Local\Temp\cclZf3Mh.s:1779   .text.tml_conv2d_dwconv2d:0000000000000808 .LVL203
C:\Users\Jesper\AppData\Local\Temp\cclZf3Mh.s:1407   .text.tml_conv2d_dwconv2d:0000000000000658 .LVL151
C:\Users\Jesper\AppData\Local\Temp\cclZf3Mh.s:1415   .text.tml_conv2d_dwconv2d:0000000000000662 .LVL152
C:\Users\Jesper\AppData\Local\Temp\cclZf3Mh.s:1402   .text.tml_conv2d_dwconv2d:0000000000000654 .LVL149
C:\Users\Jesper\AppData\Local\Temp\cclZf3Mh.s:1417   .text.tml_conv2d_dwconv2d:0000000000000664 .LVL153
C:\Users\Jesper\AppData\Local\Temp\cclZf3Mh.s:1419   .text.tml_conv2d_dwconv2d:0000000000000666 .LVL154
C:\Users\Jesper\AppData\Local\Temp\cclZf3Mh.s:1405   .text.tml_conv2d_dwconv2d:0000000000000656 .LVL150
C:\Users\Jesper\AppData\Local\Temp\cclZf3Mh.s:1449   .text.tml_conv2d_dwconv2d:0000000000000680 .LVL158
C:\Users\Jesper\AppData\Local\Temp\cclZf3Mh.s:1457   .text.tml_conv2d_dwconv2d:000000000000068a .LVL159
C:\Users\Jesper\AppData\Local\Temp\cclZf3Mh.s:1481   .text.tml_conv2d_dwconv2d:00000000000006a4 .LVL162
C:\Users\Jesper\AppData\Local\Temp\cclZf3Mh.s:1532   .text.tml_conv2d_dwconv2d:00000000000006da .LVL168
C:\Users\Jesper\AppData\Local\Temp\cclZf3Mh.s:1547   .text.tml_conv2d_dwconv2d:00000000000006ea .LVL172
C:\Users\Jesper\AppData\Local\Temp\cclZf3Mh.s:1549   .text.tml_conv2d_dwconv2d:00000000000006ec .LVL173
C:\Users\Jesper\AppData\Local\Temp\cclZf3Mh.s:1537   .text.tml_conv2d_dwconv2d:00000000000006de .LVL170
C:\Users\Jesper\AppData\Local\Temp\cclZf3Mh.s:1545   .text.tml_conv2d_dwconv2d:00000000000006e8 .LVL171
C:\Users\Jesper\AppData\Local\Temp\cclZf3Mh.s:1535   .text.tml_conv2d_dwconv2d:00000000000006dc .LVL169
C:\Users\Jesper\AppData\Local\Temp\cclZf3Mh.s:1492   .text.tml_conv2d_dwconv2d:00000000000006b2 .LVL163
C:\Users\Jesper\AppData\Local\Temp\cclZf3Mh.s:1526   .text.tml_conv2d_dwconv2d:00000000000006d6 .LVL167
GAS LISTING C:\Users\Jesper\AppData\Local\Temp\cclZf3Mh.s 			page 120


C:\Users\Jesper\AppData\Local\Temp\cclZf3Mh.s:1761   .text.tml_conv2d_dwconv2d:00000000000007e4 .LVL198
C:\Users\Jesper\AppData\Local\Temp\cclZf3Mh.s:1800   .text.tml_conv2d_dwconv2d:000000000000080c .LVL204
C:\Users\Jesper\AppData\Local\Temp\cclZf3Mh.s:1771   .text.tml_conv2d_dwconv2d:00000000000007f2 .LVL200
C:\Users\Jesper\AppData\Local\Temp\cclZf3Mh.s:1809   .text.tml_conv2d_dwconv2d:0000000000000818 .LVL205
C:\Users\Jesper\AppData\Local\Temp\cclZf3Mh.s:1815   .text.tml_conv2d_dwconv2d:0000000000000822 .LVL207
C:\Users\Jesper\AppData\Local\Temp\cclZf3Mh.s:1821   .text.tml_conv2d_dwconv2d:000000000000082e .LVL208
C:\Users\Jesper\AppData\Local\Temp\cclZf3Mh.s:1704   .text.tml_conv2d_dwconv2d:00000000000007a2 .LVL190
C:\Users\Jesper\AppData\Local\Temp\cclZf3Mh.s:1714   .text.tml_conv2d_dwconv2d:00000000000007a8 .LVL191
C:\Users\Jesper\AppData\Local\Temp\cclZf3Mh.s:1728   .text.tml_conv2d_dwconv2d:00000000000007c4 .LVL194
C:\Users\Jesper\AppData\Local\Temp\cclZf3Mh.s:1734   .text.tml_conv2d_dwconv2d:00000000000007ce .LVL195
C:\Users\Jesper\AppData\Local\Temp\cclZf3Mh.s:1813   .text.tml_conv2d_dwconv2d:0000000000000820 .LVL206
C:\Users\Jesper\AppData\Local\Temp\cclZf3Mh.s:1833   .text.tml_conv2d_dwconv2d:0000000000000850 .LVL210
C:\Users\Jesper\AppData\Local\Temp\cclZf3Mh.s:1978   .text.tml_conv2d_dwconv2d:00000000000008e0 .LVL227
C:\Users\Jesper\AppData\Local\Temp\cclZf3Mh.s:1996   .text.tml_conv2d_dwconv2d:00000000000008f6 .LVL230
C:\Users\Jesper\AppData\Local\Temp\cclZf3Mh.s:2124   .text.tml_conv2d_dwconv2d:0000000000000992 .LVL244
C:\Users\Jesper\AppData\Local\Temp\cclZf3Mh.s:2130   .text.tml_conv2d_dwconv2d:000000000000099c .LVL246
C:\Users\Jesper\AppData\Local\Temp\cclZf3Mh.s:2136   .text.tml_conv2d_dwconv2d:00000000000009a8 .LVL247
C:\Users\Jesper\AppData\Local\Temp\cclZf3Mh.s:1891   .text.tml_conv2d_dwconv2d:0000000000000878 .LVL216
C:\Users\Jesper\AppData\Local\Temp\cclZf3Mh.s:2128   .text.tml_conv2d_dwconv2d:000000000000099a .LVL245
C:\Users\Jesper\AppData\Local\Temp\cclZf3Mh.s:2146   .text.tml_conv2d_dwconv2d:00000000000009be .LVL249
C:\Users\Jesper\AppData\Local\Temp\cclZf3Mh.s:1866   .text.tml_conv2d_dwconv2d:0000000000000864 .LVL213
C:\Users\Jesper\AppData\Local\Temp\cclZf3Mh.s:2015   .text.tml_conv2d_dwconv2d:000000000000090c .LVL232
C:\Users\Jesper\AppData\Local\Temp\cclZf3Mh.s:2026   .text.tml_conv2d_dwconv2d:000000000000091a .LVL233
C:\Users\Jesper\AppData\Local\Temp\cclZf3Mh.s:2037   .text.tml_conv2d_dwconv2d:0000000000000928 .LVL234
C:\Users\Jesper\AppData\Local\Temp\cclZf3Mh.s:2048   .text.tml_conv2d_dwconv2d:0000000000000936 .LVL235
C:\Users\Jesper\AppData\Local\Temp\cclZf3Mh.s:2059   .text.tml_conv2d_dwconv2d:0000000000000944 .LVL236
C:\Users\Jesper\AppData\Local\Temp\cclZf3Mh.s:2070   .text.tml_conv2d_dwconv2d:0000000000000952 .LVL237
C:\Users\Jesper\AppData\Local\Temp\cclZf3Mh.s:2081   .text.tml_conv2d_dwconv2d:0000000000000960 .LVL238
C:\Users\Jesper\AppData\Local\Temp\cclZf3Mh.s:2090   .text.tml_conv2d_dwconv2d:000000000000096a .LVL239
C:\Users\Jesper\AppData\Local\Temp\cclZf3Mh.s:1870   .text.tml_conv2d_dwconv2d:000000000000086c .LVL214
C:\Users\Jesper\AppData\Local\Temp\cclZf3Mh.s:2008   .text.tml_conv2d_dwconv2d:0000000000000902 .LVL231
C:\Users\Jesper\AppData\Local\Temp\cclZf3Mh.s:2093   .text.tml_conv2d_dwconv2d:000000000000096c .LVL240
C:\Users\Jesper\AppData\Local\Temp\cclZf3Mh.s:2106   .text.tml_conv2d_dwconv2d:000000000000097e .LVL241
C:\Users\Jesper\AppData\Local\Temp\cclZf3Mh.s:2111   .text.tml_conv2d_dwconv2d:0000000000000984 .LVL242
C:\Users\Jesper\AppData\Local\Temp\cclZf3Mh.s:1858   .text.tml_conv2d_dwconv2d:000000000000085c .LVL212
C:\Users\Jesper\AppData\Local\Temp\cclZf3Mh.s:155    .text.tml_conv2d_dwconv2d:0000000000000092 .LBB54
C:\Users\Jesper\AppData\Local\Temp\cclZf3Mh.s:158    .text.tml_conv2d_dwconv2d:0000000000000096 .LBE54
C:\Users\Jesper\AppData\Local\Temp\cclZf3Mh.s:165    .text.tml_conv2d_dwconv2d:00000000000000a0 .LBB55
C:\Users\Jesper\AppData\Local\Temp\cclZf3Mh.s:175    .text.tml_conv2d_dwconv2d:00000000000000aa .LBE55
C:\Users\Jesper\AppData\Local\Temp\cclZf3Mh.s:213    .text.tml_conv2d_dwconv2d:00000000000000dc .LBB60
C:\Users\Jesper\AppData\Local\Temp\cclZf3Mh.s:233    .text.tml_conv2d_dwconv2d:00000000000000fa .LBE60
C:\Users\Jesper\AppData\Local\Temp\cclZf3Mh.s:186    .text.tml_conv2d_dwconv2d:00000000000000c0 .LBB56
C:\Users\Jesper\AppData\Local\Temp\cclZf3Mh.s:189    .text.tml_conv2d_dwconv2d:00000000000000c2 .LBE56
C:\Users\Jesper\AppData\Local\Temp\cclZf3Mh.s:197    .text.tml_conv2d_dwconv2d:00000000000000ca .LBB59
C:\Users\Jesper\AppData\Local\Temp\cclZf3Mh.s:212    .text.tml_conv2d_dwconv2d:00000000000000dc .LBE59
C:\Users\Jesper\AppData\Local\Temp\cclZf3Mh.s:1059   .text.tml_conv2d_dwconv2d:00000000000004de .LBB117
C:\Users\Jesper\AppData\Local\Temp\cclZf3Mh.s:1098   .text.tml_conv2d_dwconv2d:0000000000000500 .LBE117
C:\Users\Jesper\AppData\Local\Temp\cclZf3Mh.s:205    .text.tml_conv2d_dwconv2d:00000000000000d8 .LBB57
C:\Users\Jesper\AppData\Local\Temp\cclZf3Mh.s:211    .text.tml_conv2d_dwconv2d:00000000000000dc .LBE57
C:\Users\Jesper\AppData\Local\Temp\cclZf3Mh.s:1060   .text.tml_conv2d_dwconv2d:00000000000004de .LBB58
C:\Users\Jesper\AppData\Local\Temp\cclZf3Mh.s:1078   .text.tml_conv2d_dwconv2d:00000000000004ec .LBE58
C:\Users\Jesper\AppData\Local\Temp\cclZf3Mh.s:234    .text.tml_conv2d_dwconv2d:00000000000000fa .LBB61
C:\Users\Jesper\AppData\Local\Temp\cclZf3Mh.s:472    .text.tml_conv2d_dwconv2d:0000000000000232 .LBE61
C:\Users\Jesper\AppData\Local\Temp\cclZf3Mh.s:475    .text.tml_conv2d_dwconv2d:0000000000000232 .LBB114
C:\Users\Jesper\AppData\Local\Temp\cclZf3Mh.s:760    .text.tml_conv2d_dwconv2d:0000000000000384 .LBE114
C:\Users\Jesper\AppData\Local\Temp\cclZf3Mh.s:762    .text.tml_conv2d_dwconv2d:0000000000000384 .LBB115
C:\Users\Jesper\AppData\Local\Temp\cclZf3Mh.s:887    .text.tml_conv2d_dwconv2d:0000000000000404 .LBE115
GAS LISTING C:\Users\Jesper\AppData\Local\Temp\cclZf3Mh.s 			page 121


C:\Users\Jesper\AppData\Local\Temp\cclZf3Mh.s:889    .text.tml_conv2d_dwconv2d:0000000000000404 .LBB116
C:\Users\Jesper\AppData\Local\Temp\cclZf3Mh.s:1058   .text.tml_conv2d_dwconv2d:00000000000004de .LBE116
C:\Users\Jesper\AppData\Local\Temp\cclZf3Mh.s:236    .text.tml_conv2d_dwconv2d:00000000000000fa .LBB63
C:\Users\Jesper\AppData\Local\Temp\cclZf3Mh.s:258    .text.tml_conv2d_dwconv2d:0000000000000114 .LBE63
C:\Users\Jesper\AppData\Local\Temp\cclZf3Mh.s:273    .text.tml_conv2d_dwconv2d:0000000000000124 .LBB106
C:\Users\Jesper\AppData\Local\Temp\cclZf3Mh.s:367    .text.tml_conv2d_dwconv2d:00000000000001a6 .LBE106
C:\Users\Jesper\AppData\Local\Temp\cclZf3Mh.s:381    .text.tml_conv2d_dwconv2d:00000000000001b6 .LBB107
C:\Users\Jesper\AppData\Local\Temp\cclZf3Mh.s:470    .text.tml_conv2d_dwconv2d:0000000000000232 .LBE107
C:\Users\Jesper\AppData\Local\Temp\cclZf3Mh.s:477    .text.tml_conv2d_dwconv2d:0000000000000232 .LBB108
C:\Users\Jesper\AppData\Local\Temp\cclZf3Mh.s:758    .text.tml_conv2d_dwconv2d:0000000000000384 .LBE108
C:\Users\Jesper\AppData\Local\Temp\cclZf3Mh.s:764    .text.tml_conv2d_dwconv2d:0000000000000384 .LBB109
C:\Users\Jesper\AppData\Local\Temp\cclZf3Mh.s:885    .text.tml_conv2d_dwconv2d:0000000000000404 .LBE109
C:\Users\Jesper\AppData\Local\Temp\cclZf3Mh.s:891    .text.tml_conv2d_dwconv2d:0000000000000404 .LBB110
C:\Users\Jesper\AppData\Local\Temp\cclZf3Mh.s:1056   .text.tml_conv2d_dwconv2d:00000000000004de .LBE110
C:\Users\Jesper\AppData\Local\Temp\cclZf3Mh.s:237    .text.tml_conv2d_dwconv2d:00000000000000fa .LBB64
C:\Users\Jesper\AppData\Local\Temp\cclZf3Mh.s:257    .text.tml_conv2d_dwconv2d:0000000000000114 .LBE64
C:\Users\Jesper\AppData\Local\Temp\cclZf3Mh.s:279    .text.tml_conv2d_dwconv2d:0000000000000128 .LBB101
C:\Users\Jesper\AppData\Local\Temp\cclZf3Mh.s:345    .text.tml_conv2d_dwconv2d:000000000000018a .LBE101
C:\Users\Jesper\AppData\Local\Temp\cclZf3Mh.s:382    .text.tml_conv2d_dwconv2d:00000000000001b6 .LBB102
C:\Users\Jesper\AppData\Local\Temp\cclZf3Mh.s:469    .text.tml_conv2d_dwconv2d:0000000000000232 .LBE102
C:\Users\Jesper\AppData\Local\Temp\cclZf3Mh.s:478    .text.tml_conv2d_dwconv2d:0000000000000232 .LBB103
C:\Users\Jesper\AppData\Local\Temp\cclZf3Mh.s:757    .text.tml_conv2d_dwconv2d:0000000000000384 .LBE103
C:\Users\Jesper\AppData\Local\Temp\cclZf3Mh.s:765    .text.tml_conv2d_dwconv2d:0000000000000384 .LBB104
C:\Users\Jesper\AppData\Local\Temp\cclZf3Mh.s:884    .text.tml_conv2d_dwconv2d:0000000000000404 .LBE104
C:\Users\Jesper\AppData\Local\Temp\cclZf3Mh.s:892    .text.tml_conv2d_dwconv2d:0000000000000404 .LBB105
C:\Users\Jesper\AppData\Local\Temp\cclZf3Mh.s:1055   .text.tml_conv2d_dwconv2d:00000000000004de .LBE105
C:\Users\Jesper\AppData\Local\Temp\cclZf3Mh.s:254    .text.tml_conv2d_dwconv2d:0000000000000112 .LBE65
C:\Users\Jesper\AppData\Local\Temp\cclZf3Mh.s:383    .text.tml_conv2d_dwconv2d:00000000000001b6 .LBB83
C:\Users\Jesper\AppData\Local\Temp\cclZf3Mh.s:468    .text.tml_conv2d_dwconv2d:0000000000000232 .LBE83
C:\Users\Jesper\AppData\Local\Temp\cclZf3Mh.s:494    .text.tml_conv2d_dwconv2d:000000000000023c .LBB84
C:\Users\Jesper\AppData\Local\Temp\cclZf3Mh.s:529    .text.tml_conv2d_dwconv2d:0000000000000276 .LBE84
C:\Users\Jesper\AppData\Local\Temp\cclZf3Mh.s:766    .text.tml_conv2d_dwconv2d:0000000000000384 .LBB86
C:\Users\Jesper\AppData\Local\Temp\cclZf3Mh.s:778    .text.tml_conv2d_dwconv2d:0000000000000390 .LBE86
C:\Users\Jesper\AppData\Local\Temp\cclZf3Mh.s:243    .text.tml_conv2d_dwconv2d:0000000000000100 .LBB67
C:\Users\Jesper\AppData\Local\Temp\cclZf3Mh.s:252    .text.tml_conv2d_dwconv2d:0000000000000112 .LBE67
C:\Users\Jesper\AppData\Local\Temp\cclZf3Mh.s:389    .text.tml_conv2d_dwconv2d:00000000000001b8 .LBB68
C:\Users\Jesper\AppData\Local\Temp\cclZf3Mh.s:456    .text.tml_conv2d_dwconv2d:0000000000000226 .LBE68
C:\Users\Jesper\AppData\Local\Temp\cclZf3Mh.s:459    .text.tml_conv2d_dwconv2d:0000000000000228 .LBB69
C:\Users\Jesper\AppData\Local\Temp\cclZf3Mh.s:463    .text.tml_conv2d_dwconv2d:000000000000022c .LBE69
C:\Users\Jesper\AppData\Local\Temp\cclZf3Mh.s:496    .text.tml_conv2d_dwconv2d:000000000000023c .LBB70
C:\Users\Jesper\AppData\Local\Temp\cclZf3Mh.s:527    .text.tml_conv2d_dwconv2d:0000000000000276 .LBE70
C:\Users\Jesper\AppData\Local\Temp\cclZf3Mh.s:303    .text.tml_conv2d_dwconv2d:000000000000014e .LBB74
C:\Users\Jesper\AppData\Local\Temp\cclZf3Mh.s:317    .text.tml_conv2d_dwconv2d:000000000000015c .LBE74
C:\Users\Jesper\AppData\Local\Temp\cclZf3Mh.s:530    .text.tml_conv2d_dwconv2d:0000000000000276 .LBB85
C:\Users\Jesper\AppData\Local\Temp\cclZf3Mh.s:755    .text.tml_conv2d_dwconv2d:0000000000000384 .LBE85
C:\Users\Jesper\AppData\Local\Temp\cclZf3Mh.s:337    .text.tml_conv2d_dwconv2d:000000000000017a .LBE79
C:\Users\Jesper\AppData\Local\Temp\cclZf3Mh.s:780    .text.tml_conv2d_dwconv2d:0000000000000390 .LBB87
C:\Users\Jesper\AppData\Local\Temp\cclZf3Mh.s:807    .text.tml_conv2d_dwconv2d:00000000000003a6 .LBE87
C:\Users\Jesper\AppData\Local\Temp\cclZf3Mh.s:899    .text.tml_conv2d_dwconv2d:0000000000000408 .LBB99
C:\Users\Jesper\AppData\Local\Temp\cclZf3Mh.s:1016   .text.tml_conv2d_dwconv2d:0000000000000498 .LBE99
C:\Users\Jesper\AppData\Local\Temp\cclZf3Mh.s:844    .text.tml_conv2d_dwconv2d:00000000000003d2 .LBE88
C:\Users\Jesper\AppData\Local\Temp\cclZf3Mh.s:848    .text.tml_conv2d_dwconv2d:00000000000003d4 .LBB97
C:\Users\Jesper\AppData\Local\Temp\cclZf3Mh.s:860    .text.tml_conv2d_dwconv2d:00000000000003e0 .LBE97
C:\Users\Jesper\AppData\Local\Temp\cclZf3Mh.s:866    .text.tml_conv2d_dwconv2d:00000000000003e4 .LBB98
C:\Users\Jesper\AppData\Local\Temp\cclZf3Mh.s:883    .text.tml_conv2d_dwconv2d:0000000000000404 .LBE98
C:\Users\Jesper\AppData\Local\Temp\cclZf3Mh.s:1017   .text.tml_conv2d_dwconv2d:0000000000000498 .LBB100
C:\Users\Jesper\AppData\Local\Temp\cclZf3Mh.s:1054   .text.tml_conv2d_dwconv2d:00000000000004de .LBE100
GAS LISTING C:\Users\Jesper\AppData\Local\Temp\cclZf3Mh.s 			page 122


C:\Users\Jesper\AppData\Local\Temp\cclZf3Mh.s:1107   .text.tml_conv2d_dwconv2d:0000000000000506 .LBB118
C:\Users\Jesper\AppData\Local\Temp\cclZf3Mh.s:1174   .text.tml_conv2d_dwconv2d:0000000000000538 .LBE118
C:\Users\Jesper\AppData\Local\Temp\cclZf3Mh.s:1217   .text.tml_conv2d_dwconv2d:000000000000055a .LBB217
C:\Users\Jesper\AppData\Local\Temp\cclZf3Mh.s:1788   .text.tml_conv2d_dwconv2d:0000000000000808 .LBE217
C:\Users\Jesper\AppData\Local\Temp\cclZf3Mh.s:1790   .text.tml_conv2d_dwconv2d:0000000000000808 .LBB218
C:\Users\Jesper\AppData\Local\Temp\cclZf3Mh.s:1919   .text.tml_conv2d_dwconv2d:000000000000089c .LBE218
C:\Users\Jesper\AppData\Local\Temp\cclZf3Mh.s:1921   .text.tml_conv2d_dwconv2d:000000000000089c .LBB219
C:\Users\Jesper\AppData\Local\Temp\cclZf3Mh.s:2158   .text.tml_conv2d_dwconv2d:00000000000009c0 .LBE219
C:\Users\Jesper\AppData\Local\Temp\cclZf3Mh.s:1109   .text.tml_conv2d_dwconv2d:0000000000000506 .LBB119
C:\Users\Jesper\AppData\Local\Temp\cclZf3Mh.s:1141   .text.tml_conv2d_dwconv2d:0000000000000528 .LBE119
C:\Users\Jesper\AppData\Local\Temp\cclZf3Mh.s:1144   .text.tml_conv2d_dwconv2d:000000000000052a .LBB212
C:\Users\Jesper\AppData\Local\Temp\cclZf3Mh.s:1163   .text.tml_conv2d_dwconv2d:000000000000052c .LBE212
C:\Users\Jesper\AppData\Local\Temp\cclZf3Mh.s:1218   .text.tml_conv2d_dwconv2d:000000000000055a .LBB213
C:\Users\Jesper\AppData\Local\Temp\cclZf3Mh.s:1275   .text.tml_conv2d_dwconv2d:00000000000005ba .LBE213
C:\Users\Jesper\AppData\Local\Temp\cclZf3Mh.s:1292   .text.tml_conv2d_dwconv2d:00000000000005ce .LBB214
C:\Users\Jesper\AppData\Local\Temp\cclZf3Mh.s:1787   .text.tml_conv2d_dwconv2d:0000000000000808 .LBE214
C:\Users\Jesper\AppData\Local\Temp\cclZf3Mh.s:1791   .text.tml_conv2d_dwconv2d:0000000000000808 .LBB215
C:\Users\Jesper\AppData\Local\Temp\cclZf3Mh.s:1918   .text.tml_conv2d_dwconv2d:000000000000089c .LBE215
C:\Users\Jesper\AppData\Local\Temp\cclZf3Mh.s:1922   .text.tml_conv2d_dwconv2d:000000000000089c .LBB216
C:\Users\Jesper\AppData\Local\Temp\cclZf3Mh.s:2157   .text.tml_conv2d_dwconv2d:00000000000009c0 .LBE216
C:\Users\Jesper\AppData\Local\Temp\cclZf3Mh.s:1110   .text.tml_conv2d_dwconv2d:0000000000000506 .LBB120
C:\Users\Jesper\AppData\Local\Temp\cclZf3Mh.s:1140   .text.tml_conv2d_dwconv2d:0000000000000528 .LBE120
C:\Users\Jesper\AppData\Local\Temp\cclZf3Mh.s:1145   .text.tml_conv2d_dwconv2d:000000000000052a .LBB206
C:\Users\Jesper\AppData\Local\Temp\cclZf3Mh.s:1162   .text.tml_conv2d_dwconv2d:000000000000052c .LBE206
C:\Users\Jesper\AppData\Local\Temp\cclZf3Mh.s:1219   .text.tml_conv2d_dwconv2d:000000000000055a .LBB207
C:\Users\Jesper\AppData\Local\Temp\cclZf3Mh.s:1231   .text.tml_conv2d_dwconv2d:0000000000000564 .LBE207
C:\Users\Jesper\AppData\Local\Temp\cclZf3Mh.s:1234   .text.tml_conv2d_dwconv2d:0000000000000564 .LBB208
C:\Users\Jesper\AppData\Local\Temp\cclZf3Mh.s:1274   .text.tml_conv2d_dwconv2d:00000000000005ba .LBE208
C:\Users\Jesper\AppData\Local\Temp\cclZf3Mh.s:1293   .text.tml_conv2d_dwconv2d:00000000000005ce .LBB209
C:\Users\Jesper\AppData\Local\Temp\cclZf3Mh.s:1786   .text.tml_conv2d_dwconv2d:0000000000000808 .LBE209
C:\Users\Jesper\AppData\Local\Temp\cclZf3Mh.s:1792   .text.tml_conv2d_dwconv2d:0000000000000808 .LBB210
C:\Users\Jesper\AppData\Local\Temp\cclZf3Mh.s:1917   .text.tml_conv2d_dwconv2d:000000000000089c .LBE210
C:\Users\Jesper\AppData\Local\Temp\cclZf3Mh.s:1923   .text.tml_conv2d_dwconv2d:000000000000089c .LBB211
C:\Users\Jesper\AppData\Local\Temp\cclZf3Mh.s:2156   .text.tml_conv2d_dwconv2d:00000000000009c0 .LBE211
C:\Users\Jesper\AppData\Local\Temp\cclZf3Mh.s:1111   .text.tml_conv2d_dwconv2d:0000000000000506 .LBB121
C:\Users\Jesper\AppData\Local\Temp\cclZf3Mh.s:1139   .text.tml_conv2d_dwconv2d:0000000000000528 .LBE121
C:\Users\Jesper\AppData\Local\Temp\cclZf3Mh.s:1146   .text.tml_conv2d_dwconv2d:000000000000052a .LBB200
C:\Users\Jesper\AppData\Local\Temp\cclZf3Mh.s:1161   .text.tml_conv2d_dwconv2d:000000000000052c .LBE200
C:\Users\Jesper\AppData\Local\Temp\cclZf3Mh.s:1220   .text.tml_conv2d_dwconv2d:000000000000055a .LBB201
C:\Users\Jesper\AppData\Local\Temp\cclZf3Mh.s:1230   .text.tml_conv2d_dwconv2d:0000000000000564 .LBE201
C:\Users\Jesper\AppData\Local\Temp\cclZf3Mh.s:1294   .text.tml_conv2d_dwconv2d:00000000000005ce .LBB202
C:\Users\Jesper\AppData\Local\Temp\cclZf3Mh.s:1587   .text.tml_conv2d_dwconv2d:0000000000000714 .LBE202
C:\Users\Jesper\AppData\Local\Temp\cclZf3Mh.s:1604   .text.tml_conv2d_dwconv2d:0000000000000728 .LBB203
C:\Users\Jesper\AppData\Local\Temp\cclZf3Mh.s:1785   .text.tml_conv2d_dwconv2d:0000000000000808 .LBE203
C:\Users\Jesper\AppData\Local\Temp\cclZf3Mh.s:1793   .text.tml_conv2d_dwconv2d:0000000000000808 .LBB204
C:\Users\Jesper\AppData\Local\Temp\cclZf3Mh.s:1916   .text.tml_conv2d_dwconv2d:000000000000089c .LBE204
C:\Users\Jesper\AppData\Local\Temp\cclZf3Mh.s:1924   .text.tml_conv2d_dwconv2d:000000000000089c .LBB205
C:\Users\Jesper\AppData\Local\Temp\cclZf3Mh.s:2155   .text.tml_conv2d_dwconv2d:00000000000009c0 .LBE205
C:\Users\Jesper\AppData\Local\Temp\cclZf3Mh.s:1112   .text.tml_conv2d_dwconv2d:0000000000000506 .LBB122
C:\Users\Jesper\AppData\Local\Temp\cclZf3Mh.s:1123   .text.tml_conv2d_dwconv2d:000000000000051a .LBE122
C:\Users\Jesper\AppData\Local\Temp\cclZf3Mh.s:1221   .text.tml_conv2d_dwconv2d:000000000000055a .LBB165
C:\Users\Jesper\AppData\Local\Temp\cclZf3Mh.s:1229   .text.tml_conv2d_dwconv2d:0000000000000564 .LBE165
C:\Users\Jesper\AppData\Local\Temp\cclZf3Mh.s:1430   .text.tml_conv2d_dwconv2d:000000000000066a .LBB173
C:\Users\Jesper\AppData\Local\Temp\cclZf3Mh.s:1561   .text.tml_conv2d_dwconv2d:00000000000006f0 .LBE173
C:\Users\Jesper\AppData\Local\Temp\cclZf3Mh.s:1471   .text.tml_conv2d_dwconv2d:000000000000069e .LBB123
C:\Users\Jesper\AppData\Local\Temp\cclZf3Mh.s:1475   .text.tml_conv2d_dwconv2d:00000000000006a0 .LBE123
C:\Users\Jesper\AppData\Local\Temp\cclZf3Mh.s:1478   .text.tml_conv2d_dwconv2d:00000000000006a2 .LBB130
GAS LISTING C:\Users\Jesper\AppData\Local\Temp\cclZf3Mh.s 			page 123


C:\Users\Jesper\AppData\Local\Temp\cclZf3Mh.s:1560   .text.tml_conv2d_dwconv2d:00000000000006f0 .LBE130
C:\Users\Jesper\AppData\Local\Temp\cclZf3Mh.s:1488   .text.tml_conv2d_dwconv2d:00000000000006ae .LBB124
C:\Users\Jesper\AppData\Local\Temp\cclZf3Mh.s:1530   .text.tml_conv2d_dwconv2d:00000000000006da .LBE124
C:\Users\Jesper\AppData\Local\Temp\cclZf3Mh.s:1551   .text.tml_conv2d_dwconv2d:00000000000006ec .LBB129
C:\Users\Jesper\AppData\Local\Temp\cclZf3Mh.s:1559   .text.tml_conv2d_dwconv2d:00000000000006f0 .LBE129
C:\Users\Jesper\AppData\Local\Temp\cclZf3Mh.s:1494   .text.tml_conv2d_dwconv2d:00000000000006b2 .LBB125
C:\Users\Jesper\AppData\Local\Temp\cclZf3Mh.s:1520   .text.tml_conv2d_dwconv2d:00000000000006d0 .LBE125
C:\Users\Jesper\AppData\Local\Temp\cclZf3Mh.s:1552   .text.tml_conv2d_dwconv2d:00000000000006ec .LBB128
C:\Users\Jesper\AppData\Local\Temp\cclZf3Mh.s:1558   .text.tml_conv2d_dwconv2d:00000000000006f0 .LBE128
C:\Users\Jesper\AppData\Local\Temp\cclZf3Mh.s:1495   .text.tml_conv2d_dwconv2d:00000000000006b2 .LBB126
C:\Users\Jesper\AppData\Local\Temp\cclZf3Mh.s:1507   .text.tml_conv2d_dwconv2d:00000000000006c4 .LBE126
C:\Users\Jesper\AppData\Local\Temp\cclZf3Mh.s:1511   .text.tml_conv2d_dwconv2d:00000000000006c6 .LBB127
C:\Users\Jesper\AppData\Local\Temp\cclZf3Mh.s:1516   .text.tml_conv2d_dwconv2d:00000000000006ca .LBE127
C:\Users\Jesper\AppData\Local\Temp\cclZf3Mh.s:1124   .text.tml_conv2d_dwconv2d:000000000000051a .LBB131
C:\Users\Jesper\AppData\Local\Temp\cclZf3Mh.s:1138   .text.tml_conv2d_dwconv2d:0000000000000528 .LBE131
C:\Users\Jesper\AppData\Local\Temp\cclZf3Mh.s:1147   .text.tml_conv2d_dwconv2d:000000000000052a .LBB164
C:\Users\Jesper\AppData\Local\Temp\cclZf3Mh.s:1160   .text.tml_conv2d_dwconv2d:000000000000052c .LBE164
C:\Users\Jesper\AppData\Local\Temp\cclZf3Mh.s:1357   .text.tml_conv2d_dwconv2d:0000000000000624 .LBB171
C:\Users\Jesper\AppData\Local\Temp\cclZf3Mh.s:1376   .text.tml_conv2d_dwconv2d:0000000000000636 .LBE171
C:\Users\Jesper\AppData\Local\Temp\cclZf3Mh.s:1842   .text.tml_conv2d_dwconv2d:0000000000000852 .LBB198
C:\Users\Jesper\AppData\Local\Temp\cclZf3Mh.s:1915   .text.tml_conv2d_dwconv2d:000000000000089c .LBE198
C:\Users\Jesper\AppData\Local\Temp\cclZf3Mh.s:1925   .text.tml_conv2d_dwconv2d:000000000000089c .LBB199
C:\Users\Jesper\AppData\Local\Temp\cclZf3Mh.s:2154   .text.tml_conv2d_dwconv2d:00000000000009c0 .LBE199
C:\Users\Jesper\AppData\Local\Temp\cclZf3Mh.s:1125   .text.tml_conv2d_dwconv2d:000000000000051a .LBB132
C:\Users\Jesper\AppData\Local\Temp\cclZf3Mh.s:1137   .text.tml_conv2d_dwconv2d:0000000000000528 .LBE132
C:\Users\Jesper\AppData\Local\Temp\cclZf3Mh.s:1148   .text.tml_conv2d_dwconv2d:000000000000052a .LBB158
C:\Users\Jesper\AppData\Local\Temp\cclZf3Mh.s:1159   .text.tml_conv2d_dwconv2d:000000000000052c .LBE158
C:\Users\Jesper\AppData\Local\Temp\cclZf3Mh.s:1358   .text.tml_conv2d_dwconv2d:0000000000000624 .LBB159
C:\Users\Jesper\AppData\Local\Temp\cclZf3Mh.s:1375   .text.tml_conv2d_dwconv2d:0000000000000636 .LBE159
C:\Users\Jesper\AppData\Local\Temp\cclZf3Mh.s:1843   .text.tml_conv2d_dwconv2d:0000000000000852 .LBB160
C:\Users\Jesper\AppData\Local\Temp\cclZf3Mh.s:1914   .text.tml_conv2d_dwconv2d:000000000000089c .LBE160
C:\Users\Jesper\AppData\Local\Temp\cclZf3Mh.s:1926   .text.tml_conv2d_dwconv2d:000000000000089c .LBB161
C:\Users\Jesper\AppData\Local\Temp\cclZf3Mh.s:1956   .text.tml_conv2d_dwconv2d:00000000000008b8 .LBE161
C:\Users\Jesper\AppData\Local\Temp\cclZf3Mh.s:1961   .text.tml_conv2d_dwconv2d:00000000000008bc .LBB162
C:\Users\Jesper\AppData\Local\Temp\cclZf3Mh.s:1989   .text.tml_conv2d_dwconv2d:00000000000008ea .LBE162
C:\Users\Jesper\AppData\Local\Temp\cclZf3Mh.s:1998   .text.tml_conv2d_dwconv2d:00000000000008f6 .LBB163
C:\Users\Jesper\AppData\Local\Temp\cclZf3Mh.s:2153   .text.tml_conv2d_dwconv2d:00000000000009c0 .LBE163
C:\Users\Jesper\AppData\Local\Temp\cclZf3Mh.s:1136   .text.tml_conv2d_dwconv2d:0000000000000528 .LBE133
C:\Users\Jesper\AppData\Local\Temp\cclZf3Mh.s:1149   .text.tml_conv2d_dwconv2d:000000000000052a .LBB148
C:\Users\Jesper\AppData\Local\Temp\cclZf3Mh.s:1158   .text.tml_conv2d_dwconv2d:000000000000052c .LBE148
C:\Users\Jesper\AppData\Local\Temp\cclZf3Mh.s:1359   .text.tml_conv2d_dwconv2d:0000000000000624 .LBB149
C:\Users\Jesper\AppData\Local\Temp\cclZf3Mh.s:1374   .text.tml_conv2d_dwconv2d:0000000000000636 .LBE149
C:\Users\Jesper\AppData\Local\Temp\cclZf3Mh.s:1881   .text.tml_conv2d_dwconv2d:0000000000000872 .LBB153
C:\Users\Jesper\AppData\Local\Temp\cclZf3Mh.s:1913   .text.tml_conv2d_dwconv2d:000000000000089c .LBE153
C:\Users\Jesper\AppData\Local\Temp\cclZf3Mh.s:1936   .text.tml_conv2d_dwconv2d:00000000000008a2 .LBB154
C:\Users\Jesper\AppData\Local\Temp\cclZf3Mh.s:1955   .text.tml_conv2d_dwconv2d:00000000000008b8 .LBE154
C:\Users\Jesper\AppData\Local\Temp\cclZf3Mh.s:1962   .text.tml_conv2d_dwconv2d:00000000000008bc .LBB155
C:\Users\Jesper\AppData\Local\Temp\cclZf3Mh.s:1988   .text.tml_conv2d_dwconv2d:00000000000008ea .LBE155
C:\Users\Jesper\AppData\Local\Temp\cclZf3Mh.s:2117   .text.tml_conv2d_dwconv2d:0000000000000986 .LBB157
C:\Users\Jesper\AppData\Local\Temp\cclZf3Mh.s:2152   .text.tml_conv2d_dwconv2d:00000000000009c0 .LBE157
C:\Users\Jesper\AppData\Local\Temp\cclZf3Mh.s:1879   .text.tml_conv2d_dwconv2d:0000000000000872 .LBE150
C:\Users\Jesper\AppData\Local\Temp\cclZf3Mh.s:1999   .text.tml_conv2d_dwconv2d:00000000000008f6 .LBB156
C:\Users\Jesper\AppData\Local\Temp\cclZf3Mh.s:2116   .text.tml_conv2d_dwconv2d:0000000000000986 .LBE156
C:\Users\Jesper\AppData\Local\Temp\cclZf3Mh.s:1335   .text.tml_conv2d_dwconv2d:0000000000000612 .LBB166
C:\Users\Jesper\AppData\Local\Temp\cclZf3Mh.s:1349   .text.tml_conv2d_dwconv2d:000000000000061c .LBE166
C:\Users\Jesper\AppData\Local\Temp\cclZf3Mh.s:1377   .text.tml_conv2d_dwconv2d:0000000000000636 .LBB172
C:\Users\Jesper\AppData\Local\Temp\cclZf3Mh.s:1429   .text.tml_conv2d_dwconv2d:000000000000066a .LBE172
GAS LISTING C:\Users\Jesper\AppData\Local\Temp\cclZf3Mh.s 			page 124


C:\Users\Jesper\AppData\Local\Temp\cclZf3Mh.s:1338   .text.tml_conv2d_dwconv2d:0000000000000614 .LBB167
C:\Users\Jesper\AppData\Local\Temp\cclZf3Mh.s:1348   .text.tml_conv2d_dwconv2d:000000000000061c .LBE167
C:\Users\Jesper\AppData\Local\Temp\cclZf3Mh.s:1378   .text.tml_conv2d_dwconv2d:0000000000000636 .LBB170
C:\Users\Jesper\AppData\Local\Temp\cclZf3Mh.s:1428   .text.tml_conv2d_dwconv2d:000000000000066a .LBE170
C:\Users\Jesper\AppData\Local\Temp\cclZf3Mh.s:1379   .text.tml_conv2d_dwconv2d:0000000000000636 .LBB168
C:\Users\Jesper\AppData\Local\Temp\cclZf3Mh.s:1400   .text.tml_conv2d_dwconv2d:0000000000000654 .LBE168
C:\Users\Jesper\AppData\Local\Temp\cclZf3Mh.s:1421   .text.tml_conv2d_dwconv2d:0000000000000666 .LBB169
C:\Users\Jesper\AppData\Local\Temp\cclZf3Mh.s:1427   .text.tml_conv2d_dwconv2d:000000000000066a .LBE169
C:\Users\Jesper\AppData\Local\Temp\cclZf3Mh.s:1574   .text.tml_conv2d_dwconv2d:0000000000000704 .LBB174
C:\Users\Jesper\AppData\Local\Temp\cclZf3Mh.s:1584   .text.tml_conv2d_dwconv2d:0000000000000714 .LBE174
C:\Users\Jesper\AppData\Local\Temp\cclZf3Mh.s:1605   .text.tml_conv2d_dwconv2d:0000000000000728 .LBB196
C:\Users\Jesper\AppData\Local\Temp\cclZf3Mh.s:1784   .text.tml_conv2d_dwconv2d:0000000000000808 .LBE196
C:\Users\Jesper\AppData\Local\Temp\cclZf3Mh.s:1794   .text.tml_conv2d_dwconv2d:0000000000000808 .LBB197
C:\Users\Jesper\AppData\Local\Temp\cclZf3Mh.s:1841   .text.tml_conv2d_dwconv2d:0000000000000852 .LBE197
C:\Users\Jesper\AppData\Local\Temp\cclZf3Mh.s:1614   .text.tml_conv2d_dwconv2d:0000000000000728 .LBE176
C:\Users\Jesper\AppData\Local\Temp\cclZf3Mh.s:1625   .text.tml_conv2d_dwconv2d:0000000000000728 .LBB190
C:\Users\Jesper\AppData\Local\Temp\cclZf3Mh.s:1708   .text.tml_conv2d_dwconv2d:00000000000007a4 .LBE190
C:\Users\Jesper\AppData\Local\Temp\cclZf3Mh.s:1624   .text.tml_conv2d_dwconv2d:0000000000000728 .LBE179
C:\Users\Jesper\AppData\Local\Temp\cclZf3Mh.s:1709   .text.tml_conv2d_dwconv2d:00000000000007a4 .LBB191
C:\Users\Jesper\AppData\Local\Temp\cclZf3Mh.s:1742   .text.tml_conv2d_dwconv2d:00000000000007d2 .LBE191
C:\Users\Jesper\AppData\Local\Temp\cclZf3Mh.s:1745   .text.tml_conv2d_dwconv2d:00000000000007d4 .LBB192
C:\Users\Jesper\AppData\Local\Temp\cclZf3Mh.s:1756   .text.tml_conv2d_dwconv2d:00000000000007e0 .LBE192
C:\Users\Jesper\AppData\Local\Temp\cclZf3Mh.s:1762   .text.tml_conv2d_dwconv2d:00000000000007e4 .LBB193
C:\Users\Jesper\AppData\Local\Temp\cclZf3Mh.s:1782   .text.tml_conv2d_dwconv2d:0000000000000808 .LBE193
C:\Users\Jesper\AppData\Local\Temp\cclZf3Mh.s:1802   .text.tml_conv2d_dwconv2d:000000000000080c .LBB194
C:\Users\Jesper\AppData\Local\Temp\cclZf3Mh.s:1839   .text.tml_conv2d_dwconv2d:0000000000000852 .LBE194
C:\Users\Jesper\AppData\Local\Temp\cclZf3Mh.s:2208   .text.tml_gap:0000000000000022 .LBB220
C:\Users\Jesper\AppData\Local\Temp\cclZf3Mh.s:2211   .text.tml_gap:0000000000000024 .LBE220
C:\Users\Jesper\AppData\Local\Temp\cclZf3Mh.s:2218   .text.tml_gap:000000000000002c .LBB229
C:\Users\Jesper\AppData\Local\Temp\cclZf3Mh.s:2225   .text.tml_gap:0000000000000034 .LBE229
C:\Users\Jesper\AppData\Local\Temp\cclZf3Mh.s:2265   .text.tml_gap:000000000000004e .LBB230
C:\Users\Jesper\AppData\Local\Temp\cclZf3Mh.s:2369   .text.tml_gap:00000000000000d6 .LBE230
C:\Users\Jesper\AppData\Local\Temp\cclZf3Mh.s:2266   .text.tml_gap:000000000000004e .LBB221
C:\Users\Jesper\AppData\Local\Temp\cclZf3Mh.s:2298   .text.tml_gap:000000000000006c .LBE221
C:\Users\Jesper\AppData\Local\Temp\cclZf3Mh.s:2302   .text.tml_gap:000000000000006e .LBB228
C:\Users\Jesper\AppData\Local\Temp\cclZf3Mh.s:2368   .text.tml_gap:00000000000000d6 .LBE228
C:\Users\Jesper\AppData\Local\Temp\cclZf3Mh.s:2272   .text.tml_gap:0000000000000054 .LBB222
C:\Users\Jesper\AppData\Local\Temp\cclZf3Mh.s:2276   .text.tml_gap:000000000000005c .LBE222
C:\Users\Jesper\AppData\Local\Temp\cclZf3Mh.s:2281   .text.tml_gap:000000000000005e .LBB225
C:\Users\Jesper\AppData\Local\Temp\cclZf3Mh.s:2285   .text.tml_gap:0000000000000060 .LBE225
C:\Users\Jesper\AppData\Local\Temp\cclZf3Mh.s:2290   .text.tml_gap:0000000000000062 .LBB226
C:\Users\Jesper\AppData\Local\Temp\cclZf3Mh.s:2293   .text.tml_gap:0000000000000066 .LBE226
C:\Users\Jesper\AppData\Local\Temp\cclZf3Mh.s:2335   .text.tml_gap:00000000000000bc .LBB227
C:\Users\Jesper\AppData\Local\Temp\cclZf3Mh.s:2367   .text.tml_gap:00000000000000d6 .LBE227
C:\Users\Jesper\AppData\Local\Temp\cclZf3Mh.s:2336   .text.tml_gap:00000000000000bc .LBB223
C:\Users\Jesper\AppData\Local\Temp\cclZf3Mh.s:2354   .text.tml_gap:00000000000000cc .LBE223
C:\Users\Jesper\AppData\Local\Temp\cclZf3Mh.s:2362   .text.tml_gap:00000000000000d2 .LBB224
C:\Users\Jesper\AppData\Local\Temp\cclZf3Mh.s:2366   .text.tml_gap:00000000000000d6 .LBE224
C:\Users\Jesper\AppData\Local\Temp\cclZf3Mh.s:2432   .text.tml_fc:0000000000000036 .LBB231
C:\Users\Jesper\AppData\Local\Temp\cclZf3Mh.s:2458   .text.tml_fc:0000000000000046 .LBE231
C:\Users\Jesper\AppData\Local\Temp\cclZf3Mh.s:2507   .text.tml_fc:0000000000000066 .LBB248
C:\Users\Jesper\AppData\Local\Temp\cclZf3Mh.s:2721   .text.tml_fc:0000000000000176 .LBE248
C:\Users\Jesper\AppData\Local\Temp\cclZf3Mh.s:2434   .text.tml_fc:0000000000000036 .LBB232
C:\Users\Jesper\AppData\Local\Temp\cclZf3Mh.s:2441   .text.tml_fc:0000000000000038 .LBE232
C:\Users\Jesper\AppData\Local\Temp\cclZf3Mh.s:2444   .text.tml_fc:000000000000003a .LBB245
C:\Users\Jesper\AppData\Local\Temp\cclZf3Mh.s:2453   .text.tml_fc:000000000000003e .LBE245
C:\Users\Jesper\AppData\Local\Temp\cclZf3Mh.s:2508   .text.tml_fc:0000000000000066 .LBB246
GAS LISTING C:\Users\Jesper\AppData\Local\Temp\cclZf3Mh.s 			page 125


C:\Users\Jesper\AppData\Local\Temp\cclZf3Mh.s:2575   .text.tml_fc:00000000000000ac .LBE246
C:\Users\Jesper\AppData\Local\Temp\cclZf3Mh.s:2579   .text.tml_fc:00000000000000ae .LBB247
C:\Users\Jesper\AppData\Local\Temp\cclZf3Mh.s:2720   .text.tml_fc:0000000000000176 .LBE247
C:\Users\Jesper\AppData\Local\Temp\cclZf3Mh.s:2440   .text.tml_fc:0000000000000038 .LBE233
C:\Users\Jesper\AppData\Local\Temp\cclZf3Mh.s:2445   .text.tml_fc:000000000000003a .LBB240
C:\Users\Jesper\AppData\Local\Temp\cclZf3Mh.s:2452   .text.tml_fc:000000000000003e .LBE240
C:\Users\Jesper\AppData\Local\Temp\cclZf3Mh.s:2513   .text.tml_fc:000000000000006a .LBB241
C:\Users\Jesper\AppData\Local\Temp\cclZf3Mh.s:2520   .text.tml_fc:000000000000006e .LBE241
C:\Users\Jesper\AppData\Local\Temp\cclZf3Mh.s:2523   .text.tml_fc:0000000000000072 .LBB242
C:\Users\Jesper\AppData\Local\Temp\cclZf3Mh.s:2528   .text.tml_fc:0000000000000076 .LBE242
C:\Users\Jesper\AppData\Local\Temp\cclZf3Mh.s:2532   .text.tml_fc:0000000000000078 .LBB243
C:\Users\Jesper\AppData\Local\Temp\cclZf3Mh.s:2552   .text.tml_fc:0000000000000086 .LBE243
C:\Users\Jesper\AppData\Local\Temp\cclZf3Mh.s:2604   .text.tml_fc:00000000000000e6 .LBB244
C:\Users\Jesper\AppData\Local\Temp\cclZf3Mh.s:2719   .text.tml_fc:0000000000000176 .LBE244
C:\Users\Jesper\AppData\Local\Temp\cclZf3Mh.s:2794   .text.tml_softmax:000000000000003c .LBB249
C:\Users\Jesper\AppData\Local\Temp\cclZf3Mh.s:2798   .text.tml_softmax:0000000000000040 .LBE249
C:\Users\Jesper\AppData\Local\Temp\cclZf3Mh.s:2801   .text.tml_softmax:0000000000000044 .LBB250
C:\Users\Jesper\AppData\Local\Temp\cclZf3Mh.s:2808   .text.tml_softmax:000000000000004a .LBE250
C:\Users\Jesper\AppData\Local\Temp\cclZf3Mh.s:2887   .text.tml_softmax:0000000000000090 .LBB254
C:\Users\Jesper\AppData\Local\Temp\cclZf3Mh.s:2924   .text.tml_softmax:00000000000000cc .LBE254
C:\Users\Jesper\AppData\Local\Temp\cclZf3Mh.s:2809   .text.tml_softmax:000000000000004a .LBB251
C:\Users\Jesper\AppData\Local\Temp\cclZf3Mh.s:2820   .text.tml_softmax:000000000000005a .LBE251
C:\Users\Jesper\AppData\Local\Temp\cclZf3Mh.s:2825   .text.tml_softmax:000000000000005e .LBB252
C:\Users\Jesper\AppData\Local\Temp\cclZf3Mh.s:2830   .text.tml_softmax:0000000000000066 .LBE252
C:\Users\Jesper\AppData\Local\Temp\cclZf3Mh.s:2925   .text.tml_softmax:00000000000000cc .LBB255
C:\Users\Jesper\AppData\Local\Temp\cclZf3Mh.s:2974   .text.tml_softmax:0000000000000128 .LBE255
C:\Users\Jesper\AppData\Local\Temp\cclZf3Mh.s:2831   .text.tml_softmax:0000000000000066 .LBB253
C:\Users\Jesper\AppData\Local\Temp\cclZf3Mh.s:2840   .text.tml_softmax:0000000000000070 .LBE253
C:\Users\Jesper\AppData\Local\Temp\cclZf3Mh.s:2975   .text.tml_softmax:0000000000000128 .LBB256
C:\Users\Jesper\AppData\Local\Temp\cclZf3Mh.s:3011   .text.tml_softmax:0000000000000172 .LBE256

UNDEFINED SYMBOLS
__divsf3
__mulsf3
__floatsisf
__gtsf2
__addsf3
__fixsfsi
memset
clock
__subsf3
__extendsfdf2
__truncdfsf2
__subdf3
exp
printf
