GAS LISTING C:\Users\Jesper\AppData\Local\Temp\cc1iO6kH.s 			page 1


   1              		.file	"tm_layers.c"
   2              		.option nopic
   3              		.attribute arch, "rv32i2p0_m2p0_a2p0_c2p0"
   4              		.attribute unaligned_access, 0
   5              		.attribute stack_align, 16
   6              		.text
   7              	.Ltext0:
   8              		.cfi_sections	.debug_frame
   9              		.globl	__divsf3
  10              		.globl	__fixsfsi
  11              		.globl	__extendsfdf2
  12              		.globl	__divdf3
  13              		.globl	__fixdfsi
  14              		.section	.text.tml_conv2d_dwconv2d,"ax",@progbits
  15              		.align	1
  16              		.weak	tml_conv2d_dwconv2d
  18              	tml_conv2d_dwconv2d:
  19              	.LFB33:
  20              		.file 1 "lib/tinymaix/src/tm_layers.c"
   1:lib/tinymaix/src/tm_layers.c **** /* Copyright 2022 Sipeed Technology Co., Ltd. All Rights Reserved.
   2:lib/tinymaix/src/tm_layers.c **** Licensed under the Apache License, Version 2.0 (the "License");
   3:lib/tinymaix/src/tm_layers.c **** you may not use this file except in compliance with the License.
   4:lib/tinymaix/src/tm_layers.c **** You may obtain a copy of the License at
   5:lib/tinymaix/src/tm_layers.c ****     http://www.apache.org/licenses/LICENSE-2.0
   6:lib/tinymaix/src/tm_layers.c **** Unless required by applicable law or agreed to in writing, software
   7:lib/tinymaix/src/tm_layers.c **** distributed under the License is distributed on an "AS IS" BASIS,
   8:lib/tinymaix/src/tm_layers.c **** WITHOUT WARRANTIES OR CONDITIONS OF ANY KIND, either express or implied.
   9:lib/tinymaix/src/tm_layers.c **** See the License for the specific language governing permissions and
  10:lib/tinymaix/src/tm_layers.c **** limitations under the License.
  11:lib/tinymaix/src/tm_layers.c **** ==============================================================================*/
  12:lib/tinymaix/src/tm_layers.c **** // It is default O0 implement
  13:lib/tinymaix/src/tm_layers.c **** #include "tinymaix.h"
  14:lib/tinymaix/src/tm_layers.c **** #include "float.h"
  15:lib/tinymaix/src/tm_layers.c **** #include "math.h"
  16:lib/tinymaix/src/tm_layers.c **** 
  17:lib/tinymaix/src/tm_layers.c **** #if TM_OPT_LEVEL == TM_OPT0
  18:lib/tinymaix/src/tm_layers.c **** 
  19:lib/tinymaix/src/tm_layers.c **** #if TM_ARCH==TM_ARCH_CPU
  20:lib/tinymaix/src/tm_layers.c ****     #include "arch_cpu.h"
  21:lib/tinymaix/src/tm_layers.c **** #elif TM_ARCH==TM_ARCH_ARM_SIMD
  22:lib/tinymaix/src/tm_layers.c ****     #include "arch_arm_simd.h"
  23:lib/tinymaix/src/tm_layers.c **** #elif TM_ARCH==TM_ARCH_ARM_NEON
  24:lib/tinymaix/src/tm_layers.c ****     #include "arch_arm_neon.h"
  25:lib/tinymaix/src/tm_layers.c **** #elif TM_ARCH==TM_ARCH_ARM_MVEI
  26:lib/tinymaix/src/tm_layers.c ****     #include "arch_arm_mvei.h"
  27:lib/tinymaix/src/tm_layers.c **** #elif TM_ARCH==TM_ARCH_RV32P
  28:lib/tinymaix/src/tm_layers.c ****     #include "arch_rv32p.h"
  29:lib/tinymaix/src/tm_layers.c **** #elif TM_ARCH==TM_ARCH_RV64V
  30:lib/tinymaix/src/tm_layers.c ****     #include "arch_rv64v.h"
  31:lib/tinymaix/src/tm_layers.c **** #elif TM_ARCH==TM_ARCH_CSKYV2
  32:lib/tinymaix/src/tm_layers.c ****     #include "arch_cskyv2.h"
  33:lib/tinymaix/src/tm_layers.c **** #elif TM_ARCH==TM_ARCH_X86_SSE2
  34:lib/tinymaix/src/tm_layers.c ****     #include "arch_x86_sse2.h"
  35:lib/tinymaix/src/tm_layers.c **** #else
  36:lib/tinymaix/src/tm_layers.c ****     #error "UNSUPPORT ARCH!"
  37:lib/tinymaix/src/tm_layers.c **** #endif
  38:lib/tinymaix/src/tm_layers.c **** 
GAS LISTING C:\Users\Jesper\AppData\Local\Temp\cc1iO6kH.s 			page 2


  39:lib/tinymaix/src/tm_layers.c **** 
  40:lib/tinymaix/src/tm_layers.c **** TM_PERF_REG(t_sbuf);TM_PERF_REG(t_dotp);TM_PERF_REG(t_post); 
  41:lib/tinymaix/src/tm_layers.c **** TM_PERF_REG(t_valid); TM_PERF_REG(t_pad); 
  42:lib/tinymaix/src/tm_layers.c **** TM_PERF_REG(t_conv); TM_PERF_REG(t_pwconv); TM_PERF_REG(t_dwconv); 
  43:lib/tinymaix/src/tm_layers.c **** 
  44:lib/tinymaix/src/tm_layers.c **** /*************************** TML_CONV2D **********************************/
  45:lib/tinymaix/src/tm_layers.c **** TM_STATIC uint32_t k_oft[TM_MAX_KSIZE]; 
  46:lib/tinymaix/src/tm_layers.c **** TM_STATIC mtype_t sbuf[TM_MAX_KCSIZE]; 
  47:lib/tinymaix/src/tm_layers.c **** #if (TM_MDL_TYPE==TM_MDL_FP32) || (TM_MDL_TYPE==TM_MDL_FP16) 
  48:lib/tinymaix/src/tm_layers.c **** #define SUMSCALE NULL
  49:lib/tinymaix/src/tm_layers.c **** #define OUTSCALE outscale
  50:lib/tinymaix/src/tm_layers.c **** 
  51:lib/tinymaix/src/tm_layers.c **** #elif (TM_MDL_TYPE==TM_MDL_INT8) || (TM_MDL_TYPE==TM_MDL_INT16) 
  52:lib/tinymaix/src/tm_layers.c **** 
  53:lib/tinymaix/src/tm_layers.c **** #if TM_FASTSCALE
  54:lib/tinymaix/src/tm_layers.c ****     TM_STATIC int32_t sumscale[TM_MAX_CSIZE];
  55:lib/tinymaix/src/tm_layers.c ****     #define OUTSCALE outscale
  56:lib/tinymaix/src/tm_layers.c **** #else
  57:lib/tinymaix/src/tm_layers.c ****     TM_STATIC float sumscale[TM_MAX_CSIZE];
  58:lib/tinymaix/src/tm_layers.c ****     #define OUTSCALE outscale_inv
  59:lib/tinymaix/src/tm_layers.c **** #endif
  60:lib/tinymaix/src/tm_layers.c **** #define SUMSCALE (sumscale + c)
  61:lib/tinymaix/src/tm_layers.c **** #endif
  62:lib/tinymaix/src/tm_layers.c ****  
  63:lib/tinymaix/src/tm_layers.c **** //for valid or kernel in valid part, use fast method
  64:lib/tinymaix/src/tm_layers.c **** tm_err_t TM_WEAK tml_conv2d_dwconv2d(tm_mat_t* in, tm_mat_t* out, wtype_t* w, btype_t* b, \
  65:lib/tinymaix/src/tm_layers.c ****     int kw, int kh, int sx, int sy, int dx, int dy, int act, \
  66:lib/tinymaix/src/tm_layers.c ****     int pad_top, int pad_bottom, int pad_left, int pad_right, int dmul, \
  67:lib/tinymaix/src/tm_layers.c ****     sctype_t* ws, sctype_t in_s, zptype_t in_zp, sctype_t out_s, zptype_t out_zp) //kernel: (cho, c
  68:lib/tinymaix/src/tm_layers.c **** {   TM_PERF_INIT(t_sbuf);TM_PERF_INIT(t_dotp);TM_PERF_INIT(t_post);
  21              		.loc 1 68 1
  22              		.cfi_startproc
  23              	.LVL0:
  24              		.loc 1 68 25
  25              		.loc 1 68 46
  26              		.loc 1 68 67
  69:lib/tinymaix/src/tm_layers.c ****     TM_PERF_INIT(t_valid);TM_PERF_INIT(t_pad);
  27              		.loc 1 69 26
  28              		.loc 1 69 46
  70:lib/tinymaix/src/tm_layers.c ****     TM_PERF_INIT(t_conv); TM_PERF_INIT(t_pwconv); TM_PERF_INIT(t_dwconv);
  29              		.loc 1 70 25
  30              		.loc 1 70 49
  31              		.loc 1 70 73
  71:lib/tinymaix/src/tm_layers.c ****     int pad_flag = (pad_top != 0 ||pad_bottom != 0 ||pad_left != 0 ||pad_right != 0);
  32              		.loc 1 71 5
  68:lib/tinymaix/src/tm_layers.c ****     TM_PERF_INIT(t_valid);TM_PERF_INIT(t_pad);
  33              		.loc 1 68 1 is_stmt 0
  34 0000 7171     		addi	sp,sp,-176
  35              	.LCFI0:
  36              		.cfi_def_cfa_offset 176
  37 0002 52CD     		sw	s4,152(sp)
  38              		.loc 1 71 68
  39 0004 AE4E     		lw	t4,200(sp)
  40              		.cfi_offset 20, -24
  68:lib/tinymaix/src/tm_layers.c ****     TM_PERF_INIT(t_valid);TM_PERF_INIT(t_pad);
  41              		.loc 1 68 1
  42 0006 2A8A     		mv	s4,a0
GAS LISTING C:\Users\Jesper\AppData\Local\Temp\cc1iO6kH.s 			page 3


  43              		.loc 1 71 68
  44 0008 1E45     		lw	a0,196(sp)
  45              	.LVL1:
  68:lib/tinymaix/src/tm_layers.c ****     TM_PERF_INIT(t_valid);TM_PERF_INIT(t_pad);
  46              		.loc 1 68 1
  47 000a EEDE     		sw	s11,124(sp)
  48 000c 4A5F     		lw	t5,176(sp)
  49              		.loc 1 71 68
  50 000e B36ED501 		or	t4,a0,t4
  51 0012 0E45     		lw	a0,192(sp)
  52              		.cfi_offset 27, -52
  68:lib/tinymaix/src/tm_layers.c ****     TM_PERF_INIT(t_valid);TM_PERF_INIT(t_pad);
  53              		.loc 1 68 1
  54 0014 FA5D     		lw	s11,188(sp)
  55 0016 4ECF     		sw	s3,156(sp)
  56              		.loc 1 71 68
  57 0018 B3EEAE00 		or	t4,t4,a0
  68:lib/tinymaix/src/tm_layers.c ****     TM_PERF_INIT(t_valid);TM_PERF_INIT(t_pad);
  58              		.loc 1 68 1
  59 001c 56CB     		sw	s5,148(sp)
  60 001e 5AC9     		sw	s6,144(sp)
  61 0020 06D7     		sw	ra,172(sp)
  62 0022 22D5     		sw	s0,168(sp)
  63 0024 26D3     		sw	s1,164(sp)
  64 0026 4AD1     		sw	s2,160(sp)
  65 0028 5EC7     		sw	s7,140(sp)
  66 002a 62C5     		sw	s8,136(sp)
  67 002c 66C3     		sw	s9,132(sp)
  68 002e 6AC1     		sw	s10,128(sp)
  69              		.cfi_offset 19, -20
  70              		.cfi_offset 21, -28
  71              		.cfi_offset 22, -32
  72              		.cfi_offset 1, -4
  73              		.cfi_offset 8, -8
  74              		.cfi_offset 9, -12
  75              		.cfi_offset 18, -16
  76              		.cfi_offset 23, -36
  77              		.cfi_offset 24, -40
  78              		.cfi_offset 25, -44
  79              		.cfi_offset 26, -48
  72:lib/tinymaix/src/tm_layers.c ****     if(dx!=1 || dy!= 1) return TM_ERR_TODO;
  80              		.loc 1 72 7
  81 0030 0545     		li	a0,1
  68:lib/tinymaix/src/tm_layers.c ****     TM_PERF_INIT(t_valid);TM_PERF_INIT(t_pad);
  82              		.loc 1 68 1
  83 0032 5A5B     		lw	s6,180(sp)
  84 0034 EA59     		lw	s3,184(sp)
  85 0036 BE4A     		lw	s5,204(sp)
  71:lib/tinymaix/src/tm_layers.c ****     int pad_flag = (pad_top != 0 ||pad_bottom != 0 ||pad_left != 0 ||pad_right != 0);
  86              		.loc 1 71 68
  87 0038 B3EEBE01 		or	t4,t4,s11
  88              	.LVL2:
  89              		.loc 1 72 5 is_stmt 1
  90              		.loc 1 72 7 is_stmt 0
  91 003c E31CAF06 		bne	t5,a0,.L95
  92              		.loc 1 72 32 discriminator 2
  93 0040 1D45     		li	a0,7
GAS LISTING C:\Users\Jesper\AppData\Local\Temp\cc1iO6kH.s 			page 4


  94              		.loc 1 72 14 discriminator 2
  95 0042 6312EB4D 		bne	s6,t5,.L1
  73:lib/tinymaix/src/tm_layers.c ****     if(act >= TM_ACT_MAXCNT) return TM_ERR_UNSUPPORT;
  96              		.loc 1 73 5 is_stmt 1
  97              		.loc 1 73 7 is_stmt 0
  98 0046 154F     		li	t5,5
  99              		.loc 1 73 37
 100 0048 0D45     		li	a0,3
 101              		.loc 1 73 7
 102 004a 634E3F4B 		bgt	s3,t5,.L1
  74:lib/tinymaix/src/tm_layers.c ****     int maxk = kw*kh;
 103              		.loc 1 74 5 is_stmt 1
 104              		.loc 1 74 9 is_stmt 0
 105 004e 330DF702 		mul	s10,a4,a5
 106              	.LVL3:
  75:lib/tinymaix/src/tm_layers.c ****     if(maxk>TM_MAX_KSIZE) return TM_ERR_KSIZE;
 107              		.loc 1 75 5 is_stmt 1
 108              		.loc 1 75 7 is_stmt 0
 109 0052 654F     		li	t5,25
 110              		.loc 1 75 34
 111 0054 2545     		li	a0,9
 112              		.loc 1 75 7
 113 0056 6348AF4B 		bgt	s10,t5,.L1
  76:lib/tinymaix/src/tm_layers.c ****     if(maxk==1 && (pad_flag||dmul)) return TM_ERR_UNSUPPORT;   //assume no pad or dwconv when pwcon
 114              		.loc 1 76 5 is_stmt 1
 115              		.loc 1 76 7 is_stmt 0
 116 005a 63196D01 		bne	s10,s6,.L3
 117 005e B33ED001 		snez	t4,t4
 118              	.LVL4:
 119              		.loc 1 76 16 discriminator 1
 120 0062 B3EEDA01 		or	t4,s5,t4
 121              	.LVL5:
  73:lib/tinymaix/src/tm_layers.c ****     int maxk = kw*kh;
 122              		.loc 1 73 37 discriminator 1
 123 0066 0D45     		li	a0,3
 124              		.loc 1 76 16 discriminator 1
 125 0068 639F0E48 		bne	t4,zero,.L1
 126              	.L3:
 127 006c 3ECC     		sw	a5,24(sp)
  77:lib/tinymaix/src/tm_layers.c ****     int chi  = in->c;
  78:lib/tinymaix/src/tm_layers.c ****     int cho  = out->c;
  79:lib/tinymaix/src/tm_layers.c ****     sumtype_t sum = 0;
  80:lib/tinymaix/src/tm_layers.c ****     mtype_t* outp = out->data;
  81:lib/tinymaix/src/tm_layers.c **** 
  82:lib/tinymaix/src/tm_layers.c **** #if (TM_MDL_TYPE == TM_MDL_INT8) || (TM_MDL_TYPE == TM_MDL_INT16)
  83:lib/tinymaix/src/tm_layers.c **** #if TM_FASTSCALE
  84:lib/tinymaix/src/tm_layers.c **** 	int32_t outscale = (1<<TM_FASTSCALE_SHIFT)/out_s;
 128              		.loc 1 84 44
 129 006e B7070000 		lui	a5,%hi(.LC0)
 130              	.LVL6:
 131 0072 03A50700 		lw	a0,%lo(.LC0)(a5)
 132 0076 BA84     		mv	s1,a4
 133 0078 2E89     		mv	s2,a1
  77:lib/tinymaix/src/tm_layers.c ****     int chi  = in->c;
 134              		.loc 1 77 5 is_stmt 1
  77:lib/tinymaix/src/tm_layers.c ****     int chi  = in->c;
 135              		.loc 1 77 18 is_stmt 0
GAS LISTING C:\Users\Jesper\AppData\Local\Temp\cc1iO6kH.s 			page 5


 136 007a 03576A00 		lhu	a4,6(s4)
 137              	.LVL7:
  78:lib/tinymaix/src/tm_layers.c ****     sumtype_t sum = 0;
 138              		.loc 1 78 19
 139 007e 83DB6500 		lhu	s7,6(a1)
  80:lib/tinymaix/src/tm_layers.c **** 
 140              		.loc 1 80 14
 141 0082 8045     		lw	s0,8(a1)
 142              		.loc 1 84 44
 143 0084 FE45     		lw	a1,220(sp)
 144              	.LVL8:
 145 0086 46D8     		sw	a7,48(sp)
 146 0088 36C6     		sw	a3,12(sp)
  77:lib/tinymaix/src/tm_layers.c ****     int chi  = in->c;
 147              		.loc 1 77 18
 148 008a 3ACE     		sw	a4,28(sp)
 149              	.LVL9:
  78:lib/tinymaix/src/tm_layers.c ****     sumtype_t sum = 0;
 150              		.loc 1 78 5 is_stmt 1
  79:lib/tinymaix/src/tm_layers.c ****     mtype_t* outp = out->data;
 151              		.loc 1 79 5
  80:lib/tinymaix/src/tm_layers.c **** 
 152              		.loc 1 80 5
 153              		.loc 1 84 2
 154 008c 42D6     		sw	a6,44(sp)
 155 008e 32C4     		sw	a2,8(sp)
 156              		.loc 1 84 44 is_stmt 0
 157 0090 97000000 		call	__divsf3
 157      E7800000 
 158              	.LVL10:
 159              		.loc 1 84 10
 160 0098 97000000 		call	__fixsfsi
 160      E7800000 
 161              	.LVL11:
 162              	.LBB54:
  85:lib/tinymaix/src/tm_layers.c **** 	for(int c=0; c<out->c;c++) sumscale[c]=1.0/ws[c]/in_s;
 163              		.loc 1 85 44
 164 00a0 B7060000 		lui	a3,%hi(.LC1)
 165 00a4 03A74600 		lw	a4,%lo(.LC1+4)(a3)
 166 00a8 83A60600 		lw	a3,%lo(.LC1)(a3)
 167              		.loc 1 85 40
 168 00ac B7080000 		lui	a7,%hi(sumscale)
 169              		.loc 1 85 44
 170 00b0 3ACA     		sw	a4,20(sp)
 171              		.loc 1 85 2
 172 00b2 7247     		lw	a4,28(sp)
 173              	.LBE54:
  84:lib/tinymaix/src/tm_layers.c **** 	for(int c=0; c<out->c;c++) sumscale[c]=1.0/ws[c]/in_s;
 174              		.loc 1 84 10
 175 00b4 2AC2     		sw	a0,4(sp)
 176              	.LVL12:
 177              		.loc 1 85 2 is_stmt 1
 178              	.LBB55:
 179              		.loc 1 85 6
 180              		.loc 1 85 10 is_stmt 0
 181 00b6 8147     		li	a5,0
 182              		.loc 1 85 40
GAS LISTING C:\Users\Jesper\AppData\Local\Temp\cc1iO6kH.s 			page 6


 183 00b8 93880800 		addi	a7,a7,%lo(sumscale)
 184              		.loc 1 85 44
 185 00bc 36C8     		sw	a3,16(sp)
 186              	.LVL13:
 187              	.L4:
 188              		.loc 1 85 2 discriminator 1
 189 00be 63CB7703 		blt	a5,s7,.L5
 190              	.LBE55:
  86:lib/tinymaix/src/tm_layers.c **** #else
  87:lib/tinymaix/src/tm_layers.c **** 	sctype_t outscale = out_s;
  88:lib/tinymaix/src/tm_layers.c ****     sctype_t outscale_inv = 1.f / outscale;
  89:lib/tinymaix/src/tm_layers.c **** 	for(int c=0; c<out->c;c++) sumscale[c]=ws[c]*in_s;
  90:lib/tinymaix/src/tm_layers.c **** #endif
  91:lib/tinymaix/src/tm_layers.c **** #else
  92:lib/tinymaix/src/tm_layers.c **** 	sctype_t outscale = out_s;
  93:lib/tinymaix/src/tm_layers.c **** #endif
  94:lib/tinymaix/src/tm_layers.c **** 
  95:lib/tinymaix/src/tm_layers.c ****     if(maxk==1){ TM_PERF_START(t_pwconv);   //pointwise conv
 191              		.loc 1 95 5 is_stmt 1
 192              		.loc 1 95 7 is_stmt 0
 193 00c2 8547     		li	a5,1
 194              	.LVL14:
 195 00c4 630CFD08 		beq	s10,a5,.L6
 196 00c8 268F     		mv	t5,s1
 197 00ca 63D30400 		bge	s1,zero,.L7
 198 00ce 014F     		li	t5,0
 199              	.L7:
 200 00d0 B30FE703 		mul	t6,a4,t5
 201 00d4 37050000 		lui	a0,%hi(.LANCHOR0)
 202              	.LBB56:
  96:lib/tinymaix/src/tm_layers.c ****         #define BATCH_SIZE 2
  97:lib/tinymaix/src/tm_layers.c ****         sumtype_t sums[BATCH_SIZE];
  98:lib/tinymaix/src/tm_layers.c ****         for (int y = 0; y < out->h; y++) {
  99:lib/tinymaix/src/tm_layers.c ****             for (int x = 0; x < out->w; x++) {
 100:lib/tinymaix/src/tm_layers.c ****                 mtype_t* sptr = (mtype_t*)TM_MATP(in, sy*y, sx*x, 0);
 101:lib/tinymaix/src/tm_layers.c ****                 wtype_t* kptr = (wtype_t*)w;
 102:lib/tinymaix/src/tm_layers.c ****                 int c = 0;
 103:lib/tinymaix/src/tm_layers.c ****                 for(; c<out->c-BATCH_SIZE+1; ){
 104:lib/tinymaix/src/tm_layers.c ****                     for(int bat = 0; bat < BATCH_SIZE; bat+=2)
 105:lib/tinymaix/src/tm_layers.c ****                         tm_dot_prod_pack2(sptr, kptr + chi*bat, chi, sums + bat);
 106:lib/tinymaix/src/tm_layers.c ****                     tm_postprocess_sum(BATCH_SIZE, sums, b + c, act, outp, SUMSCALE, OUTSCALE, out_
 107:lib/tinymaix/src/tm_layers.c ****                     c += BATCH_SIZE;
 108:lib/tinymaix/src/tm_layers.c ****                     outp += BATCH_SIZE;
 109:lib/tinymaix/src/tm_layers.c ****                     kptr += chi*BATCH_SIZE;//*2;
 110:lib/tinymaix/src/tm_layers.c ****                 }
 111:lib/tinymaix/src/tm_layers.c ****                 for(; c<out->c; c++){
 112:lib/tinymaix/src/tm_layers.c ****                     tm_dot_prod(sptr, kptr, chi, &sum); //size=maxk*chi //pw maxk==1
 113:lib/tinymaix/src/tm_layers.c ****                     tm_postprocess_sum(1, &sum, b + c, act, outp, SUMSCALE, OUTSCALE, out_zp); outp
 114:lib/tinymaix/src/tm_layers.c ****                     kptr += chi;
 115:lib/tinymaix/src/tm_layers.c ****                 }
 116:lib/tinymaix/src/tm_layers.c ****             }
 117:lib/tinymaix/src/tm_layers.c ****         }
 118:lib/tinymaix/src/tm_layers.c ****         TM_PERF_ADD(t_pwconv);
 119:lib/tinymaix/src/tm_layers.c ****         return TM_OK;
 120:lib/tinymaix/src/tm_layers.c ****     }
 121:lib/tinymaix/src/tm_layers.c **** 
 122:lib/tinymaix/src/tm_layers.c ****     if(dmul) {TM_PERF_START(t_dwconv);} else {TM_PERF_START(t_conv);};
GAS LISTING C:\Users\Jesper\AppData\Local\Temp\cc1iO6kH.s 			page 7


 123:lib/tinymaix/src/tm_layers.c ****     int oft = 0;
 124:lib/tinymaix/src/tm_layers.c ****     int idx = 0;
 125:lib/tinymaix/src/tm_layers.c ****     for(int y=0; y<kh; y++){    //gen k_oft table
 203              		.loc 1 125 13
 204 00d8 814E     		li	t4,0
 205              	.LBE56:
 124:lib/tinymaix/src/tm_layers.c ****     for(int y=0; y<kh; y++){    //gen k_oft table
 206              		.loc 1 124 9
 207 00da 8148     		li	a7,0
 123:lib/tinymaix/src/tm_layers.c ****     int idx = 0;
 208              		.loc 1 123 9
 209 00dc 8147     		li	a5,0
 210 00de 13050500 		addi	a0,a0,%lo(.LANCHOR0)
 211              	.L8:
 212              	.LVL15:
 213              	.LBB59:
 214              		.loc 1 125 5 discriminator 1
 215 00e2 E246     		lw	a3,24(sp)
 216 00e4 63DBDE3C 		bge	t4,a3,.L42
 217 00e8 93962800 		slli	a3,a7,2
 218 00ec AA96     		add	a3,a0,a3
 219              		.loc 1 125 5
 220 00ee BE85     		mv	a1,a5
 221              	.LBB57:
 126:lib/tinymaix/src/tm_layers.c ****         for(int x=0; x<kw; x++){
 222              		.loc 1 126 17
 223 00f0 0146     		li	a2,0
 224 00f2 45AE     		j	.L43
 225              	.LVL16:
 226              	.L5:
 227 00f4 93962700 		slli	a3,a5,2
 228 00f8 3ED0     		sw	a5,32(sp)
 229              	.LBE57:
 230              	.LBE59:
 231              	.LBB60:
  85:lib/tinymaix/src/tm_layers.c **** #else
 232              		.loc 1 85 47 discriminator 3
 233 00fa CE47     		lw	a5,208(sp)
 234              	.LVL17:
  85:lib/tinymaix/src/tm_layers.c **** #else
 235              		.loc 1 85 40 discriminator 3
 236 00fc B38E1601 		add	t4,a3,a7
 237 0100 3AD2     		sw	a4,36(sp)
  85:lib/tinymaix/src/tm_layers.c **** #else
 238              		.loc 1 85 29 is_stmt 1 discriminator 3
  85:lib/tinymaix/src/tm_layers.c **** #else
 239              		.loc 1 85 47 is_stmt 0 discriminator 3
 240 0102 BE96     		add	a3,a5,a3
 241 0104 8842     		lw	a0,0(a3)
  85:lib/tinymaix/src/tm_layers.c **** #else
 242              		.loc 1 85 40 discriminator 3
 243 0106 76CE     		sw	t4,28(sp)
  85:lib/tinymaix/src/tm_layers.c **** #else
 244              		.loc 1 85 47 discriminator 3
 245 0108 97000000 		call	__extendsfdf2
 245      E7800000 
 246              	.LVL18:
GAS LISTING C:\Users\Jesper\AppData\Local\Temp\cc1iO6kH.s 			page 8


  85:lib/tinymaix/src/tm_layers.c **** #else
 247              		.loc 1 85 44 discriminator 3
 248 0110 2A86     		mv	a2,a0
 249 0112 AE86     		mv	a3,a1
 250 0114 4245     		lw	a0,16(sp)
 251 0116 D245     		lw	a1,20(sp)
 252 0118 97000000 		call	__divdf3
 252      E7800000 
 253              	.LVL19:
 254 0120 2A8C     		mv	s8,a0
  85:lib/tinymaix/src/tm_layers.c **** #else
 255              		.loc 1 85 50 discriminator 3
 256 0122 5E45     		lw	a0,212(sp)
  85:lib/tinymaix/src/tm_layers.c **** #else
 257              		.loc 1 85 44 discriminator 3
 258 0124 AE8C     		mv	s9,a1
  85:lib/tinymaix/src/tm_layers.c **** #else
 259              		.loc 1 85 50 discriminator 3
 260 0126 97000000 		call	__extendsfdf2
 260      E7800000 
 261              	.LVL20:
 262 012e AE86     		mv	a3,a1
 263 0130 2A86     		mv	a2,a0
 264 0132 E685     		mv	a1,s9
 265 0134 6285     		mv	a0,s8
 266 0136 97000000 		call	__divdf3
 266      E7800000 
 267              	.LVL21:
  85:lib/tinymaix/src/tm_layers.c **** #else
 268              		.loc 1 85 40 discriminator 3
 269 013e 97000000 		call	__fixdfsi
 269      E7800000 
 270              	.LVL22:
 271 0146 F24E     		lw	t4,28(sp)
  85:lib/tinymaix/src/tm_layers.c **** #else
 272              		.loc 1 85 25 discriminator 3
 273 0148 8257     		lw	a5,32(sp)
 274 014a B7060000 		lui	a3,%hi(sumscale)
  85:lib/tinymaix/src/tm_layers.c **** #else
 275              		.loc 1 85 40 discriminator 3
 276 014e 23A0AE00 		sw	a0,0(t4)
  85:lib/tinymaix/src/tm_layers.c **** #else
 277              		.loc 1 85 25 discriminator 3
 278 0152 8507     		addi	a5,a5,1
 279 0154 1257     		lw	a4,36(sp)
 280 0156 93880600 		addi	a7,a3,%lo(sumscale)
 281              	.LVL23:
 282 015a 95B7     		j	.L4
 283              	.LVL24:
 284              	.L6:
 285              	.LBE60:
 286              	.LBB61:
 287              	.LBB62:
 288              	.LBB63:
 289              	.LBB64:
 109:lib/tinymaix/src/tm_layers.c ****                 }
 290              		.loc 1 109 32
GAS LISTING C:\Users\Jesper\AppData\Local\Temp\cc1iO6kH.s 			page 9


 291 015c 93171700 		slli	a5,a4,1
 292 0160 3ECC     		sw	a5,24(sp)
 293              	.LVL25:
 294              	.LBB65:
 295              	.LBB66:
 296              	.LBB67:
 297              		.file 2 "lib/tinymaix/src/arch_cpu.h"
   1:lib/tinymaix/src/arch_cpu.h **** /* Copyright 2022 Sipeed Technology Co., Ltd. All Rights Reserved.
   2:lib/tinymaix/src/arch_cpu.h **** Licensed under the Apache License, Version 2.0 (the "License");
   3:lib/tinymaix/src/arch_cpu.h **** you may not use this file except in compliance with the License.
   4:lib/tinymaix/src/arch_cpu.h **** You may obtain a copy of the License at
   5:lib/tinymaix/src/arch_cpu.h ****     http://www.apache.org/licenses/LICENSE-2.0
   6:lib/tinymaix/src/arch_cpu.h **** Unless required by applicable law or agreed to in writing, software
   7:lib/tinymaix/src/arch_cpu.h **** distributed under the License is distributed on an "AS IS" BASIS,
   8:lib/tinymaix/src/arch_cpu.h **** WITHOUT WARRANTIES OR CONDITIONS OF ANY KIND, either express or implied.
   9:lib/tinymaix/src/arch_cpu.h **** See the License for the specific language governing permissions and
  10:lib/tinymaix/src/arch_cpu.h **** limitations under the License.
  11:lib/tinymaix/src/arch_cpu.h **** ==============================================================================*/
  12:lib/tinymaix/src/arch_cpu.h **** 
  13:lib/tinymaix/src/arch_cpu.h **** #include "stdlib.h"
  14:lib/tinymaix/src/arch_cpu.h **** #include "stdint.h"
  15:lib/tinymaix/src/arch_cpu.h **** #include "math.h"
  16:lib/tinymaix/src/arch_cpu.h **** #include "float.h"
  17:lib/tinymaix/src/arch_cpu.h **** #include "tinymaix.h"
  18:lib/tinymaix/src/arch_cpu.h **** 
  19:lib/tinymaix/src/arch_cpu.h **** #if (TM_MDL_TYPE != TM_MDL_FP8_143) && (TM_MDL_TYPE != TM_MDL_FP8_152)
  20:lib/tinymaix/src/arch_cpu.h **** //sum = SUM(Ai*Bi)
  21:lib/tinymaix/src/arch_cpu.h **** TM_INLINE void tm_dot_prod(mtype_t* sptr, mtype_t* kptr,uint32_t size, sumtype_t* result)
  22:lib/tinymaix/src/arch_cpu.h **** {
  23:lib/tinymaix/src/arch_cpu.h ****     sumtype_t sum=0;
  24:lib/tinymaix/src/arch_cpu.h ****     uint32_t i = 0;
  25:lib/tinymaix/src/arch_cpu.h ****     uint32_t cnt = (size>>3)<<3;  //8
  26:lib/tinymaix/src/arch_cpu.h ****     for(; i+8-1 <cnt; ){
  27:lib/tinymaix/src/arch_cpu.h ****         sum += sptr[i]*kptr[i];i++;
  28:lib/tinymaix/src/arch_cpu.h ****         sum += sptr[i]*kptr[i];i++;
  29:lib/tinymaix/src/arch_cpu.h ****         sum += sptr[i]*kptr[i];i++;
  30:lib/tinymaix/src/arch_cpu.h ****         sum += sptr[i]*kptr[i];i++;
  31:lib/tinymaix/src/arch_cpu.h ****         sum += sptr[i]*kptr[i];i++;
  32:lib/tinymaix/src/arch_cpu.h ****         sum += sptr[i]*kptr[i];i++;
  33:lib/tinymaix/src/arch_cpu.h ****         sum += sptr[i]*kptr[i];i++;
  34:lib/tinymaix/src/arch_cpu.h ****         sum += sptr[i]*kptr[i];i++;
  35:lib/tinymaix/src/arch_cpu.h ****     }
  36:lib/tinymaix/src/arch_cpu.h ****     for(; i <size; i++){
  37:lib/tinymaix/src/arch_cpu.h ****         sum += sptr[i]*kptr[i]; 
  38:lib/tinymaix/src/arch_cpu.h ****     }
  39:lib/tinymaix/src/arch_cpu.h ****     *result = sum;
  40:lib/tinymaix/src/arch_cpu.h ****     return;
  41:lib/tinymaix/src/arch_cpu.h **** }
  42:lib/tinymaix/src/arch_cpu.h **** 
  43:lib/tinymaix/src/arch_cpu.h **** TM_INLINE  void tm_dot_prod_pack2(mtype_t* sptr, mtype_t* kptr, uint32_t size, sumtype_t* result)
  44:lib/tinymaix/src/arch_cpu.h **** { 
  45:lib/tinymaix/src/arch_cpu.h ****     sumtype_t sum0 = 0;
  46:lib/tinymaix/src/arch_cpu.h ****     sumtype_t sum1 = 0;
  47:lib/tinymaix/src/arch_cpu.h ****     mtype_t* kptr0 = kptr;
  48:lib/tinymaix/src/arch_cpu.h ****     mtype_t* kptr1 = kptr+size;
  49:lib/tinymaix/src/arch_cpu.h **** 
  50:lib/tinymaix/src/arch_cpu.h ****     uint32_t i = 0;
GAS LISTING C:\Users\Jesper\AppData\Local\Temp\cc1iO6kH.s 			page 10


  51:lib/tinymaix/src/arch_cpu.h ****     uint32_t cnt = (size>>3)<<3;  //8
  52:lib/tinymaix/src/arch_cpu.h ****     for(; i+8-1 <cnt; ){
  53:lib/tinymaix/src/arch_cpu.h ****         sum0 += sptr[i]*kptr0[i]; sum1 += sptr[i]*kptr1[i]; i++;
  54:lib/tinymaix/src/arch_cpu.h ****         sum0 += sptr[i]*kptr0[i]; sum1 += sptr[i]*kptr1[i]; i++;
  55:lib/tinymaix/src/arch_cpu.h ****         sum0 += sptr[i]*kptr0[i]; sum1 += sptr[i]*kptr1[i]; i++;
  56:lib/tinymaix/src/arch_cpu.h ****         sum0 += sptr[i]*kptr0[i]; sum1 += sptr[i]*kptr1[i]; i++;
  57:lib/tinymaix/src/arch_cpu.h ****         sum0 += sptr[i]*kptr0[i]; sum1 += sptr[i]*kptr1[i]; i++;
  58:lib/tinymaix/src/arch_cpu.h ****         sum0 += sptr[i]*kptr0[i]; sum1 += sptr[i]*kptr1[i]; i++;
  59:lib/tinymaix/src/arch_cpu.h ****         sum0 += sptr[i]*kptr0[i]; sum1 += sptr[i]*kptr1[i]; i++;
  60:lib/tinymaix/src/arch_cpu.h ****         sum0 += sptr[i]*kptr0[i]; sum1 += sptr[i]*kptr1[i]; i++;
  61:lib/tinymaix/src/arch_cpu.h ****     }
  62:lib/tinymaix/src/arch_cpu.h ****     for(; i <size; i++){
  63:lib/tinymaix/src/arch_cpu.h ****         sum0 += sptr[i]*kptr0[i]; 
  64:lib/tinymaix/src/arch_cpu.h ****         sum1 += sptr[i]*kptr1[i]; 
  65:lib/tinymaix/src/arch_cpu.h ****     }
  66:lib/tinymaix/src/arch_cpu.h **** 
  67:lib/tinymaix/src/arch_cpu.h ****     result[0] = sum0;
  68:lib/tinymaix/src/arch_cpu.h ****     result[1] = sum1;
  69:lib/tinymaix/src/arch_cpu.h ****     return;
  70:lib/tinymaix/src/arch_cpu.h **** }
  71:lib/tinymaix/src/arch_cpu.h **** 
  72:lib/tinymaix/src/arch_cpu.h **** TM_INLINE void tm_dot_prod_gap_3x3x1(mtype_t* sptr, mtype_t* kptr, uint32_t* k_oft, sumtype_t* resu
  73:lib/tinymaix/src/arch_cpu.h **** {
  74:lib/tinymaix/src/arch_cpu.h ****     *result = sptr[k_oft[0]]*kptr[0] + sptr[k_oft[1]]*kptr[1] + sptr[k_oft[2]]*kptr[2] + \
  75:lib/tinymaix/src/arch_cpu.h ****         sptr[k_oft[3]]*kptr[3] + sptr[k_oft[4]]*kptr[4] + sptr[k_oft[5]]*kptr[5] + \
  76:lib/tinymaix/src/arch_cpu.h ****         sptr[k_oft[6]]*kptr[6] + sptr[k_oft[7]]*kptr[7] + sptr[k_oft[8]]*kptr[8] ;
  77:lib/tinymaix/src/arch_cpu.h ****     return;                  
  78:lib/tinymaix/src/arch_cpu.h **** }
  79:lib/tinymaix/src/arch_cpu.h **** 
  80:lib/tinymaix/src/arch_cpu.h **** TM_INLINE void tm_dot_prod_3x3x1(mtype_t* sptr, mtype_t* kptr, sumtype_t* result)
  81:lib/tinymaix/src/arch_cpu.h **** {
  82:lib/tinymaix/src/arch_cpu.h ****     *result = sptr[0]*kptr[0] + sptr[1]*kptr[1] + sptr[2]*kptr[2] + \
  83:lib/tinymaix/src/arch_cpu.h ****         sptr[3]*kptr[3] + sptr[4]*kptr[4] + sptr[5]*kptr[5] + \
  84:lib/tinymaix/src/arch_cpu.h ****         sptr[6]*kptr[6] + sptr[7]*kptr[7] + sptr[8]*kptr[8] ;
  85:lib/tinymaix/src/arch_cpu.h ****     return;
  86:lib/tinymaix/src/arch_cpu.h **** }
  87:lib/tinymaix/src/arch_cpu.h **** 
  88:lib/tinymaix/src/arch_cpu.h **** 
  89:lib/tinymaix/src/arch_cpu.h **** 
  90:lib/tinymaix/src/arch_cpu.h **** #else
  91:lib/tinymaix/src/arch_cpu.h **** /*************************** FP8 SIMULATION **********************************/
  92:lib/tinymaix/src/arch_cpu.h **** #define SUMSCALE 1.0
  93:lib/tinymaix/src/arch_cpu.h **** 
  94:lib/tinymaix/src/arch_cpu.h **** TM_INLINE void tm_dot_prod(mtype_t* sptr, mtype_t* kptr,uint32_t size, sumtype_t* result)
  95:lib/tinymaix/src/arch_cpu.h **** {
  96:lib/tinymaix/src/arch_cpu.h ****     sumtype_t sum=0;
  97:lib/tinymaix/src/arch_cpu.h ****     for(int i=0; i <size; i++){
  98:lib/tinymaix/src/arch_cpu.h ****         float _s = tm_fp8to32(sptr[i]);
  99:lib/tinymaix/src/arch_cpu.h ****         float _k = tm_fp8to32(kptr[i]);
 100:lib/tinymaix/src/arch_cpu.h ****         sum += _s*_k;
 101:lib/tinymaix/src/arch_cpu.h ****         //printf("%.3f*%.3f+",_s,_k);
 102:lib/tinymaix/src/arch_cpu.h ****     }
 103:lib/tinymaix/src/arch_cpu.h ****     //printf("\r\n");
 104:lib/tinymaix/src/arch_cpu.h ****     *result = sum;
 105:lib/tinymaix/src/arch_cpu.h ****     return;
 106:lib/tinymaix/src/arch_cpu.h **** }
 107:lib/tinymaix/src/arch_cpu.h **** 
GAS LISTING C:\Users\Jesper\AppData\Local\Temp\cc1iO6kH.s 			page 11


 108:lib/tinymaix/src/arch_cpu.h **** TM_INLINE void tm_postprocess_sum(sumtype_t sum, btype_t b, int act, mtype_t* outp, \
 109:lib/tinymaix/src/arch_cpu.h ****     sctype_t scale, sctype_t out_s, zptype_t out_zp)
 110:lib/tinymaix/src/arch_cpu.h **** {   //printf("sum=%.6f,", sum);
 111:lib/tinymaix/src/arch_cpu.h ****     sum += tm_fp8to32(b); //printf("%.6f,", sum);
 112:lib/tinymaix/src/arch_cpu.h ****     switch(act){    //activation func
 113:lib/tinymaix/src/arch_cpu.h ****     case TM_ACT_RELU:
 114:lib/tinymaix/src/arch_cpu.h ****         sum = sum>0?sum:0;
 115:lib/tinymaix/src/arch_cpu.h ****         break;
 116:lib/tinymaix/src/arch_cpu.h ****     case TM_ACT_RELU6:
 117:lib/tinymaix/src/arch_cpu.h ****         sum = sum>0?sum:0;
 118:lib/tinymaix/src/arch_cpu.h ****         sum = sum>6?6:sum;
 119:lib/tinymaix/src/arch_cpu.h ****         break;
 120:lib/tinymaix/src/arch_cpu.h ****     default:
 121:lib/tinymaix/src/arch_cpu.h ****         break;
 122:lib/tinymaix/src/arch_cpu.h ****     }
 123:lib/tinymaix/src/arch_cpu.h ****     //printf("%.6f,", sum);
 124:lib/tinymaix/src/arch_cpu.h ****     *outp = tm_fp32to8(sum);
 125:lib/tinymaix/src/arch_cpu.h ****     //printf("  %02x,%.6f\r\n", *outp, tm_fp8to32(*outp));
 126:lib/tinymaix/src/arch_cpu.h ****     return;
 127:lib/tinymaix/src/arch_cpu.h **** }
 128:lib/tinymaix/src/arch_cpu.h **** 
 129:lib/tinymaix/src/arch_cpu.h **** #endif
 130:lib/tinymaix/src/arch_cpu.h **** 
 131:lib/tinymaix/src/arch_cpu.h **** #if (TM_MDL_TYPE==TM_MDL_FP32) || (TM_MDL_TYPE==TM_MDL_FP16) 
 132:lib/tinymaix/src/arch_cpu.h **** 
 133:lib/tinymaix/src/arch_cpu.h **** TM_INLINE void tm_postprocess_sum(int n, sumtype_t* sums, btype_t* bs, int act, mtype_t* outp, \
 134:lib/tinymaix/src/arch_cpu.h ****     sctype_t* scales, sctype_t out_s, zptype_t out_zp)
 135:lib/tinymaix/src/arch_cpu.h **** {
 136:lib/tinymaix/src/arch_cpu.h ****     for(int i = 0; i < n; i++) {
 137:lib/tinymaix/src/arch_cpu.h ****         sumtype_t sum = sums[i];
 138:lib/tinymaix/src/arch_cpu.h ****         sum += bs[i];
 139:lib/tinymaix/src/arch_cpu.h ****         switch(act){    //activation func
 140:lib/tinymaix/src/arch_cpu.h ****         case TM_ACT_RELU:
 141:lib/tinymaix/src/arch_cpu.h ****         case TM_ACT_RELU6: //treat relu6 as relu in float mode //speed up
 142:lib/tinymaix/src/arch_cpu.h ****             sum = sum>0?sum:0;
 143:lib/tinymaix/src/arch_cpu.h ****             break;
 144:lib/tinymaix/src/arch_cpu.h ****         //    sum = sum>0?sum:0;
 145:lib/tinymaix/src/arch_cpu.h ****         //    sum = sum>6?6:sum;
 146:lib/tinymaix/src/arch_cpu.h ****         //    break;
 147:lib/tinymaix/src/arch_cpu.h ****         default:
 148:lib/tinymaix/src/arch_cpu.h ****             break;
 149:lib/tinymaix/src/arch_cpu.h ****         }
 150:lib/tinymaix/src/arch_cpu.h ****         outp[i] = (mtype_t)sum;
 151:lib/tinymaix/src/arch_cpu.h ****     }
 152:lib/tinymaix/src/arch_cpu.h ****     return;
 153:lib/tinymaix/src/arch_cpu.h **** }
 154:lib/tinymaix/src/arch_cpu.h **** 
 155:lib/tinymaix/src/arch_cpu.h **** #elif (TM_MDL_TYPE==TM_MDL_INT8) || (TM_MDL_TYPE==TM_MDL_INT16) 
 156:lib/tinymaix/src/arch_cpu.h **** 
 157:lib/tinymaix/src/arch_cpu.h **** #if !TM_FASTSCALE
 158:lib/tinymaix/src/arch_cpu.h **** TM_INLINE void tm_postprocess_sum(int n, sumtype_t* sums, btype_t* bs, int act, mtype_t* outp, scty
 159:lib/tinymaix/src/arch_cpu.h **** #else
 160:lib/tinymaix/src/arch_cpu.h **** TM_INLINE void tm_postprocess_sum(int n, sumtype_t* sums, btype_t* bs, int act, mtype_t* outp, int3
 161:lib/tinymaix/src/arch_cpu.h **** #endif
 162:lib/tinymaix/src/arch_cpu.h **** {
 163:lib/tinymaix/src/arch_cpu.h ****     for(int i = 0; i < n; i++) {
 164:lib/tinymaix/src/arch_cpu.h ****         sumtype_t sum = sums[i];
GAS LISTING C:\Users\Jesper\AppData\Local\Temp\cc1iO6kH.s 			page 12


 165:lib/tinymaix/src/arch_cpu.h ****         sum += bs[i];
 166:lib/tinymaix/src/arch_cpu.h ****         #if !TM_FASTSCALE
 167:lib/tinymaix/src/arch_cpu.h ****             float sumf = sum*scales[i];
 168:lib/tinymaix/src/arch_cpu.h ****         #else 
 169:lib/tinymaix/src/arch_cpu.h ****             sumtype_t sumf = (sum<<TM_FASTSCALE_SHIFT)/scales[i];
 170:lib/tinymaix/src/arch_cpu.h ****         #endif
 171:lib/tinymaix/src/arch_cpu.h ****         switch(act){    //activation func
 172:lib/tinymaix/src/arch_cpu.h ****         case TM_ACT_RELU:
 173:lib/tinymaix/src/arch_cpu.h ****             sumf = sumf>0?sumf:0;
 174:lib/tinymaix/src/arch_cpu.h ****             break;
 175:lib/tinymaix/src/arch_cpu.h ****         case TM_ACT_RELU6:
 176:lib/tinymaix/src/arch_cpu.h ****             sumf = sumf>0?sumf:0;
 177:lib/tinymaix/src/arch_cpu.h ****         #if (!TM_FASTSCALE)
 178:lib/tinymaix/src/arch_cpu.h ****             sumf = sumf>6?6:sumf;
 179:lib/tinymaix/src/arch_cpu.h ****         #else
 180:lib/tinymaix/src/arch_cpu.h ****             sumf = sumf>(6<<TM_FASTSCALE_SHIFT)?(6<<TM_FASTSCALE_SHIFT):sumf;
 181:lib/tinymaix/src/arch_cpu.h ****         #endif
 182:lib/tinymaix/src/arch_cpu.h ****             break;
 183:lib/tinymaix/src/arch_cpu.h ****         default:
 184:lib/tinymaix/src/arch_cpu.h ****             break;
 185:lib/tinymaix/src/arch_cpu.h ****         }
 186:lib/tinymaix/src/arch_cpu.h ****         #if !TM_FASTSCALE
 187:lib/tinymaix/src/arch_cpu.h ****             outp[i] = (mtype_t)(sumf*out_s_inv + out_zp);  //(mtype_t)((int)(sumf/out_s) + out_zp) 
 188:lib/tinymaix/src/arch_cpu.h ****         #else 
 189:lib/tinymaix/src/arch_cpu.h ****             outp[i] = (mtype_t)(((sumf*out_s)>>(TM_FASTSCALE_SHIFT+TM_FASTSCALE_SHIFT))+out_zp);
 298              		.loc 2 189 88
 299 0162 8E57     		lw	a5,224(sp)
 300              	.LBE67:
 301              	.LBE66:
 302              	.LBE65:
 109:lib/tinymaix/src/tm_layers.c ****                 }
 303              		.loc 1 109 32
 304 0164 014B     		li	s6,0
 305              	.LBE64:
 306              	.LBE63:
  98:lib/tinymaix/src/tm_layers.c ****             for (int x = 0; x < out->w; x++) {
 307              		.loc 1 98 18
 308 0166 814A     		li	s5,0
 309              	.LBB107:
 310              	.LBB101:
 311              	.LBB76:
 312              	.LBB72:
 313              	.LBB68:
 314              		.loc 2 189 88
 315 0168 93F7F70F 		andi	a5,a5,0xff
 171:lib/tinymaix/src/arch_cpu.h ****         case TM_ACT_RELU:
 316              		.loc 2 171 9
 317 016c 854B     		li	s7,1
 318              	.LVL26:
 319 016e 0D4C     		li	s8,3
 180:lib/tinymaix/src/arch_cpu.h ****         #endif
 320              		.loc 2 180 18
 321 0170 930C0060 		li	s9,1536
 322              		.loc 2 189 88
 323 0174 3EC8     		sw	a5,16(sp)
 324              	.LVL27:
 325              	.L9:
GAS LISTING C:\Users\Jesper\AppData\Local\Temp\cc1iO6kH.s 			page 13


 326              	.LBE68:
 327              	.LBE72:
 328              	.LBE76:
 329              	.LBE101:
 330              	.LBE107:
  98:lib/tinymaix/src/tm_layers.c ****             for (int x = 0; x < out->w; x++) {
 331              		.loc 1 98 32 discriminator 1
 332 0176 83572900 		lhu	a5,2(s2)
  98:lib/tinymaix/src/tm_layers.c ****             for (int x = 0; x < out->w; x++) {
 333              		.loc 1 98 9 discriminator 1
 334 017a 63D5FA38 		ble	a5,s5,.L114
  98:lib/tinymaix/src/tm_layers.c ****             for (int x = 0; x < out->w; x++) {
 335              		.loc 1 98 9
 336 017e 8144     		li	s1,0
 337              	.LBB108:
  99:lib/tinymaix/src/tm_layers.c ****                 mtype_t* sptr = (mtype_t*)TM_MATP(in, sy*y, sx*x, 0);
 338              		.loc 1 99 22
 339 0180 8143     		li	t2,0
 340 0182 85A8     		j	.L40
 341              	.LVL28:
 342              	.L38:
 343              	.LBB102:
 100:lib/tinymaix/src/tm_layers.c ****                 wtype_t* kptr = (wtype_t*)w;
 344              		.loc 1 100 17 is_stmt 1
 100:lib/tinymaix/src/tm_layers.c ****                 wtype_t* kptr = (wtype_t*)w;
 345              		.loc 1 100 43 is_stmt 0
 346 0184 03534A00 		lhu	t1,4(s4)
 347 0188 83576A00 		lhu	a5,6(s4)
 348 018c B242     		lw	t0,12(sp)
 349 018e 33036303 		mul	t1,t1,s6
 102:lib/tinymaix/src/tm_layers.c ****                 for(; c<out->c-BATCH_SIZE+1; ){
 350              		.loc 1 102 21
 351 0192 014E     		li	t3,0
 100:lib/tinymaix/src/tm_layers.c ****                 wtype_t* kptr = (wtype_t*)w;
 352              		.loc 1 100 43
 353 0194 2693     		add	t1,t1,s1
 354 0196 B307F302 		mul	a5,t1,a5
 100:lib/tinymaix/src/tm_layers.c ****                 wtype_t* kptr = (wtype_t*)w;
 355              		.loc 1 100 26
 356 019a 03238A00 		lw	t1,8(s4)
 357 019e 3E93     		add	t1,t1,a5
 358              	.LVL29:
 101:lib/tinymaix/src/tm_layers.c ****                 int c = 0;
 359              		.loc 1 101 17 is_stmt 1
 102:lib/tinymaix/src/tm_layers.c ****                 for(; c<out->c-BATCH_SIZE+1; ){
 360              		.loc 1 102 17
 103:lib/tinymaix/src/tm_layers.c ****                     for(int bat = 0; bat < BATCH_SIZE; bat+=2)
 361              		.loc 1 103 17
 362 01a0 B7070000 		lui	a5,%hi(sumscale)
 363 01a4 938F0700 		addi	t6,a5,%lo(sumscale)
 364 01a8 A247     		lw	a5,8(sp)
 365 01aa 338FE700 		add	t5,a5,a4
 101:lib/tinymaix/src/tm_layers.c ****                 int c = 0;
 366              		.loc 1 101 26 is_stmt 0
 367 01ae BE88     		mv	a7,a5
 368              	.LBB77:
 369              	.LBB78:
GAS LISTING C:\Users\Jesper\AppData\Local\Temp\cc1iO6kH.s 			page 14


 370              	.LBB79:
  52:lib/tinymaix/src/arch_cpu.h ****         sum0 += sptr[i]*kptr0[i]; sum1 += sptr[i]*kptr1[i]; i++;
 371              		.loc 2 52 5
 372 01b0 9D47     		li	a5,7
 373 01b2 B3876740 		sub	a5,a5,t1
 374 01b6 3ECE     		sw	a5,28(sp)
 375              	.LVL30:
 376              	.L10:
 377              	.LBE79:
 378              	.LBE78:
 379              	.LBE77:
 103:lib/tinymaix/src/tm_layers.c ****                     for(int bat = 0; bat < BATCH_SIZE; bat+=2)
 380              		.loc 1 103 28
 381 01b8 83576900 		lhu	a5,6(s2)
 103:lib/tinymaix/src/tm_layers.c ****                     for(int bat = 0; bat < BATCH_SIZE; bat+=2)
 382              		.loc 1 103 42
 383 01bc FD17     		addi	a5,a5,-1
 103:lib/tinymaix/src/tm_layers.c ****                     for(int bat = 0; bat < BATCH_SIZE; bat+=2)
 384              		.loc 1 103 17
 385 01be 6345FE06 		bgt	a5,t3,.L15
 386 01c2 B247     		lw	a5,12(sp)
 387 01c4 13152E00 		slli	a0,t3,2
 111:lib/tinymaix/src/tm_layers.c ****                     tm_dot_prod(sptr, kptr, chi, &sum); //size=maxk*chi //pw maxk==1
 388              		.loc 1 111 17
 389 01c8 330E8E40 		sub	t3,t3,s0
 390 01cc 338FA700 		add	t5,a5,a0
 391 01d0 B7070000 		lui	a5,%hi(sumscale)
 392 01d4 93870700 		addi	a5,a5,%lo(sumscale)
 393 01d8 3E95     		add	a0,a5,a0
 394              	.LBB82:
 395              	.LBB83:
  26:lib/tinymaix/src/arch_cpu.h ****         sum += sptr[i]*kptr[i];i++;
 396              		.loc 2 26 5
 397 01da 9D47     		li	a5,7
 398 01dc B38F6740 		sub	t6,a5,t1
 399              	.L16:
 400              	.LVL31:
 401              	.LBE83:
 402              	.LBE82:
 111:lib/tinymaix/src/tm_layers.c ****                     tm_dot_prod(sptr, kptr, chi, &sum); //size=maxk*chi //pw maxk==1
 403              		.loc 1 111 28 discriminator 1
 404 01e0 83566900 		lhu	a3,6(s2)
 111:lib/tinymaix/src/tm_layers.c ****                     tm_dot_prod(sptr, kptr, chi, &sum); //size=maxk*chi //pw maxk==1
 405              		.loc 1 111 17 discriminator 1
 406 01e4 B307C401 		add	a5,s0,t3
 407 01e8 63CFD71A 		bgt	a3,a5,.L37
 408 01ec B257     		lw	a5,44(sp)
 409              	.LBE102:
  99:lib/tinymaix/src/tm_layers.c ****                 mtype_t* sptr = (mtype_t*)TM_MATP(in, sy*y, sx*x, 0);
 410              		.loc 1 99 42 discriminator 2
 411 01ee 8503     		addi	t2,t2,1
 412              	.LVL32:
 413 01f0 BE94     		add	s1,s1,a5
 414              	.LVL33:
 415              	.L40:
  99:lib/tinymaix/src/tm_layers.c ****                 mtype_t* sptr = (mtype_t*)TM_MATP(in, sy*y, sx*x, 0);
 416              		.loc 1 99 36 discriminator 1
GAS LISTING C:\Users\Jesper\AppData\Local\Temp\cc1iO6kH.s 			page 15


 417 01f2 83574900 		lhu	a5,4(s2)
  99:lib/tinymaix/src/tm_layers.c ****                 mtype_t* sptr = (mtype_t*)TM_MATP(in, sy*y, sx*x, 0);
 418              		.loc 1 99 13 discriminator 1
 419 01f6 E3C7F3F8 		bgt	a5,t2,.L38
 420 01fa C257     		lw	a5,48(sp)
 421              	.LBE108:
  98:lib/tinymaix/src/tm_layers.c ****             for (int x = 0; x < out->w; x++) {
 422              		.loc 1 98 38 discriminator 2
 423 01fc 850A     		addi	s5,s5,1
 424              	.LVL34:
 425 01fe 3E9B     		add	s6,s6,a5
 426 0200 9DBF     		j	.L9
 427              	.LVL35:
 428              	.L25:
 429              	.LBB109:
 430              	.LBB103:
 431              	.LBB86:
 432              	.LBB73:
 433              	.LBB69:
 173:lib/tinymaix/src/arch_cpu.h ****             break;
 434              		.loc 2 173 13 is_stmt 1
 173:lib/tinymaix/src/arch_cpu.h ****             break;
 435              		.loc 2 173 18 is_stmt 0
 436 0202 63D30700 		bge	a5,zero,.L12
 437 0206 8147     		li	a5,0
 438              	.LVL36:
 174:lib/tinymaix/src/arch_cpu.h ****         case TM_ACT_RELU6:
 439              		.loc 2 174 13 is_stmt 1
 440              	.L12:
 441              		.loc 2 189 13
 442              		.loc 2 189 39 is_stmt 0
 443 0208 9246     		lw	a3,4(sp)
 444              	.LBE69:
 445              	.LBE73:
 446              	.LBE86:
 107:lib/tinymaix/src/tm_layers.c ****                     outp += BATCH_SIZE;
 447              		.loc 1 107 23
 448 020a 090E     		addi	t3,t3,2
 108:lib/tinymaix/src/tm_layers.c ****                     kptr += chi*BATCH_SIZE;//*2;
 449              		.loc 1 108 26
 450 020c 0904     		addi	s0,s0,2
 451              	.LBB87:
 452              	.LBB74:
 453              	.LBB70:
 454              		.loc 2 189 39
 455 020e B387F602 		mul	a5,a3,a5
 456              	.LVL37:
 457              		.loc 2 189 88
 458 0212 C246     		lw	a3,16(sp)
 459 0214 A102     		addi	t0,t0,8
 460              	.LVL38:
 461 0216 A10F     		addi	t6,t6,8
 462              		.loc 2 189 46
 463 0218 C187     		srai	a5,a5,16
 464              		.loc 2 189 88
 465 021a B697     		add	a5,a3,a5
 466              		.loc 2 189 21
GAS LISTING C:\Users\Jesper\AppData\Local\Temp\cc1iO6kH.s 			page 16


 467 021c A30FF4FE 		sb	a5,-1(s0)
 468              	.LVL39:
 469              	.LBE70:
 470              	.LBE74:
 471              	.LBE87:
 472              	.LBE103:
 473              	.LBE109:
 474              	.LBE62:
 475              	.LBE61:
 190:lib/tinymaix/src/arch_cpu.h ****         #endif
 191:lib/tinymaix/src/arch_cpu.h ****     }
 192:lib/tinymaix/src/arch_cpu.h ****     return;
 476              		.loc 2 192 5 is_stmt 1
 477              	.LBB116:
 478              	.LBB113:
 479              	.LBB110:
 480              	.LBB104:
 107:lib/tinymaix/src/tm_layers.c ****                     outp += BATCH_SIZE;
 481              		.loc 1 107 21
 108:lib/tinymaix/src/tm_layers.c ****                     kptr += chi*BATCH_SIZE;//*2;
 482              		.loc 1 108 21
 109:lib/tinymaix/src/tm_layers.c ****                 }
 483              		.loc 1 109 21
 109:lib/tinymaix/src/tm_layers.c ****                 }
 484              		.loc 1 109 26 is_stmt 0
 485 0220 E247     		lw	a5,24(sp)
 486 0222 BE98     		add	a7,a7,a5
 487              	.LVL40:
 488 0224 3E9F     		add	t5,t5,a5
 489 0226 49BF     		j	.L10
 490              	.LVL41:
 491              	.L15:
 492              	.LBB88:
 105:lib/tinymaix/src/tm_layers.c ****                     tm_postprocess_sum(BATCH_SIZE, sums, b + c, act, outp, SUMSCALE, OUTSCALE, out_
 493              		.loc 1 105 25 is_stmt 1
 494              	.LBB81:
 495              	.LBB80:
  45:lib/tinymaix/src/arch_cpu.h ****     sumtype_t sum1 = 0;
 496              		.loc 2 45 5
  46:lib/tinymaix/src/arch_cpu.h ****     mtype_t* kptr0 = kptr;
 497              		.loc 2 46 5
  47:lib/tinymaix/src/arch_cpu.h ****     mtype_t* kptr1 = kptr+size;
 498              		.loc 2 47 5
  48:lib/tinymaix/src/arch_cpu.h **** 
 499              		.loc 2 48 5
  50:lib/tinymaix/src/arch_cpu.h ****     uint32_t cnt = (size>>3)<<3;  //8
 500              		.loc 2 50 5
  51:lib/tinymaix/src/arch_cpu.h ****     for(; i+8-1 <cnt; ){
 501              		.loc 2 51 5
  51:lib/tinymaix/src/arch_cpu.h ****     for(; i+8-1 <cnt; ){
 502              		.loc 2 51 14 is_stmt 0
 503 0228 937E87FF 		andi	t4,a4,-8
 504              	.LVL42:
  52:lib/tinymaix/src/arch_cpu.h ****         sum0 += sptr[i]*kptr0[i]; sum1 += sptr[i]*kptr1[i]; i++;
 505              		.loc 2 52 5 is_stmt 1
 506 022c C685     		mv	a1,a7
  51:lib/tinymaix/src/arch_cpu.h ****     for(; i+8-1 <cnt; ){
GAS LISTING C:\Users\Jesper\AppData\Local\Temp\cc1iO6kH.s 			page 17


 507              		.loc 2 51 14 is_stmt 0
 508 022e 7A86     		mv	a2,t5
 509 0230 9A86     		mv	a3,t1
  46:lib/tinymaix/src/arch_cpu.h ****     mtype_t* kptr0 = kptr;
 510              		.loc 2 46 15
 511 0232 0145     		li	a0,0
  45:lib/tinymaix/src/arch_cpu.h ****     sumtype_t sum1 = 0;
 512              		.loc 2 45 15
 513 0234 8147     		li	a5,0
 514              	.LVL43:
 515              	.L18:
  52:lib/tinymaix/src/arch_cpu.h ****         sum0 += sptr[i]*kptr0[i]; sum1 += sptr[i]*kptr1[i]; i++;
 516              		.loc 2 52 5
 517 0236 7248     		lw	a6,28(sp)
 518 0238 3698     		add	a6,a6,a3
 519 023a 637AD80D 		bleu	t4,a6,.L17
  53:lib/tinymaix/src/arch_cpu.h ****         sum0 += sptr[i]*kptr0[i]; sum1 += sptr[i]*kptr1[i]; i++;
 520              		.loc 2 53 9 is_stmt 1
  53:lib/tinymaix/src/arch_cpu.h ****         sum0 += sptr[i]*kptr0[i]; sum1 += sptr[i]*kptr1[i]; i++;
 521              		.loc 2 53 21 is_stmt 0
 522 023e 038D0600 		lb	s10,0(a3)
  53:lib/tinymaix/src/arch_cpu.h ****         sum0 += sptr[i]*kptr0[i]; sum1 += sptr[i]*kptr1[i]; i++;
 523              		.loc 2 53 30
 524 0242 03880500 		lb	a6,0(a1)
  53:lib/tinymaix/src/arch_cpu.h ****         sum0 += sptr[i]*kptr0[i]; sum1 += sptr[i]*kptr1[i]; i++;
 525              		.loc 2 53 56
 526 0246 830D0600 		lb	s11,0(a2)
 527 024a A106     		addi	a3,a3,8
 528              	.LVL44:
  53:lib/tinymaix/src/arch_cpu.h ****         sum0 += sptr[i]*kptr0[i]; sum1 += sptr[i]*kptr1[i]; i++;
 529              		.loc 2 53 24
 530 024c 3308A803 		mul	a6,a6,s10
 531 0250 A105     		addi	a1,a1,8
 532 0252 2106     		addi	a2,a2,8
  53:lib/tinymaix/src/arch_cpu.h ****         sum0 += sptr[i]*kptr0[i]; sum1 += sptr[i]*kptr1[i]; i++;
 533              		.loc 2 53 50
 534 0254 B38DAD03 		mul	s11,s11,s10
  53:lib/tinymaix/src/arch_cpu.h ****         sum0 += sptr[i]*kptr0[i]; sum1 += sptr[i]*kptr1[i]; i++;
 535              		.loc 2 53 14
 536 0258 C297     		add	a5,a6,a5
 537              	.LVL45:
  53:lib/tinymaix/src/arch_cpu.h ****         sum0 += sptr[i]*kptr0[i]; sum1 += sptr[i]*kptr1[i]; i++;
 538              		.loc 2 53 35 is_stmt 1
  54:lib/tinymaix/src/arch_cpu.h ****         sum0 += sptr[i]*kptr0[i]; sum1 += sptr[i]*kptr1[i]; i++;
 539              		.loc 2 54 21 is_stmt 0
 540 025a 038D96FF 		lb	s10,-7(a3)
  54:lib/tinymaix/src/arch_cpu.h ****         sum0 += sptr[i]*kptr0[i]; sum1 += sptr[i]*kptr1[i]; i++;
 541              		.loc 2 54 30
 542 025e 038895FF 		lb	a6,-7(a1)
  53:lib/tinymaix/src/arch_cpu.h ****         sum0 += sptr[i]*kptr0[i]; sum1 += sptr[i]*kptr1[i]; i++;
 543              		.loc 2 53 40
 544 0262 6E95     		add	a0,s11,a0
 545              	.LVL46:
  53:lib/tinymaix/src/arch_cpu.h ****         sum0 += sptr[i]*kptr0[i]; sum1 += sptr[i]*kptr1[i]; i++;
 546              		.loc 2 53 61 is_stmt 1
  54:lib/tinymaix/src/arch_cpu.h ****         sum0 += sptr[i]*kptr0[i]; sum1 += sptr[i]*kptr1[i]; i++;
 547              		.loc 2 54 9
GAS LISTING C:\Users\Jesper\AppData\Local\Temp\cc1iO6kH.s 			page 18


  54:lib/tinymaix/src/arch_cpu.h ****         sum0 += sptr[i]*kptr0[i]; sum1 += sptr[i]*kptr1[i]; i++;
 548              		.loc 2 54 56 is_stmt 0
 549 0264 830D96FF 		lb	s11,-7(a2)
  54:lib/tinymaix/src/arch_cpu.h ****         sum0 += sptr[i]*kptr0[i]; sum1 += sptr[i]*kptr1[i]; i++;
 550              		.loc 2 54 24
 551 0268 3308A803 		mul	a6,a6,s10
  54:lib/tinymaix/src/arch_cpu.h ****         sum0 += sptr[i]*kptr0[i]; sum1 += sptr[i]*kptr1[i]; i++;
 552              		.loc 2 54 50
 553 026c B38DAD03 		mul	s11,s11,s10
  54:lib/tinymaix/src/arch_cpu.h ****         sum0 += sptr[i]*kptr0[i]; sum1 += sptr[i]*kptr1[i]; i++;
 554              		.loc 2 54 14
 555 0270 C297     		add	a5,a6,a5
 556              	.LVL47:
  54:lib/tinymaix/src/arch_cpu.h ****         sum0 += sptr[i]*kptr0[i]; sum1 += sptr[i]*kptr1[i]; i++;
 557              		.loc 2 54 35 is_stmt 1
  55:lib/tinymaix/src/arch_cpu.h ****         sum0 += sptr[i]*kptr0[i]; sum1 += sptr[i]*kptr1[i]; i++;
 558              		.loc 2 55 21 is_stmt 0
 559 0272 038DA6FF 		lb	s10,-6(a3)
  55:lib/tinymaix/src/arch_cpu.h ****         sum0 += sptr[i]*kptr0[i]; sum1 += sptr[i]*kptr1[i]; i++;
 560              		.loc 2 55 30
 561 0276 0388A5FF 		lb	a6,-6(a1)
  54:lib/tinymaix/src/arch_cpu.h ****         sum0 += sptr[i]*kptr0[i]; sum1 += sptr[i]*kptr1[i]; i++;
 562              		.loc 2 54 40
 563 027a 6E95     		add	a0,s11,a0
 564              	.LVL48:
  54:lib/tinymaix/src/arch_cpu.h ****         sum0 += sptr[i]*kptr0[i]; sum1 += sptr[i]*kptr1[i]; i++;
 565              		.loc 2 54 61 is_stmt 1
  55:lib/tinymaix/src/arch_cpu.h ****         sum0 += sptr[i]*kptr0[i]; sum1 += sptr[i]*kptr1[i]; i++;
 566              		.loc 2 55 9
  55:lib/tinymaix/src/arch_cpu.h ****         sum0 += sptr[i]*kptr0[i]; sum1 += sptr[i]*kptr1[i]; i++;
 567              		.loc 2 55 56 is_stmt 0
 568 027c 830DA6FF 		lb	s11,-6(a2)
  55:lib/tinymaix/src/arch_cpu.h ****         sum0 += sptr[i]*kptr0[i]; sum1 += sptr[i]*kptr1[i]; i++;
 569              		.loc 2 55 24
 570 0280 3308A803 		mul	a6,a6,s10
  55:lib/tinymaix/src/arch_cpu.h ****         sum0 += sptr[i]*kptr0[i]; sum1 += sptr[i]*kptr1[i]; i++;
 571              		.loc 2 55 50
 572 0284 338DAD03 		mul	s10,s11,s10
  55:lib/tinymaix/src/arch_cpu.h ****         sum0 += sptr[i]*kptr0[i]; sum1 += sptr[i]*kptr1[i]; i++;
 573              		.loc 2 55 14
 574 0288 3E98     		add	a6,a6,a5
 575              	.LVL49:
  55:lib/tinymaix/src/arch_cpu.h ****         sum0 += sptr[i]*kptr0[i]; sum1 += sptr[i]*kptr1[i]; i++;
 576              		.loc 2 55 35 is_stmt 1
  56:lib/tinymaix/src/arch_cpu.h ****         sum0 += sptr[i]*kptr0[i]; sum1 += sptr[i]*kptr1[i]; i++;
 577              		.loc 2 56 30 is_stmt 0
 578 028a 8387B5FF 		lb	a5,-5(a1)
  55:lib/tinymaix/src/arch_cpu.h ****         sum0 += sptr[i]*kptr0[i]; sum1 += sptr[i]*kptr1[i]; i++;
 579              		.loc 2 55 40
 580 028e B30DAD00 		add	s11,s10,a0
 581              	.LVL50:
  55:lib/tinymaix/src/arch_cpu.h ****         sum0 += sptr[i]*kptr0[i]; sum1 += sptr[i]*kptr1[i]; i++;
 582              		.loc 2 55 61 is_stmt 1
  56:lib/tinymaix/src/arch_cpu.h ****         sum0 += sptr[i]*kptr0[i]; sum1 += sptr[i]*kptr1[i]; i++;
 583              		.loc 2 56 9
  56:lib/tinymaix/src/arch_cpu.h ****         sum0 += sptr[i]*kptr0[i]; sum1 += sptr[i]*kptr1[i]; i++;
 584              		.loc 2 56 21 is_stmt 0
GAS LISTING C:\Users\Jesper\AppData\Local\Temp\cc1iO6kH.s 			page 19


 585 0292 0385B6FF 		lb	a0,-5(a3)
  56:lib/tinymaix/src/arch_cpu.h ****         sum0 += sptr[i]*kptr0[i]; sum1 += sptr[i]*kptr1[i]; i++;
 586              		.loc 2 56 56
 587 0296 030DB6FF 		lb	s10,-5(a2)
  56:lib/tinymaix/src/arch_cpu.h ****         sum0 += sptr[i]*kptr0[i]; sum1 += sptr[i]*kptr1[i]; i++;
 588              		.loc 2 56 24
 589 029a B387A702 		mul	a5,a5,a0
  56:lib/tinymaix/src/arch_cpu.h ****         sum0 += sptr[i]*kptr0[i]; sum1 += sptr[i]*kptr1[i]; i++;
 590              		.loc 2 56 50
 591 029e 3305AD02 		mul	a0,s10,a0
  56:lib/tinymaix/src/arch_cpu.h ****         sum0 += sptr[i]*kptr0[i]; sum1 += sptr[i]*kptr1[i]; i++;
 592              		.loc 2 56 14
 593 02a2 C297     		add	a5,a5,a6
 594              	.LVL51:
  56:lib/tinymaix/src/arch_cpu.h ****         sum0 += sptr[i]*kptr0[i]; sum1 += sptr[i]*kptr1[i]; i++;
 595              		.loc 2 56 35 is_stmt 1
  57:lib/tinymaix/src/arch_cpu.h ****         sum0 += sptr[i]*kptr0[i]; sum1 += sptr[i]*kptr1[i]; i++;
 596              		.loc 2 57 30 is_stmt 0
 597 02a4 0388C5FF 		lb	a6,-4(a1)
  56:lib/tinymaix/src/arch_cpu.h ****         sum0 += sptr[i]*kptr0[i]; sum1 += sptr[i]*kptr1[i]; i++;
 598              		.loc 2 56 40
 599 02a8 330DB501 		add	s10,a0,s11
 600              	.LVL52:
  56:lib/tinymaix/src/arch_cpu.h ****         sum0 += sptr[i]*kptr0[i]; sum1 += sptr[i]*kptr1[i]; i++;
 601              		.loc 2 56 61 is_stmt 1
  57:lib/tinymaix/src/arch_cpu.h ****         sum0 += sptr[i]*kptr0[i]; sum1 += sptr[i]*kptr1[i]; i++;
 602              		.loc 2 57 9
  57:lib/tinymaix/src/arch_cpu.h ****         sum0 += sptr[i]*kptr0[i]; sum1 += sptr[i]*kptr1[i]; i++;
 603              		.loc 2 57 21 is_stmt 0
 604 02ac 0385C6FF 		lb	a0,-4(a3)
  57:lib/tinymaix/src/arch_cpu.h ****         sum0 += sptr[i]*kptr0[i]; sum1 += sptr[i]*kptr1[i]; i++;
 605              		.loc 2 57 56
 606 02b0 830DC6FF 		lb	s11,-4(a2)
  57:lib/tinymaix/src/arch_cpu.h ****         sum0 += sptr[i]*kptr0[i]; sum1 += sptr[i]*kptr1[i]; i++;
 607              		.loc 2 57 24
 608 02b4 3308A802 		mul	a6,a6,a0
  57:lib/tinymaix/src/arch_cpu.h ****         sum0 += sptr[i]*kptr0[i]; sum1 += sptr[i]*kptr1[i]; i++;
 609              		.loc 2 57 50
 610 02b8 3385AD02 		mul	a0,s11,a0
  57:lib/tinymaix/src/arch_cpu.h ****         sum0 += sptr[i]*kptr0[i]; sum1 += sptr[i]*kptr1[i]; i++;
 611              		.loc 2 57 14
 612 02bc C297     		add	a5,a6,a5
 613              	.LVL53:
  57:lib/tinymaix/src/arch_cpu.h ****         sum0 += sptr[i]*kptr0[i]; sum1 += sptr[i]*kptr1[i]; i++;
 614              		.loc 2 57 35 is_stmt 1
  58:lib/tinymaix/src/arch_cpu.h ****         sum0 += sptr[i]*kptr0[i]; sum1 += sptr[i]*kptr1[i]; i++;
 615              		.loc 2 58 56 is_stmt 0
 616 02be 830DD6FF 		lb	s11,-3(a2)
  58:lib/tinymaix/src/arch_cpu.h ****         sum0 += sptr[i]*kptr0[i]; sum1 += sptr[i]*kptr1[i]; i++;
 617              		.loc 2 58 30
 618 02c2 0388D5FF 		lb	a6,-3(a1)
  57:lib/tinymaix/src/arch_cpu.h ****         sum0 += sptr[i]*kptr0[i]; sum1 += sptr[i]*kptr1[i]; i++;
 619              		.loc 2 57 40
 620 02c6 6A95     		add	a0,a0,s10
 621              	.LVL54:
  57:lib/tinymaix/src/arch_cpu.h ****         sum0 += sptr[i]*kptr0[i]; sum1 += sptr[i]*kptr1[i]; i++;
 622              		.loc 2 57 61 is_stmt 1
GAS LISTING C:\Users\Jesper\AppData\Local\Temp\cc1iO6kH.s 			page 20


  58:lib/tinymaix/src/arch_cpu.h ****         sum0 += sptr[i]*kptr0[i]; sum1 += sptr[i]*kptr1[i]; i++;
 623              		.loc 2 58 9
  58:lib/tinymaix/src/arch_cpu.h ****         sum0 += sptr[i]*kptr0[i]; sum1 += sptr[i]*kptr1[i]; i++;
 624              		.loc 2 58 21 is_stmt 0
 625 02c8 038DD6FF 		lb	s10,-3(a3)
  58:lib/tinymaix/src/arch_cpu.h ****         sum0 += sptr[i]*kptr0[i]; sum1 += sptr[i]*kptr1[i]; i++;
 626              		.loc 2 58 24
 627 02cc 3308A803 		mul	a6,a6,s10
  58:lib/tinymaix/src/arch_cpu.h ****         sum0 += sptr[i]*kptr0[i]; sum1 += sptr[i]*kptr1[i]; i++;
 628              		.loc 2 58 50
 629 02d0 338DAD03 		mul	s10,s11,s10
  58:lib/tinymaix/src/arch_cpu.h ****         sum0 += sptr[i]*kptr0[i]; sum1 += sptr[i]*kptr1[i]; i++;
 630              		.loc 2 58 14
 631 02d4 3E98     		add	a6,a6,a5
 632              	.LVL55:
  58:lib/tinymaix/src/arch_cpu.h ****         sum0 += sptr[i]*kptr0[i]; sum1 += sptr[i]*kptr1[i]; i++;
 633              		.loc 2 58 35 is_stmt 1
  59:lib/tinymaix/src/arch_cpu.h ****         sum0 += sptr[i]*kptr0[i]; sum1 += sptr[i]*kptr1[i]; i++;
 634              		.loc 2 59 30 is_stmt 0
 635 02d6 8387E5FF 		lb	a5,-2(a1)
  58:lib/tinymaix/src/arch_cpu.h ****         sum0 += sptr[i]*kptr0[i]; sum1 += sptr[i]*kptr1[i]; i++;
 636              		.loc 2 58 40
 637 02da B30DAD00 		add	s11,s10,a0
 638              	.LVL56:
  58:lib/tinymaix/src/arch_cpu.h ****         sum0 += sptr[i]*kptr0[i]; sum1 += sptr[i]*kptr1[i]; i++;
 639              		.loc 2 58 61 is_stmt 1
  59:lib/tinymaix/src/arch_cpu.h ****         sum0 += sptr[i]*kptr0[i]; sum1 += sptr[i]*kptr1[i]; i++;
 640              		.loc 2 59 9
  59:lib/tinymaix/src/arch_cpu.h ****         sum0 += sptr[i]*kptr0[i]; sum1 += sptr[i]*kptr1[i]; i++;
 641              		.loc 2 59 21 is_stmt 0
 642 02de 0385E6FF 		lb	a0,-2(a3)
  59:lib/tinymaix/src/arch_cpu.h ****         sum0 += sptr[i]*kptr0[i]; sum1 += sptr[i]*kptr1[i]; i++;
 643              		.loc 2 59 56
 644 02e2 030DE6FF 		lb	s10,-2(a2)
  59:lib/tinymaix/src/arch_cpu.h ****         sum0 += sptr[i]*kptr0[i]; sum1 += sptr[i]*kptr1[i]; i++;
 645              		.loc 2 59 24
 646 02e6 B387A702 		mul	a5,a5,a0
  59:lib/tinymaix/src/arch_cpu.h ****         sum0 += sptr[i]*kptr0[i]; sum1 += sptr[i]*kptr1[i]; i++;
 647              		.loc 2 59 50
 648 02ea 3305AD02 		mul	a0,s10,a0
  59:lib/tinymaix/src/arch_cpu.h ****         sum0 += sptr[i]*kptr0[i]; sum1 += sptr[i]*kptr1[i]; i++;
 649              		.loc 2 59 14
 650 02ee 3E98     		add	a6,a5,a6
 651              	.LVL57:
  59:lib/tinymaix/src/arch_cpu.h ****         sum0 += sptr[i]*kptr0[i]; sum1 += sptr[i]*kptr1[i]; i++;
 652              		.loc 2 59 35 is_stmt 1
  60:lib/tinymaix/src/arch_cpu.h ****     }
 653              		.loc 2 60 30 is_stmt 0
 654 02f0 8387F5FF 		lb	a5,-1(a1)
  59:lib/tinymaix/src/arch_cpu.h ****         sum0 += sptr[i]*kptr0[i]; sum1 += sptr[i]*kptr1[i]; i++;
 655              		.loc 2 59 40
 656 02f4 330DB501 		add	s10,a0,s11
 657              	.LVL58:
  59:lib/tinymaix/src/arch_cpu.h ****         sum0 += sptr[i]*kptr0[i]; sum1 += sptr[i]*kptr1[i]; i++;
 658              		.loc 2 59 61 is_stmt 1
  60:lib/tinymaix/src/arch_cpu.h ****     }
 659              		.loc 2 60 9
GAS LISTING C:\Users\Jesper\AppData\Local\Temp\cc1iO6kH.s 			page 21


  60:lib/tinymaix/src/arch_cpu.h ****     }
 660              		.loc 2 60 21 is_stmt 0
 661 02f8 0385F6FF 		lb	a0,-1(a3)
  60:lib/tinymaix/src/arch_cpu.h ****     }
 662              		.loc 2 60 24
 663 02fc B387A702 		mul	a5,a5,a0
  60:lib/tinymaix/src/arch_cpu.h ****     }
 664              		.loc 2 60 14
 665 0300 C297     		add	a5,a5,a6
 666              	.LVL59:
  60:lib/tinymaix/src/arch_cpu.h ****     }
 667              		.loc 2 60 35 is_stmt 1
  60:lib/tinymaix/src/arch_cpu.h ****     }
 668              		.loc 2 60 56 is_stmt 0
 669 0302 0308F6FF 		lb	a6,-1(a2)
  60:lib/tinymaix/src/arch_cpu.h ****     }
 670              		.loc 2 60 50
 671 0306 3305A802 		mul	a0,a6,a0
  60:lib/tinymaix/src/arch_cpu.h ****     }
 672              		.loc 2 60 40
 673 030a 6A95     		add	a0,a0,s10
 674              	.LVL60:
  60:lib/tinymaix/src/arch_cpu.h ****     }
 675              		.loc 2 60 61 is_stmt 1
 676 030c 2DB7     		j	.L18
 677              	.LVL61:
 678              	.L17:
  62:lib/tinymaix/src/arch_cpu.h ****         sum0 += sptr[i]*kptr0[i]; 
 679              		.loc 2 62 5 is_stmt 0
 680 030e 63F6EE02 		bleu	a4,t4,.L19
  63:lib/tinymaix/src/arch_cpu.h ****         sum1 += sptr[i]*kptr1[i]; 
 681              		.loc 2 63 9 is_stmt 1
  63:lib/tinymaix/src/arch_cpu.h ****         sum1 += sptr[i]*kptr1[i]; 
 682              		.loc 2 63 21 is_stmt 0
 683 0312 B306D301 		add	a3,t1,t4
 684 0316 03860600 		lb	a2,0(a3)
  63:lib/tinymaix/src/arch_cpu.h ****         sum1 += sptr[i]*kptr1[i]; 
 685              		.loc 2 63 30
 686 031a B386D801 		add	a3,a7,t4
 687 031e 83860600 		lb	a3,0(a3)
  63:lib/tinymaix/src/arch_cpu.h ****         sum1 += sptr[i]*kptr1[i]; 
 688              		.loc 2 63 24
 689 0322 B386C602 		mul	a3,a3,a2
  63:lib/tinymaix/src/arch_cpu.h ****         sum1 += sptr[i]*kptr1[i]; 
 690              		.loc 2 63 14
 691 0326 B697     		add	a5,a5,a3
 692              	.LVL62:
  64:lib/tinymaix/src/arch_cpu.h ****     }
 693              		.loc 2 64 9 is_stmt 1
  64:lib/tinymaix/src/arch_cpu.h ****     }
 694              		.loc 2 64 30 is_stmt 0
 695 0328 B306DF01 		add	a3,t5,t4
 696 032c 83860600 		lb	a3,0(a3)
  62:lib/tinymaix/src/arch_cpu.h ****         sum0 += sptr[i]*kptr0[i]; 
 697              		.loc 2 62 21
 698 0330 850E     		addi	t4,t4,1
 699              	.LVL63:
GAS LISTING C:\Users\Jesper\AppData\Local\Temp\cc1iO6kH.s 			page 22


  64:lib/tinymaix/src/arch_cpu.h ****     }
 700              		.loc 2 64 24
 701 0332 B386C602 		mul	a3,a3,a2
  64:lib/tinymaix/src/arch_cpu.h ****     }
 702              		.loc 2 64 14
 703 0336 3695     		add	a0,a0,a3
 704              	.LVL64:
 705 0338 D9BF     		j	.L17
 706              	.L19:
  67:lib/tinymaix/src/arch_cpu.h ****     result[1] = sum1;
 707              		.loc 2 67 5 is_stmt 1
  67:lib/tinymaix/src/arch_cpu.h ****     result[1] = sum1;
 708              		.loc 2 67 15 is_stmt 0
 709 033a BED4     		sw	a5,104(sp)
  68:lib/tinymaix/src/arch_cpu.h ****     return;
 710              		.loc 2 68 5 is_stmt 1
  68:lib/tinymaix/src/arch_cpu.h ****     return;
 711              		.loc 2 68 15 is_stmt 0
 712 033c AAD6     		sw	a0,108(sp)
  69:lib/tinymaix/src/arch_cpu.h **** }
 713              		.loc 2 69 5 is_stmt 1
 714              	.LVL65:
 715              	.LBE80:
 716              	.LBE81:
 717              	.LBE88:
 106:lib/tinymaix/src/tm_layers.c ****                     c += BATCH_SIZE;
 718              		.loc 1 106 21
 719              	.LBE104:
 720              	.LBE110:
 721              	.LBE113:
 722              	.LBE116:
 163:lib/tinymaix/src/arch_cpu.h ****         sumtype_t sum = sums[i];
 723              		.loc 2 163 5
 724              	.LBB117:
 725              	.LBB114:
 726              	.LBB111:
 727              	.LBB105:
 728              	.LBB89:
 729              	.LBB75:
 163:lib/tinymaix/src/arch_cpu.h ****         sumtype_t sum = sums[i];
 730              		.loc 2 163 9
 731              	.LBB71:
 164:lib/tinymaix/src/arch_cpu.h ****         sum += bs[i];
 732              		.loc 2 164 9
 165:lib/tinymaix/src/arch_cpu.h ****         #if !TM_FASTSCALE
 733              		.loc 2 165 9
 169:lib/tinymaix/src/arch_cpu.h ****         #endif
 734              		.loc 2 169 13
 165:lib/tinymaix/src/arch_cpu.h ****         #if !TM_FASTSCALE
 735              		.loc 2 165 13 is_stmt 0
 736 033e 83A60200 		lw	a3,0(t0)
 737 0342 B697     		add	a5,a5,a3
 738              	.LVL66:
 169:lib/tinymaix/src/arch_cpu.h ****         #endif
 739              		.loc 2 169 23
 740 0344 83A60F00 		lw	a3,0(t6)
 169:lib/tinymaix/src/arch_cpu.h ****         #endif
GAS LISTING C:\Users\Jesper\AppData\Local\Temp\cc1iO6kH.s 			page 23


 741              		.loc 2 169 34
 742 0348 A207     		slli	a5,a5,8
 743              	.LVL67:
 169:lib/tinymaix/src/arch_cpu.h ****         #endif
 744              		.loc 2 169 23
 745 034a B3C7D702 		div	a5,a5,a3
 746              	.LVL68:
 171:lib/tinymaix/src/arch_cpu.h ****         case TM_ACT_RELU:
 747              		.loc 2 171 9 is_stmt 1
 748 034e 63887905 		beq	s3,s7,.L20
 749 0352 63998901 		bne	s3,s8,.L21
 176:lib/tinymaix/src/arch_cpu.h ****         #if (!TM_FASTSCALE)
 750              		.loc 2 176 13
 176:lib/tinymaix/src/arch_cpu.h ****         #if (!TM_FASTSCALE)
 751              		.loc 2 176 18 is_stmt 0
 752 0356 63D30700 		bge	a5,zero,.L22
 753 035a 8147     		li	a5,0
 754              	.LVL69:
 755              	.L22:
 180:lib/tinymaix/src/arch_cpu.h ****         #endif
 756              		.loc 2 180 13 is_stmt 1
 180:lib/tinymaix/src/arch_cpu.h ****         #endif
 757              		.loc 2 180 18 is_stmt 0
 758 035c 63D4FC00 		ble	a5,s9,.L21
 759 0360 93070060 		li	a5,1536
 760              	.LVL70:
 182:lib/tinymaix/src/arch_cpu.h ****         default:
 761              		.loc 2 182 13 is_stmt 1
 762              	.L21:
 189:lib/tinymaix/src/arch_cpu.h ****         #endif
 763              		.loc 2 189 13
 189:lib/tinymaix/src/arch_cpu.h ****         #endif
 764              		.loc 2 189 39 is_stmt 0
 765 0364 9246     		lw	a3,4(sp)
 766 0366 B387F602 		mul	a5,a3,a5
 767              	.LVL71:
 189:lib/tinymaix/src/arch_cpu.h ****         #endif
 768              		.loc 2 189 88
 769 036a C246     		lw	a3,16(sp)
 189:lib/tinymaix/src/arch_cpu.h ****         #endif
 770              		.loc 2 189 46
 771 036c C187     		srai	a5,a5,16
 189:lib/tinymaix/src/arch_cpu.h ****         #endif
 772              		.loc 2 189 88
 773 036e B697     		add	a5,a3,a5
 189:lib/tinymaix/src/arch_cpu.h ****         #endif
 774              		.loc 2 189 21
 775 0370 2300F400 		sb	a5,0(s0)
 776              	.LVL72:
 164:lib/tinymaix/src/arch_cpu.h ****         sum += bs[i];
 777              		.loc 2 164 9 is_stmt 1
 165:lib/tinymaix/src/arch_cpu.h ****         #if !TM_FASTSCALE
 778              		.loc 2 165 9
 169:lib/tinymaix/src/arch_cpu.h ****         #endif
 779              		.loc 2 169 13
 165:lib/tinymaix/src/arch_cpu.h ****         #if !TM_FASTSCALE
 780              		.loc 2 165 13 is_stmt 0
GAS LISTING C:\Users\Jesper\AppData\Local\Temp\cc1iO6kH.s 			page 24


 781 0374 83A64200 		lw	a3,4(t0)
 782 0378 B657     		lw	a5,108(sp)
 783 037a B697     		add	a5,a5,a3
 784              	.LVL73:
 169:lib/tinymaix/src/arch_cpu.h ****         #endif
 785              		.loc 2 169 23
 786 037c 83A64F00 		lw	a3,4(t6)
 169:lib/tinymaix/src/arch_cpu.h ****         #endif
 787              		.loc 2 169 34
 788 0380 A207     		slli	a5,a5,8
 789              	.LVL74:
 169:lib/tinymaix/src/arch_cpu.h ****         #endif
 790              		.loc 2 169 23
 791 0382 B3C7D702 		div	a5,a5,a3
 792              	.LVL75:
 171:lib/tinymaix/src/arch_cpu.h ****         case TM_ACT_RELU:
 793              		.loc 2 171 9 is_stmt 1
 794 0386 E38E79E7 		beq	s3,s7,.L25
 795 038a E39F89E7 		bne	s3,s8,.L12
 176:lib/tinymaix/src/arch_cpu.h ****         #if (!TM_FASTSCALE)
 796              		.loc 2 176 13
 176:lib/tinymaix/src/arch_cpu.h ****         #if (!TM_FASTSCALE)
 797              		.loc 2 176 18 is_stmt 0
 798 038e 63D30700 		bge	a5,zero,.L13
 799 0392 8147     		li	a5,0
 800              	.LVL76:
 801              	.L13:
 180:lib/tinymaix/src/arch_cpu.h ****         #endif
 802              		.loc 2 180 13 is_stmt 1
 180:lib/tinymaix/src/arch_cpu.h ****         #endif
 803              		.loc 2 180 18 is_stmt 0
 804 0394 E3DAFCE6 		ble	a5,s9,.L12
 805 0398 93070060 		li	a5,1536
 806              	.LVL77:
 182:lib/tinymaix/src/arch_cpu.h ****         default:
 807              		.loc 2 182 13 is_stmt 1
 808 039c B5B5     		j	.L12
 809              	.LVL78:
 810              	.L20:
 173:lib/tinymaix/src/arch_cpu.h ****             break;
 811              		.loc 2 173 13
 173:lib/tinymaix/src/arch_cpu.h ****             break;
 812              		.loc 2 173 18 is_stmt 0
 813 039e E3D307FC 		bge	a5,zero,.L21
 814 03a2 8147     		li	a5,0
 815              	.LVL79:
 174:lib/tinymaix/src/arch_cpu.h ****         case TM_ACT_RELU6:
 816              		.loc 2 174 13 is_stmt 1
 817 03a4 C1B7     		j	.L21
 818              	.LVL80:
 819              	.L37:
 820              	.LBE71:
 821              	.LBE75:
 822              	.LBE89:
 112:lib/tinymaix/src/tm_layers.c ****                     tm_postprocess_sum(1, &sum, b + c, act, outp, SUMSCALE, OUTSCALE, out_zp); outp
 823              		.loc 1 112 21 discriminator 2
 824              	.LBB90:
GAS LISTING C:\Users\Jesper\AppData\Local\Temp\cc1iO6kH.s 			page 25


 825              	.LBB84:
  23:lib/tinymaix/src/arch_cpu.h ****     uint32_t i = 0;
 826              		.loc 2 23 5 discriminator 2
  24:lib/tinymaix/src/arch_cpu.h ****     uint32_t cnt = (size>>3)<<3;  //8
 827              		.loc 2 24 5 discriminator 2
  25:lib/tinymaix/src/arch_cpu.h ****     for(; i+8-1 <cnt; ){
 828              		.loc 2 25 5 discriminator 2
  25:lib/tinymaix/src/arch_cpu.h ****     for(; i+8-1 <cnt; ){
 829              		.loc 2 25 14 is_stmt 0 discriminator 2
 830 03a6 137887FF 		andi	a6,a4,-8
 831              	.LVL81:
  26:lib/tinymaix/src/arch_cpu.h ****         sum += sptr[i]*kptr[i];i++;
 832              		.loc 2 26 5 is_stmt 1 discriminator 2
 833 03aa C685     		mv	a1,a7
  25:lib/tinymaix/src/arch_cpu.h ****     for(; i+8-1 <cnt; ){
 834              		.loc 2 25 14 is_stmt 0 discriminator 2
 835 03ac 1A86     		mv	a2,t1
  23:lib/tinymaix/src/arch_cpu.h ****     uint32_t i = 0;
 836              		.loc 2 23 15 discriminator 2
 837 03ae 8147     		li	a5,0
 838              	.LVL82:
 839              	.L27:
  26:lib/tinymaix/src/arch_cpu.h ****         sum += sptr[i]*kptr[i];i++;
 840              		.loc 2 26 5
 841 03b0 B386CF00 		add	a3,t6,a2
 842 03b4 63EC0603 		bgtu	a6,a3,.L28
 843              	.LVL83:
 844              	.L29:
  36:lib/tinymaix/src/arch_cpu.h ****         sum += sptr[i]*kptr[i]; 
 845              		.loc 2 36 5
 846 03b8 6368E80A 		bgtu	a4,a6,.L30
  39:lib/tinymaix/src/arch_cpu.h ****     return;
 847              		.loc 2 39 5 is_stmt 1
 848              	.LVL84:
  40:lib/tinymaix/src/arch_cpu.h **** }
 849              		.loc 2 40 5
 850              	.LBE84:
 851              	.LBE90:
 113:lib/tinymaix/src/tm_layers.c ****                     kptr += chi;
 852              		.loc 1 113 21
 853              	.LBB91:
 854              	.LBB92:
 855              	.LBB93:
 164:lib/tinymaix/src/arch_cpu.h ****         sum += bs[i];
 856              		.loc 2 164 9
 165:lib/tinymaix/src/arch_cpu.h ****         #if !TM_FASTSCALE
 857              		.loc 2 165 9
 169:lib/tinymaix/src/arch_cpu.h ****         #endif
 858              		.loc 2 169 13
 165:lib/tinymaix/src/arch_cpu.h ****         #if !TM_FASTSCALE
 859              		.loc 2 165 13 is_stmt 0
 860 03bc 83260F00 		lw	a3,0(t5)
 861 03c0 B697     		add	a5,a5,a3
 862              	.LVL85:
 169:lib/tinymaix/src/arch_cpu.h ****         #endif
 863              		.loc 2 169 23
 864 03c2 1441     		lw	a3,0(a0)
GAS LISTING C:\Users\Jesper\AppData\Local\Temp\cc1iO6kH.s 			page 26


 169:lib/tinymaix/src/arch_cpu.h ****         #endif
 865              		.loc 2 169 34
 866 03c4 A207     		slli	a5,a5,8
 867              	.LVL86:
 169:lib/tinymaix/src/arch_cpu.h ****         #endif
 868              		.loc 2 169 23
 869 03c6 B3C7D702 		div	a5,a5,a3
 870              	.LVL87:
 171:lib/tinymaix/src/arch_cpu.h ****         case TM_ACT_RELU:
 871              		.loc 2 171 9 is_stmt 1
 872 03ca 638C790B 		beq	s3,s7,.L31
 873 03ce 638E890B 		beq	s3,s8,.L32
 874              	.LVL88:
 875              	.L33:
 189:lib/tinymaix/src/arch_cpu.h ****         #endif
 876              		.loc 2 189 13
 189:lib/tinymaix/src/arch_cpu.h ****         #endif
 877              		.loc 2 189 39 is_stmt 0
 878 03d2 9246     		lw	a3,4(sp)
 879              	.LBE93:
 880              	.LBE92:
 881              	.LBE91:
 113:lib/tinymaix/src/tm_layers.c ****                     kptr += chi;
 882              		.loc 1 113 100
 883 03d4 0504     		addi	s0,s0,1
 884              	.LVL89:
 114:lib/tinymaix/src/tm_layers.c ****                 }
 885              		.loc 1 114 26
 886 03d6 BA98     		add	a7,a7,a4
 887              	.LVL90:
 888 03d8 110F     		addi	t5,t5,4
 889              	.LVL91:
 890 03da 1105     		addi	a0,a0,4
 891              	.LBB98:
 892              	.LBB96:
 893              	.LBB94:
 189:lib/tinymaix/src/arch_cpu.h ****         #endif
 894              		.loc 2 189 39
 895 03dc B387F602 		mul	a5,a3,a5
 896              	.LVL92:
 189:lib/tinymaix/src/arch_cpu.h ****         #endif
 897              		.loc 2 189 88
 898 03e0 8E56     		lw	a3,224(sp)
 189:lib/tinymaix/src/arch_cpu.h ****         #endif
 899              		.loc 2 189 46
 900 03e2 C187     		srai	a5,a5,16
 189:lib/tinymaix/src/arch_cpu.h ****         #endif
 901              		.loc 2 189 88
 902 03e4 B697     		add	a5,a5,a3
 189:lib/tinymaix/src/arch_cpu.h ****         #endif
 903              		.loc 2 189 21
 904 03e6 A30FF4FE 		sb	a5,-1(s0)
 905              	.LVL93:
 906              	.LBE94:
 907              	.LBE96:
 908              	.LBE98:
 909              	.LBE105:
GAS LISTING C:\Users\Jesper\AppData\Local\Temp\cc1iO6kH.s 			page 27


 910              	.LBE111:
 911              	.LBE114:
 912              	.LBE117:
 913              		.loc 2 192 5 is_stmt 1
 914              	.LBB118:
 915              	.LBB115:
 916              	.LBB112:
 917              	.LBB106:
 113:lib/tinymaix/src/tm_layers.c ****                     kptr += chi;
 918              		.loc 1 113 96
 114:lib/tinymaix/src/tm_layers.c ****                 }
 919              		.loc 1 114 21
 920 03ea DDBB     		j	.L16
 921              	.LVL94:
 922              	.L28:
 923              	.LBB99:
 924              	.LBB85:
  27:lib/tinymaix/src/arch_cpu.h ****         sum += sptr[i]*kptr[i];i++;
 925              		.loc 2 27 9
  27:lib/tinymaix/src/arch_cpu.h ****         sum += sptr[i]*kptr[i];i++;
 926              		.loc 2 27 28 is_stmt 0
 927 03ec 83860500 		lb	a3,0(a1)
  27:lib/tinymaix/src/arch_cpu.h ****         sum += sptr[i]*kptr[i];i++;
 928              		.loc 2 27 20
 929 03f0 830E0600 		lb	t4,0(a2)
  31:lib/tinymaix/src/arch_cpu.h ****         sum += sptr[i]*kptr[i];i++;
 930              		.loc 2 31 28
 931 03f4 83824500 		lb	t0,4(a1)
 932 03f8 2106     		addi	a2,a2,8
 933              	.LVL95:
  27:lib/tinymaix/src/arch_cpu.h ****         sum += sptr[i]*kptr[i];i++;
 934              		.loc 2 27 23
 935 03fa B38EDE02 		mul	t4,t4,a3
  28:lib/tinymaix/src/arch_cpu.h ****         sum += sptr[i]*kptr[i];i++;
 936              		.loc 2 28 20
 937 03fe 830696FF 		lb	a3,-7(a2)
 938 0402 A105     		addi	a1,a1,8
  27:lib/tinymaix/src/arch_cpu.h ****         sum += sptr[i]*kptr[i];i++;
 939              		.loc 2 27 13
 940 0404 F697     		add	a5,t4,a5
 941              	.LVL96:
  27:lib/tinymaix/src/arch_cpu.h ****         sum += sptr[i]*kptr[i];i++;
 942              		.loc 2 27 32 is_stmt 1
  28:lib/tinymaix/src/arch_cpu.h ****         sum += sptr[i]*kptr[i];i++;
 943              		.loc 2 28 9
  28:lib/tinymaix/src/arch_cpu.h ****         sum += sptr[i]*kptr[i];i++;
 944              		.loc 2 28 28 is_stmt 0
 945 0406 838E95FF 		lb	t4,-7(a1)
  28:lib/tinymaix/src/arch_cpu.h ****         sum += sptr[i]*kptr[i];i++;
 946              		.loc 2 28 23
 947 040a B38ED603 		mul	t4,a3,t4
  29:lib/tinymaix/src/arch_cpu.h ****         sum += sptr[i]*kptr[i];i++;
 948              		.loc 2 29 20
 949 040e 8306A6FF 		lb	a3,-6(a2)
  28:lib/tinymaix/src/arch_cpu.h ****         sum += sptr[i]*kptr[i];i++;
 950              		.loc 2 28 13
 951 0412 F697     		add	a5,t4,a5
GAS LISTING C:\Users\Jesper\AppData\Local\Temp\cc1iO6kH.s 			page 28


 952              	.LVL97:
  28:lib/tinymaix/src/arch_cpu.h ****         sum += sptr[i]*kptr[i];i++;
 953              		.loc 2 28 32 is_stmt 1
  29:lib/tinymaix/src/arch_cpu.h ****         sum += sptr[i]*kptr[i];i++;
 954              		.loc 2 29 9
  29:lib/tinymaix/src/arch_cpu.h ****         sum += sptr[i]*kptr[i];i++;
 955              		.loc 2 29 28 is_stmt 0
 956 0414 838EA5FF 		lb	t4,-6(a1)
  29:lib/tinymaix/src/arch_cpu.h ****         sum += sptr[i]*kptr[i];i++;
 957              		.loc 2 29 23
 958 0418 B38ED603 		mul	t4,a3,t4
  30:lib/tinymaix/src/arch_cpu.h ****         sum += sptr[i]*kptr[i];i++;
 959              		.loc 2 30 20
 960 041c 8306B6FF 		lb	a3,-5(a2)
  29:lib/tinymaix/src/arch_cpu.h ****         sum += sptr[i]*kptr[i];i++;
 961              		.loc 2 29 13
 962 0420 BE9E     		add	t4,t4,a5
 963              	.LVL98:
  29:lib/tinymaix/src/arch_cpu.h ****         sum += sptr[i]*kptr[i];i++;
 964              		.loc 2 29 32 is_stmt 1
  30:lib/tinymaix/src/arch_cpu.h ****         sum += sptr[i]*kptr[i];i++;
 965              		.loc 2 30 9
  30:lib/tinymaix/src/arch_cpu.h ****         sum += sptr[i]*kptr[i];i++;
 966              		.loc 2 30 28 is_stmt 0
 967 0422 8387B5FF 		lb	a5,-5(a1)
  30:lib/tinymaix/src/arch_cpu.h ****         sum += sptr[i]*kptr[i];i++;
 968              		.loc 2 30 23
 969 0426 B387F602 		mul	a5,a3,a5
  31:lib/tinymaix/src/arch_cpu.h ****         sum += sptr[i]*kptr[i];i++;
 970              		.loc 2 31 20
 971 042a 8306C6FF 		lb	a3,-4(a2)
  31:lib/tinymaix/src/arch_cpu.h ****         sum += sptr[i]*kptr[i];i++;
 972              		.loc 2 31 23
 973 042e B3825602 		mul	t0,a3,t0
  30:lib/tinymaix/src/arch_cpu.h ****         sum += sptr[i]*kptr[i];i++;
 974              		.loc 2 30 13
 975 0432 F697     		add	a5,a5,t4
 976              	.LVL99:
  30:lib/tinymaix/src/arch_cpu.h ****         sum += sptr[i]*kptr[i];i++;
 977              		.loc 2 30 32 is_stmt 1
  31:lib/tinymaix/src/arch_cpu.h ****         sum += sptr[i]*kptr[i];i++;
 978              		.loc 2 31 9
  32:lib/tinymaix/src/arch_cpu.h ****         sum += sptr[i]*kptr[i];i++;
 979              		.loc 2 32 20 is_stmt 0
 980 0434 8306D6FF 		lb	a3,-3(a2)
  32:lib/tinymaix/src/arch_cpu.h ****         sum += sptr[i]*kptr[i];i++;
 981              		.loc 2 32 28
 982 0438 838ED5FF 		lb	t4,-3(a1)
  31:lib/tinymaix/src/arch_cpu.h ****         sum += sptr[i]*kptr[i];i++;
 983              		.loc 2 31 13
 984 043c 338DF200 		add	s10,t0,a5
 985              	.LVL100:
  31:lib/tinymaix/src/arch_cpu.h ****         sum += sptr[i]*kptr[i];i++;
 986              		.loc 2 31 32 is_stmt 1
  32:lib/tinymaix/src/arch_cpu.h ****         sum += sptr[i]*kptr[i];i++;
 987              		.loc 2 32 9
  32:lib/tinymaix/src/arch_cpu.h ****         sum += sptr[i]*kptr[i];i++;
GAS LISTING C:\Users\Jesper\AppData\Local\Temp\cc1iO6kH.s 			page 29


 988              		.loc 2 32 23 is_stmt 0
 989 0440 B38ED603 		mul	t4,a3,t4
  33:lib/tinymaix/src/arch_cpu.h ****         sum += sptr[i]*kptr[i];i++;
 990              		.loc 2 33 28
 991 0444 8387E5FF 		lb	a5,-2(a1)
  33:lib/tinymaix/src/arch_cpu.h ****         sum += sptr[i]*kptr[i];i++;
 992              		.loc 2 33 20
 993 0448 8306E6FF 		lb	a3,-2(a2)
  33:lib/tinymaix/src/arch_cpu.h ****         sum += sptr[i]*kptr[i];i++;
 994              		.loc 2 33 23
 995 044c B387F602 		mul	a5,a3,a5
  32:lib/tinymaix/src/arch_cpu.h ****         sum += sptr[i]*kptr[i];i++;
 996              		.loc 2 32 13
 997 0450 B382AE01 		add	t0,t4,s10
 998              	.LVL101:
  32:lib/tinymaix/src/arch_cpu.h ****         sum += sptr[i]*kptr[i];i++;
 999              		.loc 2 32 32 is_stmt 1
  33:lib/tinymaix/src/arch_cpu.h ****         sum += sptr[i]*kptr[i];i++;
 1000              		.loc 2 33 9
  34:lib/tinymaix/src/arch_cpu.h ****     }
 1001              		.loc 2 34 20 is_stmt 0
 1002 0454 8306F6FF 		lb	a3,-1(a2)
  33:lib/tinymaix/src/arch_cpu.h ****         sum += sptr[i]*kptr[i];i++;
 1003              		.loc 2 33 13
 1004 0458 B38E5700 		add	t4,a5,t0
 1005              	.LVL102:
  33:lib/tinymaix/src/arch_cpu.h ****         sum += sptr[i]*kptr[i];i++;
 1006              		.loc 2 33 32 is_stmt 1
  34:lib/tinymaix/src/arch_cpu.h ****     }
 1007              		.loc 2 34 9
  34:lib/tinymaix/src/arch_cpu.h ****     }
 1008              		.loc 2 34 28 is_stmt 0
 1009 045c 8387F5FF 		lb	a5,-1(a1)
  34:lib/tinymaix/src/arch_cpu.h ****     }
 1010              		.loc 2 34 23
 1011 0460 B387F602 		mul	a5,a3,a5
  34:lib/tinymaix/src/arch_cpu.h ****     }
 1012              		.loc 2 34 13
 1013 0464 F697     		add	a5,a5,t4
 1014              	.LVL103:
  34:lib/tinymaix/src/arch_cpu.h ****     }
 1015              		.loc 2 34 32 is_stmt 1
 1016 0466 A9B7     		j	.L27
 1017              	.LVL104:
 1018              	.L30:
  37:lib/tinymaix/src/arch_cpu.h ****     }
 1019              		.loc 2 37 9
  37:lib/tinymaix/src/arch_cpu.h ****     }
 1020              		.loc 2 37 20 is_stmt 0
 1021 0468 B3060301 		add	a3,t1,a6
  37:lib/tinymaix/src/arch_cpu.h ****     }
 1022              		.loc 2 37 28
 1023 046c 33860801 		add	a2,a7,a6
  37:lib/tinymaix/src/arch_cpu.h ****     }
 1024              		.loc 2 37 20
 1025 0470 83860600 		lb	a3,0(a3)
  37:lib/tinymaix/src/arch_cpu.h ****     }
GAS LISTING C:\Users\Jesper\AppData\Local\Temp\cc1iO6kH.s 			page 30


 1026              		.loc 2 37 28
 1027 0474 03060600 		lb	a2,0(a2)
  36:lib/tinymaix/src/arch_cpu.h ****         sum += sptr[i]*kptr[i]; 
 1028              		.loc 2 36 21
 1029 0478 0508     		addi	a6,a6,1
 1030              	.LVL105:
  37:lib/tinymaix/src/arch_cpu.h ****     }
 1031              		.loc 2 37 23
 1032 047a B386C602 		mul	a3,a3,a2
  37:lib/tinymaix/src/arch_cpu.h ****     }
 1033              		.loc 2 37 13
 1034 047e B697     		add	a5,a5,a3
 1035              	.LVL106:
 1036 0480 25BF     		j	.L29
 1037              	.LVL107:
 1038              	.L31:
 1039              	.LBE85:
 1040              	.LBE99:
 1041              	.LBB100:
 1042              	.LBB97:
 1043              	.LBB95:
 173:lib/tinymaix/src/arch_cpu.h ****             break;
 1044              		.loc 2 173 13 is_stmt 1
 173:lib/tinymaix/src/arch_cpu.h ****             break;
 1045              		.loc 2 173 18 is_stmt 0
 1046 0482 E3D807F4 		bge	a5,zero,.L33
 1047 0486 8147     		li	a5,0
 1048              	.LVL108:
 174:lib/tinymaix/src/arch_cpu.h ****         case TM_ACT_RELU6:
 1049              		.loc 2 174 13 is_stmt 1
 1050 0488 A9B7     		j	.L33
 1051              	.LVL109:
 1052              	.L32:
 176:lib/tinymaix/src/arch_cpu.h ****         #if (!TM_FASTSCALE)
 1053              		.loc 2 176 13
 176:lib/tinymaix/src/arch_cpu.h ****         #if (!TM_FASTSCALE)
 1054              		.loc 2 176 18 is_stmt 0
 1055 048a 63D30700 		bge	a5,zero,.L35
 1056 048e 8147     		li	a5,0
 1057              	.LVL110:
 1058              	.L35:
 180:lib/tinymaix/src/arch_cpu.h ****         #endif
 1059              		.loc 2 180 13 is_stmt 1
 180:lib/tinymaix/src/arch_cpu.h ****         #endif
 1060              		.loc 2 180 18 is_stmt 0
 1061 0490 E3D1FCF4 		ble	a5,s9,.L33
 1062 0494 93070060 		li	a5,1536
 1063              	.LVL111:
 182:lib/tinymaix/src/arch_cpu.h ****         default:
 1064              		.loc 2 182 13 is_stmt 1
 1065 0498 2DBF     		j	.L33
 1066              	.LVL112:
 1067              	.L41:
 1068              	.LBE95:
 1069              	.LBE97:
 1070              	.LBE100:
 1071              	.LBE106:
GAS LISTING C:\Users\Jesper\AppData\Local\Temp\cc1iO6kH.s 			page 31


 1072              	.LBE112:
 1073              	.LBE115:
 1074              	.LBE118:
 1075              	.LBB119:
 1076              	.LBB58:
 127:lib/tinymaix/src/tm_layers.c ****             k_oft[idx] = oft;
 1077              		.loc 1 127 13 discriminator 3
 1078              		.loc 1 127 24 is_stmt 0 discriminator 3
 1079 049a 8CC2     		sw	a1,0(a3)
 128:lib/tinymaix/src/tm_layers.c ****             idx += 1;
 1080              		.loc 1 128 13 is_stmt 1 discriminator 3
 1081              	.LVL113:
 129:lib/tinymaix/src/tm_layers.c ****             oft += chi;
 1082              		.loc 1 129 13 discriminator 3
 126:lib/tinymaix/src/tm_layers.c ****             k_oft[idx] = oft;
 1083              		.loc 1 126 29 is_stmt 0 discriminator 3
 1084 049c 0506     		addi	a2,a2,1
 1085              	.LVL114:
 1086              		.loc 1 129 17 discriminator 3
 1087 049e BA95     		add	a1,a1,a4
 1088              	.LVL115:
 1089 04a0 9106     		addi	a3,a3,4
 1090              	.LVL116:
 1091              	.L43:
 126:lib/tinymaix/src/tm_layers.c ****             k_oft[idx] = oft;
 1092              		.loc 1 126 9 discriminator 1
 1093 04a2 E34C96FE 		blt	a2,s1,.L41
 1094              	.LBE58:
 130:lib/tinymaix/src/tm_layers.c ****         }
 131:lib/tinymaix/src/tm_layers.c ****         oft += (in->w - kw)*chi;
 1095              		.loc 1 131 19 discriminator 2
 1096 04a6 83564A00 		lhu	a3,4(s4)
 1097 04aa FE97     		add	a5,a5,t6
 1098 04ac FA98     		add	a7,a7,t5
 1099              	.LVL117:
 1100              		.loc 1 131 9 is_stmt 1 discriminator 2
 1101              		.loc 1 131 23 is_stmt 0 discriminator 2
 1102 04ae 858E     		sub	a3,a3,s1
 1103              		.loc 1 131 28 discriminator 2
 1104 04b0 B386E602 		mul	a3,a3,a4
 125:lib/tinymaix/src/tm_layers.c ****         for(int x=0; x<kw; x++){
 1105              		.loc 1 125 25 discriminator 2
 1106 04b4 850E     		addi	t4,t4,1
 1107              	.LVL118:
 1108              		.loc 1 131 13 discriminator 2
 1109 04b6 B697     		add	a5,a3,a5
 1110              	.LVL119:
 1111 04b8 2DB1     		j	.L8
 1112              	.LVL120:
 1113              	.L42:
 1114              	.LBE119:
 132:lib/tinymaix/src/tm_layers.c ****     }
 133:lib/tinymaix/src/tm_layers.c ****     chi  = dmul ? 1 : in->c; // dmul>=1 indicate depthwise; dummy chi for dwconv compatible
 1115              		.loc 1 133 5 is_stmt 1
 1116              		.loc 1 133 21 is_stmt 0
 1117 04ba 63930A00 		bne	s5,zero,.L44
 1118 04be 3A8B     		mv	s6,a4
GAS LISTING C:\Users\Jesper\AppData\Local\Temp\cc1iO6kH.s 			page 32


 1119              	.L44:
 1120              	.LVL121:
 134:lib/tinymaix/src/tm_layers.c ****     int slow_flag = 0; //same pad part is slow
 1121              		.loc 1 134 5 is_stmt 1 discriminator 4
 135:lib/tinymaix/src/tm_layers.c ****     for (int y = 0; y < out->h; y++) {
 1122              		.loc 1 135 5 discriminator 4
 1123              	.LBB120:
 1124              		.loc 1 135 10 discriminator 4
 1125              	.LBB121:
 1126              	.LBB122:
 1127              	.LBB123:
 1128              	.LBB124:
 136:lib/tinymaix/src/tm_layers.c ****         int src_y0 = sy*y - pad_top;
 137:lib/tinymaix/src/tm_layers.c ****         for (int x = 0; x < out->w; x++) {
 138:lib/tinymaix/src/tm_layers.c ****             int src_x0 = sx*x - pad_left;
 139:lib/tinymaix/src/tm_layers.c ****             sumtype_t sum;
 140:lib/tinymaix/src/tm_layers.c ****             slow_flag = ((src_y0<0)+(src_x0<0)+(src_y0+kh>in->h)+(src_x0+kw>in->w));
 141:lib/tinymaix/src/tm_layers.c ****             //TM_PERF_START(t_sbuf);
 142:lib/tinymaix/src/tm_layers.c ****             if(!slow_flag) {TM_PERF_START(t_valid); //valid or same valid part
 143:lib/tinymaix/src/tm_layers.c ****                 mtype_t* sptr_base = (mtype_t*)TM_MATP(in, src_y0, src_x0, 0); //?c/dmul:0
 144:lib/tinymaix/src/tm_layers.c ****                 mtype_t* sptr = sptr_base; //= (mtype_t*)TM_MATP(in, src_y0, src_x0, 0); //sbuf 
 145:lib/tinymaix/src/tm_layers.c ****                 uint32_t sidx=0;    //sbuf:cho,chi,maxk //dw:chi==1;
 146:lib/tinymaix/src/tm_layers.c ****                 for (int cc = 0; cc < (dmul?cho:chi); cc++) {
 147:lib/tinymaix/src/tm_layers.c ****                     for (int k = 0; k < maxk; k++) {
 148:lib/tinymaix/src/tm_layers.c ****                         sbuf[sidx+k] = sptr[k_oft[k]];
 149:lib/tinymaix/src/tm_layers.c ****                     }
 150:lib/tinymaix/src/tm_layers.c ****                     sidx += maxk;
 151:lib/tinymaix/src/tm_layers.c ****                     sptr = sptr_base + (dmul?(cc+1)/dmul:(cc+1));
 152:lib/tinymaix/src/tm_layers.c ****                 }
 153:lib/tinymaix/src/tm_layers.c ****             } else {  TM_PERF_START(t_pad);       //same pad part
 154:lib/tinymaix/src/tm_layers.c ****                 int _ky0 = src_y0<0 ? -src_y0 : 0;
 155:lib/tinymaix/src/tm_layers.c ****                 int _kx0 = src_x0<0 ? -src_x0 : 0;
 156:lib/tinymaix/src/tm_layers.c ****                 int _ky1 = in->h-src_y0>kh ? kh : in->h-src_y0;
 157:lib/tinymaix/src/tm_layers.c ****                 int _kx1 = in->w-src_x0>kw ? kw : in->w-src_x0;
 158:lib/tinymaix/src/tm_layers.c ****                 uint32_t sidx=0;    //sbuf:cho,chi,maxk //dw:chi==1;
 159:lib/tinymaix/src/tm_layers.c ****                 uint32_t s_step = (_ky1-_ky0)*(_kx1-_kx0);
 160:lib/tinymaix/src/tm_layers.c ****                 mtype_t* sptr_base = (mtype_t*)TM_MATP(in, src_y0, src_x0, 0);
 161:lib/tinymaix/src/tm_layers.c ****                 mtype_t* sptr = sptr_base;
 162:lib/tinymaix/src/tm_layers.c ****             #if TM_MDL_TYPE == TM_MDL_INT8
 163:lib/tinymaix/src/tm_layers.c ****                 memset(sbuf, in_zp, dmul?cho*maxk:chi*maxk);    //do padding
 1129              		.loc 1 163 54 is_stmt 0 discriminator 4
 1130 04c0 330CAB03 		mul	s8,s6,s10
 1131 04c4 63800A06 		beq	s5,zero,.L45
 1132 04c8 5E83     		mv	t1,s7
 1133              		.loc 1 163 45 discriminator 4
 1134 04ca B387AB03 		mul	a5,s7,s10
 1135              	.LVL122:
 1136 04ce 3EDC     		sw	a5,56(sp)
 1137              	.L48:
 1138 04d0 93972400 		slli	a5,s1,2
 1139 04d4 3EDA     		sw	a5,52(sp)
 1140 04d6 B7070000 		lui	a5,%hi(.LANCHOR0)
 1141 04da 93870700 		addi	a5,a5,%lo(.LANCHOR0)
 1142 04de 3EDE     		sw	a5,60(sp)
 1143 04e0 B7070000 		lui	a5,%hi(sumscale)
 1144 04e4 37080000 		lui	a6,%hi(sbuf)
 1145 04e8 93870700 		addi	a5,a5,%lo(sumscale)
GAS LISTING C:\Users\Jesper\AppData\Local\Temp\cc1iO6kH.s 			page 33


 1146 04ec 330BB041 		neg	s6,s11
 1147              	.LVL123:
 1148 04f0 6ED2     		sw	s11,36(sp)
 1149              	.LBE124:
 1150              	.LBE123:
 1151              	.LBE122:
 1152              	.LBE121:
 135:lib/tinymaix/src/tm_layers.c ****     for (int y = 0; y < out->h; y++) {
 1153              		.loc 1 135 14 discriminator 4
 1154 04f2 02C8     		sw	zero,16(sp)
 1155 04f4 13080800 		addi	a6,a6,%lo(sbuf)
 1156 04f8 BEC0     		sw	a5,64(sp)
 1157              	.LVL124:
 1158              	.L49:
 135:lib/tinymaix/src/tm_layers.c ****     for (int y = 0; y < out->h; y++) {
 1159              		.loc 1 135 28 discriminator 1
 1160 04fa 83572900 		lhu	a5,2(s2)
 135:lib/tinymaix/src/tm_layers.c ****     for (int y = 0; y < out->h; y++) {
 1161              		.loc 1 135 5 discriminator 1
 1162 04fe 4247     		lw	a4,16(sp)
 1163 0500 6345F702 		bgt	a5,a4,.L94
 1164              	.LVL125:
 1165              	.L114:
 1166              	.LBE120:
 164:lib/tinymaix/src/tm_layers.c ****             #elif (TM_MDL_TYPE == TM_MDL_FP32)||(TM_MDL_TYPE == TM_MDL_FP16)||(TM_MDL_TYPE == TM_MD
 165:lib/tinymaix/src/tm_layers.c ****                 memset(sbuf, 0, (dmul?cho*maxk:chi*maxk)*sizeof(mtype_t));
 166:lib/tinymaix/src/tm_layers.c ****             #else
 167:lib/tinymaix/src/tm_layers.c ****             #error "unsupport mdl type"
 168:lib/tinymaix/src/tm_layers.c ****             #endif
 169:lib/tinymaix/src/tm_layers.c ****                 for (int cc = 0; cc < (dmul?cho:chi); cc++) {
 170:lib/tinymaix/src/tm_layers.c ****                     for(int _ky=_ky0; _ky<_ky1; _ky++){
 171:lib/tinymaix/src/tm_layers.c ****                         for(int _kx=_kx0; _kx<_kx1; _kx++){
 172:lib/tinymaix/src/tm_layers.c ****                             int k = _ky*kw + _kx;
 173:lib/tinymaix/src/tm_layers.c ****                             sbuf[sidx+k] = sptr[k_oft[k]];
 174:lib/tinymaix/src/tm_layers.c ****                         }
 175:lib/tinymaix/src/tm_layers.c ****                     }
 176:lib/tinymaix/src/tm_layers.c ****                     sidx += maxk;
 177:lib/tinymaix/src/tm_layers.c ****                     sptr = sptr_base + (dmul?(cc+1)/dmul:(cc+1));
 178:lib/tinymaix/src/tm_layers.c ****                 }
 179:lib/tinymaix/src/tm_layers.c ****             }
 180:lib/tinymaix/src/tm_layers.c ****             //TM_PERF_ADD(t_sbuf);
 181:lib/tinymaix/src/tm_layers.c ****             mtype_t* sptr = sbuf;    //sbuf prepare ok~
 182:lib/tinymaix/src/tm_layers.c ****             if(maxk*chi==9 && dmul){ //simple opt for 3x3 dwconv
 183:lib/tinymaix/src/tm_layers.c ****                 for(int c=0; c<out->c; c++){
 184:lib/tinymaix/src/tm_layers.c ****                     wtype_t* kptr = (wtype_t*)w + c*chi*maxk;//TM_PERF_START(t_dotp);
 185:lib/tinymaix/src/tm_layers.c ****                     tm_dot_prod_3x3x1(sptr, kptr, &sum);//TM_PERF_ADD(t_dotp);TM_PERF_START(t_post)
 186:lib/tinymaix/src/tm_layers.c ****                     tm_postprocess_sum(1, &sum, b + c, act, outp, SUMSCALE, OUTSCALE, out_zp); outp
 187:lib/tinymaix/src/tm_layers.c ****                     sptr += maxk; //dwconv need move step
 188:lib/tinymaix/src/tm_layers.c ****                 }
 189:lib/tinymaix/src/tm_layers.c ****             }else {
 190:lib/tinymaix/src/tm_layers.c ****                 for(int c=0; c<out->c; c++){
 191:lib/tinymaix/src/tm_layers.c ****                     wtype_t* kptr = (wtype_t*)w + c*chi*maxk;//TM_PERF_START(t_dotp);
 192:lib/tinymaix/src/tm_layers.c ****                     tm_dot_prod(sptr, kptr, maxk*chi, &sum);//TM_PERF_ADD(t_dotp);TM_PERF_START(t_p
 193:lib/tinymaix/src/tm_layers.c ****                     tm_postprocess_sum(1, &sum, b + c, act, outp, SUMSCALE, OUTSCALE, out_zp); outp
 194:lib/tinymaix/src/tm_layers.c ****                     if(dmul) sptr += maxk; //dwconv need move step
 195:lib/tinymaix/src/tm_layers.c ****                 }
 196:lib/tinymaix/src/tm_layers.c ****             }
GAS LISTING C:\Users\Jesper\AppData\Local\Temp\cc1iO6kH.s 			page 34


 197:lib/tinymaix/src/tm_layers.c ****             if(!slow_flag) {TM_PERF_ADD(t_valid);} else {TM_PERF_ADD(t_pad);}
 198:lib/tinymaix/src/tm_layers.c ****         }
 199:lib/tinymaix/src/tm_layers.c ****     }
 200:lib/tinymaix/src/tm_layers.c ****     if(dmul) {TM_PERF_ADD(t_dwconv);} else {TM_PERF_ADD(t_conv);};
 201:lib/tinymaix/src/tm_layers.c ****     return TM_OK;
 1167              		.loc 1 201 12
 1168 0504 0145     		li	a0,0
 1169              	.LVL126:
 1170              	.L1:
 202:lib/tinymaix/src/tm_layers.c **** }
 1171              		.loc 1 202 1
 1172 0506 BA50     		lw	ra,172(sp)
 1173              		.cfi_remember_state
 1174              		.cfi_restore 1
 1175 0508 2A54     		lw	s0,168(sp)
 1176              		.cfi_restore 8
 1177 050a 9A54     		lw	s1,164(sp)
 1178              		.cfi_restore 9
 1179 050c 0A59     		lw	s2,160(sp)
 1180              		.cfi_restore 18
 1181 050e FA49     		lw	s3,156(sp)
 1182              		.cfi_restore 19
 1183 0510 6A4A     		lw	s4,152(sp)
 1184              		.cfi_restore 20
 1185              	.LVL127:
 1186 0512 DA4A     		lw	s5,148(sp)
 1187              		.cfi_restore 21
 1188 0514 4A4B     		lw	s6,144(sp)
 1189              		.cfi_restore 22
 1190 0516 BA4B     		lw	s7,140(sp)
 1191              		.cfi_restore 23
 1192 0518 2A4C     		lw	s8,136(sp)
 1193              		.cfi_restore 24
 1194 051a 9A4C     		lw	s9,132(sp)
 1195              		.cfi_restore 25
 1196 051c 0A4D     		lw	s10,128(sp)
 1197              		.cfi_restore 26
 1198 051e F65D     		lw	s11,124(sp)
 1199              		.cfi_restore 27
 1200 0520 4D61     		addi	sp,sp,176
 1201              	.LCFI1:
 1202              		.cfi_def_cfa_offset 0
 1203              	.LVL128:
 1204 0522 8280     		jr	ra
 1205              	.LVL129:
 1206              	.L45:
 1207              	.LCFI2:
 1208              		.cfi_restore_state
 1209 0524 62DC     		sw	s8,56(sp)
 1210 0526 5A83     		mv	t1,s6
 1211 0528 65B7     		j	.L48
 1212              	.LVL130:
 1213              	.L94:
 1214              	.LBB208:
 1215              	.LBB204:
 136:lib/tinymaix/src/tm_layers.c ****         int src_y0 = sy*y - pad_top;
 1216              		.loc 1 136 9 is_stmt 1
GAS LISTING C:\Users\Jesper\AppData\Local\Temp\cc1iO6kH.s 			page 35


 137:lib/tinymaix/src/tm_layers.c ****             int src_x0 = sx*x - pad_left;
 1217              		.loc 1 137 9
 1218              	.LBB200:
 137:lib/tinymaix/src/tm_layers.c ****             int src_x0 = sx*x - pad_left;
 1219              		.loc 1 137 14
 1220 052a 1257     		lw	a4,36(sp)
 1221              	.LVL131:
 1222 052c 9357FB41 		srai	a5,s6,31
 137:lib/tinymaix/src/tm_layers.c ****             int src_x0 = sx*x - pad_left;
 1223              		.loc 1 137 18 is_stmt 0
 1224 0530 02CE     		sw	zero,28(sp)
 1225 0532 F98F     		and	a5,a5,a4
 1226 0534 3ED4     		sw	a5,40(sp)
 1227 0536 9E47     		lw	a5,196(sp)
 1228 0538 2257     		lw	a4,40(sp)
 1229 053a 3ED0     		sw	a5,32(sp)
 1230 053c B30BF040 		neg	s7,a5
 1231 0540 A257     		lw	a5,40(sp)
 1232 0542 B387F402 		mul	a5,s1,a5
 1233 0546 C297     		add	a5,a5,a6
 1234 0548 BEC4     		sw	a5,72(sp)
 1235 054a D257     		lw	a5,52(sp)
 1236 054c B387E702 		mul	a5,a5,a4
 1237 0550 7257     		lw	a4,60(sp)
 1238 0552 BA97     		add	a5,a4,a5
 1239 0554 BEC2     		sw	a5,68(sp)
 1240              	.LBB195:
 140:lib/tinymaix/src/tm_layers.c ****             //TM_PERF_START(t_sbuf);
 1241              		.loc 1 140 33
 1242 0556 9357FB01 		srli	a5,s6,31
 1243 055a BEC6     		sw	a5,76(sp)
 140:lib/tinymaix/src/tm_layers.c ****             //TM_PERF_START(t_sbuf);
 1244              		.loc 1 140 58
 1245 055c E247     		lw	a5,24(sp)
 1246 055e DA97     		add	a5,a5,s6
 1247 0560 BEC8     		sw	a5,80(sp)
 1248              	.LVL132:
 1249              	.L52:
 1250              	.LBE195:
 137:lib/tinymaix/src/tm_layers.c ****             int src_x0 = sx*x - pad_left;
 1251              		.loc 1 137 32 discriminator 2
 1252 0562 83574900 		lhu	a5,4(s2)
 137:lib/tinymaix/src/tm_layers.c ****             int src_x0 = sx*x - pad_left;
 1253              		.loc 1 137 9 discriminator 2
 1254 0566 7247     		lw	a4,28(sp)
 1255 0568 634CF700 		bgt	a5,a4,.L93
 1256              	.LBE200:
 1257              	.LBE204:
 135:lib/tinymaix/src/tm_layers.c ****         int src_y0 = sy*y - pad_top;
 1258              		.loc 1 135 34 discriminator 2
 1259 056c C247     		lw	a5,16(sp)
 1260 056e 4257     		lw	a4,48(sp)
 1261 0570 8507     		addi	a5,a5,1
 1262 0572 3EC8     		sw	a5,16(sp)
 1263              	.LVL133:
 1264 0574 C257     		lw	a5,48(sp)
 1265              	.LVL134:
GAS LISTING C:\Users\Jesper\AppData\Local\Temp\cc1iO6kH.s 			page 36


 1266 0576 3E9B     		add	s6,s6,a5
 1267              	.LVL135:
 1268 0578 9257     		lw	a5,36(sp)
 1269 057a 998F     		sub	a5,a5,a4
 1270 057c 3ED2     		sw	a5,36(sp)
 1271 057e B5BF     		j	.L49
 1272              	.LVL136:
 1273              	.L93:
 1274              	.LBB205:
 1275              	.LBB201:
 1276              	.LBB196:
 138:lib/tinymaix/src/tm_layers.c ****             sumtype_t sum;
 1277              		.loc 1 138 13 is_stmt 1
 139:lib/tinymaix/src/tm_layers.c ****             slow_flag = ((src_y0<0)+(src_x0<0)+(src_y0+kh>in->h)+(src_x0+kw>in->w));
 1278              		.loc 1 139 13
 140:lib/tinymaix/src/tm_layers.c ****             //TM_PERF_START(t_sbuf);
 1279              		.loc 1 140 13
 140:lib/tinymaix/src/tm_layers.c ****             //TM_PERF_START(t_sbuf);
 1280              		.loc 1 140 36 is_stmt 0
 1281 0580 B647     		lw	a5,76(sp)
 140:lib/tinymaix/src/tm_layers.c ****             //TM_PERF_START(t_sbuf);
 1282              		.loc 1 140 44
 1283 0582 13D7FB01 		srli	a4,s7,31
 1284              	.LVL137:
 140:lib/tinymaix/src/tm_layers.c ****             //TM_PERF_START(t_sbuf);
 1285              		.loc 1 140 61
 1286 0586 835D2A00 		lhu	s11,2(s4)
 140:lib/tinymaix/src/tm_layers.c ****             //TM_PERF_START(t_sbuf);
 1287              		.loc 1 140 36
 1288 058a 3E97     		add	a4,a5,a4
 140:lib/tinymaix/src/tm_layers.c ****             //TM_PERF_START(t_sbuf);
 1289              		.loc 1 140 58
 1290 058c C647     		lw	a5,80(sp)
 140:lib/tinymaix/src/tm_layers.c ****             //TM_PERF_START(t_sbuf);
 1291              		.loc 1 140 79
 1292 058e 835C4A00 		lhu	s9,4(s4)
 140:lib/tinymaix/src/tm_layers.c ****             //TM_PERF_START(t_sbuf);
 1293              		.loc 1 140 58
 1294 0592 B3A7FD00 		slt	a5,s11,a5
 140:lib/tinymaix/src/tm_layers.c ****             //TM_PERF_START(t_sbuf);
 1295              		.loc 1 140 47
 1296 0596 3E97     		add	a4,a4,a5
 140:lib/tinymaix/src/tm_layers.c ****             //TM_PERF_START(t_sbuf);
 1297              		.loc 1 140 76
 1298 0598 B3877401 		add	a5,s1,s7
 1299 059c B3A7FC00 		slt	a5,s9,a5
 140:lib/tinymaix/src/tm_layers.c ****             //TM_PERF_START(t_sbuf);
 1300              		.loc 1 140 23
 1301 05a0 3E97     		add	a4,a4,a5
 1302              	.LVL138:
 142:lib/tinymaix/src/tm_layers.c ****                 mtype_t* sptr_base = (mtype_t*)TM_MATP(in, src_y0, src_x0, 0); //?c/dmul:0
 1303              		.loc 1 142 13 is_stmt 1
 1304 05a2 B3876C03 		mul	a5,s9,s6
 1305 05a6 B3867701 		add	a3,a5,s7
 1306 05aa 83576A00 		lhu	a5,6(s4)
 1307 05ae B387F602 		mul	a5,a3,a5
 1308 05b2 83268A00 		lw	a3,8(s4)
GAS LISTING C:\Users\Jesper\AppData\Local\Temp\cc1iO6kH.s 			page 37


 1309 05b6 B697     		add	a5,a3,a5
 142:lib/tinymaix/src/tm_layers.c ****                 mtype_t* sptr_base = (mtype_t*)TM_MATP(in, src_y0, src_x0, 0); //?c/dmul:0
 1310              		.loc 1 142 15 is_stmt 0
 1311 05b8 21EF     		bne	a4,zero,.L53
 1312 05ba C285     		mv	a1,a6
 1313              	.LBB134:
 144:lib/tinymaix/src/tm_layers.c ****                 uint32_t sidx=0;    //sbuf:cho,chi,maxk //dw:chi==1;
 1314              		.loc 1 144 26
 1315 05bc BE86     		mv	a3,a5
 1316              	.LVL139:
 1317              	.L54:
 1318              	.LBB135:
 146:lib/tinymaix/src/tm_layers.c ****                     for (int k = 0; k < maxk; k++) {
 1319              		.loc 1 146 17 discriminator 2
 1320 05be 63476704 		blt	a4,t1,.L100
 1321              	.LVL140:
 1322              	.L70:
 1323              	.LBE135:
 1324              	.LBE134:
 181:lib/tinymaix/src/tm_layers.c ****             if(maxk*chi==9 && dmul){ //simple opt for 3x3 dwconv
 1325              		.loc 1 181 13 is_stmt 1
 182:lib/tinymaix/src/tm_layers.c ****                 for(int c=0; c<out->c; c++){
 1326              		.loc 1 182 13
 182:lib/tinymaix/src/tm_layers.c ****                 for(int c=0; c<out->c; c++){
 1327              		.loc 1 182 15 is_stmt 0
 1328 05c2 A547     		li	a5,9
 1329 05c4 630DFC0C 		beq	s8,a5,.L59
 1330              	.L60:
 1331 05c8 324F     		lw	t5,12(sp)
 1332 05ca 864F     		lw	t6,64(sp)
 1333 05cc A24E     		lw	t4,8(sp)
 1334              	.LBB139:
 1335              	.LBB140:
 1336              	.LBB141:
 1337              	.LBB142:
  23:lib/tinymaix/src/arch_cpu.h ****     uint32_t i = 0;
 1338              		.loc 2 23 15 discriminator 1
 1339 05ce 0145     		li	a0,0
 1340 05d0 C288     		mv	a7,a6
 1341              	.LBE142:
 1342              	.LBE141:
 1343              	.LBB145:
 1344              	.LBB146:
 1345              	.LBB147:
 171:lib/tinymaix/src/arch_cpu.h ****         case TM_ACT_RELU:
 1346              		.loc 2 171 9 discriminator 1
 1347 05d2 8542     		li	t0,1
 1348 05d4 8D43     		li	t2,3
 180:lib/tinymaix/src/arch_cpu.h ****         #endif
 1349              		.loc 2 180 18 discriminator 1
 1350 05d6 930C0060 		li	s9,1536
 1351 05da 15A4     		j	.L91
 1352              	.LVL141:
 1353              	.L55:
 1354              	.LBE147:
 1355              	.LBE146:
 1356              	.LBE145:
GAS LISTING C:\Users\Jesper\AppData\Local\Temp\cc1iO6kH.s 			page 38


 1357              	.LBE140:
 1358              	.LBE139:
 1359              	.LBB166:
 1360              	.LBB138:
 1361              	.LBB136:
 148:lib/tinymaix/src/tm_layers.c ****                     }
 1362              		.loc 1 148 25 is_stmt 1 discriminator 3
 148:lib/tinymaix/src/tm_layers.c ****                     }
 1363              		.loc 1 148 50 is_stmt 0 discriminator 3
 1364 05dc F258     		lw	a7,60(sp)
 1365 05de 13152600 		slli	a0,a2,2
 1366 05e2 4695     		add	a0,a7,a0
 148:lib/tinymaix/src/tm_layers.c ****                     }
 1367              		.loc 1 148 44 discriminator 3
 1368 05e4 0841     		lw	a0,0(a0)
 1369 05e6 3695     		add	a0,a3,a0
 1370 05e8 83080500 		lb	a7,0(a0)
 148:lib/tinymaix/src/tm_layers.c ****                     }
 1371              		.loc 1 148 38 discriminator 3
 1372 05ec 3385C500 		add	a0,a1,a2
 147:lib/tinymaix/src/tm_layers.c ****                         sbuf[sidx+k] = sptr[k_oft[k]];
 1373              		.loc 1 147 48 discriminator 3
 1374 05f0 0506     		addi	a2,a2,1
 1375              	.LVL142:
 148:lib/tinymaix/src/tm_layers.c ****                     }
 1376              		.loc 1 148 38 discriminator 3
 1377 05f2 23001501 		sb	a7,0(a0)
 1378              	.LVL143:
 1379              	.L58:
 147:lib/tinymaix/src/tm_layers.c ****                         sbuf[sidx+k] = sptr[k_oft[k]];
 1380              		.loc 1 147 21 discriminator 1
 1381 05f6 E343A6FF 		blt	a2,s10,.L55
 1382              	.LBE136:
 150:lib/tinymaix/src/tm_layers.c ****                     sptr = sptr_base + (dmul?(cc+1)/dmul:(cc+1));
 1383              		.loc 1 150 21 is_stmt 1
 1384              	.LVL144:
 151:lib/tinymaix/src/tm_layers.c ****                 }
 1385              		.loc 1 151 21
 1386 05fa 0507     		addi	a4,a4,1
 1387              	.LVL145:
 1388 05fc BA86     		mv	a3,a4
 1389              	.LVL146:
 151:lib/tinymaix/src/tm_layers.c ****                 }
 1390              		.loc 1 151 57 is_stmt 0
 1391 05fe 63840A00 		beq	s5,zero,.L57
 151:lib/tinymaix/src/tm_layers.c ****                 }
 1392              		.loc 1 151 52 discriminator 1
 1393 0602 B3465703 		div	a3,a4,s5
 1394              	.L57:
 151:lib/tinymaix/src/tm_layers.c ****                 }
 1395              		.loc 1 151 26 discriminator 4
 1396 0606 BE96     		add	a3,a5,a3
 1397              	.LVL147:
 1398 0608 EA95     		add	a1,a1,s10
 1399              	.LVL148:
 1400 060a 55BF     		j	.L54
 1401              	.LVL149:
GAS LISTING C:\Users\Jesper\AppData\Local\Temp\cc1iO6kH.s 			page 39


 1402              	.L100:
 1403              	.LBB137:
 147:lib/tinymaix/src/tm_layers.c ****                         sbuf[sidx+k] = sptr[k_oft[k]];
 1404              		.loc 1 147 30
 1405 060c 0146     		li	a2,0
 1406 060e E5B7     		j	.L58
 1407              	.LVL150:
 1408              	.L53:
 1409              	.LBE137:
 1410              	.LBE138:
 1411              	.LBE166:
 1412              	.LBB167:
 153:lib/tinymaix/src/tm_layers.c ****                 int _ky0 = src_y0<0 ? -src_y0 : 0;
 1413              		.loc 1 153 43 is_stmt 1 discriminator 4
 154:lib/tinymaix/src/tm_layers.c ****                 int _kx0 = src_x0<0 ? -src_x0 : 0;
 1414              		.loc 1 154 17 discriminator 4
 155:lib/tinymaix/src/tm_layers.c ****                 int _ky1 = in->h-src_y0>kh ? kh : in->h-src_y0;
 1415              		.loc 1 155 17 discriminator 4
 155:lib/tinymaix/src/tm_layers.c ****                 int _ky1 = in->h-src_y0>kh ? kh : in->h-src_y0;
 1416              		.loc 1 155 47 is_stmt 0 discriminator 4
 1417 0610 0257     		lw	a4,32(sp)
 1418              	.LVL151:
 1419 0612 93D8FB41 		srai	a7,s7,31
 156:lib/tinymaix/src/tm_layers.c ****                 int _kx1 = in->w-src_x0>kw ? kw : in->w-src_x0;
 1420              		.loc 1 156 33 discriminator 4
 1421 0616 B38D6D41 		sub	s11,s11,s6
 1422              	.LVL152:
 155:lib/tinymaix/src/tm_layers.c ****                 int _ky1 = in->h-src_y0>kh ? kh : in->h-src_y0;
 1423              		.loc 1 155 47 discriminator 4
 1424 061a B3F8E800 		and	a7,a7,a4
 1425              	.LVL153:
 156:lib/tinymaix/src/tm_layers.c ****                 int _kx1 = in->w-src_x0>kw ? kw : in->w-src_x0;
 1426              		.loc 1 156 17 is_stmt 1 discriminator 4
 156:lib/tinymaix/src/tm_layers.c ****                 int _kx1 = in->w-src_x0>kw ? kw : in->w-src_x0;
 1427              		.loc 1 156 21 is_stmt 0 discriminator 4
 1428 061e 6247     		lw	a4,24(sp)
 1429 0620 6353B701 		ble	s11,a4,.L62
 1430 0624 BA8D     		mv	s11,a4
 1431              	.L62:
 1432              	.LVL154:
 157:lib/tinymaix/src/tm_layers.c ****                 uint32_t sidx=0;    //sbuf:cho,chi,maxk //dw:chi==1;
 1433              		.loc 1 157 17 is_stmt 1 discriminator 4
 157:lib/tinymaix/src/tm_layers.c ****                 uint32_t sidx=0;    //sbuf:cho,chi,maxk //dw:chi==1;
 1434              		.loc 1 157 33 is_stmt 0 discriminator 4
 1435 0626 B38C7C41 		sub	s9,s9,s7
 1436              	.LVL155:
 157:lib/tinymaix/src/tm_layers.c ****                 uint32_t sidx=0;    //sbuf:cho,chi,maxk //dw:chi==1;
 1437              		.loc 1 157 21 discriminator 4
 1438 062a 63D39401 		ble	s9,s1,.L63
 1439 062e A68C     		mv	s9,s1
 1440              	.L63:
 163:lib/tinymaix/src/tm_layers.c ****             #elif (TM_MDL_TYPE == TM_MDL_FP32)||(TM_MDL_TYPE == TM_MDL_FP16)||(TM_MDL_TYPE == TM_MD
 1441              		.loc 1 163 17 discriminator 4
 1442 0630 EE45     		lw	a1,216(sp)
 1443 0632 6256     		lw	a2,56(sp)
 1444 0634 4285     		mv	a0,a6
 1445 0636 C6CE     		sw	a7,92(sp)
GAS LISTING C:\Users\Jesper\AppData\Local\Temp\cc1iO6kH.s 			page 40


 1446 0638 9ACC     		sw	t1,88(sp)
 1447 063a BECA     		sw	a5,84(sp)
 1448              	.LVL156:
 158:lib/tinymaix/src/tm_layers.c ****                 uint32_t s_step = (_ky1-_ky0)*(_kx1-_kx0);
 1449              		.loc 1 158 17 is_stmt 1 discriminator 4
 159:lib/tinymaix/src/tm_layers.c ****                 mtype_t* sptr_base = (mtype_t*)TM_MATP(in, src_y0, src_x0, 0);
 1450              		.loc 1 159 17 discriminator 4
 160:lib/tinymaix/src/tm_layers.c ****                 mtype_t* sptr = sptr_base;
 1451              		.loc 1 160 17 discriminator 4
 161:lib/tinymaix/src/tm_layers.c ****             #if TM_MDL_TYPE == TM_MDL_INT8
 1452              		.loc 1 161 17 discriminator 4
 163:lib/tinymaix/src/tm_layers.c ****             #elif (TM_MDL_TYPE == TM_MDL_FP32)||(TM_MDL_TYPE == TM_MDL_FP16)||(TM_MDL_TYPE == TM_MD
 1453              		.loc 1 163 17 discriminator 4
 1454 063c 97000000 		call	memset
 1454      E7800000 
 1455              	.LVL157:
 161:lib/tinymaix/src/tm_layers.c ****             #if TM_MDL_TYPE == TM_MDL_INT8
 1456              		.loc 1 161 26 is_stmt 0 discriminator 4
 1457 0644 D647     		lw	a5,84(sp)
 1458              	.LBB125:
 169:lib/tinymaix/src/tm_layers.c ****                     for(int _ky=_ky0; _ky<_ky1; _ky++){
 1459              		.loc 1 169 17 discriminator 4
 1460 0646 A645     		lw	a1,72(sp)
 1461 0648 6643     		lw	t1,88(sp)
 1462 064a F648     		lw	a7,92(sp)
 1463              	.LBE125:
 163:lib/tinymaix/src/tm_layers.c ****             #elif (TM_MDL_TYPE == TM_MDL_FP32)||(TM_MDL_TYPE == TM_MDL_FP16)||(TM_MDL_TYPE == TM_MD
 1464              		.loc 1 163 17 discriminator 4
 1465 064c 2A88     		mv	a6,a0
 169:lib/tinymaix/src/tm_layers.c ****                     for(int _ky=_ky0; _ky<_ky1; _ky++){
 1466              		.loc 1 169 17 is_stmt 1 discriminator 4
 1467              	.LBB132:
 169:lib/tinymaix/src/tm_layers.c ****                     for(int _ky=_ky0; _ky<_ky1; _ky++){
 1468              		.loc 1 169 22 discriminator 4
 1469              	.LVL158:
 1470              	.LBE132:
 161:lib/tinymaix/src/tm_layers.c ****             #if TM_MDL_TYPE == TM_MDL_INT8
 1471              		.loc 1 161 26 is_stmt 0 discriminator 4
 1472 064e BE86     		mv	a3,a5
 1473              	.LBB133:
 169:lib/tinymaix/src/tm_layers.c ****                     for(int _ky=_ky0; _ky<_ky1; _ky++){
 1474              		.loc 1 169 26 discriminator 4
 1475 0650 0147     		li	a4,0
 1476              	.LVL159:
 1477              	.L64:
 169:lib/tinymaix/src/tm_layers.c ****                     for(int _ky=_ky0; _ky<_ky1; _ky++){
 1478              		.loc 1 169 17 discriminator 2
 1479 0652 E35867F6 		bge	a4,t1,.L70
 1480 0656 AE8E     		mv	t4,a1
 1481 0658 164E     		lw	t3,68(sp)
 1482              	.LBB126:
 170:lib/tinymaix/src/tm_layers.c ****                         for(int _kx=_kx0; _kx<_kx1; _kx++){
 1483              		.loc 1 170 29
 1484 065a 2255     		lw	a0,40(sp)
 1485 065c 25A0     		j	.L69
 1486              	.LVL160:
 1487              	.L65:
GAS LISTING C:\Users\Jesper\AppData\Local\Temp\cc1iO6kH.s 			page 41


 1488              	.LBB127:
 1489              	.LBB128:
 172:lib/tinymaix/src/tm_layers.c ****                             sbuf[sidx+k] = sptr[k_oft[k]];
 1490              		.loc 1 172 29 is_stmt 1 discriminator 3
 173:lib/tinymaix/src/tm_layers.c ****                         }
 1491              		.loc 1 173 29 discriminator 3
 173:lib/tinymaix/src/tm_layers.c ****                         }
 1492              		.loc 1 173 54 is_stmt 0 discriminator 3
 1493 065e 131F2600 		slli	t5,a2,2
 1494 0662 729F     		add	t5,t3,t5
 173:lib/tinymaix/src/tm_layers.c ****                         }
 1495              		.loc 1 173 48 discriminator 3
 1496 0664 032F0F00 		lw	t5,0(t5)
 1497 0668 369F     		add	t5,a3,t5
 1498 066a 830F0F00 		lb	t6,0(t5)
 173:lib/tinymaix/src/tm_layers.c ****                         }
 1499              		.loc 1 173 42 discriminator 3
 1500 066e 338FCE00 		add	t5,t4,a2
 1501              	.LBE128:
 171:lib/tinymaix/src/tm_layers.c ****                             int k = _ky*kw + _kx;
 1502              		.loc 1 171 56 discriminator 3
 1503 0672 0506     		addi	a2,a2,1
 1504              	.LVL161:
 1505              	.LBB129:
 173:lib/tinymaix/src/tm_layers.c ****                         }
 1506              		.loc 1 173 42 discriminator 3
 1507 0674 2300FF01 		sb	t6,0(t5)
 1508              	.LVL162:
 1509              	.L66:
 1510              	.LBE129:
 171:lib/tinymaix/src/tm_layers.c ****                             int k = _ky*kw + _kx;
 1511              		.loc 1 171 25 discriminator 1
 1512 0678 E34396FF 		blt	a2,s9,.L65
 1513 067c 5256     		lw	a2,52(sp)
 1514              	.LVL163:
 1515              	.LBE127:
 170:lib/tinymaix/src/tm_layers.c ****                         for(int _kx=_kx0; _kx<_kx1; _kx++){
 1516              		.loc 1 170 52 discriminator 2
 1517 067e 0505     		addi	a0,a0,1
 1518              	.LVL164:
 1519 0680 A69E     		add	t4,t4,s1
 1520 0682 329E     		add	t3,t3,a2
 1521              	.LVL165:
 1522              	.L69:
 170:lib/tinymaix/src/tm_layers.c ****                         for(int _kx=_kx0; _kx<_kx1; _kx++){
 1523              		.loc 1 170 21 discriminator 1
 1524 0684 634BB501 		blt	a0,s11,.L102
 1525              	.LBE126:
 176:lib/tinymaix/src/tm_layers.c ****                     sptr = sptr_base + (dmul?(cc+1)/dmul:(cc+1));
 1526              		.loc 1 176 21 is_stmt 1
 1527              	.LVL166:
 177:lib/tinymaix/src/tm_layers.c ****                 }
 1528              		.loc 1 177 21
 1529 0688 0507     		addi	a4,a4,1
 1530              	.LVL167:
 1531 068a BA86     		mv	a3,a4
 1532              	.LVL168:
GAS LISTING C:\Users\Jesper\AppData\Local\Temp\cc1iO6kH.s 			page 42


 177:lib/tinymaix/src/tm_layers.c ****                 }
 1533              		.loc 1 177 57 is_stmt 0
 1534 068c 63840A00 		beq	s5,zero,.L68
 177:lib/tinymaix/src/tm_layers.c ****                 }
 1535              		.loc 1 177 52 discriminator 1
 1536 0690 B3465703 		div	a3,a4,s5
 1537              	.L68:
 177:lib/tinymaix/src/tm_layers.c ****                 }
 1538              		.loc 1 177 26 discriminator 4
 1539 0694 BE96     		add	a3,a5,a3
 1540              	.LVL169:
 1541 0696 EA95     		add	a1,a1,s10
 1542              	.LVL170:
 1543 0698 6DBF     		j	.L64
 1544              	.LVL171:
 1545              	.L102:
 1546              	.LBB131:
 1547              	.LBB130:
 171:lib/tinymaix/src/tm_layers.c ****                             int k = _ky*kw + _kx;
 1548              		.loc 1 171 33
 1549 069a 4686     		mv	a2,a7
 1550 069c F1BF     		j	.L66
 1551              	.LVL172:
 1552              	.L59:
 1553              	.LBE130:
 1554              	.LBE131:
 1555              	.LBE133:
 1556              	.LBE167:
 182:lib/tinymaix/src/tm_layers.c ****                 for(int c=0; c<out->c; c++){
 1557              		.loc 1 182 28 discriminator 1
 1558 069e E3850AF2 		beq	s5,zero,.L60
 1559 06a2 2247     		lw	a4,8(sp)
 1560 06a4 B248     		lw	a7,12(sp)
 1561 06a6 0645     		lw	a0,64(sp)
 182:lib/tinymaix/src/tm_layers.c ****                 for(int c=0; c<out->c; c++){
 1562              		.loc 1 182 28
 1563 06a8 A286     		mv	a3,s0
 181:lib/tinymaix/src/tm_layers.c ****             if(maxk*chi==9 && dmul){ //simple opt for 3x3 dwconv
 1564              		.loc 1 181 22
 1565 06aa 4286     		mv	a2,a6
 1566              	.LBB168:
 1567              	.LBB169:
 1568              	.LBB170:
 1569              	.LBB171:
 1570              	.LBB172:
 171:lib/tinymaix/src/arch_cpu.h ****         case TM_ACT_RELU:
 1571              		.loc 2 171 9
 1572 06ac 054E     		li	t3,1
 1573 06ae 8D4E     		li	t4,3
 180:lib/tinymaix/src/arch_cpu.h ****         #endif
 1574              		.loc 2 180 18
 1575 06b0 130F0060 		li	t5,1536
 1576              	.LVL173:
 1577              	.L71:
 1578              	.LBE172:
 1579              	.LBE171:
 1580              	.LBE170:
GAS LISTING C:\Users\Jesper\AppData\Local\Temp\cc1iO6kH.s 			page 43


 1581              	.LBE169:
 183:lib/tinymaix/src/tm_layers.c ****                     wtype_t* kptr = (wtype_t*)w + c*chi*maxk;//TM_PERF_START(t_dotp);
 1582              		.loc 1 183 35 discriminator 1
 1583 06b4 83556900 		lhu	a1,6(s2)
 183:lib/tinymaix/src/tm_layers.c ****                     wtype_t* kptr = (wtype_t*)w + c*chi*maxk;//TM_PERF_START(t_dotp);
 1584              		.loc 1 183 17 discriminator 1
 1585 06b8 B3878640 		sub	a5,a3,s0
 1586 06bc 63CCB700 		blt	a5,a1,.L78
 1587              	.LVL174:
 1588              	.L79:
 1589              	.LBE168:
 197:lib/tinymaix/src/tm_layers.c ****         }
 1590              		.loc 1 197 13 is_stmt 1 discriminator 2
 197:lib/tinymaix/src/tm_layers.c ****         }
 1591              		.loc 1 197 76 discriminator 2
 1592              	.LBE196:
 137:lib/tinymaix/src/tm_layers.c ****             int src_x0 = sx*x - pad_left;
 1593              		.loc 1 137 38 is_stmt 0 discriminator 2
 1594 06c0 F247     		lw	a5,28(sp)
 1595 06c2 3257     		lw	a4,44(sp)
 1596 06c4 3684     		mv	s0,a3
 1597 06c6 8507     		addi	a5,a5,1
 1598 06c8 3ECE     		sw	a5,28(sp)
 1599              	.LVL175:
 1600 06ca 8257     		lw	a5,32(sp)
 1601              	.LVL176:
 1602 06cc BA9B     		add	s7,s7,a4
 1603              	.LVL177:
 1604 06ce 998F     		sub	a5,a5,a4
 1605 06d0 3ED0     		sw	a5,32(sp)
 1606 06d2 41BD     		j	.L52
 1607              	.LVL178:
 1608              	.L78:
 1609              	.LBB197:
 1610              	.LBB191:
 1611              	.LBB189:
 184:lib/tinymaix/src/tm_layers.c ****                     tm_dot_prod_3x3x1(sptr, kptr, &sum);//TM_PERF_ADD(t_dotp);TM_PERF_START(t_post)
 1612              		.loc 1 184 21 is_stmt 1 discriminator 3
 185:lib/tinymaix/src/tm_layers.c ****                     tm_postprocess_sum(1, &sum, b + c, act, outp, SUMSCALE, OUTSCALE, out_zp); outp
 1613              		.loc 1 185 21 discriminator 3
 1614              	.LBB181:
 1615              	.LBB182:
  82:lib/tinymaix/src/arch_cpu.h ****         sptr[3]*kptr[3] + sptr[4]*kptr[4] + sptr[5]*kptr[5] + \
 1616              		.loc 2 82 5 discriminator 3
  85:lib/tinymaix/src/arch_cpu.h **** }
 1617              		.loc 2 85 5 discriminator 3
 1618              	.LBE182:
 1619              	.LBE181:
 186:lib/tinymaix/src/tm_layers.c ****                     sptr += maxk; //dwconv need move step
 1620              		.loc 1 186 21 discriminator 3
 1621              	.LBB184:
 1622              	.LBB177:
 1623              	.LBB173:
 164:lib/tinymaix/src/arch_cpu.h ****         sum += bs[i];
 1624              		.loc 2 164 9 discriminator 3
 165:lib/tinymaix/src/arch_cpu.h ****         #if !TM_FASTSCALE
 1625              		.loc 2 165 9 discriminator 3
GAS LISTING C:\Users\Jesper\AppData\Local\Temp\cc1iO6kH.s 			page 44


 169:lib/tinymaix/src/arch_cpu.h ****         #endif
 1626              		.loc 2 169 13 discriminator 3
 1627              	.LBE173:
 1628              	.LBE177:
 1629              	.LBE184:
 1630              	.LBB185:
 1631              	.LBB183:
  82:lib/tinymaix/src/arch_cpu.h ****         sptr[3]*kptr[3] + sptr[4]*kptr[4] + sptr[5]*kptr[5] + \
 1632              		.loc 2 82 19 is_stmt 0 discriminator 3
 1633 06d4 83020600 		lb	t0,0(a2)
  82:lib/tinymaix/src/arch_cpu.h ****         sptr[3]*kptr[3] + sptr[4]*kptr[4] + sptr[5]*kptr[5] + \
 1634              		.loc 2 82 27 discriminator 3
 1635 06d8 83070700 		lb	a5,0(a4)
  82:lib/tinymaix/src/arch_cpu.h ****         sptr[3]*kptr[3] + sptr[4]*kptr[4] + sptr[5]*kptr[5] + \
 1636              		.loc 2 82 45 discriminator 3
 1637 06dc 830F1700 		lb	t6,1(a4)
  82:lib/tinymaix/src/arch_cpu.h ****         sptr[3]*kptr[3] + sptr[4]*kptr[4] + sptr[5]*kptr[5] + \
 1638              		.loc 2 82 63 discriminator 3
 1639 06e0 83052700 		lb	a1,2(a4)
  82:lib/tinymaix/src/arch_cpu.h ****         sptr[3]*kptr[3] + sptr[4]*kptr[4] + sptr[5]*kptr[5] + \
 1640              		.loc 2 82 22 discriminator 3
 1641 06e4 B383F202 		mul	t2,t0,a5
  82:lib/tinymaix/src/arch_cpu.h ****         sptr[3]*kptr[3] + sptr[4]*kptr[4] + sptr[5]*kptr[5] + \
 1642              		.loc 2 82 37 discriminator 3
 1643 06e8 83071600 		lb	a5,1(a2)
  82:lib/tinymaix/src/arch_cpu.h ****         sptr[3]*kptr[3] + sptr[4]*kptr[4] + sptr[5]*kptr[5] + \
 1644              		.loc 2 82 40 discriminator 3
 1645 06ec B38FF703 		mul	t6,a5,t6
  82:lib/tinymaix/src/arch_cpu.h ****         sptr[3]*kptr[3] + sptr[4]*kptr[4] + sptr[5]*kptr[5] + \
 1646              		.loc 2 82 55 discriminator 3
 1647 06f0 83072600 		lb	a5,2(a2)
  82:lib/tinymaix/src/arch_cpu.h ****         sptr[3]*kptr[3] + sptr[4]*kptr[4] + sptr[5]*kptr[5] + \
 1648              		.loc 2 82 58 discriminator 3
 1649 06f4 B385B702 		mul	a1,a5,a1
 1650              	.LVL179:
  82:lib/tinymaix/src/arch_cpu.h ****         sptr[3]*kptr[3] + sptr[4]*kptr[4] + sptr[5]*kptr[5] + \
 1651              		.loc 2 82 31 discriminator 3
 1652 06f8 B382F301 		add	t0,t2,t6
  83:lib/tinymaix/src/arch_cpu.h ****         sptr[6]*kptr[6] + sptr[7]*kptr[7] + sptr[8]*kptr[8] ;
 1653              		.loc 2 83 13 discriminator 3
 1654 06fc 83073600 		lb	a5,3(a2)
 1655              	.LVL180:
  83:lib/tinymaix/src/arch_cpu.h ****         sptr[6]*kptr[6] + sptr[7]*kptr[7] + sptr[8]*kptr[8] ;
 1656              		.loc 2 83 21 discriminator 3
 1657 0700 83033700 		lb	t2,3(a4)
 1658              	.LVL181:
  82:lib/tinymaix/src/arch_cpu.h ****         sptr[3]*kptr[3] + sptr[4]*kptr[4] + sptr[5]*kptr[5] + \
 1659              		.loc 2 82 49 discriminator 3
 1660 0704 B38FB200 		add	t6,t0,a1
  83:lib/tinymaix/src/arch_cpu.h ****         sptr[6]*kptr[6] + sptr[7]*kptr[7] + sptr[8]*kptr[8] ;
 1661              		.loc 2 83 16 discriminator 3
 1662 0708 B3837702 		mul	t2,a5,t2
 1663              	.LVL182:
  83:lib/tinymaix/src/arch_cpu.h ****         sptr[6]*kptr[6] + sptr[7]*kptr[7] + sptr[8]*kptr[8] ;
 1664              		.loc 2 83 39 discriminator 3
 1665 070c 83024700 		lb	t0,4(a4)
  83:lib/tinymaix/src/arch_cpu.h ****         sptr[6]*kptr[6] + sptr[7]*kptr[7] + sptr[8]*kptr[8] ;
GAS LISTING C:\Users\Jesper\AppData\Local\Temp\cc1iO6kH.s 			page 45


 1666              		.loc 2 83 31 discriminator 3
 1667 0710 83074600 		lb	a5,4(a2)
 1668              	.LVL183:
  83:lib/tinymaix/src/arch_cpu.h ****         sptr[6]*kptr[6] + sptr[7]*kptr[7] + sptr[8]*kptr[8] ;
 1669              		.loc 2 83 34 discriminator 3
 1670 0714 B3825702 		mul	t0,a5,t0
  82:lib/tinymaix/src/arch_cpu.h ****         sptr[3]*kptr[3] + sptr[4]*kptr[4] + sptr[5]*kptr[5] + \
 1671              		.loc 2 82 67 discriminator 3
 1672 0718 B3857F00 		add	a1,t6,t2
 1673              	.LVL184:
  83:lib/tinymaix/src/arch_cpu.h ****         sptr[6]*kptr[6] + sptr[7]*kptr[7] + sptr[8]*kptr[8] ;
 1674              		.loc 2 83 49 discriminator 3
 1675 071c 83075600 		lb	a5,5(a2)
  83:lib/tinymaix/src/arch_cpu.h ****         sptr[6]*kptr[6] + sptr[7]*kptr[7] + sptr[8]*kptr[8] ;
 1676              		.loc 2 83 57 discriminator 3
 1677 0720 830F5700 		lb	t6,5(a4)
  83:lib/tinymaix/src/arch_cpu.h ****         sptr[6]*kptr[6] + sptr[7]*kptr[7] + sptr[8]*kptr[8] ;
 1678              		.loc 2 83 25 discriminator 3
 1679 0724 B3835500 		add	t2,a1,t0
  83:lib/tinymaix/src/arch_cpu.h ****         sptr[6]*kptr[6] + sptr[7]*kptr[7] + sptr[8]*kptr[8] ;
 1680              		.loc 2 83 52 discriminator 3
 1681 0728 B38FF703 		mul	t6,a5,t6
  84:lib/tinymaix/src/arch_cpu.h ****     return;
 1682              		.loc 2 84 21 discriminator 3
 1683 072c 83056700 		lb	a1,6(a4)
  84:lib/tinymaix/src/arch_cpu.h ****     return;
 1684              		.loc 2 84 13 discriminator 3
 1685 0730 83076600 		lb	a5,6(a2)
  84:lib/tinymaix/src/arch_cpu.h ****     return;
 1686              		.loc 2 84 16 discriminator 3
 1687 0734 B385B702 		mul	a1,a5,a1
  83:lib/tinymaix/src/arch_cpu.h ****         sptr[6]*kptr[6] + sptr[7]*kptr[7] + sptr[8]*kptr[8] ;
 1688              		.loc 2 83 43 discriminator 3
 1689 0738 B382F301 		add	t0,t2,t6
  84:lib/tinymaix/src/arch_cpu.h ****     return;
 1690              		.loc 2 84 31 discriminator 3
 1691 073c 83077600 		lb	a5,7(a2)
 1692              	.LVL185:
  83:lib/tinymaix/src/arch_cpu.h ****         sptr[6]*kptr[6] + sptr[7]*kptr[7] + sptr[8]*kptr[8] ;
 1693              		.loc 2 83 61 discriminator 3
 1694 0740 B38FB200 		add	t6,t0,a1
  84:lib/tinymaix/src/arch_cpu.h ****     return;
 1695              		.loc 2 84 39 discriminator 3
 1696 0744 83057700 		lb	a1,7(a4)
 1697              	.LVL186:
  84:lib/tinymaix/src/arch_cpu.h ****     return;
 1698              		.loc 2 84 34 discriminator 3
 1699 0748 B385B702 		mul	a1,a5,a1
 1700              	.LVL187:
  84:lib/tinymaix/src/arch_cpu.h ****     return;
 1701              		.loc 2 84 49 discriminator 3
 1702 074c 83078600 		lb	a5,8(a2)
 1703              	.LVL188:
  84:lib/tinymaix/src/arch_cpu.h ****     return;
 1704              		.loc 2 84 25 discriminator 3
 1705 0750 FE95     		add	a1,t6,a1
  84:lib/tinymaix/src/arch_cpu.h ****     return;
GAS LISTING C:\Users\Jesper\AppData\Local\Temp\cc1iO6kH.s 			page 46


 1706              		.loc 2 84 57 discriminator 3
 1707 0752 830F8700 		lb	t6,8(a4)
  84:lib/tinymaix/src/arch_cpu.h ****     return;
 1708              		.loc 2 84 52 discriminator 3
 1709 0756 B387F703 		mul	a5,a5,t6
 1710              	.LVL189:
  84:lib/tinymaix/src/arch_cpu.h ****     return;
 1711              		.loc 2 84 43 discriminator 3
 1712 075a BE95     		add	a1,a1,a5
 1713              	.LBE183:
 1714              	.LBE185:
 1715              	.LBB186:
 1716              	.LBB178:
 1717              	.LBB174:
 165:lib/tinymaix/src/arch_cpu.h ****         #if !TM_FASTSCALE
 1718              		.loc 2 165 13 discriminator 3
 1719 075c 83A70800 		lw	a5,0(a7)
 1720              	.LVL190:
 1721 0760 BE95     		add	a1,a1,a5
 169:lib/tinymaix/src/arch_cpu.h ****         #endif
 1722              		.loc 2 169 23 discriminator 3
 1723 0762 1C41     		lw	a5,0(a0)
 169:lib/tinymaix/src/arch_cpu.h ****         #endif
 1724              		.loc 2 169 34 discriminator 3
 1725 0764 A205     		slli	a1,a1,8
 169:lib/tinymaix/src/arch_cpu.h ****         #endif
 1726              		.loc 2 169 23 discriminator 3
 1727 0766 B3C5F502 		div	a1,a1,a5
 1728              	.LVL191:
 171:lib/tinymaix/src/arch_cpu.h ****         case TM_ACT_RELU:
 1729              		.loc 2 171 9 is_stmt 1 discriminator 3
 1730 076a 6382C903 		beq	s3,t3,.L72
 171:lib/tinymaix/src/arch_cpu.h ****         case TM_ACT_RELU:
 1731              		.loc 2 171 9 is_stmt 0
 1732 076e 6384D903 		beq	s3,t4,.L73
 1733              	.LVL192:
 1734              	.L74:
 189:lib/tinymaix/src/arch_cpu.h ****         #endif
 1735              		.loc 2 189 13 is_stmt 1
 189:lib/tinymaix/src/arch_cpu.h ****         #endif
 1736              		.loc 2 189 39 is_stmt 0
 1737 0772 9247     		lw	a5,4(sp)
 1738              	.LBE174:
 1739              	.LBE178:
 1740              	.LBE186:
 186:lib/tinymaix/src/tm_layers.c ****                     sptr += maxk; //dwconv need move step
 1741              		.loc 1 186 100
 1742 0774 8506     		addi	a3,a3,1
 187:lib/tinymaix/src/tm_layers.c ****                 }
 1743              		.loc 1 187 26
 1744 0776 6A96     		add	a2,a2,s10
 1745              	.LVL193:
 1746 0778 2507     		addi	a4,a4,9
 1747              	.LVL194:
 1748 077a 9108     		addi	a7,a7,4
 1749              	.LVL195:
 1750 077c 1105     		addi	a0,a0,4
GAS LISTING C:\Users\Jesper\AppData\Local\Temp\cc1iO6kH.s 			page 47


 1751              	.LBB187:
 1752              	.LBB179:
 1753              	.LBB175:
 189:lib/tinymaix/src/arch_cpu.h ****         #endif
 1754              		.loc 2 189 39
 1755 077e B385B702 		mul	a1,a5,a1
 1756              	.LVL196:
 189:lib/tinymaix/src/arch_cpu.h ****         #endif
 1757              		.loc 2 189 88
 1758 0782 8E57     		lw	a5,224(sp)
 189:lib/tinymaix/src/arch_cpu.h ****         #endif
 1759              		.loc 2 189 46
 1760 0784 C185     		srai	a1,a1,16
 189:lib/tinymaix/src/arch_cpu.h ****         #endif
 1761              		.loc 2 189 88
 1762 0786 BE95     		add	a1,a1,a5
 189:lib/tinymaix/src/arch_cpu.h ****         #endif
 1763              		.loc 2 189 21
 1764 0788 A38FB6FE 		sb	a1,-1(a3)
 1765              	.LVL197:
 1766              	.LBE175:
 1767              	.LBE179:
 1768              	.LBE187:
 1769              	.LBE189:
 1770              	.LBE191:
 1771              	.LBE197:
 1772              	.LBE201:
 1773              	.LBE205:
 1774              	.LBE208:
 1775              		.loc 2 192 5 is_stmt 1
 1776              	.LBB209:
 1777              	.LBB206:
 1778              	.LBB202:
 1779              	.LBB198:
 1780              	.LBB192:
 1781              	.LBB190:
 186:lib/tinymaix/src/tm_layers.c ****                     sptr += maxk; //dwconv need move step
 1782              		.loc 1 186 96
 187:lib/tinymaix/src/tm_layers.c ****                 }
 1783              		.loc 1 187 21
 1784 078c 25B7     		j	.L71
 1785              	.LVL198:
 1786              	.L72:
 1787              	.LBB188:
 1788              	.LBB180:
 1789              	.LBB176:
 173:lib/tinymaix/src/arch_cpu.h ****             break;
 1790              		.loc 2 173 13
 173:lib/tinymaix/src/arch_cpu.h ****             break;
 1791              		.loc 2 173 18 is_stmt 0
 1792 078e E3D205FE 		bge	a1,zero,.L74
 1793 0792 8145     		li	a1,0
 1794              	.LVL199:
 174:lib/tinymaix/src/arch_cpu.h ****         case TM_ACT_RELU6:
 1795              		.loc 2 174 13 is_stmt 1
 1796 0794 F9BF     		j	.L74
 1797              	.LVL200:
GAS LISTING C:\Users\Jesper\AppData\Local\Temp\cc1iO6kH.s 			page 48


 1798              	.L73:
 176:lib/tinymaix/src/arch_cpu.h ****         #if (!TM_FASTSCALE)
 1799              		.loc 2 176 13
 176:lib/tinymaix/src/arch_cpu.h ****         #if (!TM_FASTSCALE)
 1800              		.loc 2 176 18 is_stmt 0
 1801 0796 63D30500 		bge	a1,zero,.L76
 1802 079a 8145     		li	a1,0
 1803              	.LVL201:
 1804              	.L76:
 180:lib/tinymaix/src/arch_cpu.h ****         #endif
 1805              		.loc 2 180 13 is_stmt 1
 180:lib/tinymaix/src/arch_cpu.h ****         #endif
 1806              		.loc 2 180 18 is_stmt 0
 1807 079c E35BBFFC 		ble	a1,t5,.L74
 1808 07a0 93050060 		li	a1,1536
 1809              	.LVL202:
 182:lib/tinymaix/src/arch_cpu.h ****         default:
 1810              		.loc 2 182 13 is_stmt 1
 1811 07a4 F9B7     		j	.L74
 1812              	.LVL203:
 1813              	.L92:
 1814              	.LBE176:
 1815              	.LBE180:
 1816              	.LBE188:
 1817              	.LBE190:
 1818              	.LBE192:
 1819              	.LBB193:
 1820              	.LBB162:
 191:lib/tinymaix/src/tm_layers.c ****                     tm_dot_prod(sptr, kptr, maxk*chi, &sum);//TM_PERF_ADD(t_dotp);TM_PERF_START(t_p
 1821              		.loc 1 191 21
 192:lib/tinymaix/src/tm_layers.c ****                     tm_postprocess_sum(1, &sum, b + c, act, outp, SUMSCALE, OUTSCALE, out_zp); outp
 1822              		.loc 1 192 21
 1823              	.LBB156:
 1824              	.LBB143:
  23:lib/tinymaix/src/arch_cpu.h ****     uint32_t i = 0;
 1825              		.loc 2 23 5
  24:lib/tinymaix/src/arch_cpu.h ****     uint32_t cnt = (size>>3)<<3;  //8
 1826              		.loc 2 24 5
  25:lib/tinymaix/src/arch_cpu.h ****     for(; i+8-1 <cnt; ){
 1827              		.loc 2 25 5
  26:lib/tinymaix/src/arch_cpu.h ****         sum += sptr[i]*kptr[i];i++;
 1828              		.loc 2 26 5 is_stmt 0
 1829 07a6 9D46     		li	a3,7
 1830              	.LVL204:
  25:lib/tinymaix/src/arch_cpu.h ****     for(; i+8-1 <cnt; ){
 1831              		.loc 2 25 14
 1832 07a8 93758CFF 		andi	a1,s8,-8
 1833              	.LVL205:
  26:lib/tinymaix/src/arch_cpu.h ****         sum += sptr[i]*kptr[i];i++;
 1834              		.loc 2 26 5 is_stmt 1
  25:lib/tinymaix/src/arch_cpu.h ****     for(; i+8-1 <cnt; ){
 1835              		.loc 2 25 14 is_stmt 0
 1836 07ac F687     		mv	a5,t4
 1837 07ae 4686     		mv	a2,a7
  23:lib/tinymaix/src/arch_cpu.h ****     uint32_t i = 0;
 1838              		.loc 2 23 15
 1839 07b0 0147     		li	a4,0
GAS LISTING C:\Users\Jesper\AppData\Local\Temp\cc1iO6kH.s 			page 49


  26:lib/tinymaix/src/arch_cpu.h ****         sum += sptr[i]*kptr[i];i++;
 1840              		.loc 2 26 5
 1841 07b2 B38D1641 		sub	s11,a3,a7
 1842              	.LVL206:
 1843              	.L80:
 1844 07b6 B386CD00 		add	a3,s11,a2
 1845 07ba 63E9B604 		bltu	a3,a1,.L81
 1846              	.LVL207:
 1847              	.L82:
  36:lib/tinymaix/src/arch_cpu.h ****         sum += sptr[i]*kptr[i]; 
 1848              		.loc 2 36 5
 1849 07be 63E2850D 		bgtu	s8,a1,.L83
  39:lib/tinymaix/src/arch_cpu.h ****     return;
 1850              		.loc 2 39 5 is_stmt 1
 1851              	.LVL208:
  40:lib/tinymaix/src/arch_cpu.h **** }
 1852              		.loc 2 40 5
 1853              	.LBE143:
 1854              	.LBE156:
 193:lib/tinymaix/src/tm_layers.c ****                     if(dmul) sptr += maxk; //dwconv need move step
 1855              		.loc 1 193 21
 1856              	.LBB157:
 1857              	.LBB152:
 1858              	.LBB148:
 164:lib/tinymaix/src/arch_cpu.h ****         sum += bs[i];
 1859              		.loc 2 164 9
 165:lib/tinymaix/src/arch_cpu.h ****         #if !TM_FASTSCALE
 1860              		.loc 2 165 9
 169:lib/tinymaix/src/arch_cpu.h ****         #endif
 1861              		.loc 2 169 13
 165:lib/tinymaix/src/arch_cpu.h ****         #if !TM_FASTSCALE
 1862              		.loc 2 165 13 is_stmt 0
 1863 07c2 83270F00 		lw	a5,0(t5)
 1864 07c6 3E97     		add	a4,a4,a5
 1865              	.LVL209:
 169:lib/tinymaix/src/arch_cpu.h ****         #endif
 1866              		.loc 2 169 34
 1867 07c8 93178700 		slli	a5,a4,8
 169:lib/tinymaix/src/arch_cpu.h ****         #endif
 1868              		.loc 2 169 23
 1869 07cc 03A70F00 		lw	a4,0(t6)
 1870              	.LVL210:
 1871 07d0 33C7E702 		div	a4,a5,a4
 1872              	.LVL211:
 171:lib/tinymaix/src/arch_cpu.h ****         case TM_ACT_RELU:
 1873              		.loc 2 171 9 is_stmt 1
 1874 07d4 6384590C 		beq	s3,t0,.L84
 1875 07d8 6386790C 		beq	s3,t2,.L85
 1876              	.LVL212:
 1877              	.L86:
 189:lib/tinymaix/src/arch_cpu.h ****         #endif
 1878              		.loc 2 189 13
 1879              	.LBE148:
 1880              	.LBE152:
 1881              	.LBE157:
 1882              	.LBE162:
 1883              	.LBE193:
GAS LISTING C:\Users\Jesper\AppData\Local\Temp\cc1iO6kH.s 			page 50


 1884              	.LBE198:
 1885              	.LBE202:
 1886              	.LBE206:
 1887              	.LBE209:
 1888              		.loc 2 192 5
 1889              	.LBB210:
 1890              	.LBB207:
 1891              	.LBB203:
 1892              	.LBB199:
 1893              	.LBB194:
 1894              	.LBB163:
 193:lib/tinymaix/src/tm_layers.c ****                     if(dmul) sptr += maxk; //dwconv need move step
 1895              		.loc 1 193 96
 194:lib/tinymaix/src/tm_layers.c ****                 }
 1896              		.loc 1 194 21
 194:lib/tinymaix/src/tm_layers.c ****                 }
 1897              		.loc 1 194 23 is_stmt 0
 1898 07dc 63830A00 		beq	s5,zero,.L90
 194:lib/tinymaix/src/tm_layers.c ****                 }
 1899              		.loc 1 194 30 is_stmt 1 discriminator 1
 194:lib/tinymaix/src/tm_layers.c ****                 }
 1900              		.loc 1 194 35 is_stmt 0 discriminator 1
 1901 07e0 EA98     		add	a7,a7,s10
 1902              	.LVL213:
 1903              	.L90:
 1904              	.LBB158:
 1905              	.LBB153:
 1906              	.LBB149:
 189:lib/tinymaix/src/arch_cpu.h ****         #endif
 1907              		.loc 2 189 39 discriminator 2
 1908 07e2 9246     		lw	a3,4(sp)
 189:lib/tinymaix/src/arch_cpu.h ****         #endif
 1909              		.loc 2 189 21 discriminator 2
 1910 07e4 B307A400 		add	a5,s0,a0
 1911 07e8 110F     		addi	t5,t5,4
 1912              	.LBE149:
 1913              	.LBE153:
 1914              	.LBE158:
 1915              	.LBE163:
 190:lib/tinymaix/src/tm_layers.c ****                     wtype_t* kptr = (wtype_t*)w + c*chi*maxk;//TM_PERF_START(t_dotp);
 1916              		.loc 1 190 41 discriminator 2
 1917 07ea 0505     		addi	a0,a0,1
 1918              	.LVL214:
 1919 07ec 910F     		addi	t6,t6,4
 1920 07ee E29E     		add	t4,t4,s8
 1921              	.LVL215:
 1922              	.LBB164:
 1923              	.LBB159:
 1924              	.LBB154:
 1925              	.LBB150:
 189:lib/tinymaix/src/arch_cpu.h ****         #endif
 1926              		.loc 2 189 39 discriminator 2
 1927 07f0 3387E602 		mul	a4,a3,a4
 189:lib/tinymaix/src/arch_cpu.h ****         #endif
 1928              		.loc 2 189 88 discriminator 2
 1929 07f4 8E56     		lw	a3,224(sp)
 189:lib/tinymaix/src/arch_cpu.h ****         #endif
GAS LISTING C:\Users\Jesper\AppData\Local\Temp\cc1iO6kH.s 			page 51


 1930              		.loc 2 189 46 discriminator 2
 1931 07f6 4187     		srai	a4,a4,16
 189:lib/tinymaix/src/arch_cpu.h ****         #endif
 1932              		.loc 2 189 88 discriminator 2
 1933 07f8 3697     		add	a4,a4,a3
 189:lib/tinymaix/src/arch_cpu.h ****         #endif
 1934              		.loc 2 189 21 discriminator 2
 1935 07fa 2380E700 		sb	a4,0(a5)
 1936              	.LVL216:
 1937              	.L91:
 1938              	.LBE150:
 1939              	.LBE154:
 1940              	.LBE159:
 1941              	.LBE164:
 190:lib/tinymaix/src/tm_layers.c ****                     wtype_t* kptr = (wtype_t*)w + c*chi*maxk;//TM_PERF_START(t_dotp);
 1942              		.loc 1 190 35 discriminator 1
 1943 07fe 83576900 		lhu	a5,6(s2)
 1944 0802 B306A400 		add	a3,s0,a0
 1945              	.LVL217:
 190:lib/tinymaix/src/tm_layers.c ****                     wtype_t* kptr = (wtype_t*)w + c*chi*maxk;//TM_PERF_START(t_dotp);
 1946              		.loc 1 190 17 discriminator 1
 1947 0806 E340F5FA 		bgt	a5,a0,.L92
 1948 080a 5DBD     		j	.L79
 1949              	.LVL218:
 1950              	.L81:
 1951              	.LBB165:
 1952              	.LBB160:
 1953              	.LBB144:
  27:lib/tinymaix/src/arch_cpu.h ****         sum += sptr[i]*kptr[i];i++;
 1954              		.loc 2 27 9 is_stmt 1
  27:lib/tinymaix/src/arch_cpu.h ****         sum += sptr[i]*kptr[i];i++;
 1955              		.loc 2 27 28 is_stmt 0
 1956 080c 83860700 		lb	a3,0(a5)
  27:lib/tinymaix/src/arch_cpu.h ****         sum += sptr[i]*kptr[i];i++;
 1957              		.loc 2 27 20
 1958 0810 030E0600 		lb	t3,0(a2)
 1959 0814 A107     		addi	a5,a5,8
 1960 0816 2106     		addi	a2,a2,8
 1961              	.LVL219:
  27:lib/tinymaix/src/arch_cpu.h ****         sum += sptr[i]*kptr[i];i++;
 1962              		.loc 2 27 23
 1963 0818 330EDE02 		mul	t3,t3,a3
  28:lib/tinymaix/src/arch_cpu.h ****         sum += sptr[i]*kptr[i];i++;
 1964              		.loc 2 28 20
 1965 081c 830696FF 		lb	a3,-7(a2)
  27:lib/tinymaix/src/arch_cpu.h ****         sum += sptr[i]*kptr[i];i++;
 1966              		.loc 2 27 13
 1967 0820 7297     		add	a4,t3,a4
 1968              	.LVL220:
  27:lib/tinymaix/src/arch_cpu.h ****         sum += sptr[i]*kptr[i];i++;
 1969              		.loc 2 27 32 is_stmt 1
  28:lib/tinymaix/src/arch_cpu.h ****         sum += sptr[i]*kptr[i];i++;
 1970              		.loc 2 28 9
  28:lib/tinymaix/src/arch_cpu.h ****         sum += sptr[i]*kptr[i];i++;
 1971              		.loc 2 28 28 is_stmt 0
 1972 0822 038E97FF 		lb	t3,-7(a5)
  28:lib/tinymaix/src/arch_cpu.h ****         sum += sptr[i]*kptr[i];i++;
GAS LISTING C:\Users\Jesper\AppData\Local\Temp\cc1iO6kH.s 			page 52


 1973              		.loc 2 28 23
 1974 0826 338EC603 		mul	t3,a3,t3
  29:lib/tinymaix/src/arch_cpu.h ****         sum += sptr[i]*kptr[i];i++;
 1975              		.loc 2 29 20
 1976 082a 8306A6FF 		lb	a3,-6(a2)
  28:lib/tinymaix/src/arch_cpu.h ****         sum += sptr[i]*kptr[i];i++;
 1977              		.loc 2 28 13
 1978 082e 7297     		add	a4,t3,a4
 1979              	.LVL221:
  28:lib/tinymaix/src/arch_cpu.h ****         sum += sptr[i]*kptr[i];i++;
 1980              		.loc 2 28 32 is_stmt 1
  29:lib/tinymaix/src/arch_cpu.h ****         sum += sptr[i]*kptr[i];i++;
 1981              		.loc 2 29 9
  29:lib/tinymaix/src/arch_cpu.h ****         sum += sptr[i]*kptr[i];i++;
 1982              		.loc 2 29 28 is_stmt 0
 1983 0830 038EA7FF 		lb	t3,-6(a5)
  29:lib/tinymaix/src/arch_cpu.h ****         sum += sptr[i]*kptr[i];i++;
 1984              		.loc 2 29 23
 1985 0834 338EC603 		mul	t3,a3,t3
  30:lib/tinymaix/src/arch_cpu.h ****         sum += sptr[i]*kptr[i];i++;
 1986              		.loc 2 30 20
 1987 0838 8306B6FF 		lb	a3,-5(a2)
  29:lib/tinymaix/src/arch_cpu.h ****         sum += sptr[i]*kptr[i];i++;
 1988              		.loc 2 29 13
 1989 083c 3A9E     		add	t3,t3,a4
 1990              	.LVL222:
  29:lib/tinymaix/src/arch_cpu.h ****         sum += sptr[i]*kptr[i];i++;
 1991              		.loc 2 29 32 is_stmt 1
  30:lib/tinymaix/src/arch_cpu.h ****         sum += sptr[i]*kptr[i];i++;
 1992              		.loc 2 30 9
  30:lib/tinymaix/src/arch_cpu.h ****         sum += sptr[i]*kptr[i];i++;
 1993              		.loc 2 30 28 is_stmt 0
 1994 083e 0387B7FF 		lb	a4,-5(a5)
  30:lib/tinymaix/src/arch_cpu.h ****         sum += sptr[i]*kptr[i];i++;
 1995              		.loc 2 30 23
 1996 0842 3387E602 		mul	a4,a3,a4
  31:lib/tinymaix/src/arch_cpu.h ****         sum += sptr[i]*kptr[i];i++;
 1997              		.loc 2 31 20
 1998 0846 8306C6FF 		lb	a3,-4(a2)
  30:lib/tinymaix/src/arch_cpu.h ****         sum += sptr[i]*kptr[i];i++;
 1999              		.loc 2 30 13
 2000 084a 7297     		add	a4,a4,t3
 2001              	.LVL223:
  30:lib/tinymaix/src/arch_cpu.h ****         sum += sptr[i]*kptr[i];i++;
 2002              		.loc 2 30 32 is_stmt 1
  31:lib/tinymaix/src/arch_cpu.h ****         sum += sptr[i]*kptr[i];i++;
 2003              		.loc 2 31 9
  31:lib/tinymaix/src/arch_cpu.h ****         sum += sptr[i]*kptr[i];i++;
 2004              		.loc 2 31 28 is_stmt 0
 2005 084c 038EC7FF 		lb	t3,-4(a5)
  31:lib/tinymaix/src/arch_cpu.h ****         sum += sptr[i]*kptr[i];i++;
 2006              		.loc 2 31 23
 2007 0850 338EC603 		mul	t3,a3,t3
  32:lib/tinymaix/src/arch_cpu.h ****         sum += sptr[i]*kptr[i];i++;
 2008              		.loc 2 32 20
 2009 0854 8306D6FF 		lb	a3,-3(a2)
  31:lib/tinymaix/src/arch_cpu.h ****         sum += sptr[i]*kptr[i];i++;
GAS LISTING C:\Users\Jesper\AppData\Local\Temp\cc1iO6kH.s 			page 53


 2010              		.loc 2 31 13
 2011 0858 3A9E     		add	t3,t3,a4
 2012              	.LVL224:
  31:lib/tinymaix/src/arch_cpu.h ****         sum += sptr[i]*kptr[i];i++;
 2013              		.loc 2 31 32 is_stmt 1
  32:lib/tinymaix/src/arch_cpu.h ****         sum += sptr[i]*kptr[i];i++;
 2014              		.loc 2 32 9
  32:lib/tinymaix/src/arch_cpu.h ****         sum += sptr[i]*kptr[i];i++;
 2015              		.loc 2 32 28 is_stmt 0
 2016 085a 0387D7FF 		lb	a4,-3(a5)
  32:lib/tinymaix/src/arch_cpu.h ****         sum += sptr[i]*kptr[i];i++;
 2017              		.loc 2 32 23
 2018 085e 3387E602 		mul	a4,a3,a4
  33:lib/tinymaix/src/arch_cpu.h ****         sum += sptr[i]*kptr[i];i++;
 2019              		.loc 2 33 20
 2020 0862 8306E6FF 		lb	a3,-2(a2)
  32:lib/tinymaix/src/arch_cpu.h ****         sum += sptr[i]*kptr[i];i++;
 2021              		.loc 2 32 13
 2022 0866 7297     		add	a4,a4,t3
 2023              	.LVL225:
  32:lib/tinymaix/src/arch_cpu.h ****         sum += sptr[i]*kptr[i];i++;
 2024              		.loc 2 32 32 is_stmt 1
  33:lib/tinymaix/src/arch_cpu.h ****         sum += sptr[i]*kptr[i];i++;
 2025              		.loc 2 33 9
  33:lib/tinymaix/src/arch_cpu.h ****         sum += sptr[i]*kptr[i];i++;
 2026              		.loc 2 33 28 is_stmt 0
 2027 0868 038EE7FF 		lb	t3,-2(a5)
  33:lib/tinymaix/src/arch_cpu.h ****         sum += sptr[i]*kptr[i];i++;
 2028              		.loc 2 33 23
 2029 086c 338EC603 		mul	t3,a3,t3
  34:lib/tinymaix/src/arch_cpu.h ****     }
 2030              		.loc 2 34 20
 2031 0870 8306F6FF 		lb	a3,-1(a2)
  33:lib/tinymaix/src/arch_cpu.h ****         sum += sptr[i]*kptr[i];i++;
 2032              		.loc 2 33 13
 2033 0874 3A9E     		add	t3,t3,a4
 2034              	.LVL226:
  33:lib/tinymaix/src/arch_cpu.h ****         sum += sptr[i]*kptr[i];i++;
 2035              		.loc 2 33 32 is_stmt 1
  34:lib/tinymaix/src/arch_cpu.h ****     }
 2036              		.loc 2 34 9
  34:lib/tinymaix/src/arch_cpu.h ****     }
 2037              		.loc 2 34 28 is_stmt 0
 2038 0876 0387F7FF 		lb	a4,-1(a5)
  34:lib/tinymaix/src/arch_cpu.h ****     }
 2039              		.loc 2 34 23
 2040 087a 3387E602 		mul	a4,a3,a4
  34:lib/tinymaix/src/arch_cpu.h ****     }
 2041              		.loc 2 34 13
 2042 087e 7297     		add	a4,a4,t3
 2043              	.LVL227:
  34:lib/tinymaix/src/arch_cpu.h ****     }
 2044              		.loc 2 34 32 is_stmt 1
 2045 0880 1DBF     		j	.L80
 2046              	.LVL228:
 2047              	.L83:
  37:lib/tinymaix/src/arch_cpu.h ****     }
GAS LISTING C:\Users\Jesper\AppData\Local\Temp\cc1iO6kH.s 			page 54


 2048              		.loc 2 37 9
  37:lib/tinymaix/src/arch_cpu.h ****     }
 2049              		.loc 2 37 20 is_stmt 0
 2050 0882 B387B800 		add	a5,a7,a1
  37:lib/tinymaix/src/arch_cpu.h ****     }
 2051              		.loc 2 37 28
 2052 0886 B386BE00 		add	a3,t4,a1
  37:lib/tinymaix/src/arch_cpu.h ****     }
 2053              		.loc 2 37 20
 2054 088a 83870700 		lb	a5,0(a5)
  37:lib/tinymaix/src/arch_cpu.h ****     }
 2055              		.loc 2 37 28
 2056 088e 83860600 		lb	a3,0(a3)
  36:lib/tinymaix/src/arch_cpu.h ****         sum += sptr[i]*kptr[i]; 
 2057              		.loc 2 36 21
 2058 0892 8505     		addi	a1,a1,1
 2059              	.LVL229:
  37:lib/tinymaix/src/arch_cpu.h ****     }
 2060              		.loc 2 37 23
 2061 0894 B387D702 		mul	a5,a5,a3
  37:lib/tinymaix/src/arch_cpu.h ****     }
 2062              		.loc 2 37 13
 2063 0898 3E97     		add	a4,a4,a5
 2064              	.LVL230:
 2065 089a 15B7     		j	.L82
 2066              	.LVL231:
 2067              	.L84:
 2068              	.LBE144:
 2069              	.LBE160:
 2070              	.LBB161:
 2071              	.LBB155:
 2072              	.LBB151:
 173:lib/tinymaix/src/arch_cpu.h ****             break;
 2073              		.loc 2 173 13 is_stmt 1
 173:lib/tinymaix/src/arch_cpu.h ****             break;
 2074              		.loc 2 173 18 is_stmt 0
 2075 089c E35007F4 		bge	a4,zero,.L86
 2076 08a0 0147     		li	a4,0
 2077              	.LVL232:
 174:lib/tinymaix/src/arch_cpu.h ****         case TM_ACT_RELU6:
 2078              		.loc 2 174 13 is_stmt 1
 2079 08a2 2DBF     		j	.L86
 2080              	.LVL233:
 2081              	.L85:
 176:lib/tinymaix/src/arch_cpu.h ****         #if (!TM_FASTSCALE)
 2082              		.loc 2 176 13
 176:lib/tinymaix/src/arch_cpu.h ****         #if (!TM_FASTSCALE)
 2083              		.loc 2 176 18 is_stmt 0
 2084 08a4 63530700 		bge	a4,zero,.L88
 2085 08a8 0147     		li	a4,0
 2086              	.LVL234:
 2087              	.L88:
 180:lib/tinymaix/src/arch_cpu.h ****         #endif
 2088              		.loc 2 180 13 is_stmt 1
 180:lib/tinymaix/src/arch_cpu.h ****         #endif
 2089              		.loc 2 180 18 is_stmt 0
 2090 08aa E3D9ECF2 		ble	a4,s9,.L86
GAS LISTING C:\Users\Jesper\AppData\Local\Temp\cc1iO6kH.s 			page 55


 2091 08ae 13070060 		li	a4,1536
 2092              	.LVL235:
 182:lib/tinymaix/src/arch_cpu.h ****         default:
 2093              		.loc 2 182 13 is_stmt 1
 2094 08b2 2DB7     		j	.L86
 2095              	.LVL236:
 2096              	.L95:
 2097              	.LBE151:
 2098              	.LBE155:
 2099              	.LBE161:
 2100              	.LBE165:
 2101              	.LBE194:
 2102              	.LBE199:
 2103              	.LBE203:
 2104              	.LBE207:
 2105              	.LBE210:
  72:lib/tinymaix/src/tm_layers.c ****     if(act >= TM_ACT_MAXCNT) return TM_ERR_UNSUPPORT;
 2106              		.loc 1 72 32 is_stmt 0
 2107 08b4 1D45     		li	a0,7
 2108 08b6 81B9     		j	.L1
 2109              		.cfi_endproc
 2110              	.LFE33:
 2112              		.globl	__floatsisf
 2113              		.globl	__mulsf3
 2114              		.globl	__addsf3
 2115              		.section	.text.tml_gap,"ax",@progbits
 2116              		.align	1
 2117              		.weak	tml_gap
 2119              	tml_gap:
 2120              	.LFB34:
 203:lib/tinymaix/src/tm_layers.c **** 
 204:lib/tinymaix/src/tm_layers.c **** /*************************** TML_GAP **********************************/
 205:lib/tinymaix/src/tm_layers.c **** tm_err_t TM_WEAK tml_gap(tm_mat_t* in, tm_mat_t* out, sctype_t in_s, zptype_t in_zp, sctype_t out_s
 206:lib/tinymaix/src/tm_layers.c **** {   TM_DBGT_INIT();
 2121              		.loc 1 206 1 is_stmt 1
 2122              		.cfi_startproc
 2123              	.LVL237:
 2124              		.loc 1 206 5
 2125              		.loc 1 206 5
 2126              		.loc 1 206 5
 2127              		.loc 1 206 1 is_stmt 0
 2128 0000 7971     		addi	sp,sp,-48
 2129              	.LCFI3:
 2130              		.cfi_def_cfa_offset 48
 2131 0002 22D4     		sw	s0,40(sp)
 2132 0004 26D2     		sw	s1,36(sp)
 2133 0006 4AD0     		sw	s2,32(sp)
 2134 0008 4ECE     		sw	s3,28(sp)
 2135 000a 52CC     		sw	s4,24(sp)
 2136 000c 56CA     		sw	s5,20(sp)
 2137 000e 5EC6     		sw	s7,12(sp)
 2138 0010 06D6     		sw	ra,44(sp)
 2139 0012 5AC8     		sw	s6,16(sp)
 2140 0014 62C4     		sw	s8,8(sp)
 2141              		.cfi_offset 8, -8
 2142              		.cfi_offset 9, -12
 2143              		.cfi_offset 18, -16
GAS LISTING C:\Users\Jesper\AppData\Local\Temp\cc1iO6kH.s 			page 56


 2144              		.cfi_offset 19, -20
 2145              		.cfi_offset 20, -24
 2146              		.cfi_offset 21, -28
 2147              		.cfi_offset 23, -36
 2148              		.cfi_offset 1, -4
 2149              		.cfi_offset 22, -32
 2150              		.cfi_offset 24, -40
 2151              		.loc 1 206 1
 2152 0016 AA84     		mv	s1,a0
 2153 0018 AE8B     		mv	s7,a1
 2154 001a 3289     		mv	s2,a2
 2155 001c B68A     		mv	s5,a3
 2156 001e BA89     		mv	s3,a4
 2157 0020 3E8A     		mv	s4,a5
 2158              	.LBB211:
 207:lib/tinymaix/src/tm_layers.c ****     mtype_t* data;
 208:lib/tinymaix/src/tm_layers.c ****     for(int c=0; c <out->c; c++){
 2159              		.loc 1 208 13
 2160 0022 0144     		li	s0,0
 2161              	.LBE211:
 206:lib/tinymaix/src/tm_layers.c ****     mtype_t* data;
 2162              		.loc 1 206 5
 2163 0024 97000000 		call	get_time
 2163      E7800000 
 2164              	.LVL238:
 206:lib/tinymaix/src/tm_layers.c ****     mtype_t* data;
 2165              		.loc 1 206 19 is_stmt 1
 207:lib/tinymaix/src/tm_layers.c ****     mtype_t* data;
 2166              		.loc 1 207 5
 2167              		.loc 1 208 5
 2168              	.LBB220:
 2169              		.loc 1 208 9
 2170              	.L116:
 2171              		.loc 1 208 24 is_stmt 0 discriminator 1
 2172 002c 03D66B00 		lhu	a2,6(s7)
 2173              		.loc 1 208 5 discriminator 1
 2174 0030 634FC400 		bgt	a2,s0,.L120
 2175              	.LBE220:
 209:lib/tinymaix/src/tm_layers.c ****         sumtype_t sum = 0;
 210:lib/tinymaix/src/tm_layers.c ****         data = in->data + c;
 211:lib/tinymaix/src/tm_layers.c ****         for(int y=0; y <in->h; y++){
 212:lib/tinymaix/src/tm_layers.c ****             for(int x=0; x <in->w; x++){
 213:lib/tinymaix/src/tm_layers.c ****                 sum  += ((sumtype_t)(*data));
 214:lib/tinymaix/src/tm_layers.c ****                 data += out->c;
 215:lib/tinymaix/src/tm_layers.c ****             }
 216:lib/tinymaix/src/tm_layers.c ****         }
 217:lib/tinymaix/src/tm_layers.c ****     #if TM_MDL_TYPE == TM_MDL_INT8 || TM_MDL_TYPE == TM_MDL_INT16
 218:lib/tinymaix/src/tm_layers.c ****         out->data[c] = (mtype_t)((sum/((in->h)*(in->w))-in_zp)*in_s/out_s + out_zp); //requant
 219:lib/tinymaix/src/tm_layers.c ****     #elif TM_MDL_TYPE == TM_MDL_FP32 || TM_MDL_TYPE == TM_MDL_FP16
 220:lib/tinymaix/src/tm_layers.c ****         out->data[c] = (mtype_t)(sum/((in->h)*(in->w)));
 221:lib/tinymaix/src/tm_layers.c ****     //#else //#elif TM_MDL_TYPE == TM_MDL_FP8_143 || TM_MDL_TYPE == TM_MDL_FP8_152
 222:lib/tinymaix/src/tm_layers.c ****     #endif
 223:lib/tinymaix/src/tm_layers.c ****     }
 224:lib/tinymaix/src/tm_layers.c ****     return TM_OK;
 2176              		.loc 1 224 5 is_stmt 1
 225:lib/tinymaix/src/tm_layers.c **** }
 2177              		.loc 1 225 1 is_stmt 0
GAS LISTING C:\Users\Jesper\AppData\Local\Temp\cc1iO6kH.s 			page 57


 2178 0034 B250     		lw	ra,44(sp)
 2179              		.cfi_remember_state
 2180              		.cfi_restore 1
 2181 0036 2254     		lw	s0,40(sp)
 2182              		.cfi_restore 8
 2183              	.LVL239:
 2184 0038 9254     		lw	s1,36(sp)
 2185              		.cfi_restore 9
 2186              	.LVL240:
 2187 003a 0259     		lw	s2,32(sp)
 2188              		.cfi_restore 18
 2189              	.LVL241:
 2190 003c F249     		lw	s3,28(sp)
 2191              		.cfi_restore 19
 2192              	.LVL242:
 2193 003e 624A     		lw	s4,24(sp)
 2194              		.cfi_restore 20
 2195              	.LVL243:
 2196 0040 D24A     		lw	s5,20(sp)
 2197              		.cfi_restore 21
 2198              	.LVL244:
 2199 0042 424B     		lw	s6,16(sp)
 2200              		.cfi_restore 22
 2201 0044 B24B     		lw	s7,12(sp)
 2202              		.cfi_restore 23
 2203              	.LVL245:
 2204 0046 224C     		lw	s8,8(sp)
 2205              		.cfi_restore 24
 2206 0048 0145     		li	a0,0
 2207 004a 4561     		addi	sp,sp,48
 2208              	.LCFI4:
 2209              		.cfi_def_cfa_offset 0
 2210 004c 8280     		jr	ra
 2211              	.LVL246:
 2212              	.L120:
 2213              	.LCFI5:
 2214              		.cfi_restore_state
 2215              	.LBB221:
 2216              	.LBB212:
 209:lib/tinymaix/src/tm_layers.c ****         sumtype_t sum = 0;
 2217              		.loc 1 209 9 is_stmt 1
 210:lib/tinymaix/src/tm_layers.c ****         for(int y=0; y <in->h; y++){
 2218              		.loc 1 210 9
 2219 004e 83D64400 		lhu	a3,4(s1)
 210:lib/tinymaix/src/tm_layers.c ****         for(int y=0; y <in->h; y++){
 2220              		.loc 1 210 14 is_stmt 0
 2221 0052 9C44     		lw	a5,8(s1)
 2222              	.LBB213:
 211:lib/tinymaix/src/tm_layers.c ****             for(int x=0; x <in->w; x++){
 2223              		.loc 1 211 27
 2224 0054 03D72400 		lhu	a4,2(s1)
 2225 0058 3383C602 		mul	t1,a3,a2
 2226              	.LBE213:
 210:lib/tinymaix/src/tm_layers.c ****         for(int y=0; y <in->h; y++){
 2227              		.loc 1 210 14
 2228 005c A297     		add	a5,a5,s0
 2229              	.LVL247:
GAS LISTING C:\Users\Jesper\AppData\Local\Temp\cc1iO6kH.s 			page 58


 211:lib/tinymaix/src/tm_layers.c ****             for(int x=0; x <in->w; x++){
 2230              		.loc 1 211 9 is_stmt 1
 2231              	.LBB216:
 211:lib/tinymaix/src/tm_layers.c ****             for(int x=0; x <in->w; x++){
 2232              		.loc 1 211 13
 211:lib/tinymaix/src/tm_layers.c ****             for(int x=0; x <in->w; x++){
 2233              		.loc 1 211 17 is_stmt 0
 2234 005e 8145     		li	a1,0
 2235              	.LBE216:
 209:lib/tinymaix/src/tm_layers.c ****         data = in->data + c;
 2236              		.loc 1 209 19
 2237 0060 0145     		li	a0,0
 2238              	.LVL248:
 2239              	.L117:
 2240              	.LBB217:
 211:lib/tinymaix/src/tm_layers.c ****             for(int x=0; x <in->w; x++){
 2241              		.loc 1 211 9 discriminator 1
 2242 0062 63C7E506 		bgt	a4,a1,.L121
 2243              	.LBE217:
 218:lib/tinymaix/src/tm_layers.c ****     #elif TM_MDL_TYPE == TM_MDL_FP32 || TM_MDL_TYPE == TM_MDL_FP16
 2244              		.loc 1 218 9 is_stmt 1 discriminator 2
 218:lib/tinymaix/src/tm_layers.c ****     #elif TM_MDL_TYPE == TM_MDL_FP32 || TM_MDL_TYPE == TM_MDL_FP16
 2245              		.loc 1 218 22 is_stmt 0 discriminator 2
 2246 0066 03AB8B00 		lw	s6,8(s7)
 2247 006a 229B     		add	s6,s6,s0
 2248              	.LBE212:
 208:lib/tinymaix/src/tm_layers.c ****         sumtype_t sum = 0;
 2249              		.loc 1 208 30 discriminator 2
 2250 006c 0504     		addi	s0,s0,1
 2251              	.LVL249:
 2252              	.LBB219:
 218:lib/tinymaix/src/tm_layers.c ****     #elif TM_MDL_TYPE == TM_MDL_FP32 || TM_MDL_TYPE == TM_MDL_FP16
 2253              		.loc 1 218 47 discriminator 2
 2254 006e 3307D702 		mul	a4,a4,a3
 218:lib/tinymaix/src/tm_layers.c ****     #elif TM_MDL_TYPE == TM_MDL_FP32 || TM_MDL_TYPE == TM_MDL_FP16
 2255              		.loc 1 218 38 discriminator 2
 2256 0072 3345E502 		div	a0,a0,a4
 2257              	.LVL250:
 218:lib/tinymaix/src/tm_layers.c ****     #elif TM_MDL_TYPE == TM_MDL_FP32 || TM_MDL_TYPE == TM_MDL_FP16
 2258              		.loc 1 218 63 discriminator 2
 2259 0076 33055541 		sub	a0,a0,s5
 2260 007a 97000000 		call	__floatsisf
 2260      E7800000 
 2261              	.LVL251:
 2262 0082 CA85     		mv	a1,s2
 2263 0084 97000000 		call	__mulsf3
 2263      E7800000 
 2264              	.LVL252:
 218:lib/tinymaix/src/tm_layers.c ****     #elif TM_MDL_TYPE == TM_MDL_FP32 || TM_MDL_TYPE == TM_MDL_FP16
 2265              		.loc 1 218 68 discriminator 2
 2266 008c CE85     		mv	a1,s3
 2267 008e 97000000 		call	__divsf3
 2267      E7800000 
 2268              	.LVL253:
 2269 0096 2A8C     		mv	s8,a0
 218:lib/tinymaix/src/tm_layers.c ****     #elif TM_MDL_TYPE == TM_MDL_FP32 || TM_MDL_TYPE == TM_MDL_FP16
 2270              		.loc 1 218 75 discriminator 2
GAS LISTING C:\Users\Jesper\AppData\Local\Temp\cc1iO6kH.s 			page 59


 2271 0098 5285     		mv	a0,s4
 2272 009a 97000000 		call	__floatsisf
 2272      E7800000 
 2273              	.LVL254:
 2274 00a2 AA85     		mv	a1,a0
 2275 00a4 6285     		mv	a0,s8
 2276 00a6 97000000 		call	__addsf3
 2276      E7800000 
 2277              	.LVL255:
 218:lib/tinymaix/src/tm_layers.c ****     #elif TM_MDL_TYPE == TM_MDL_FP32 || TM_MDL_TYPE == TM_MDL_FP16
 2278              		.loc 1 218 24 discriminator 2
 2279 00ae 97000000 		call	__fixsfsi
 2279      E7800000 
 2280              	.LVL256:
 2281 00b6 2300AB00 		sb	a0,0(s6)
 2282 00ba 8DBF     		j	.L116
 2283              	.LVL257:
 2284              	.L118:
 2285              	.LBB218:
 2286              	.LBB214:
 213:lib/tinymaix/src/tm_layers.c ****                 data += out->c;
 2287              		.loc 1 213 17 is_stmt 1 discriminator 3
 213:lib/tinymaix/src/tm_layers.c ****                 data += out->c;
 2288              		.loc 1 213 26 is_stmt 0 discriminator 3
 2289 00bc 038E0800 		lb	t3,0(a7)
 212:lib/tinymaix/src/tm_layers.c ****                 sum  += ((sumtype_t)(*data));
 2290              		.loc 1 212 37 discriminator 3
 2291 00c0 0508     		addi	a6,a6,1
 2292              	.LVL258:
 214:lib/tinymaix/src/tm_layers.c ****             }
 2293              		.loc 1 214 22 discriminator 3
 2294 00c2 B298     		add	a7,a7,a2
 2295              	.LVL259:
 213:lib/tinymaix/src/tm_layers.c ****                 data += out->c;
 2296              		.loc 1 213 22 discriminator 3
 2297 00c4 7295     		add	a0,a0,t3
 2298              	.LVL260:
 214:lib/tinymaix/src/tm_layers.c ****             }
 2299              		.loc 1 214 17 is_stmt 1 discriminator 3
 2300              	.L119:
 212:lib/tinymaix/src/tm_layers.c ****                 sum  += ((sumtype_t)(*data));
 2301              		.loc 1 212 13 is_stmt 0 discriminator 1
 2302 00c6 E34BD8FE 		blt	a6,a3,.L118
 2303 00ca 9A97     		add	a5,a5,t1
 2304              	.LBE214:
 211:lib/tinymaix/src/tm_layers.c ****             for(int x=0; x <in->w; x++){
 2305              		.loc 1 211 33 discriminator 2
 2306 00cc 8505     		addi	a1,a1,1
 2307              	.LVL261:
 2308 00ce 51BF     		j	.L117
 2309              	.LVL262:
 2310              	.L121:
 2311 00d0 BE88     		mv	a7,a5
 2312              	.LBB215:
 212:lib/tinymaix/src/tm_layers.c ****                 sum  += ((sumtype_t)(*data));
 2313              		.loc 1 212 21
 2314 00d2 0148     		li	a6,0
GAS LISTING C:\Users\Jesper\AppData\Local\Temp\cc1iO6kH.s 			page 60


 2315 00d4 CDBF     		j	.L119
 2316              	.LBE215:
 2317              	.LBE218:
 2318              	.LBE219:
 2319              	.LBE221:
 2320              		.cfi_endproc
 2321              	.LFE34:
 2323              		.section	.text.tml_fc,"ax",@progbits
 2324              		.align	1
 2325              		.weak	tml_fc
 2327              	tml_fc:
 2328              	.LFB35:
 226:lib/tinymaix/src/tm_layers.c **** 
 227:lib/tinymaix/src/tm_layers.c **** /*************************** TML_FC **********************************/
 228:lib/tinymaix/src/tm_layers.c **** tm_err_t TM_WEAK tml_fc(tm_mat_t* in, tm_mat_t* out,  wtype_t* w, btype_t* b, \
 229:lib/tinymaix/src/tm_layers.c ****     sctype_t* ws, sctype_t in_s, zptype_t in_zp, sctype_t out_s, zptype_t out_zp)
 230:lib/tinymaix/src/tm_layers.c **** {   TM_DBGT_INIT();
 2329              		.loc 1 230 1 is_stmt 1
 2330              		.cfi_startproc
 2331              	.LVL263:
 2332              		.loc 1 230 5
 2333              		.loc 1 230 5
 2334              		.loc 1 230 5
 2335              		.loc 1 230 1 is_stmt 0
 2336 0000 3971     		addi	sp,sp,-64
 2337              	.LCFI6:
 2338              		.cfi_def_cfa_offset 64
 2339 0002 26DA     		sw	s1,52(sp)
 2340              		.cfi_offset 9, -12
 2341 0004 AA84     		mv	s1,a0
 2342 0006 22DC     		sw	s0,56(sp)
 2343 0008 4AD8     		sw	s2,48(sp)
 2344 000a 4ED6     		sw	s3,44(sp)
 2345 000c 52D4     		sw	s4,40(sp)
 2346 000e 56D2     		sw	s5,36(sp)
 2347 0010 5AD0     		sw	s6,32(sp)
 2348 0012 5ECE     		sw	s7,28(sp)
 2349 0014 62CC     		sw	s8,24(sp)
 2350 0016 66CA     		sw	s9,20(sp)
 2351 0018 06DE     		sw	ra,60(sp)
 2352 001a 6AC8     		sw	s10,16(sp)
 2353 001c 6EC6     		sw	s11,12(sp)
 2354              		.cfi_offset 8, -8
 2355              		.cfi_offset 18, -16
 2356              		.cfi_offset 19, -20
 2357              		.cfi_offset 20, -24
 2358              		.cfi_offset 21, -28
 2359              		.cfi_offset 22, -32
 2360              		.cfi_offset 23, -36
 2361              		.cfi_offset 24, -40
 2362              		.cfi_offset 25, -44
 2363              		.cfi_offset 1, -4
 2364              		.cfi_offset 26, -48
 2365              		.cfi_offset 27, -52
 2366              		.loc 1 230 1
 2367 001e AE8B     		mv	s7,a1
 2368 0020 3289     		mv	s2,a2
GAS LISTING C:\Users\Jesper\AppData\Local\Temp\cc1iO6kH.s 			page 61


 2369 0022 368B     		mv	s6,a3
 2370 0024 BA89     		mv	s3,a4
 2371 0026 3E8A     		mv	s4,a5
 2372 0028 C68A     		mv	s5,a7
 2373              		.loc 1 230 5
 2374 002a 97000000 		call	get_time
 2374      E7800000 
 2375              	.LVL264:
 2376              		.loc 1 230 19 is_stmt 1
 231:lib/tinymaix/src/tm_layers.c ****     mtype_t* data = in->data;
 2377              		.loc 1 231 5
 2378              		.loc 1 231 14 is_stmt 0
 2379 0032 03AC8400 		lw	s8,8(s1)
 2380              	.LVL265:
 232:lib/tinymaix/src/tm_layers.c ****     for(int c=0; c <out->c; c++){
 2381              		.loc 1 232 5 is_stmt 1
 2382              	.LBB222:
 2383              		.loc 1 232 9
 2384              	.LBB223:
 2385              	.LBB224:
 2386              	.LBB225:
  26:lib/tinymaix/src/arch_cpu.h ****         sum += sptr[i]*kptr[i];i++;
 2387              		.loc 2 26 5 is_stmt 0
 2388 0036 9D4C     		li	s9,7
 2389              	.LBE225:
 2390              	.LBE224:
 2391              	.LBE223:
 2392              		.loc 1 232 13
 2393 0038 0144     		li	s0,0
 2394              	.LBB236:
 2395              	.LBB231:
 2396              	.LBB226:
  26:lib/tinymaix/src/arch_cpu.h ****         sum += sptr[i]*kptr[i];i++;
 2397              		.loc 2 26 5
 2398 003a B38C8C41 		sub	s9,s9,s8
 2399              	.LVL266:
 2400              	.L124:
 2401              	.LBE226:
 2402              	.LBE231:
 2403              	.LBE236:
 2404              		.loc 1 232 24 discriminator 1
 2405 003e 83D76B00 		lhu	a5,6(s7)
 2406              		.loc 1 232 5 discriminator 1
 2407 0042 6342F402 		bgt	a5,s0,.L129
 2408              	.LBE222:
 233:lib/tinymaix/src/tm_layers.c ****         sumtype_t sum = 0;
 234:lib/tinymaix/src/tm_layers.c ****         tm_dot_prod(data, w+c*in->c, in->c, &sum);
 235:lib/tinymaix/src/tm_layers.c ****         sum += b[c];    //fuse with zp
 236:lib/tinymaix/src/tm_layers.c ****     #if TM_MDL_TYPE == TM_MDL_INT8 || TM_MDL_TYPE == TM_MDL_INT16
 237:lib/tinymaix/src/tm_layers.c ****         out->data[c] = (mtype_t)(sum*in_s*ws[0]/out_s + out_zp); //requant
 238:lib/tinymaix/src/tm_layers.c ****     #else
 239:lib/tinymaix/src/tm_layers.c ****         out->data[c] = (mtype_t)(sum);
 240:lib/tinymaix/src/tm_layers.c ****     #endif
 241:lib/tinymaix/src/tm_layers.c ****     }
 242:lib/tinymaix/src/tm_layers.c ****     return TM_OK;
 2409              		.loc 1 242 5 is_stmt 1
 243:lib/tinymaix/src/tm_layers.c **** }
GAS LISTING C:\Users\Jesper\AppData\Local\Temp\cc1iO6kH.s 			page 62


 2410              		.loc 1 243 1 is_stmt 0
 2411 0046 F250     		lw	ra,60(sp)
 2412              		.cfi_remember_state
 2413              		.cfi_restore 1
 2414 0048 6254     		lw	s0,56(sp)
 2415              		.cfi_restore 8
 2416              	.LVL267:
 2417 004a D254     		lw	s1,52(sp)
 2418              		.cfi_restore 9
 2419              	.LVL268:
 2420 004c 4259     		lw	s2,48(sp)
 2421              		.cfi_restore 18
 2422              	.LVL269:
 2423 004e B259     		lw	s3,44(sp)
 2424              		.cfi_restore 19
 2425              	.LVL270:
 2426 0050 225A     		lw	s4,40(sp)
 2427              		.cfi_restore 20
 2428              	.LVL271:
 2429 0052 925A     		lw	s5,36(sp)
 2430              		.cfi_restore 21
 2431              	.LVL272:
 2432 0054 025B     		lw	s6,32(sp)
 2433              		.cfi_restore 22
 2434              	.LVL273:
 2435 0056 F24B     		lw	s7,28(sp)
 2436              		.cfi_restore 23
 2437              	.LVL274:
 2438 0058 624C     		lw	s8,24(sp)
 2439              		.cfi_restore 24
 2440              	.LVL275:
 2441 005a D24C     		lw	s9,20(sp)
 2442              		.cfi_restore 25
 2443 005c 424D     		lw	s10,16(sp)
 2444              		.cfi_restore 26
 2445 005e B24D     		lw	s11,12(sp)
 2446              		.cfi_restore 27
 2447 0060 0145     		li	a0,0
 2448 0062 2161     		addi	sp,sp,64
 2449              	.LCFI7:
 2450              		.cfi_def_cfa_offset 0
 2451              	.LVL276:
 2452 0064 8280     		jr	ra
 2453              	.LVL277:
 2454              	.L129:
 2455              	.LCFI8:
 2456              		.cfi_restore_state
 2457              	.LBB239:
 2458              	.LBB237:
 233:lib/tinymaix/src/tm_layers.c ****         sumtype_t sum = 0;
 2459              		.loc 1 233 9 is_stmt 1 discriminator 3
 234:lib/tinymaix/src/tm_layers.c ****         sum += b[c];    //fuse with zp
 2460              		.loc 1 234 9 discriminator 3
 234:lib/tinymaix/src/tm_layers.c ****         sum += b[c];    //fuse with zp
 2461              		.loc 1 234 33 is_stmt 0 discriminator 3
 2462 0066 03D66400 		lhu	a2,6(s1)
 2463              	.LBB232:
GAS LISTING C:\Users\Jesper\AppData\Local\Temp\cc1iO6kH.s 			page 63


 2464              	.LBB227:
  25:lib/tinymaix/src/arch_cpu.h ****     for(; i+8-1 <cnt; ){
 2465              		.loc 2 25 14 discriminator 3
 2466 006a E287     		mv	a5,s8
  23:lib/tinymaix/src/arch_cpu.h ****     uint32_t i = 0;
 2467              		.loc 2 23 15 discriminator 3
 2468 006c 8145     		li	a1,0
 2469              	.LBE227:
 2470              	.LBE232:
 234:lib/tinymaix/src/tm_layers.c ****         sum += b[c];    //fuse with zp
 2471              		.loc 1 234 30 discriminator 3
 2472 006e B3068602 		mul	a3,a2,s0
 2473              	.LBB233:
 2474              	.LBB228:
  25:lib/tinymaix/src/arch_cpu.h ****     for(; i+8-1 <cnt; ){
 2475              		.loc 2 25 14 discriminator 3
 2476 0072 137886FF 		andi	a6,a2,-8
 2477              	.LBE228:
 2478              	.LBE233:
 234:lib/tinymaix/src/tm_layers.c ****         sum += b[c];    //fuse with zp
 2479              		.loc 1 234 28 discriminator 3
 2480 0076 CA96     		add	a3,s2,a3
 2481              	.LVL278:
 2482              	.LBB234:
 2483              	.LBB229:
  23:lib/tinymaix/src/arch_cpu.h ****     uint32_t i = 0;
 2484              		.loc 2 23 5 is_stmt 1 discriminator 3
  24:lib/tinymaix/src/arch_cpu.h ****     uint32_t cnt = (size>>3)<<3;  //8
 2485              		.loc 2 24 5 discriminator 3
  25:lib/tinymaix/src/arch_cpu.h ****     for(; i+8-1 <cnt; ){
 2486              		.loc 2 25 5 discriminator 3
  26:lib/tinymaix/src/arch_cpu.h ****         sum += sptr[i]*kptr[i];i++;
 2487              		.loc 2 26 5 discriminator 3
 2488 0078 3687     		mv	a4,a3
 2489              	.LVL279:
 2490              	.L125:
  26:lib/tinymaix/src/arch_cpu.h ****         sum += sptr[i]*kptr[i];i++;
 2491              		.loc 2 26 5 is_stmt 0
 2492 007a 3385FC00 		add	a0,s9,a5
 2493 007e 63640507 		bgtu	a6,a0,.L126
 2494              	.LVL280:
 2495              	.L127:
  36:lib/tinymaix/src/arch_cpu.h ****         sum += sptr[i]*kptr[i]; 
 2496              		.loc 2 36 5
 2497 0082 636DC80C 		bgtu	a2,a6,.L128
  39:lib/tinymaix/src/arch_cpu.h ****     return;
 2498              		.loc 2 39 5 is_stmt 1
 2499              	.LVL281:
  40:lib/tinymaix/src/arch_cpu.h **** }
 2500              		.loc 2 40 5
 2501              	.LBE229:
 2502              	.LBE234:
 235:lib/tinymaix/src/tm_layers.c ****     #if TM_MDL_TYPE == TM_MDL_INT8 || TM_MDL_TYPE == TM_MDL_INT16
 2503              		.loc 1 235 9
 237:lib/tinymaix/src/tm_layers.c ****     #else
 2504              		.loc 1 237 9
 235:lib/tinymaix/src/tm_layers.c ****     #if TM_MDL_TYPE == TM_MDL_INT8 || TM_MDL_TYPE == TM_MDL_INT16
GAS LISTING C:\Users\Jesper\AppData\Local\Temp\cc1iO6kH.s 			page 64


 2505              		.loc 1 235 17 is_stmt 0
 2506 0086 93172400 		slli	a5,s0,2
 2507 008a DA97     		add	a5,s6,a5
 2508              	.LVL282:
 235:lib/tinymaix/src/tm_layers.c ****     #if TM_MDL_TYPE == TM_MDL_INT8 || TM_MDL_TYPE == TM_MDL_INT16
 2509              		.loc 1 235 13
 2510 008c 8843     		lw	a0,0(a5)
 237:lib/tinymaix/src/tm_layers.c ****     #else
 2511              		.loc 1 237 22
 2512 008e 03AD8B00 		lw	s10,8(s7)
 237:lib/tinymaix/src/tm_layers.c ****     #else
 2513              		.loc 1 237 37
 2514 0092 2E95     		add	a0,a1,a0
 2515              	.LVL283:
 2516 0094 97000000 		call	__floatsisf
 2516      E7800000 
 2517              	.LVL284:
 2518 009c D285     		mv	a1,s4
 2519 009e 97000000 		call	__mulsf3
 2519      E7800000 
 2520              	.LVL285:
 237:lib/tinymaix/src/tm_layers.c ****     #else
 2521              		.loc 1 237 42
 2522 00a6 83A50900 		lw	a1,0(s3)
 237:lib/tinymaix/src/tm_layers.c ****     #else
 2523              		.loc 1 237 22
 2524 00aa 229D     		add	s10,s10,s0
 2525              	.LBE237:
 232:lib/tinymaix/src/tm_layers.c ****         sumtype_t sum = 0;
 2526              		.loc 1 232 30
 2527 00ac 0504     		addi	s0,s0,1
 2528              	.LVL286:
 2529              	.LBB238:
 237:lib/tinymaix/src/tm_layers.c ****     #else
 2530              		.loc 1 237 42
 2531 00ae 97000000 		call	__mulsf3
 2531      E7800000 
 2532              	.LVL287:
 237:lib/tinymaix/src/tm_layers.c ****     #else
 2533              		.loc 1 237 48
 2534 00b6 D685     		mv	a1,s5
 2535 00b8 97000000 		call	__divsf3
 2535      E7800000 
 2536              	.LVL288:
 2537 00c0 AA8D     		mv	s11,a0
 237:lib/tinymaix/src/tm_layers.c ****     #else
 2538              		.loc 1 237 55
 2539 00c2 0645     		lw	a0,64(sp)
 2540 00c4 97000000 		call	__floatsisf
 2540      E7800000 
 2541              	.LVL289:
 2542 00cc AA85     		mv	a1,a0
 2543 00ce 6E85     		mv	a0,s11
 2544 00d0 97000000 		call	__addsf3
 2544      E7800000 
 2545              	.LVL290:
 237:lib/tinymaix/src/tm_layers.c ****     #else
GAS LISTING C:\Users\Jesper\AppData\Local\Temp\cc1iO6kH.s 			page 65


 2546              		.loc 1 237 24
 2547 00d8 97000000 		call	__fixsfsi
 2547      E7800000 
 2548              	.LVL291:
 2549 00e0 2300AD00 		sb	a0,0(s10)
 2550              	.LVL292:
 2551 00e4 A9BF     		j	.L124
 2552              	.LVL293:
 2553              	.L126:
 2554              	.LBB235:
 2555              	.LBB230:
  27:lib/tinymaix/src/arch_cpu.h ****         sum += sptr[i]*kptr[i];i++;
 2556              		.loc 2 27 9 is_stmt 1
  27:lib/tinymaix/src/arch_cpu.h ****         sum += sptr[i]*kptr[i];i++;
 2557              		.loc 2 27 28 is_stmt 0
 2558 00e6 83080700 		lb	a7,0(a4)
  27:lib/tinymaix/src/arch_cpu.h ****         sum += sptr[i]*kptr[i];i++;
 2559              		.loc 2 27 20
 2560 00ea 03850700 		lb	a0,0(a5)
 2561 00ee 2107     		addi	a4,a4,8
 2562 00f0 A107     		addi	a5,a5,8
 2563              	.LVL294:
  27:lib/tinymaix/src/arch_cpu.h ****         sum += sptr[i]*kptr[i];i++;
 2564              		.loc 2 27 23
 2565 00f2 33051503 		mul	a0,a0,a7
  28:lib/tinymaix/src/arch_cpu.h ****         sum += sptr[i]*kptr[i];i++;
 2566              		.loc 2 28 28
 2567 00f6 830897FF 		lb	a7,-7(a4)
  27:lib/tinymaix/src/arch_cpu.h ****         sum += sptr[i]*kptr[i];i++;
 2568              		.loc 2 27 13
 2569 00fa 2E95     		add	a0,a0,a1
 2570              	.LVL295:
  27:lib/tinymaix/src/arch_cpu.h ****         sum += sptr[i]*kptr[i];i++;
 2571              		.loc 2 27 32 is_stmt 1
  28:lib/tinymaix/src/arch_cpu.h ****         sum += sptr[i]*kptr[i];i++;
 2572              		.loc 2 28 9
  28:lib/tinymaix/src/arch_cpu.h ****         sum += sptr[i]*kptr[i];i++;
 2573              		.loc 2 28 20 is_stmt 0
 2574 00fc 838597FF 		lb	a1,-7(a5)
  28:lib/tinymaix/src/arch_cpu.h ****         sum += sptr[i]*kptr[i];i++;
 2575              		.loc 2 28 23
 2576 0100 B3851503 		mul	a1,a1,a7
  29:lib/tinymaix/src/arch_cpu.h ****         sum += sptr[i]*kptr[i];i++;
 2577              		.loc 2 29 28
 2578 0104 8308A7FF 		lb	a7,-6(a4)
  28:lib/tinymaix/src/arch_cpu.h ****         sum += sptr[i]*kptr[i];i++;
 2579              		.loc 2 28 13
 2580 0108 AA95     		add	a1,a1,a0
 2581              	.LVL296:
  28:lib/tinymaix/src/arch_cpu.h ****         sum += sptr[i]*kptr[i];i++;
 2582              		.loc 2 28 32 is_stmt 1
  29:lib/tinymaix/src/arch_cpu.h ****         sum += sptr[i]*kptr[i];i++;
 2583              		.loc 2 29 9
  29:lib/tinymaix/src/arch_cpu.h ****         sum += sptr[i]*kptr[i];i++;
 2584              		.loc 2 29 20 is_stmt 0
 2585 010a 0385A7FF 		lb	a0,-6(a5)
  29:lib/tinymaix/src/arch_cpu.h ****         sum += sptr[i]*kptr[i];i++;
GAS LISTING C:\Users\Jesper\AppData\Local\Temp\cc1iO6kH.s 			page 66


 2586              		.loc 2 29 23
 2587 010e 33051503 		mul	a0,a0,a7
  30:lib/tinymaix/src/arch_cpu.h ****         sum += sptr[i]*kptr[i];i++;
 2588              		.loc 2 30 28
 2589 0112 8308B7FF 		lb	a7,-5(a4)
  29:lib/tinymaix/src/arch_cpu.h ****         sum += sptr[i]*kptr[i];i++;
 2590              		.loc 2 29 13
 2591 0116 2E95     		add	a0,a0,a1
 2592              	.LVL297:
  29:lib/tinymaix/src/arch_cpu.h ****         sum += sptr[i]*kptr[i];i++;
 2593              		.loc 2 29 32 is_stmt 1
  30:lib/tinymaix/src/arch_cpu.h ****         sum += sptr[i]*kptr[i];i++;
 2594              		.loc 2 30 9
  30:lib/tinymaix/src/arch_cpu.h ****         sum += sptr[i]*kptr[i];i++;
 2595              		.loc 2 30 20 is_stmt 0
 2596 0118 8385B7FF 		lb	a1,-5(a5)
  30:lib/tinymaix/src/arch_cpu.h ****         sum += sptr[i]*kptr[i];i++;
 2597              		.loc 2 30 23
 2598 011c B3851503 		mul	a1,a1,a7
  31:lib/tinymaix/src/arch_cpu.h ****         sum += sptr[i]*kptr[i];i++;
 2599              		.loc 2 31 28
 2600 0120 8308C7FF 		lb	a7,-4(a4)
  30:lib/tinymaix/src/arch_cpu.h ****         sum += sptr[i]*kptr[i];i++;
 2601              		.loc 2 30 13
 2602 0124 AA95     		add	a1,a1,a0
 2603              	.LVL298:
  30:lib/tinymaix/src/arch_cpu.h ****         sum += sptr[i]*kptr[i];i++;
 2604              		.loc 2 30 32 is_stmt 1
  31:lib/tinymaix/src/arch_cpu.h ****         sum += sptr[i]*kptr[i];i++;
 2605              		.loc 2 31 9
  31:lib/tinymaix/src/arch_cpu.h ****         sum += sptr[i]*kptr[i];i++;
 2606              		.loc 2 31 20 is_stmt 0
 2607 0126 0385C7FF 		lb	a0,-4(a5)
  31:lib/tinymaix/src/arch_cpu.h ****         sum += sptr[i]*kptr[i];i++;
 2608              		.loc 2 31 23
 2609 012a 33051503 		mul	a0,a0,a7
  32:lib/tinymaix/src/arch_cpu.h ****         sum += sptr[i]*kptr[i];i++;
 2610              		.loc 2 32 28
 2611 012e 8308D7FF 		lb	a7,-3(a4)
  31:lib/tinymaix/src/arch_cpu.h ****         sum += sptr[i]*kptr[i];i++;
 2612              		.loc 2 31 13
 2613 0132 2E95     		add	a0,a0,a1
 2614              	.LVL299:
  31:lib/tinymaix/src/arch_cpu.h ****         sum += sptr[i]*kptr[i];i++;
 2615              		.loc 2 31 32 is_stmt 1
  32:lib/tinymaix/src/arch_cpu.h ****         sum += sptr[i]*kptr[i];i++;
 2616              		.loc 2 32 9
  32:lib/tinymaix/src/arch_cpu.h ****         sum += sptr[i]*kptr[i];i++;
 2617              		.loc 2 32 20 is_stmt 0
 2618 0134 8385D7FF 		lb	a1,-3(a5)
  32:lib/tinymaix/src/arch_cpu.h ****         sum += sptr[i]*kptr[i];i++;
 2619              		.loc 2 32 23
 2620 0138 B3851503 		mul	a1,a1,a7
  33:lib/tinymaix/src/arch_cpu.h ****         sum += sptr[i]*kptr[i];i++;
 2621              		.loc 2 33 28
 2622 013c 8308E7FF 		lb	a7,-2(a4)
  32:lib/tinymaix/src/arch_cpu.h ****         sum += sptr[i]*kptr[i];i++;
GAS LISTING C:\Users\Jesper\AppData\Local\Temp\cc1iO6kH.s 			page 67


 2623              		.loc 2 32 13
 2624 0140 AA95     		add	a1,a1,a0
 2625              	.LVL300:
  32:lib/tinymaix/src/arch_cpu.h ****         sum += sptr[i]*kptr[i];i++;
 2626              		.loc 2 32 32 is_stmt 1
  33:lib/tinymaix/src/arch_cpu.h ****         sum += sptr[i]*kptr[i];i++;
 2627              		.loc 2 33 9
  33:lib/tinymaix/src/arch_cpu.h ****         sum += sptr[i]*kptr[i];i++;
 2628              		.loc 2 33 20 is_stmt 0
 2629 0142 0385E7FF 		lb	a0,-2(a5)
  33:lib/tinymaix/src/arch_cpu.h ****         sum += sptr[i]*kptr[i];i++;
 2630              		.loc 2 33 23
 2631 0146 33051503 		mul	a0,a0,a7
  34:lib/tinymaix/src/arch_cpu.h ****     }
 2632              		.loc 2 34 28
 2633 014a 8308F7FF 		lb	a7,-1(a4)
  33:lib/tinymaix/src/arch_cpu.h ****         sum += sptr[i]*kptr[i];i++;
 2634              		.loc 2 33 13
 2635 014e 2E95     		add	a0,a0,a1
 2636              	.LVL301:
  33:lib/tinymaix/src/arch_cpu.h ****         sum += sptr[i]*kptr[i];i++;
 2637              		.loc 2 33 32 is_stmt 1
  34:lib/tinymaix/src/arch_cpu.h ****     }
 2638              		.loc 2 34 9
  34:lib/tinymaix/src/arch_cpu.h ****     }
 2639              		.loc 2 34 20 is_stmt 0
 2640 0150 8385F7FF 		lb	a1,-1(a5)
  34:lib/tinymaix/src/arch_cpu.h ****     }
 2641              		.loc 2 34 23
 2642 0154 B3851503 		mul	a1,a1,a7
  34:lib/tinymaix/src/arch_cpu.h ****     }
 2643              		.loc 2 34 13
 2644 0158 AA95     		add	a1,a1,a0
 2645              	.LVL302:
  34:lib/tinymaix/src/arch_cpu.h ****     }
 2646              		.loc 2 34 32 is_stmt 1
 2647 015a 05B7     		j	.L125
 2648              	.LVL303:
 2649              	.L128:
  37:lib/tinymaix/src/arch_cpu.h ****     }
 2650              		.loc 2 37 9
  37:lib/tinymaix/src/arch_cpu.h ****     }
 2651              		.loc 2 37 20 is_stmt 0
 2652 015c B3070C01 		add	a5,s8,a6
  37:lib/tinymaix/src/arch_cpu.h ****     }
 2653              		.loc 2 37 28
 2654 0160 33870601 		add	a4,a3,a6
  37:lib/tinymaix/src/arch_cpu.h ****     }
 2655              		.loc 2 37 20
 2656 0164 83870700 		lb	a5,0(a5)
  37:lib/tinymaix/src/arch_cpu.h ****     }
 2657              		.loc 2 37 28
 2658 0168 03070700 		lb	a4,0(a4)
  36:lib/tinymaix/src/arch_cpu.h ****         sum += sptr[i]*kptr[i]; 
 2659              		.loc 2 36 21
 2660 016c 0508     		addi	a6,a6,1
 2661              	.LVL304:
GAS LISTING C:\Users\Jesper\AppData\Local\Temp\cc1iO6kH.s 			page 68


  37:lib/tinymaix/src/arch_cpu.h ****     }
 2662              		.loc 2 37 23
 2663 016e B387E702 		mul	a5,a5,a4
  37:lib/tinymaix/src/arch_cpu.h ****     }
 2664              		.loc 2 37 13
 2665 0172 BE95     		add	a1,a1,a5
 2666              	.LVL305:
 2667 0174 39B7     		j	.L127
 2668              	.LBE230:
 2669              	.LBE235:
 2670              	.LBE238:
 2671              	.LBE239:
 2672              		.cfi_endproc
 2673              	.LFE35:
 2675              		.globl	__gtsf2
 2676              		.globl	__subsf3
 2677              		.globl	__truncdfsf2
 2678              		.globl	__subdf3
 2679              		.section	.text.tml_softmax,"ax",@progbits
 2680              		.align	1
 2681              		.weak	tml_softmax
 2683              	tml_softmax:
 2684              	.LFB36:
 244:lib/tinymaix/src/tm_layers.c **** 
 245:lib/tinymaix/src/tm_layers.c **** /*************************** TML_SOFTMAX **********************************/
 246:lib/tinymaix/src/tm_layers.c **** tm_err_t TM_WEAK tml_softmax(tm_mat_t* in, tm_mat_t* out, sctype_t in_s, zptype_t in_zp, sctype_t o
 247:lib/tinymaix/src/tm_layers.c **** {   TM_DBGT_INIT(); //note we have float size output buf even in INT8/INT16 mode
 2685              		.loc 1 247 1 is_stmt 1
 2686              		.cfi_startproc
 2687              	.LVL306:
 2688              		.loc 1 247 5
 2689              		.loc 1 247 5
 2690              		.loc 1 247 5
 2691              		.loc 1 247 1 is_stmt 0
 2692 0000 3971     		addi	sp,sp,-64
 2693              	.LCFI9:
 2694              		.cfi_def_cfa_offset 64
 2695 0002 22DC     		sw	s0,56(sp)
 2696 0004 26DA     		sw	s1,52(sp)
 2697 0006 4ED6     		sw	s3,44(sp)
 2698              		.cfi_offset 8, -8
 2699              		.cfi_offset 9, -12
 2700              		.cfi_offset 19, -20
 2701 0008 AA84     		mv	s1,a0
 2702 000a 52D4     		sw	s4,40(sp)
 2703 000c 56D2     		sw	s5,36(sp)
 2704 000e 5AD0     		sw	s6,32(sp)
 2705 0010 5ECE     		sw	s7,28(sp)
 2706 0012 62CC     		sw	s8,24(sp)
 2707 0014 66CA     		sw	s9,20(sp)
 2708 0016 6AC8     		sw	s10,16(sp)
 2709 0018 6EC6     		sw	s11,12(sp)
 2710              		.cfi_offset 20, -24
 2711              		.cfi_offset 21, -28
 2712              		.cfi_offset 22, -32
 2713              		.cfi_offset 23, -36
 2714              		.cfi_offset 24, -40
GAS LISTING C:\Users\Jesper\AppData\Local\Temp\cc1iO6kH.s 			page 69


 2715              		.cfi_offset 25, -44
 2716              		.cfi_offset 26, -48
 2717              		.cfi_offset 27, -52
 2718 001a AE8A     		mv	s5,a1
 2719 001c BE8C     		mv	s9,a5
 2720 001e 06DE     		sw	ra,60(sp)
 2721 0020 4AD8     		sw	s2,48(sp)
 2722              		.cfi_offset 1, -4
 2723              		.cfi_offset 18, -16
 2724              		.loc 1 247 1
 2725 0022 328B     		mv	s6,a2
 2726 0024 B68B     		mv	s7,a3
 2727 0026 3A8C     		mv	s8,a4
 2728              		.loc 1 247 5
 2729 0028 97000000 		call	get_time
 2729      E7800000 
 2730              	.LVL307:
 2731              		.loc 1 247 19 is_stmt 1
 248:lib/tinymaix/src/tm_layers.c ****     mtype_t* din = in->data;
 2732              		.loc 1 248 5
 249:lib/tinymaix/src/tm_layers.c ****     float*  dout = (float*)(out->data);
 250:lib/tinymaix/src/tm_layers.c ****     float   dmax =  -FLT_MAX;
 2733              		.loc 1 250 13 is_stmt 0
 2734 0030 B7070000 		lui	a5,%hi(.LC2)
 248:lib/tinymaix/src/tm_layers.c ****     mtype_t* din = in->data;
 2735              		.loc 1 248 14
 2736 0034 83AD8400 		lw	s11,8(s1)
 2737              	.LVL308:
 249:lib/tinymaix/src/tm_layers.c ****     float*  dout = (float*)(out->data);
 2738              		.loc 1 249 5 is_stmt 1
 249:lib/tinymaix/src/tm_layers.c ****     float*  dout = (float*)(out->data);
 2739              		.loc 1 249 13 is_stmt 0
 2740 0038 83A98A00 		lw	s3,8(s5)
 2741              	.LVL309:
 2742              		.loc 1 250 5 is_stmt 1
 251:lib/tinymaix/src/tm_layers.c ****     for(int c=0; c <in->c; c++){
 2743              		.loc 1 251 5
 2744              	.LBB240:
 2745              		.loc 1 251 9
 2746              		.loc 1 251 23 is_stmt 0
 2747 003c 03DA6400 		lhu	s4,6(s1)
 2748              	.LBE240:
 250:lib/tinymaix/src/tm_layers.c ****     for(int c=0; c <in->c; c++){
 2749              		.loc 1 250 13
 2750 0040 03AD0700 		lw	s10,%lo(.LC2)(a5)
 2751              	.LBB241:
 2752              		.loc 1 251 13
 2753 0044 0144     		li	s0,0
 2754              	.LVL310:
 2755              	.L132:
 2756              		.loc 1 251 5 discriminator 1
 2757 0046 63454405 		bgt	s4,s0,.L135
 2758              	.LBE241:
 2759              	.LBB242:
 252:lib/tinymaix/src/tm_layers.c ****     #if TM_MDL_TYPE == TM_MDL_INT8 || TM_MDL_TYPE == TM_MDL_INT16
 253:lib/tinymaix/src/tm_layers.c ****         dout[c] = (float)((sumtype_t)din[c] - in_zp)*in_s;
 254:lib/tinymaix/src/tm_layers.c ****     #else
GAS LISTING C:\Users\Jesper\AppData\Local\Temp\cc1iO6kH.s 			page 70


 255:lib/tinymaix/src/tm_layers.c ****         dout[c] = din[c];
 256:lib/tinymaix/src/tm_layers.c ****     #endif
 257:lib/tinymaix/src/tm_layers.c ****         if(dout[c] > dmax) dmax = dout[c];
 258:lib/tinymaix/src/tm_layers.c ****     }
 259:lib/tinymaix/src/tm_layers.c ****     float sum = 0;
 260:lib/tinymaix/src/tm_layers.c ****     for(int c=0; c <in->c; c++){
 261:lib/tinymaix/src/tm_layers.c ****         dout[c] -= dmax;
 262:lib/tinymaix/src/tm_layers.c ****         dout[c] = (float)tm_exp(dout[c]);
 263:lib/tinymaix/src/tm_layers.c ****         sum     += dout[c];
 264:lib/tinymaix/src/tm_layers.c ****         dout[c] -= 0.000001;  //prevent 1.0 value (cause 256 overflow)
 2760              		.loc 1 264 17
 2761 004a B7070000 		lui	a5,%hi(.LC3)
 2762 004e 03AB0700 		lw	s6,%lo(.LC3)(a5)
 2763              	.LVL311:
 2764 0052 83AB4700 		lw	s7,%lo(.LC3+4)(a5)
 2765              	.LVL312:
 2766 0056 4E84     		mv	s0,s3
 2767              	.LVL313:
 260:lib/tinymaix/src/tm_layers.c ****         dout[c] -= dmax;
 2768              		.loc 1 260 13
 2769 0058 014A     		li	s4,0
 2770              	.LBE242:
 259:lib/tinymaix/src/tm_layers.c ****     for(int c=0; c <in->c; c++){
 2771              		.loc 1 259 11
 2772 005a 13090000 		mv	s2,zero
 2773              	.LVL314:
 2774              	.L136:
 2775              	.LBB243:
 260:lib/tinymaix/src/tm_layers.c ****         dout[c] -= dmax;
 2776              		.loc 1 260 23 discriminator 1
 2777 005e 83D76400 		lhu	a5,6(s1)
 260:lib/tinymaix/src/tm_layers.c ****         dout[c] -= dmax;
 2778              		.loc 1 260 5 discriminator 1
 2779 0062 6345FA06 		bgt	a5,s4,.L137
 2780              	.LBE243:
 2781              	.LBB244:
 265:lib/tinymaix/src/tm_layers.c ****     }
 266:lib/tinymaix/src/tm_layers.c ****     for(int c=0; c <in->c; c++){  //int8/int16 <= fp32, so it is ok
 2782              		.loc 1 266 13
 2783 0066 0144     		li	s0,0
 2784              	.LVL315:
 2785              	.L138:
 2786              		.loc 1 266 23 discriminator 1
 2787 0068 83D76400 		lhu	a5,6(s1)
 2788              		.loc 1 266 5 discriminator 1
 2789 006c 634EF40A 		bgt	a5,s0,.L139
 2790              	.LBE244:
 267:lib/tinymaix/src/tm_layers.c ****     #if TM_MDL_TYPE == TM_MDL_INT8 || TM_MDL_TYPE == TM_MDL_INT16
 268:lib/tinymaix/src/tm_layers.c ****         out->data[c] = (mtype_t)(dout[c]/sum/out_s + out_zp); //requant
 269:lib/tinymaix/src/tm_layers.c ****     #else
 270:lib/tinymaix/src/tm_layers.c ****         out->data[c] = (mtype_t)(dout[c]/sum);
 271:lib/tinymaix/src/tm_layers.c ****     #endif
 272:lib/tinymaix/src/tm_layers.c ****     }
 273:lib/tinymaix/src/tm_layers.c ****     return TM_OK;
 2791              		.loc 1 273 5 is_stmt 1
 274:lib/tinymaix/src/tm_layers.c **** }
 2792              		.loc 1 274 1 is_stmt 0
GAS LISTING C:\Users\Jesper\AppData\Local\Temp\cc1iO6kH.s 			page 71


 2793 0070 F250     		lw	ra,60(sp)
 2794              		.cfi_remember_state
 2795              		.cfi_restore 1
 2796 0072 6254     		lw	s0,56(sp)
 2797              		.cfi_restore 8
 2798              	.LVL316:
 2799 0074 D254     		lw	s1,52(sp)
 2800              		.cfi_restore 9
 2801              	.LVL317:
 2802 0076 4259     		lw	s2,48(sp)
 2803              		.cfi_restore 18
 2804              	.LVL318:
 2805 0078 B259     		lw	s3,44(sp)
 2806              		.cfi_restore 19
 2807              	.LVL319:
 2808 007a 225A     		lw	s4,40(sp)
 2809              		.cfi_restore 20
 2810 007c 925A     		lw	s5,36(sp)
 2811              		.cfi_restore 21
 2812              	.LVL320:
 2813 007e 025B     		lw	s6,32(sp)
 2814              		.cfi_restore 22
 2815 0080 F24B     		lw	s7,28(sp)
 2816              		.cfi_restore 23
 2817 0082 624C     		lw	s8,24(sp)
 2818              		.cfi_restore 24
 2819              	.LVL321:
 2820 0084 D24C     		lw	s9,20(sp)
 2821              		.cfi_restore 25
 2822              	.LVL322:
 2823 0086 424D     		lw	s10,16(sp)
 2824              		.cfi_restore 26
 2825              	.LVL323:
 2826 0088 B24D     		lw	s11,12(sp)
 2827              		.cfi_restore 27
 2828 008a 0145     		li	a0,0
 2829 008c 2161     		addi	sp,sp,64
 2830              	.LCFI10:
 2831              		.cfi_def_cfa_offset 0
 2832 008e 8280     		jr	ra
 2833              	.LVL324:
 2834              	.L135:
 2835              	.LCFI11:
 2836              		.cfi_restore_state
 2837              	.LBB245:
 253:lib/tinymaix/src/tm_layers.c ****     #else
 2838              		.loc 1 253 9 is_stmt 1
 253:lib/tinymaix/src/tm_layers.c ****     #else
 2839              		.loc 1 253 41 is_stmt 0
 2840 0090 B3878D00 		add	a5,s11,s0
 253:lib/tinymaix/src/tm_layers.c ****     #else
 2841              		.loc 1 253 27
 2842 0094 03850700 		lb	a0,0(a5)
 253:lib/tinymaix/src/tm_layers.c ****     #else
 2843              		.loc 1 253 19
 2844 0098 33057541 		sub	a0,a0,s7
 2845 009c 97000000 		call	__floatsisf
GAS LISTING C:\Users\Jesper\AppData\Local\Temp\cc1iO6kH.s 			page 72


 2845      E7800000 
 2846              	.LVL325:
 253:lib/tinymaix/src/tm_layers.c ****     #else
 2847              		.loc 1 253 53
 2848 00a4 DA85     		mv	a1,s6
 2849 00a6 97000000 		call	__mulsf3
 2849      E7800000 
 2850              	.LVL326:
 253:lib/tinymaix/src/tm_layers.c ****     #else
 2851              		.loc 1 253 17
 2852 00ae 93172400 		slli	a5,s0,2
 2853 00b2 CE97     		add	a5,s3,a5
 2854 00b4 88C3     		sw	a0,0(a5)
 257:lib/tinymaix/src/tm_layers.c ****     }
 2855              		.loc 1 257 9 is_stmt 1
 257:lib/tinymaix/src/tm_layers.c ****     }
 2856              		.loc 1 257 11 is_stmt 0
 2857 00b6 EA85     		mv	a1,s10
 253:lib/tinymaix/src/tm_layers.c ****     #else
 2858              		.loc 1 253 53
 2859 00b8 2A89     		mv	s2,a0
 257:lib/tinymaix/src/tm_layers.c ****     }
 2860              		.loc 1 257 11
 2861 00ba 97000000 		call	__gtsf2
 2861      E7800000 
 2862              	.LVL327:
 2863 00c2 6353A000 		ble	a0,zero,.L133
 257:lib/tinymaix/src/tm_layers.c ****     }
 2864              		.loc 1 257 33
 2865 00c6 4A8D     		mv	s10,s2
 2866              	.LVL328:
 2867              	.L133:
 251:lib/tinymaix/src/tm_layers.c ****     #if TM_MDL_TYPE == TM_MDL_INT8 || TM_MDL_TYPE == TM_MDL_INT16
 2868              		.loc 1 251 29 discriminator 2
 2869 00c8 0504     		addi	s0,s0,1
 2870              	.LVL329:
 2871 00ca B5BF     		j	.L132
 2872              	.LVL330:
 2873              	.L137:
 2874              	.LBE245:
 2875              	.LBB246:
 261:lib/tinymaix/src/tm_layers.c ****         dout[c] = (float)tm_exp(dout[c]);
 2876              		.loc 1 261 9 is_stmt 1 discriminator 3
 261:lib/tinymaix/src/tm_layers.c ****         dout[c] = (float)tm_exp(dout[c]);
 2877              		.loc 1 261 17 is_stmt 0 discriminator 3
 2878 00cc 0840     		lw	a0,0(s0)
 2879 00ce EA85     		mv	a1,s10
 260:lib/tinymaix/src/tm_layers.c ****         dout[c] -= dmax;
 2880              		.loc 1 260 29 discriminator 3
 2881 00d0 050A     		addi	s4,s4,1
 2882              	.LVL331:
 261:lib/tinymaix/src/tm_layers.c ****         dout[c] = (float)tm_exp(dout[c]);
 2883              		.loc 1 261 17 discriminator 3
 2884 00d2 97000000 		call	__subsf3
 2884      E7800000 
 2885              	.LVL332:
 2886 00da 08C0     		sw	a0,0(s0)
GAS LISTING C:\Users\Jesper\AppData\Local\Temp\cc1iO6kH.s 			page 73


 262:lib/tinymaix/src/tm_layers.c ****         sum     += dout[c];
 2887              		.loc 1 262 9 is_stmt 1 discriminator 3
 262:lib/tinymaix/src/tm_layers.c ****         sum     += dout[c];
 2888              		.loc 1 262 26 is_stmt 0 discriminator 3
 2889 00dc 97000000 		call	__extendsfdf2
 2889      E7800000 
 2890              	.LVL333:
 2891 00e4 97000000 		call	exp
 2891      E7800000 
 2892              	.LVL334:
 262:lib/tinymaix/src/tm_layers.c ****         sum     += dout[c];
 2893              		.loc 1 262 19 discriminator 3
 2894 00ec 97000000 		call	__truncdfsf2
 2894      E7800000 
 2895              	.LVL335:
 263:lib/tinymaix/src/tm_layers.c ****         dout[c] -= 0.000001;  //prevent 1.0 value (cause 256 overflow)
 2896              		.loc 1 263 17 discriminator 3
 2897 00f4 AA85     		mv	a1,a0
 262:lib/tinymaix/src/tm_layers.c ****         sum     += dout[c];
 2898              		.loc 1 262 19 discriminator 3
 2899 00f6 AA8D     		mv	s11,a0
 263:lib/tinymaix/src/tm_layers.c ****         dout[c] -= 0.000001;  //prevent 1.0 value (cause 256 overflow)
 2900              		.loc 1 263 9 is_stmt 1 discriminator 3
 263:lib/tinymaix/src/tm_layers.c ****         dout[c] -= 0.000001;  //prevent 1.0 value (cause 256 overflow)
 2901              		.loc 1 263 17 is_stmt 0 discriminator 3
 2902 00f8 4A85     		mv	a0,s2
 2903 00fa 97000000 		call	__addsf3
 2903      E7800000 
 2904              	.LVL336:
 2905 0102 2A89     		mv	s2,a0
 2906              	.LVL337:
 264:lib/tinymaix/src/tm_layers.c ****     }
 2907              		.loc 1 264 9 is_stmt 1 discriminator 3
 264:lib/tinymaix/src/tm_layers.c ****     }
 2908              		.loc 1 264 17 is_stmt 0 discriminator 3
 2909 0104 6E85     		mv	a0,s11
 2910              	.LVL338:
 2911 0106 97000000 		call	__extendsfdf2
 2911      E7800000 
 2912              	.LVL339:
 2913 010e 5A86     		mv	a2,s6
 2914 0110 DE86     		mv	a3,s7
 2915 0112 97000000 		call	__subdf3
 2915      E7800000 
 2916              	.LVL340:
 2917 011a 97000000 		call	__truncdfsf2
 2917      E7800000 
 2918              	.LVL341:
 2919 0122 08C0     		sw	a0,0(s0)
 2920 0124 1104     		addi	s0,s0,4
 2921 0126 25BF     		j	.L136
 2922              	.LVL342:
 2923              	.L139:
 2924              	.LBE246:
 2925              	.LBB247:
 268:lib/tinymaix/src/tm_layers.c ****     #else
 2926              		.loc 1 268 9 is_stmt 1 discriminator 3
GAS LISTING C:\Users\Jesper\AppData\Local\Temp\cc1iO6kH.s 			page 74


 268:lib/tinymaix/src/tm_layers.c ****     #else
 2927              		.loc 1 268 38 is_stmt 0 discriminator 3
 2928 0128 93172400 		slli	a5,s0,2
 2929 012c CE97     		add	a5,s3,a5
 268:lib/tinymaix/src/tm_layers.c ****     #else
 2930              		.loc 1 268 41 discriminator 3
 2931 012e 8843     		lw	a0,0(a5)
 2932 0130 CA85     		mv	a1,s2
 268:lib/tinymaix/src/tm_layers.c ****     #else
 2933              		.loc 1 268 22 discriminator 3
 2934 0132 03AA8A00 		lw	s4,8(s5)
 268:lib/tinymaix/src/tm_layers.c ****     #else
 2935              		.loc 1 268 41 discriminator 3
 2936 0136 97000000 		call	__divsf3
 2936      E7800000 
 2937              	.LVL343:
 268:lib/tinymaix/src/tm_layers.c ****     #else
 2938              		.loc 1 268 45 discriminator 3
 2939 013e E285     		mv	a1,s8
 2940 0140 97000000 		call	__divsf3
 2940      E7800000 
 2941              	.LVL344:
 2942 0148 2A8B     		mv	s6,a0
 268:lib/tinymaix/src/tm_layers.c ****     #else
 2943              		.loc 1 268 52 discriminator 3
 2944 014a 6685     		mv	a0,s9
 2945 014c 97000000 		call	__floatsisf
 2945      E7800000 
 2946              	.LVL345:
 2947 0154 AA85     		mv	a1,a0
 2948 0156 5A85     		mv	a0,s6
 2949 0158 97000000 		call	__addsf3
 2949      E7800000 
 2950              	.LVL346:
 268:lib/tinymaix/src/tm_layers.c ****     #else
 2951              		.loc 1 268 22 discriminator 3
 2952 0160 229A     		add	s4,s4,s0
 268:lib/tinymaix/src/tm_layers.c ****     #else
 2953              		.loc 1 268 24 discriminator 3
 2954 0162 97000000 		call	__fixsfsi
 2954      E7800000 
 2955              	.LVL347:
 2956 016a 2300AA00 		sb	a0,0(s4)
 266:lib/tinymaix/src/tm_layers.c ****     #if TM_MDL_TYPE == TM_MDL_INT8 || TM_MDL_TYPE == TM_MDL_INT16
 2957              		.loc 1 266 29 discriminator 3
 2958 016e 0504     		addi	s0,s0,1
 2959              	.LVL348:
 2960 0170 E5BD     		j	.L138
 2961              	.LBE247:
 2962              		.cfi_endproc
 2963              	.LFE36:
 2965              		.section	.text.tml_reshape,"ax",@progbits
 2966              		.align	1
 2967              		.weak	tml_reshape
 2969              	tml_reshape:
 2970              	.LFB37:
 275:lib/tinymaix/src/tm_layers.c **** 
GAS LISTING C:\Users\Jesper\AppData\Local\Temp\cc1iO6kH.s 			page 75


 276:lib/tinymaix/src/tm_layers.c **** /*************************** TML_RESHAPE **********************************/
 277:lib/tinymaix/src/tm_layers.c **** tm_err_t TM_WEAK tml_reshape(tm_mat_t* in, tm_mat_t* out, sctype_t in_s, zptype_t in_zp, sctype_t o
 278:lib/tinymaix/src/tm_layers.c **** {   
 2971              		.loc 1 278 1 is_stmt 1
 2972              		.cfi_startproc
 2973              	.LVL349:
 279:lib/tinymaix/src/tm_layers.c ****     //in fact do nothing... out shape
 280:lib/tinymaix/src/tm_layers.c ****     return TM_OK;
 2974              		.loc 1 280 5
 281:lib/tinymaix/src/tm_layers.c **** }
 2975              		.loc 1 281 1 is_stmt 0
 2976 0000 0145     		li	a0,0
 2977              	.LVL350:
 2978 0002 8280     		ret
 2979              		.cfi_endproc
 2980              	.LFE37:
 2982              		.section	.text.tml_add,"ax",@progbits
 2983              		.align	1
 2984              		.weak	tml_add
 2986              	tml_add:
 2987              	.LFB38:
 282:lib/tinymaix/src/tm_layers.c **** 
 283:lib/tinymaix/src/tm_layers.c **** 
 284:lib/tinymaix/src/tm_layers.c **** tm_err_t TM_WEAK tml_add(tm_mat_t* in0, tm_mat_t* in1, tm_mat_t* out, \
 285:lib/tinymaix/src/tm_layers.c ****     sctype_t in_s0, zptype_t in_zp0, sctype_t in_s1, zptype_t in_zp1, sctype_t out_s, zptype_t out_
 286:lib/tinymaix/src/tm_layers.c **** {   //TODO: check in0 shape == in1 shape 
 2988              		.loc 1 286 1 is_stmt 1
 2989              		.cfi_startproc
 2990              	.LVL351:
 287:lib/tinymaix/src/tm_layers.c ****     //It is simple and experimental implement for ADD, could be more way faster
 288:lib/tinymaix/src/tm_layers.c ****     mtype_t* d0 = in0->data;
 2991              		.loc 1 288 5
 286:lib/tinymaix/src/tm_layers.c ****     //It is simple and experimental implement for ADD, could be more way faster
 2992              		.loc 1 286 1 is_stmt 0
 2993 0000 1D71     		addi	sp,sp,-96
 2994              	.LCFI12:
 2995              		.cfi_def_cfa_offset 96
 2996 0002 D2C4     		sw	s4,72(sp)
 2997              		.cfi_offset 20, -24
 2998 0004 3E8A     		mv	s4,a5
 289:lib/tinymaix/src/tm_layers.c ****     mtype_t* d1 = in1->data;
 2999              		.loc 1 289 14
 3000 0006 9C45     		lw	a5,8(a1)
 3001              	.LVL352:
 286:lib/tinymaix/src/tm_layers.c ****     //It is simple and experimental implement for ADD, could be more way faster
 3002              		.loc 1 286 1
 3003 0008 A2CC     		sw	s0,88(sp)
 3004              		.cfi_offset 8, -8
 290:lib/tinymaix/src/tm_layers.c ****     mtype_t* res = out->data; 
 291:lib/tinymaix/src/tm_layers.c ****     int size = in0->h*in0->w*in0->c;
 3005              		.loc 1 291 19
 3006 000a 03542500 		lhu	s0,2(a0)
 289:lib/tinymaix/src/tm_layers.c ****     mtype_t* d1 = in1->data;
 3007              		.loc 1 289 14
 3008 000e 3ECC     		sw	a5,24(sp)
 3009              		.loc 1 291 26
 3010 0010 83574500 		lhu	a5,4(a0)
GAS LISTING C:\Users\Jesper\AppData\Local\Temp\cc1iO6kH.s 			page 76


 286:lib/tinymaix/src/tm_layers.c ****     //It is simple and experimental implement for ADD, could be more way faster
 3011              		.loc 1 286 1
 3012 0014 6AD8     		sw	s10,48(sp)
 3013              		.cfi_offset 26, -48
 288:lib/tinymaix/src/tm_layers.c ****     mtype_t* d1 = in1->data;
 3014              		.loc 1 288 14
 3015 0016 032D8500 		lw	s10,8(a0)
 3016              	.LVL353:
 289:lib/tinymaix/src/tm_layers.c ****     mtype_t* res = out->data; 
 3017              		.loc 1 289 5 is_stmt 1
 290:lib/tinymaix/src/tm_layers.c ****     int size = in0->h*in0->w*in0->c;
 3018              		.loc 1 290 5
 3019              		.loc 1 291 22 is_stmt 0
 3020 001a 3304F402 		mul	s0,s0,a5
 3021              		.loc 1 291 33
 3022 001e 83576500 		lhu	a5,6(a0)
 292:lib/tinymaix/src/tm_layers.c ****     TM_PRINTF("s0=%.3f,zp0=%d; s1=%.3f,zp1=%d\r\n", in_s0, in_zp0, in_s1, in_zp1);
 3023              		.loc 1 292 5
 3024 0022 5285     		mv	a0,s4
 3025              	.LVL354:
 286:lib/tinymaix/src/tm_layers.c ****     //It is simple and experimental implement for ADD, could be more way faster
 3026              		.loc 1 286 1
 3027 0024 86CE     		sw	ra,92(sp)
 3028 0026 A6CA     		sw	s1,84(sp)
 3029 0028 CAC8     		sw	s2,80(sp)
 3030 002a CEC6     		sw	s3,76(sp)
 3031              		.cfi_offset 1, -4
 3032              		.cfi_offset 9, -12
 3033              		.cfi_offset 18, -16
 3034              		.cfi_offset 19, -20
 3035 002c 3689     		mv	s2,a3
 3036 002e BA89     		mv	s3,a4
 3037 0030 D6C2     		sw	s5,68(sp)
 291:lib/tinymaix/src/tm_layers.c ****     TM_PRINTF("s0=%.3f,zp0=%d; s1=%.3f,zp1=%d\r\n", in_s0, in_zp0, in_s1, in_zp1);
 3038              		.loc 1 291 9
 3039 0032 3304F402 		mul	s0,s0,a5
 3040              		.cfi_offset 21, -28
 286:lib/tinymaix/src/tm_layers.c ****     //It is simple and experimental implement for ADD, could be more way faster
 3041              		.loc 1 286 1
 3042 0036 C28A     		mv	s5,a6
 3043 0038 DAC0     		sw	s6,64(sp)
 3044 003a 5EDE     		sw	s7,60(sp)
 3045 003c 62DC     		sw	s8,56(sp)
 3046 003e 6ED6     		sw	s11,44(sp)
 3047              		.cfi_offset 22, -32
 3048              		.cfi_offset 23, -36
 3049              		.cfi_offset 24, -40
 3050              		.cfi_offset 27, -52
 3051 0040 468C     		mv	s8,a7
 290:lib/tinymaix/src/tm_layers.c ****     int size = in0->h*in0->w*in0->c;
 3052              		.loc 1 290 14
 3053 0042 832D8600 		lw	s11,8(a2)
 3054              	.LVL355:
 291:lib/tinymaix/src/tm_layers.c ****     TM_PRINTF("s0=%.3f,zp0=%d; s1=%.3f,zp1=%d\r\n", in_s0, in_zp0, in_s1, in_zp1);
 3055              		.loc 1 291 5 is_stmt 1
 3056              		.loc 1 292 5
 286:lib/tinymaix/src/tm_layers.c ****     //It is simple and experimental implement for ADD, could be more way faster
GAS LISTING C:\Users\Jesper\AppData\Local\Temp\cc1iO6kH.s 			page 77


 3057              		.loc 1 286 1 is_stmt 0
 3058 0046 66DA     		sw	s9,52(sp)
 3059              		.cfi_offset 25, -44
 3060              		.loc 1 292 5
 3061 0048 97000000 		call	__extendsfdf2
 3061      E7800000 
 3062              	.LVL356:
 3063 0050 2AC8     		sw	a0,16(sp)
 3064 0052 4A85     		mv	a0,s2
 3065 0054 2ECA     		sw	a1,20(sp)
 3066 0056 97000000 		call	__extendsfdf2
 3066      E7800000 
 3067              	.LVL357:
 3068 005e 4248     		lw	a6,16(sp)
 3069 0060 D248     		lw	a7,20(sp)
 3070 0062 2A86     		mv	a2,a0
 3071 0064 37050000 		lui	a0,%hi(.LC4)
 3072 0068 4E87     		mv	a4,s3
 3073 006a AE86     		mv	a3,a1
 3074 006c 56C0     		sw	s5,0(sp)
 3075 006e 13050500 		addi	a0,a0,%lo(.LC4)
 3076 0072 97000000 		call	printf
 3076      E7800000 
 3077              	.LVL358:
 3078              		.loc 1 292 5 is_stmt 1
 3079 007a 0145     		li	a0,0
 3080 007c 97000000 		call	fflush
 3080      E7800000 
 3081              	.LVL359:
 3082              		.loc 1 292 82
 293:lib/tinymaix/src/tm_layers.c **** #if TM_MDL_TYPE == TM_MDL_FP16 || TM_MDL_TYPE == TM_MDL_FP32 || TM_MDL_TYPE == TM_MDL_INT8
 294:lib/tinymaix/src/tm_layers.c ****     int i;
 3083              		.loc 1 294 5
 295:lib/tinymaix/src/tm_layers.c ****     for(i=0; i+4<=size; ){
 3084              		.loc 1 295 5
 3085 0084 624B     		lw	s6,24(sp)
 3086 0086 9377C4FF 		andi	a5,s0,-4
 3087 008a EA84     		mv	s1,s10
 3088 008c EE8B     		mv	s7,s11
 3089 008e EA97     		add	a5,a5,s10
 3090              	.LVL360:
 3091              	.L144:
 3092              		.loc 1 295 5 is_stmt 0 discriminator 1
 3093 0090 6396F402 		bne	s1,a5,.L145
 3094 0094 9374C4FF 		andi	s1,s0,-4
 3095              	.LVL361:
 3096              	.L146:
 296:lib/tinymaix/src/tm_layers.c ****         res[i] = TM_QUANT(TM_DEQUANT(d0[i],in_s0,in_zp0)+TM_DEQUANT(d1[i],in_s1,in_zp1), out_s, out
 297:lib/tinymaix/src/tm_layers.c ****         res[i] = TM_QUANT(TM_DEQUANT(d0[i],in_s0,in_zp0)+TM_DEQUANT(d1[i],in_s1,in_zp1), out_s, out
 298:lib/tinymaix/src/tm_layers.c ****         res[i] = TM_QUANT(TM_DEQUANT(d0[i],in_s0,in_zp0)+TM_DEQUANT(d1[i],in_s1,in_zp1), out_s, out
 299:lib/tinymaix/src/tm_layers.c ****         res[i] = TM_QUANT(TM_DEQUANT(d0[i],in_s0,in_zp0)+TM_DEQUANT(d1[i],in_s1,in_zp1), out_s, out
 300:lib/tinymaix/src/tm_layers.c ****     }
 301:lib/tinymaix/src/tm_layers.c ****     for(; i<size; i++){
 3097              		.loc 1 301 5 discriminator 1
 3098 0098 63C6841C 		blt	s1,s0,.L147
 302:lib/tinymaix/src/tm_layers.c ****         res[i] = TM_QUANT(TM_DEQUANT(d0[i],in_s0,in_zp0)+TM_DEQUANT(d1[i],in_s1,in_zp1), out_s, out
 303:lib/tinymaix/src/tm_layers.c ****     }
GAS LISTING C:\Users\Jesper\AppData\Local\Temp\cc1iO6kH.s 			page 78


 304:lib/tinymaix/src/tm_layers.c **** #else
 305:lib/tinymaix/src/tm_layers.c ****     #error "ADD not support this data type yet"
 306:lib/tinymaix/src/tm_layers.c **** #endif
 307:lib/tinymaix/src/tm_layers.c ****     return TM_OK;
 3099              		.loc 1 307 5 is_stmt 1
 308:lib/tinymaix/src/tm_layers.c **** }
 3100              		.loc 1 308 1 is_stmt 0
 3101 009c F640     		lw	ra,92(sp)
 3102              		.cfi_remember_state
 3103              		.cfi_restore 1
 3104 009e 6644     		lw	s0,88(sp)
 3105              		.cfi_restore 8
 3106              	.LVL362:
 3107 00a0 D644     		lw	s1,84(sp)
 3108              		.cfi_restore 9
 3109              	.LVL363:
 3110 00a2 4649     		lw	s2,80(sp)
 3111              		.cfi_restore 18
 3112              	.LVL364:
 3113 00a4 B649     		lw	s3,76(sp)
 3114              		.cfi_restore 19
 3115              	.LVL365:
 3116 00a6 264A     		lw	s4,72(sp)
 3117              		.cfi_restore 20
 3118              	.LVL366:
 3119 00a8 964A     		lw	s5,68(sp)
 3120              		.cfi_restore 21
 3121              	.LVL367:
 3122 00aa 064B     		lw	s6,64(sp)
 3123              		.cfi_restore 22
 3124 00ac F25B     		lw	s7,60(sp)
 3125              		.cfi_restore 23
 3126 00ae 625C     		lw	s8,56(sp)
 3127              		.cfi_restore 24
 3128              	.LVL368:
 3129 00b0 D25C     		lw	s9,52(sp)
 3130              		.cfi_restore 25
 3131 00b2 425D     		lw	s10,48(sp)
 3132              		.cfi_restore 26
 3133              	.LVL369:
 3134 00b4 B25D     		lw	s11,44(sp)
 3135              		.cfi_restore 27
 3136              	.LVL370:
 3137 00b6 0145     		li	a0,0
 3138 00b8 2561     		addi	sp,sp,96
 3139              	.LCFI13:
 3140              		.cfi_def_cfa_offset 0
 3141              	.LVL371:
 3142 00ba 8280     		jr	ra
 3143              	.LVL372:
 3144              	.L145:
 3145              	.LCFI14:
 3146              		.cfi_restore_state
 296:lib/tinymaix/src/tm_layers.c ****         res[i] = TM_QUANT(TM_DEQUANT(d0[i],in_s0,in_zp0)+TM_DEQUANT(d1[i],in_s1,in_zp1), out_s, out
 3147              		.loc 1 296 18
 3148 00bc 0655     		lw	a0,96(sp)
 3149 00be 3ECE     		sw	a5,28(sp)
GAS LISTING C:\Users\Jesper\AppData\Local\Temp\cc1iO6kH.s 			page 79


 296:lib/tinymaix/src/tm_layers.c ****         res[i] = TM_QUANT(TM_DEQUANT(d0[i],in_s0,in_zp0)+TM_DEQUANT(d1[i],in_s1,in_zp1), out_s, out
 3150              		.loc 1 296 9 is_stmt 1
 3151 00c0 9104     		addi	s1,s1,4
 3152              	.LVL373:
 296:lib/tinymaix/src/tm_layers.c ****         res[i] = TM_QUANT(TM_DEQUANT(d0[i],in_s0,in_zp0)+TM_DEQUANT(d1[i],in_s1,in_zp1), out_s, out
 3153              		.loc 1 296 18 is_stmt 0
 3154 00c2 97000000 		call	__floatsisf
 3154      E7800000 
 3155              	.LVL374:
 3156 00ca AA8C     		mv	s9,a0
 3157 00cc 0385C4FF 		lb	a0,-4(s1)
 3158 00d0 110B     		addi	s6,s6,4
 3159 00d2 910B     		addi	s7,s7,4
 3160 00d4 33053541 		sub	a0,a0,s3
 3161 00d8 97000000 		call	__floatsisf
 3161      E7800000 
 3162              	.LVL375:
 3163 00e0 CA85     		mv	a1,s2
 3164 00e2 97000000 		call	__mulsf3
 3164      E7800000 
 3165              	.LVL376:
 3166 00ea 2AC8     		sw	a0,16(sp)
 3167 00ec 0305CBFF 		lb	a0,-4(s6)
 3168 00f0 33055541 		sub	a0,a0,s5
 3169 00f4 97000000 		call	__floatsisf
 3169      E7800000 
 3170              	.LVL377:
 3171 00fc D285     		mv	a1,s4
 3172 00fe 97000000 		call	__mulsf3
 3172      E7800000 
 3173              	.LVL378:
 3174 0106 4247     		lw	a4,16(sp)
 3175 0108 AA85     		mv	a1,a0
 3176 010a 3A85     		mv	a0,a4
 3177 010c 97000000 		call	__addsf3
 3177      E7800000 
 3178              	.LVL379:
 3179 0114 E285     		mv	a1,s8
 3180 0116 97000000 		call	__divsf3
 3180      E7800000 
 3181              	.LVL380:
 3182 011e E685     		mv	a1,s9
 3183 0120 97000000 		call	__addsf3
 3183      E7800000 
 3184              	.LVL381:
 3185 0128 97000000 		call	__fixsfsi
 3185      E7800000 
 3186              	.LVL382:
 3187 0130 238EABFE 		sb	a0,-4(s7)
 296:lib/tinymaix/src/tm_layers.c ****         res[i] = TM_QUANT(TM_DEQUANT(d0[i],in_s0,in_zp0)+TM_DEQUANT(d1[i],in_s1,in_zp1), out_s, out
 3188              		.loc 1 296 106 is_stmt 1
 3189              	.LVL383:
 297:lib/tinymaix/src/tm_layers.c ****         res[i] = TM_QUANT(TM_DEQUANT(d0[i],in_s0,in_zp0)+TM_DEQUANT(d1[i],in_s1,in_zp1), out_s, out
 3190              		.loc 1 297 9
 297:lib/tinymaix/src/tm_layers.c ****         res[i] = TM_QUANT(TM_DEQUANT(d0[i],in_s0,in_zp0)+TM_DEQUANT(d1[i],in_s1,in_zp1), out_s, out
 3191              		.loc 1 297 18 is_stmt 0
 3192 0134 0385D4FF 		lb	a0,-3(s1)
GAS LISTING C:\Users\Jesper\AppData\Local\Temp\cc1iO6kH.s 			page 80


 3193 0138 33053541 		sub	a0,a0,s3
 3194 013c 97000000 		call	__floatsisf
 3194      E7800000 
 3195              	.LVL384:
 3196 0144 CA85     		mv	a1,s2
 3197 0146 97000000 		call	__mulsf3
 3197      E7800000 
 3198              	.LVL385:
 3199 014e 2AC8     		sw	a0,16(sp)
 3200 0150 0305DBFF 		lb	a0,-3(s6)
 3201 0154 33055541 		sub	a0,a0,s5
 3202 0158 97000000 		call	__floatsisf
 3202      E7800000 
 3203              	.LVL386:
 3204 0160 D285     		mv	a1,s4
 3205 0162 97000000 		call	__mulsf3
 3205      E7800000 
 3206              	.LVL387:
 3207 016a 4247     		lw	a4,16(sp)
 3208 016c AA85     		mv	a1,a0
 3209 016e 3A85     		mv	a0,a4
 3210 0170 97000000 		call	__addsf3
 3210      E7800000 
 3211              	.LVL388:
 3212 0178 E285     		mv	a1,s8
 3213 017a 97000000 		call	__divsf3
 3213      E7800000 
 3214              	.LVL389:
 3215 0182 E685     		mv	a1,s9
 3216 0184 97000000 		call	__addsf3
 3216      E7800000 
 3217              	.LVL390:
 3218 018c 97000000 		call	__fixsfsi
 3218      E7800000 
 3219              	.LVL391:
 3220 0194 A38EABFE 		sb	a0,-3(s7)
 297:lib/tinymaix/src/tm_layers.c ****         res[i] = TM_QUANT(TM_DEQUANT(d0[i],in_s0,in_zp0)+TM_DEQUANT(d1[i],in_s1,in_zp1), out_s, out
 3221              		.loc 1 297 106 is_stmt 1
 298:lib/tinymaix/src/tm_layers.c ****         res[i] = TM_QUANT(TM_DEQUANT(d0[i],in_s0,in_zp0)+TM_DEQUANT(d1[i],in_s1,in_zp1), out_s, out
 3222              		.loc 1 298 9
 298:lib/tinymaix/src/tm_layers.c ****         res[i] = TM_QUANT(TM_DEQUANT(d0[i],in_s0,in_zp0)+TM_DEQUANT(d1[i],in_s1,in_zp1), out_s, out
 3223              		.loc 1 298 18 is_stmt 0
 3224 0198 0385E4FF 		lb	a0,-2(s1)
 3225 019c 33053541 		sub	a0,a0,s3
 3226 01a0 97000000 		call	__floatsisf
 3226      E7800000 
 3227              	.LVL392:
 3228 01a8 CA85     		mv	a1,s2
 3229 01aa 97000000 		call	__mulsf3
 3229      E7800000 
 3230              	.LVL393:
 3231 01b2 2AC8     		sw	a0,16(sp)
 3232 01b4 0305EBFF 		lb	a0,-2(s6)
 3233 01b8 33055541 		sub	a0,a0,s5
 3234 01bc 97000000 		call	__floatsisf
 3234      E7800000 
 3235              	.LVL394:
GAS LISTING C:\Users\Jesper\AppData\Local\Temp\cc1iO6kH.s 			page 81


 3236 01c4 D285     		mv	a1,s4
 3237 01c6 97000000 		call	__mulsf3
 3237      E7800000 
 3238              	.LVL395:
 3239 01ce 4247     		lw	a4,16(sp)
 3240 01d0 AA85     		mv	a1,a0
 3241 01d2 3A85     		mv	a0,a4
 3242 01d4 97000000 		call	__addsf3
 3242      E7800000 
 3243              	.LVL396:
 3244 01dc E285     		mv	a1,s8
 3245 01de 97000000 		call	__divsf3
 3245      E7800000 
 3246              	.LVL397:
 3247 01e6 E685     		mv	a1,s9
 3248 01e8 97000000 		call	__addsf3
 3248      E7800000 
 3249              	.LVL398:
 3250 01f0 97000000 		call	__fixsfsi
 3250      E7800000 
 3251              	.LVL399:
 3252 01f8 238FABFE 		sb	a0,-2(s7)
 298:lib/tinymaix/src/tm_layers.c ****         res[i] = TM_QUANT(TM_DEQUANT(d0[i],in_s0,in_zp0)+TM_DEQUANT(d1[i],in_s1,in_zp1), out_s, out
 3253              		.loc 1 298 106 is_stmt 1
 299:lib/tinymaix/src/tm_layers.c ****     }
 3254              		.loc 1 299 9
 299:lib/tinymaix/src/tm_layers.c ****     }
 3255              		.loc 1 299 18 is_stmt 0
 3256 01fc 0385F4FF 		lb	a0,-1(s1)
 3257 0200 33053541 		sub	a0,a0,s3
 3258 0204 97000000 		call	__floatsisf
 3258      E7800000 
 3259              	.LVL400:
 3260 020c CA85     		mv	a1,s2
 3261 020e 97000000 		call	__mulsf3
 3261      E7800000 
 3262              	.LVL401:
 3263 0216 2AC8     		sw	a0,16(sp)
 3264 0218 0305FBFF 		lb	a0,-1(s6)
 3265 021c 33055541 		sub	a0,a0,s5
 3266 0220 97000000 		call	__floatsisf
 3266      E7800000 
 3267              	.LVL402:
 3268 0228 D285     		mv	a1,s4
 3269 022a 97000000 		call	__mulsf3
 3269      E7800000 
 3270              	.LVL403:
 3271 0232 4247     		lw	a4,16(sp)
 3272 0234 AA85     		mv	a1,a0
 3273 0236 3A85     		mv	a0,a4
 3274 0238 97000000 		call	__addsf3
 3274      E7800000 
 3275              	.LVL404:
 3276 0240 E285     		mv	a1,s8
 3277 0242 97000000 		call	__divsf3
 3277      E7800000 
 3278              	.LVL405:
GAS LISTING C:\Users\Jesper\AppData\Local\Temp\cc1iO6kH.s 			page 82


 3279 024a E685     		mv	a1,s9
 3280 024c 97000000 		call	__addsf3
 3280      E7800000 
 3281              	.LVL406:
 3282 0254 97000000 		call	__fixsfsi
 3282      E7800000 
 3283              	.LVL407:
 3284 025c A38FABFE 		sb	a0,-1(s7)
 299:lib/tinymaix/src/tm_layers.c ****     }
 3285              		.loc 1 299 106 is_stmt 1
 3286 0260 F247     		lw	a5,28(sp)
 3287 0262 3DB5     		j	.L144
 3288              	.LVL408:
 3289              	.L147:
 302:lib/tinymaix/src/tm_layers.c ****     }
 3290              		.loc 1 302 9 discriminator 2
 302:lib/tinymaix/src/tm_layers.c ****     }
 3291              		.loc 1 302 18 is_stmt 0 discriminator 2
 3292 0264 B3079D00 		add	a5,s10,s1
 3293 0268 03850700 		lb	a0,0(a5)
 302:lib/tinymaix/src/tm_layers.c ****     }
 3294              		.loc 1 302 16 discriminator 2
 3295 026c 338B9D00 		add	s6,s11,s1
 302:lib/tinymaix/src/tm_layers.c ****     }
 3296              		.loc 1 302 18 discriminator 2
 3297 0270 33053541 		sub	a0,a0,s3
 3298 0274 97000000 		call	__floatsisf
 3298      E7800000 
 3299              	.LVL409:
 3300 027c CA85     		mv	a1,s2
 3301 027e 97000000 		call	__mulsf3
 3301      E7800000 
 3302              	.LVL410:
 3303 0286 E247     		lw	a5,24(sp)
 3304 0288 AA8B     		mv	s7,a0
 3305 028a A697     		add	a5,a5,s1
 3306 028c 03850700 		lb	a0,0(a5)
 301:lib/tinymaix/src/tm_layers.c ****         res[i] = TM_QUANT(TM_DEQUANT(d0[i],in_s0,in_zp0)+TM_DEQUANT(d1[i],in_s1,in_zp1), out_s, out
 3307              		.loc 1 301 20 discriminator 2
 3308 0290 8504     		addi	s1,s1,1
 3309              	.LVL411:
 302:lib/tinymaix/src/tm_layers.c ****     }
 3310              		.loc 1 302 18 discriminator 2
 3311 0292 33055541 		sub	a0,a0,s5
 3312 0296 97000000 		call	__floatsisf
 3312      E7800000 
 3313              	.LVL412:
 3314 029e D285     		mv	a1,s4
 3315 02a0 97000000 		call	__mulsf3
 3315      E7800000 
 3316              	.LVL413:
 3317 02a8 AA85     		mv	a1,a0
 3318 02aa 5E85     		mv	a0,s7
 3319 02ac 97000000 		call	__addsf3
 3319      E7800000 
 3320              	.LVL414:
 3321 02b4 E285     		mv	a1,s8
GAS LISTING C:\Users\Jesper\AppData\Local\Temp\cc1iO6kH.s 			page 83


 3322 02b6 97000000 		call	__divsf3
 3322      E7800000 
 3323              	.LVL415:
 3324 02be AA8B     		mv	s7,a0
 3325 02c0 0655     		lw	a0,96(sp)
 3326 02c2 97000000 		call	__floatsisf
 3326      E7800000 
 3327              	.LVL416:
 3328 02ca AA85     		mv	a1,a0
 3329 02cc 5E85     		mv	a0,s7
 3330 02ce 97000000 		call	__addsf3
 3330      E7800000 
 3331              	.LVL417:
 3332 02d6 97000000 		call	__fixsfsi
 3332      E7800000 
 3333              	.LVL418:
 3334 02de 2300AB00 		sb	a0,0(s6)
 3335 02e2 5DBB     		j	.L146
 3336              		.cfi_endproc
 3337              	.LFE38:
 3339              		.section	.bss.k_oft,"aw",@nobits
 3340              		.align	2
 3341              		.set	.LANCHOR0,. + 0
 3344              	k_oft:
 3345 0000 00000000 		.zero	100
 3345      00000000 
 3345      00000000 
 3345      00000000 
 3345      00000000 
 3346              		.section	.bss.sbuf,"aw",@nobits
 3347              		.align	2
 3350              	sbuf:
 3351 0000 00000000 		.zero	2304
 3351      00000000 
 3351      00000000 
 3351      00000000 
 3351      00000000 
 3352              		.section	.bss.sumscale,"aw",@nobits
 3353              		.align	2
 3356              	sumscale:
 3357 0000 00000000 		.zero	4000
 3357      00000000 
 3357      00000000 
 3357      00000000 
 3357      00000000 
 3358              		.section	.rodata.tml_add.str1.4,"aMS",@progbits,1
 3359              		.align	2
 3360              	.LC4:
 3361 0000 73303D25 		.string	"s0=%.3f,zp0=%d; s1=%.3f,zp1=%d\r\n"
 3361      2E33662C 
 3361      7A70303D 
 3361      25643B20 
 3361      73313D25 
 3362              		.section	.rodata.tml_conv2d_dwconv2d.cst4,"aM",@progbits,4
 3363              		.align	2
 3364              	.LC0:
 3365 0000 00008043 		.word	1132462080
GAS LISTING C:\Users\Jesper\AppData\Local\Temp\cc1iO6kH.s 			page 84


 3366              		.section	.rodata.tml_conv2d_dwconv2d.cst8,"aM",@progbits,8
 3367              		.align	3
 3368              	.LC1:
 3369 0000 00000000 		.word	0
 3370 0004 0000F03F 		.word	1072693248
 3371              		.section	.rodata.tml_softmax.cst4,"aM",@progbits,4
 3372              		.align	2
 3373              	.LC2:
 3374 0000 FFFF7FFF 		.word	-8388609
 3375              		.section	.rodata.tml_softmax.cst8,"aM",@progbits,8
 3376              		.align	3
 3377              	.LC3:
 3378 0000 8DEDB5A0 		.word	-1598689907
 3379 0004 F7C6B03E 		.word	1051772663
 3380              		.text
 3381              	.Letext0:
 3382              		.file 3 "c:\\users\\jesper\\documents\\ml_sommarjobb\\toolchain-gd32v-v201-win\\toolchain-gd32v-v2
 3383              		.file 4 "c:\\users\\jesper\\documents\\ml_sommarjobb\\toolchain-gd32v-v201-win\\toolchain-gd32v-v2
 3384              		.file 5 "c:\\users\\jesper\\documents\\ml_sommarjobb\\toolchain-gd32v-v201-win\\toolchain-gd32v-v2
 3385              		.file 6 "c:\\users\\jesper\\documents\\ml_sommarjobb\\toolchain-gd32v-v201-win\\toolchain-gd32v-v2
 3386              		.file 7 "c:\\users\\jesper\\documents\\ml_sommarjobb\\toolchain-gd32v-v201-win\\toolchain-gd32v-v2
 3387              		.file 8 "c:\\users\\jesper\\documents\\ml_sommarjobb\\toolchain-gd32v-v201-win\\toolchain-gd32v-v2
 3388              		.file 9 "c:\\users\\jesper\\documents\\ml_sommarjobb\\toolchain-gd32v-v201-win\\toolchain-gd32v-v2
 3389              		.file 10 "./../../firmware/GD32VF103_standard_peripheral/system_gd32vf103.h"
 3390              		.file 11 "c:\\users\\jesper\\documents\\ml_sommarjobb\\toolchain-gd32v-v201-win\\toolchain-gd32v-v
 3391              		.file 12 "lib/tinymaix/include/tinymaix.h"
 3392              		.file 13 "c:\\users\\jesper\\documents\\ml_sommarjobb\\toolchain-gd32v-v201-win\\toolchain-gd32v-v
 3393              		.file 14 "c:\\users\\jesper\\documents\\ml_sommarjobb\\toolchain-gd32v-v201-win\\toolchain-gd32v-v
 3394              		.file 15 "lib/tinymaix/include/get_time.h"
 3395              		.file 16 "c:\\users\\jesper\\documents\\ml_sommarjobb\\toolchain-gd32v-v201-win\\toolchain-gd32v-v
GAS LISTING C:\Users\Jesper\AppData\Local\Temp\cc1iO6kH.s 			page 85

