GAS LISTING C:\Users\Jesper\AppData\Local\Temp\ccxfaHGf.s 			page 1


   1              		.file	"tm_model.c"
   2              		.option nopic
   3              		.attribute arch, "rv32i2p0_m2p0_a2p0_c2p0"
   4              		.attribute unaligned_access, 0
   5              		.attribute stack_align, 16
   6              		.text
   7              	.Ltext0:
   8              		.cfi_sections	.debug_frame
   9              		.section	.text.tm_load,"ax",@progbits
  10              		.align	1
  11              		.weak	tm_load
  13              	tm_load:
  14              	.LFB28:
  15              		.file 1 "lib/tinymaix/src/tm_model.c"
   1:lib/tinymaix/src/tm_model.c **** /* Copyright 2022 Sipeed Technology Co., Ltd. All Rights Reserved.
   2:lib/tinymaix/src/tm_model.c **** Licensed under the Apache License, Version 2.0 (the "License");
   3:lib/tinymaix/src/tm_model.c **** you may not use this file except in compliance with the License.
   4:lib/tinymaix/src/tm_model.c **** You may obtain a copy of the License at
   5:lib/tinymaix/src/tm_model.c ****     http://www.apache.org/licenses/LICENSE-2.0
   6:lib/tinymaix/src/tm_model.c **** Unless required by applicable law or agreed to in writing, software
   7:lib/tinymaix/src/tm_model.c **** distributed under the License is distributed on an "AS IS" BASIS,
   8:lib/tinymaix/src/tm_model.c **** WITHOUT WARRANTIES OR CONDITIONS OF ANY KIND, either express or implied.
   9:lib/tinymaix/src/tm_model.c **** See the License for the specific language governing permissions and
  10:lib/tinymaix/src/tm_model.c **** limitations under the License.
  11:lib/tinymaix/src/tm_model.c **** ==============================================================================*/
  12:lib/tinymaix/src/tm_model.c **** #include "tinymaix.h"
  13:lib/tinymaix/src/tm_model.c **** 
  14:lib/tinymaix/src/tm_model.c **** //load model
  15:lib/tinymaix/src/tm_model.c **** //mdl: model handle; bin: model bin buf; buf: main buf for middle output; cb: layer callback; 
  16:lib/tinymaix/src/tm_model.c **** //in: return input mat, include buf addr; //you can ignore it if use static buf
  17:lib/tinymaix/src/tm_model.c **** tm_err_t TM_WEAK tm_load  (tm_mdl_t* mdl, const uint8_t* bin, uint8_t*buf, tm_cb_t cb, tm_mat_t* in
  18:lib/tinymaix/src/tm_model.c **** {
  16              		.loc 1 18 1
  17              		.cfi_startproc
  18              	.LVL0:
  19:lib/tinymaix/src/tm_model.c ****     tm_mdlbin_t* mdl_bin = (tm_mdlbin_t*)bin;
  19              		.loc 1 19 5
  20:lib/tinymaix/src/tm_model.c ****     if(mdl_bin->magic != TM_MDL_MAGIC)   return TM_ERR_MAGIC;   //FIXME: big-endian not compatible
  20              		.loc 1 20 5
  18:lib/tinymaix/src/tm_model.c ****     tm_mdlbin_t* mdl_bin = (tm_mdlbin_t*)bin;
  21              		.loc 1 18 1 is_stmt 0
  22 0000 4111     		addi	sp,sp,-16
  23              	.LCFI0:
  24              		.cfi_def_cfa_offset 16
  25 0002 22C4     		sw	s0,8(sp)
  26              		.cfi_offset 8, -8
  27 0004 2A84     		mv	s0,a0
  28              		.loc 1 20 7
  29 0006 8841     		lw	a0,0(a1)
  30              	.LVL1:
  31 0008 B7474958 		li	a5,1481195520
  18:lib/tinymaix/src/tm_model.c ****     tm_mdlbin_t* mdl_bin = (tm_mdlbin_t*)bin;
  32              		.loc 1 18 1
  33 000c 06C6     		sw	ra,12(sp)
  34 000e 26C2     		sw	s1,4(sp)
  35 0010 4AC0     		sw	s2,0(sp)
  36              		.cfi_offset 1, -4
GAS LISTING C:\Users\Jesper\AppData\Local\Temp\ccxfaHGf.s 			page 2


  37              		.cfi_offset 9, -12
  38              		.cfi_offset 18, -16
  39              		.loc 1 20 7
  40 0012 9387D714 		addi	a5,a5,333
  41 0016 631DF506 		bne	a0,a5,.L9
  21:lib/tinymaix/src/tm_model.c ****     if(mdl_bin->mdl_type != TM_MDL_TYPE) return TM_ERR_MDLTYPE;
  42              		.loc 1 21 5 is_stmt 1
  43              		.loc 1 21 7 is_stmt 0
  44 001a 83C74500 		lbu	a5,4(a1)
  45              		.loc 1 21 49
  46 001e 2145     		li	a0,8
  47              		.loc 1 21 7
  48 0020 91EF     		bne	a5,zero,.L1
  22:lib/tinymaix/src/tm_model.c ****     mdl->b          = mdl_bin;
  49              		.loc 1 22 21
  50 0022 0CC0     		sw	a1,0(s0)
  23:lib/tinymaix/src/tm_model.c ****     mdl->cb         = (void*)cb;
  51              		.loc 1 23 21
  52 0024 54C0     		sw	a3,4(s0)
  53 0026 3A89     		mv	s2,a4
  54 0028 AE84     		mv	s1,a1
  22:lib/tinymaix/src/tm_model.c ****     mdl->b          = mdl_bin;
  55              		.loc 1 22 5 is_stmt 1
  56              		.loc 1 23 5
  24:lib/tinymaix/src/tm_model.c ****     if(buf == NULL) {
  57              		.loc 1 24 5
  58              		.loc 1 24 7 is_stmt 0
  59 002a 21EE     		bne	a2,zero,.L3
  25:lib/tinymaix/src/tm_model.c ****         mdl->buf        = (uint8_t*)tm_malloc(mdl->b->buf_size);
  60              		.loc 1 25 9 is_stmt 1
  61              		.loc 1 25 37 is_stmt 0
  62 002c C845     		lw	a0,12(a1)
  63 002e 97000000 		call	malloc
  63      E7800000 
  64              	.LVL2:
  65              		.loc 1 25 25
  66 0036 08C4     		sw	a0,8(s0)
  26:lib/tinymaix/src/tm_model.c ****         if(mdl->buf == NULL) return TM_ERR_OOM;
  67              		.loc 1 26 9 is_stmt 1
  68              		.loc 1 26 11 is_stmt 0
  69 0038 01E9     		bne	a0,zero,.L4
  70              	.L7:
  71              		.loc 1 26 37
  72 003a 1145     		li	a0,4
  73              	.LVL3:
  74              	.L1:
  27:lib/tinymaix/src/tm_model.c ****         mdl->main_alloc = 1;
  28:lib/tinymaix/src/tm_model.c **** 	} else {
  29:lib/tinymaix/src/tm_model.c ****         mdl->buf = buf;
  30:lib/tinymaix/src/tm_model.c ****         mdl->main_alloc = 0;
  31:lib/tinymaix/src/tm_model.c ****     }
  32:lib/tinymaix/src/tm_model.c ****     if(mdl->b->sub_size > 0) {
  33:lib/tinymaix/src/tm_model.c ****         mdl->subbuf = (uint8_t*)tm_malloc(mdl->b->sub_size);
  34:lib/tinymaix/src/tm_model.c ****         if(mdl->subbuf == NULL) return TM_ERR_OOM;
  35:lib/tinymaix/src/tm_model.c ****     } else mdl->subbuf = NULL;
  36:lib/tinymaix/src/tm_model.c ****     mdl->layer_i    = 0;
  37:lib/tinymaix/src/tm_model.c ****     mdl->layer_body = mdl->b->layers_body;
GAS LISTING C:\Users\Jesper\AppData\Local\Temp\ccxfaHGf.s 			page 3


  38:lib/tinymaix/src/tm_model.c ****     memcpy((void*)in, (void*)mdl->b->in_dims, sizeof(tm_mat_t));
  39:lib/tinymaix/src/tm_model.c ****     in->data = (mtype_t*)mdl->buf; //input at 0 oft
  40:lib/tinymaix/src/tm_model.c ****     return TM_OK;
  41:lib/tinymaix/src/tm_model.c **** }
  75              		.loc 1 41 1
  76 003c B240     		lw	ra,12(sp)
  77              		.cfi_remember_state
  78              		.cfi_restore 1
  79 003e 2244     		lw	s0,8(sp)
  80              		.cfi_restore 8
  81              	.LVL4:
  82 0040 9244     		lw	s1,4(sp)
  83              		.cfi_restore 9
  84 0042 0249     		lw	s2,0(sp)
  85              		.cfi_restore 18
  86 0044 4101     		addi	sp,sp,16
  87              	.LCFI1:
  88              		.cfi_def_cfa_offset 0
  89 0046 8280     		jr	ra
  90              	.LVL5:
  91              	.L4:
  92              	.LCFI2:
  93              		.cfi_restore_state
  27:lib/tinymaix/src/tm_model.c ****         mdl->main_alloc = 1;
  94              		.loc 1 27 9 is_stmt 1
  27:lib/tinymaix/src/tm_model.c ****         mdl->main_alloc = 1;
  95              		.loc 1 27 25 is_stmt 0
  96 0048 8547     		li	a5,1
  97 004a 2318F400 		sh	a5,16(s0)
  98              	.L5:
  32:lib/tinymaix/src/tm_model.c ****         mdl->subbuf = (uint8_t*)tm_malloc(mdl->b->sub_size);
  99              		.loc 1 32 5 is_stmt 1
  32:lib/tinymaix/src/tm_model.c ****         mdl->subbuf = (uint8_t*)tm_malloc(mdl->b->sub_size);
 100              		.loc 1 32 14 is_stmt 0
 101 004e 8848     		lw	a0,16(s1)
  32:lib/tinymaix/src/tm_model.c ****         mdl->subbuf = (uint8_t*)tm_malloc(mdl->b->sub_size);
 102              		.loc 1 32 7
 103 0050 0DCD     		beq	a0,zero,.L6
  33:lib/tinymaix/src/tm_model.c ****         if(mdl->subbuf == NULL) return TM_ERR_OOM;
 104              		.loc 1 33 9 is_stmt 1
  33:lib/tinymaix/src/tm_model.c ****         if(mdl->subbuf == NULL) return TM_ERR_OOM;
 105              		.loc 1 33 33 is_stmt 0
 106 0052 97000000 		call	malloc
 106      E7800000 
 107              	.LVL6:
  33:lib/tinymaix/src/tm_model.c ****         if(mdl->subbuf == NULL) return TM_ERR_OOM;
 108              		.loc 1 33 21
 109 005a 48C4     		sw	a0,12(s0)
  34:lib/tinymaix/src/tm_model.c ****     } else mdl->subbuf = NULL;
 110              		.loc 1 34 9 is_stmt 1
  34:lib/tinymaix/src/tm_model.c ****     } else mdl->subbuf = NULL;
 111              		.loc 1 34 11 is_stmt 0
 112 005c 79DD     		beq	a0,zero,.L7
 113              	.L8:
  36:lib/tinymaix/src/tm_model.c ****     mdl->layer_body = mdl->b->layers_body;
 114              		.loc 1 36 5 is_stmt 1
  37:lib/tinymaix/src/tm_model.c ****     memcpy((void*)in, (void*)mdl->b->in_dims, sizeof(tm_mat_t));
GAS LISTING C:\Users\Jesper\AppData\Local\Temp\ccxfaHGf.s 			page 4


 115              		.loc 1 37 23 is_stmt 0
 116 005e 93870404 		addi	a5,s1,64
  37:lib/tinymaix/src/tm_model.c ****     memcpy((void*)in, (void*)mdl->b->in_dims, sizeof(tm_mat_t));
 117              		.loc 1 37 21
 118 0062 5CC8     		sw	a5,20(s0)
  36:lib/tinymaix/src/tm_model.c ****     mdl->layer_body = mdl->b->layers_body;
 119              		.loc 1 36 21
 120 0064 23190400 		sh	zero,18(s0)
  37:lib/tinymaix/src/tm_model.c ****     memcpy((void*)in, (void*)mdl->b->in_dims, sizeof(tm_mat_t));
 121              		.loc 1 37 5 is_stmt 1
  38:lib/tinymaix/src/tm_model.c ****     in->data = (mtype_t*)mdl->buf; //input at 0 oft
 122              		.loc 1 38 5
 123 0068 3146     		li	a2,12
 124 006a 93854401 		addi	a1,s1,20
 125 006e 4A85     		mv	a0,s2
 126 0070 97000000 		call	memcpy
 126      E7800000 
 127              	.LVL7:
  39:lib/tinymaix/src/tm_model.c ****     return TM_OK;
 128              		.loc 1 39 5
  39:lib/tinymaix/src/tm_model.c ****     return TM_OK;
 129              		.loc 1 39 14 is_stmt 0
 130 0078 1C44     		lw	a5,8(s0)
  40:lib/tinymaix/src/tm_model.c **** }
 131              		.loc 1 40 12
 132 007a 0145     		li	a0,0
  39:lib/tinymaix/src/tm_model.c ****     return TM_OK;
 133              		.loc 1 39 14
 134 007c 2324F900 		sw	a5,8(s2)
  40:lib/tinymaix/src/tm_model.c **** }
 135              		.loc 1 40 5 is_stmt 1
  40:lib/tinymaix/src/tm_model.c **** }
 136              		.loc 1 40 12 is_stmt 0
 137 0080 75BF     		j	.L1
 138              	.LVL8:
 139              	.L3:
  29:lib/tinymaix/src/tm_model.c ****         mdl->main_alloc = 0;
 140              		.loc 1 29 9 is_stmt 1
  29:lib/tinymaix/src/tm_model.c ****         mdl->main_alloc = 0;
 141              		.loc 1 29 18 is_stmt 0
 142 0082 10C4     		sw	a2,8(s0)
  30:lib/tinymaix/src/tm_model.c ****     }
 143              		.loc 1 30 9 is_stmt 1
  30:lib/tinymaix/src/tm_model.c ****     }
 144              		.loc 1 30 25 is_stmt 0
 145 0084 23180400 		sh	zero,16(s0)
 146 0088 D9B7     		j	.L5
 147              	.LVL9:
 148              	.L6:
  35:lib/tinymaix/src/tm_model.c ****     mdl->layer_i    = 0;
 149              		.loc 1 35 12 is_stmt 1
  35:lib/tinymaix/src/tm_model.c ****     mdl->layer_i    = 0;
 150              		.loc 1 35 24 is_stmt 0
 151 008a 23260400 		sw	zero,12(s0)
 152 008e C1BF     		j	.L8
 153              	.LVL10:
 154              	.L9:
GAS LISTING C:\Users\Jesper\AppData\Local\Temp\ccxfaHGf.s 			page 5


  20:lib/tinymaix/src/tm_model.c ****     if(mdl_bin->mdl_type != TM_MDL_TYPE) return TM_ERR_MDLTYPE;
 155              		.loc 1 20 49
 156 0090 0945     		li	a0,2
 157 0092 6DB7     		j	.L1
 158              		.cfi_endproc
 159              	.LFE28:
 161              		.section	.text.tm_unload,"ax",@progbits
 162              		.align	1
 163              		.weak	tm_unload
 165              	tm_unload:
 166              	.LFB29:
  42:lib/tinymaix/src/tm_model.c **** 
  43:lib/tinymaix/src/tm_model.c **** //remove model
  44:lib/tinymaix/src/tm_model.c **** void TM_WEAK tm_unload(tm_mdl_t* mdl)
  45:lib/tinymaix/src/tm_model.c **** {
 167              		.loc 1 45 1 is_stmt 1
 168              		.cfi_startproc
 169              	.LVL11:
  46:lib/tinymaix/src/tm_model.c ****     if(mdl->main_alloc) tm_free(mdl->buf);
 170              		.loc 1 46 5
 171              		.loc 1 46 7 is_stmt 0
 172 0000 83570501 		lhu	a5,16(a0)
 173 0004 91C7     		beq	a5,zero,.L15
 174              		.loc 1 46 25 is_stmt 1 discriminator 1
 175 0006 0845     		lw	a0,8(a0)
 176              	.LVL12:
 177 0008 17030000 		tail	free
 177      67000300 
 178              	.LVL13:
 179              	.L15:
  47:lib/tinymaix/src/tm_model.c ****     return;
  48:lib/tinymaix/src/tm_model.c **** }
 180              		.loc 1 48 1 is_stmt 0
 181 0010 8280     		ret
 182              		.cfi_endproc
 183              	.LFE29:
 185              		.globl	__divsf3
 186              		.globl	__floatsisf
 187              		.globl	__addsf3
 188              		.globl	__fixsfsi
 189              		.section	.text.tm_preprocess,"ax",@progbits
 190              		.align	1
 191              		.weak	tm_preprocess
 193              	tm_preprocess:
 194              	.LFB30:
  49:lib/tinymaix/src/tm_model.c **** 
  50:lib/tinymaix/src/tm_model.c **** //preprocess data input
  51:lib/tinymaix/src/tm_model.c **** tm_err_t TM_WEAK tm_preprocess(tm_mdl_t* mdl, tm_pp_t pp_type, tm_mat_t* in, tm_mat_t* out)
  52:lib/tinymaix/src/tm_model.c **** {
 195              		.loc 1 52 1 is_stmt 1
 196              		.cfi_startproc
 197              	.LVL14:
  53:lib/tinymaix/src/tm_model.c ****     tml_head_t* l0h = (tml_head_t*)mdl->b->layers_body;
 198              		.loc 1 53 5
  54:lib/tinymaix/src/tm_model.c ****     sctype_t in_s = l0h->in_s;
 199              		.loc 1 54 5
  55:lib/tinymaix/src/tm_model.c ****     zptype_t in_zp= l0h->in_zp;
GAS LISTING C:\Users\Jesper\AppData\Local\Temp\ccxfaHGf.s 			page 6


 200              		.loc 1 55 5
  56:lib/tinymaix/src/tm_model.c ****     int in_size = in->h*in->w*in->c;
 201              		.loc 1 56 5
  52:lib/tinymaix/src/tm_model.c ****     tml_head_t* l0h = (tml_head_t*)mdl->b->layers_body;
 202              		.loc 1 52 1 is_stmt 0
 203 0000 7971     		addi	sp,sp,-48
 204              	.LCFI3:
 205              		.cfi_def_cfa_offset 48
 206              		.loc 1 56 27
 207 0002 83574600 		lhu	a5,4(a2)
  52:lib/tinymaix/src/tm_model.c ****     tml_head_t* l0h = (tml_head_t*)mdl->b->layers_body;
 208              		.loc 1 52 1
 209 0006 26D2     		sw	s1,36(sp)
 210              		.cfi_offset 9, -12
 211              		.loc 1 56 21
 212 0008 83542600 		lhu	s1,2(a2)
  52:lib/tinymaix/src/tm_model.c ****     tml_head_t* l0h = (tml_head_t*)mdl->b->layers_body;
 213              		.loc 1 52 1
 214 000c 06D6     		sw	ra,44(sp)
 215 000e 22D4     		sw	s0,40(sp)
 216              		.loc 1 56 24
 217 0010 B384F402 		mul	s1,s1,a5
 218              		.loc 1 56 33
 219 0014 83576600 		lhu	a5,6(a2)
  52:lib/tinymaix/src/tm_model.c ****     tml_head_t* l0h = (tml_head_t*)mdl->b->layers_body;
 220              		.loc 1 52 1
 221 0018 4AD0     		sw	s2,32(sp)
 222 001a 4ECE     		sw	s3,28(sp)
 223 001c 52CC     		sw	s4,24(sp)
 224 001e 56CA     		sw	s5,20(sp)
 225 0020 5AC8     		sw	s6,16(sp)
 226 0022 5EC6     		sw	s7,12(sp)
 227              		.cfi_offset 1, -4
 228              		.cfi_offset 8, -8
 229              		.cfi_offset 18, -16
 230              		.cfi_offset 19, -20
 231              		.cfi_offset 20, -24
 232              		.cfi_offset 21, -28
 233              		.cfi_offset 22, -32
 234              		.cfi_offset 23, -36
 235              		.loc 1 56 9
 236 0024 B384F402 		mul	s1,s1,a5
 237              	.LVL15:
  57:lib/tinymaix/src/tm_model.c ****     switch(pp_type){
 238              		.loc 1 57 5 is_stmt 1
 239 0028 8547     		li	a5,1
 240 002a 6388F500 		beq	a1,a5,.L18
 241 002e 8947     		li	a5,2
 242 0030 638AF508 		beq	a1,a5,.L26
  58:lib/tinymaix/src/tm_model.c **** #if (TM_MDL_TYPE == TM_MDL_INT8)||(TM_MDL_TYPE == TM_MDL_INT16)
  59:lib/tinymaix/src/tm_model.c ****     case TMPP_FP2INT:
  60:lib/tinymaix/src/tm_model.c ****         for(int i=0; i<in_size; i++)
  61:lib/tinymaix/src/tm_model.c ****             out->data[i] = (mtype_t)(in->dataf[i]/in_s + in_zp);
  62:lib/tinymaix/src/tm_model.c ****         break;
  63:lib/tinymaix/src/tm_model.c ****     case TMPP_UINT2INT:
  64:lib/tinymaix/src/tm_model.c ****         for(int i=0; i<in_size; i++)
  65:lib/tinymaix/src/tm_model.c ****             out->data[i] = ((mtype_t)(((uint8_t*)(in->data))[i]-128))<<UINT2INT_SHIFT;
GAS LISTING C:\Users\Jesper\AppData\Local\Temp\ccxfaHGf.s 			page 7


  66:lib/tinymaix/src/tm_model.c ****         break;
  67:lib/tinymaix/src/tm_model.c **** #else
  68:lib/tinymaix/src/tm_model.c ****     case TMPP_UINT2FP01:
  69:lib/tinymaix/src/tm_model.c ****         for(int i=0; i<in_size; i++)
  70:lib/tinymaix/src/tm_model.c ****             out->data[i] = (((uint8_t*)(in->data))[i])/255.0;
  71:lib/tinymaix/src/tm_model.c ****         break;
  72:lib/tinymaix/src/tm_model.c ****     case TMPP_UINT2FPN11:
  73:lib/tinymaix/src/tm_model.c ****         for(int i=0; i<in_size; i++)
  74:lib/tinymaix/src/tm_model.c ****             out->data[i] = ((((uint8_t*)(in->data))[i])-128)/128.0;
  75:lib/tinymaix/src/tm_model.c ****         break;
  76:lib/tinymaix/src/tm_model.c **** #endif
  77:lib/tinymaix/src/tm_model.c ****     default:    //don't do anything
  78:lib/tinymaix/src/tm_model.c ****         out->data = in->data;
 243              		.loc 1 78 9
 244              		.loc 1 78 23 is_stmt 0
 245 0034 1C46     		lw	a5,8(a2)
 246              		.loc 1 78 19
 247 0036 9CC6     		sw	a5,8(a3)
  79:lib/tinymaix/src/tm_model.c ****         break;
 248              		.loc 1 79 9 is_stmt 1
 249 0038 19A8     		j	.L23
 250              	.L18:
  53:lib/tinymaix/src/tm_model.c ****     sctype_t in_s = l0h->in_s;
 251              		.loc 1 53 39 is_stmt 0
 252 003a 1C41     		lw	a5,0(a0)
 253 003c 3689     		mv	s2,a3
 254 003e 3284     		mv	s0,a2
  54:lib/tinymaix/src/tm_model.c ****     zptype_t in_zp= l0h->in_zp;
 255              		.loc 1 54 14
 256 0040 83AA0706 		lw	s5,96(a5)
  55:lib/tinymaix/src/tm_model.c ****     int in_size = in->h*in->w*in->c;
 257              		.loc 1 55 14
 258 0044 03AB4706 		lw	s6,100(a5)
 259              	.LBB2:
  60:lib/tinymaix/src/tm_model.c ****             out->data[i] = (mtype_t)(in->dataf[i]/in_s + in_zp);
 260              		.loc 1 60 17
 261 0048 8149     		li	s3,0
 262              	.LVL16:
 263              	.L21:
  60:lib/tinymaix/src/tm_model.c ****             out->data[i] = (mtype_t)(in->dataf[i]/in_s + in_zp);
 264              		.loc 1 60 9 discriminator 1
 265 004a 639E9900 		bne	s3,s1,.L22
 266              	.LVL17:
 267              	.L23:
 268              	.LBE2:
  80:lib/tinymaix/src/tm_model.c ****     }
  81:lib/tinymaix/src/tm_model.c ****     return TM_OK;
 269              		.loc 1 81 5 is_stmt 1
  82:lib/tinymaix/src/tm_model.c **** }
 270              		.loc 1 82 1 is_stmt 0
 271 004e B250     		lw	ra,44(sp)
 272              		.cfi_remember_state
 273              		.cfi_restore 1
 274 0050 2254     		lw	s0,40(sp)
 275              		.cfi_restore 8
 276 0052 9254     		lw	s1,36(sp)
 277              		.cfi_restore 9
GAS LISTING C:\Users\Jesper\AppData\Local\Temp\ccxfaHGf.s 			page 8


 278              	.LVL18:
 279 0054 0259     		lw	s2,32(sp)
 280              		.cfi_restore 18
 281 0056 F249     		lw	s3,28(sp)
 282              		.cfi_restore 19
 283 0058 624A     		lw	s4,24(sp)
 284              		.cfi_restore 20
 285 005a D24A     		lw	s5,20(sp)
 286              		.cfi_restore 21
 287 005c 424B     		lw	s6,16(sp)
 288              		.cfi_restore 22
 289 005e B24B     		lw	s7,12(sp)
 290              		.cfi_restore 23
 291 0060 0145     		li	a0,0
 292 0062 4561     		addi	sp,sp,48
 293              	.LCFI4:
 294              		.cfi_def_cfa_offset 0
 295 0064 8280     		jr	ra
 296              	.LVL19:
 297              	.L22:
 298              	.LCFI5:
 299              		.cfi_restore_state
 300              	.LBB3:
  61:lib/tinymaix/src/tm_model.c ****         break;
 301              		.loc 1 61 13 is_stmt 1 discriminator 3
  61:lib/tinymaix/src/tm_model.c ****         break;
 302              		.loc 1 61 47 is_stmt 0 discriminator 3
 303 0066 1C44     		lw	a5,8(s0)
 304 0068 13972900 		slli	a4,s3,2
  61:lib/tinymaix/src/tm_model.c ****         break;
 305              		.loc 1 61 50 discriminator 3
 306 006c D685     		mv	a1,s5
  61:lib/tinymaix/src/tm_model.c ****         break;
 307              		.loc 1 61 47 discriminator 3
 308 006e BA97     		add	a5,a5,a4
  61:lib/tinymaix/src/tm_model.c ****         break;
 309              		.loc 1 61 50 discriminator 3
 310 0070 8843     		lw	a0,0(a5)
  61:lib/tinymaix/src/tm_model.c ****         break;
 311              		.loc 1 61 26 discriminator 3
 312 0072 032A8900 		lw	s4,8(s2)
  61:lib/tinymaix/src/tm_model.c ****         break;
 313              		.loc 1 61 50 discriminator 3
 314 0076 97000000 		call	__divsf3
 314      E7800000 
 315              	.LVL20:
 316 007e AA8B     		mv	s7,a0
  61:lib/tinymaix/src/tm_model.c ****         break;
 317              		.loc 1 61 56 discriminator 3
 318 0080 5A85     		mv	a0,s6
 319 0082 97000000 		call	__floatsisf
 319      E7800000 
 320              	.LVL21:
 321 008a AA85     		mv	a1,a0
 322 008c 5E85     		mv	a0,s7
 323 008e 97000000 		call	__addsf3
 323      E7800000 
GAS LISTING C:\Users\Jesper\AppData\Local\Temp\ccxfaHGf.s 			page 9


 324              	.LVL22:
  61:lib/tinymaix/src/tm_model.c ****         break;
 325              		.loc 1 61 26 discriminator 3
 326 0096 4E9A     		add	s4,s4,s3
  61:lib/tinymaix/src/tm_model.c ****         break;
 327              		.loc 1 61 28 discriminator 3
 328 0098 97000000 		call	__fixsfsi
 328      E7800000 
 329              	.LVL23:
 330 00a0 2300AA00 		sb	a0,0(s4)
  60:lib/tinymaix/src/tm_model.c ****             out->data[i] = (mtype_t)(in->dataf[i]/in_s + in_zp);
 331              		.loc 1 60 34 discriminator 3
 332 00a4 8509     		addi	s3,s3,1
 333              	.LVL24:
 334 00a6 55B7     		j	.L21
 335              	.LVL25:
 336              	.L24:
 337              	.LBE3:
 338              	.LBB4:
  65:lib/tinymaix/src/tm_model.c ****         break;
 339              		.loc 1 65 13 is_stmt 1 discriminator 3
  65:lib/tinymaix/src/tm_model.c ****         break;
 340              		.loc 1 65 61 is_stmt 0 discriminator 3
 341 00a8 0C46     		lw	a1,8(a2)
  65:lib/tinymaix/src/tm_model.c ****         break;
 342              		.loc 1 65 26 discriminator 3
 343 00aa 9846     		lw	a4,8(a3)
  65:lib/tinymaix/src/tm_model.c ****         break;
 344              		.loc 1 65 61 discriminator 3
 345 00ac BE95     		add	a1,a1,a5
  65:lib/tinymaix/src/tm_model.c ****         break;
 346              		.loc 1 65 64 discriminator 3
 347 00ae 83C50500 		lbu	a1,0(a1)
  65:lib/tinymaix/src/tm_model.c ****         break;
 348              		.loc 1 65 26 discriminator 3
 349 00b2 3E97     		add	a4,a4,a5
  64:lib/tinymaix/src/tm_model.c ****             out->data[i] = ((mtype_t)(((uint8_t*)(in->data))[i]-128))<<UINT2INT_SHIFT;
 350              		.loc 1 64 34 discriminator 3
 351 00b4 8507     		addi	a5,a5,1
 352              	.LVL26:
  65:lib/tinymaix/src/tm_model.c ****         break;
 353              		.loc 1 65 64 discriminator 3
 354 00b6 938505F8 		addi	a1,a1,-128
  65:lib/tinymaix/src/tm_model.c ****         break;
 355              		.loc 1 65 26 discriminator 3
 356 00ba 2300B700 		sb	a1,0(a4)
 357              	.LVL27:
 358              	.L19:
  64:lib/tinymaix/src/tm_model.c ****             out->data[i] = ((mtype_t)(((uint8_t*)(in->data))[i]-128))<<UINT2INT_SHIFT;
 359              		.loc 1 64 9 discriminator 1
 360 00be E39597FE 		bne	a5,s1,.L24
 361 00c2 71B7     		j	.L23
 362              	.LVL28:
 363              	.L26:
  64:lib/tinymaix/src/tm_model.c ****             out->data[i] = ((mtype_t)(((uint8_t*)(in->data))[i]-128))<<UINT2INT_SHIFT;
 364              		.loc 1 64 17
 365 00c4 8147     		li	a5,0
GAS LISTING C:\Users\Jesper\AppData\Local\Temp\ccxfaHGf.s 			page 10


 366 00c6 E5BF     		j	.L19
 367              	.LBE4:
 368              		.cfi_endproc
 369              	.LFE30:
 371              		.globl	__mulsf3
 372              		.section	.text.tm_run,"ax",@progbits
 373              		.align	1
 374              		.weak	tm_run
 376              	tm_run:
 377              	.LFB31:
  83:lib/tinymaix/src/tm_model.c **** 
  84:lib/tinymaix/src/tm_model.c **** 
  85:lib/tinymaix/src/tm_model.c **** //run model
  86:lib/tinymaix/src/tm_model.c **** //mdl: model handle; in: input mat; out: output mat
  87:lib/tinymaix/src/tm_model.c **** tm_err_t TM_WEAK tm_run(tm_mdl_t* mdl, tm_mat_t* in, tm_mat_t* out)
  88:lib/tinymaix/src/tm_model.c **** {
 378              		.loc 1 88 1 is_stmt 1
 379              		.cfi_startproc
 380              	.LVL29:
  89:lib/tinymaix/src/tm_model.c ****     TM_DBG(" in tm_run\r\n")
 381              		.loc 1 89 5
  88:lib/tinymaix/src/tm_model.c ****     TM_DBG(" in tm_run\r\n")
 382              		.loc 1 88 1 is_stmt 0
 383 0000 5571     		addi	sp,sp,-208
 384              	.LCFI6:
 385              		.cfi_def_cfa_offset 208
 386 0002 A6C3     		sw	s1,196(sp)
 387              		.cfi_offset 9, -12
 388              		.loc 1 89 5
 389 0004 B7040000 		lui	s1,%hi(.LC0)
  88:lib/tinymaix/src/tm_model.c ****     TM_DBG(" in tm_run\r\n")
 390              		.loc 1 88 1
 391 0008 A2C5     		sw	s0,200(sp)
 392 000a CAC1     		sw	s2,192(sp)
 393              		.cfi_offset 8, -8
 394              		.cfi_offset 18, -16
 395 000c 2A84     		mv	s0,a0
 396 000e 2E89     		mv	s2,a1
 397              		.loc 1 89 5
 398 0010 13850400 		addi	a0,s1,%lo(.LC0)
 399              	.LVL30:
 400 0014 93059005 		li	a1,89
 401              	.LVL31:
  88:lib/tinymaix/src/tm_model.c ****     TM_DBG(" in tm_run\r\n")
 402              		.loc 1 88 1
 403 0018 86C7     		sw	ra,204(sp)
 404 001a B2C4     		sw	a2,72(sp)
 405 001c 4EDF     		sw	s3,188(sp)
 406 001e 5ED7     		sw	s7,172(sp)
 407 0020 62D5     		sw	s8,168(sp)
 408 0022 66D3     		sw	s9,164(sp)
 409 0024 6AD1     		sw	s10,160(sp)
 410 0026 6ECF     		sw	s11,156(sp)
 411 0028 52DD     		sw	s4,184(sp)
 412 002a 56DB     		sw	s5,180(sp)
 413 002c 5AD9     		sw	s6,176(sp)
 414              		.cfi_offset 1, -4
GAS LISTING C:\Users\Jesper\AppData\Local\Temp\ccxfaHGf.s 			page 11


 415              		.cfi_offset 19, -20
 416              		.cfi_offset 23, -36
 417              		.cfi_offset 24, -40
 418              		.cfi_offset 25, -44
 419              		.cfi_offset 26, -48
 420              		.cfi_offset 27, -52
 421              		.cfi_offset 20, -24
 422              		.cfi_offset 21, -28
 423              		.cfi_offset 22, -32
 424              		.loc 1 89 5
 425 002e 97000000 		call	printf
 425      E7800000 
 426              	.LVL32:
 427              		.loc 1 89 5 is_stmt 1
 428 0036 0145     		li	a0,0
 429 0038 97000000 		call	fflush
 429      E7800000 
 430              	.LVL33:
 431              		.loc 1 89 5
 432              		.loc 1 89 5
 433 0040 37050000 		lui	a0,%hi(.LC1)
 434 0044 13050500 		addi	a0,a0,%lo(.LC1)
 435 0048 97000000 		call	puts
 435      E7800000 
 436              	.LVL34:
 437              		.loc 1 89 5
 438 0050 0145     		li	a0,0
 439 0052 97000000 		call	fflush
 439      E7800000 
 440              	.LVL35:
 441              		.loc 1 89 5
  90:lib/tinymaix/src/tm_model.c ****     tm_mat_t _in, _in1, _out;
 442              		.loc 1 90 5
  91:lib/tinymaix/src/tm_model.c ****     tm_err_t res = TM_OK;
 443              		.loc 1 91 5
  92:lib/tinymaix/src/tm_model.c ****     int out_idx = 0;
 444              		.loc 1 92 5
  93:lib/tinymaix/src/tm_model.c ****     memcpy((void*)&_in, (void*)in, sizeof(tm_mat_t));       
 445              		.loc 1 93 5
 446 005a CA85     		mv	a1,s2
 447 005c 3146     		li	a2,12
 448 005e E810     		addi	a0,sp,108
 449 0060 97000000 		call	memcpy
 449      E7800000 
 450              	.LVL36:
  94:lib/tinymaix/src/tm_model.c ****     mdl->layer_body = mdl->b->layers_body;
 451              		.loc 1 94 5
 452              		.loc 1 94 23 is_stmt 0
 453 0068 1C40     		lw	a5,0(s0)
 454              	.LBB5:
  95:lib/tinymaix/src/tm_model.c ****     for(mdl->layer_i = 0; mdl->layer_i < mdl->b->layer_cnt; mdl->layer_i++){
  96:lib/tinymaix/src/tm_model.c ****         tml_head_t* h = (tml_head_t*)(mdl->layer_body);
  97:lib/tinymaix/src/tm_model.c ****         if(mdl->layer_i>0) {
  98:lib/tinymaix/src/tm_model.c ****             _in.data  = (mtype_t *)(mdl->buf + h->in_oft);
  99:lib/tinymaix/src/tm_model.c ****             memcpy((void*)&_in, (void*)(h->in_dims), sizeof(uint16_t)*4);
 100:lib/tinymaix/src/tm_model.c ****         }
 101:lib/tinymaix/src/tm_model.c ****         _out.data = (mtype_t *)(mdl->buf + h->out_oft);
GAS LISTING C:\Users\Jesper\AppData\Local\Temp\ccxfaHGf.s 			page 12


 102:lib/tinymaix/src/tm_model.c ****         memcpy((void*)&_out, (void*)(h->out_dims), sizeof(uint16_t)*4);
 103:lib/tinymaix/src/tm_model.c ****         TM_DBG(" before switch in tm_run\r\n")
 104:lib/tinymaix/src/tm_model.c ****         switch(h->type){
 455              		.loc 1 104 9
 456 006a B7090000 		lui	s3,%hi(.L34)
 457              	.LBE5:
  95:lib/tinymaix/src/tm_model.c ****     for(mdl->layer_i = 0; mdl->layer_i < mdl->b->layer_cnt; mdl->layer_i++){
 458              		.loc 1 95 22
 459 006e 23190400 		sh	zero,18(s0)
  94:lib/tinymaix/src/tm_model.c ****     mdl->layer_body = mdl->b->layers_body;
 460              		.loc 1 94 23
 461 0072 93870704 		addi	a5,a5,64
  94:lib/tinymaix/src/tm_model.c ****     mdl->layer_body = mdl->b->layers_body;
 462              		.loc 1 94 21
 463 0076 5CC8     		sw	a5,20(s0)
  95:lib/tinymaix/src/tm_model.c ****     for(mdl->layer_i = 0; mdl->layer_i < mdl->b->layer_cnt; mdl->layer_i++){
 464              		.loc 1 95 5 is_stmt 1
  92:lib/tinymaix/src/tm_model.c ****     memcpy((void*)&_in, (void*)in, sizeof(tm_mat_t));       
 465              		.loc 1 92 9 is_stmt 0
 466 0078 0149     		li	s2,0
 467              	.LVL37:
 468              	.LBB21:
 105:lib/tinymaix/src/tm_model.c ****         case TML_CONV2D: 
 106:lib/tinymaix/src/tm_model.c ****         case TML_DWCONV2D:{ 
 107:lib/tinymaix/src/tm_model.c ****             TM_DBG("DWCONV2D\r\n")
 108:lib/tinymaix/src/tm_model.c ****             tml_conv2d_dw_t* l = (tml_conv2d_dw_t*)(mdl->layer_body);
 109:lib/tinymaix/src/tm_model.c ****             res = tml_conv2d_dwconv2d(&_in, &_out, (wtype_t*)(mdl->layer_body + l->w_oft), (btype_t
 110:lib/tinymaix/src/tm_model.c ****                 l->kernel_w, l->kernel_h, l->stride_w, l->stride_h, l->dilation_w, l->dilation_h, \
 111:lib/tinymaix/src/tm_model.c ****                 l->act, l->pad[0], l->pad[1], l->pad[2], l->pad[3], l->depth_mul, \
 112:lib/tinymaix/src/tm_model.c ****                 (sctype_t*)(mdl->layer_body + l->ws_oft), h->in_s, h->in_zp, h->out_s, h->out_zp); 
 113:lib/tinymaix/src/tm_model.c ****             break;}
 114:lib/tinymaix/src/tm_model.c ****         case TML_GAP: {
 115:lib/tinymaix/src/tm_model.c ****             TM_DBG("GAP\r\n")
 116:lib/tinymaix/src/tm_model.c ****             tml_gap_t* l = (tml_gap_t*)(mdl->layer_body);
 117:lib/tinymaix/src/tm_model.c ****             res = tml_gap(&_in, &_out, h->in_s, h->in_zp, h->out_s, h->out_zp);
 118:lib/tinymaix/src/tm_model.c ****             break;}
 119:lib/tinymaix/src/tm_model.c ****         case TML_FC: {
 120:lib/tinymaix/src/tm_model.c ****             TM_DBG("FC\r\n")
 121:lib/tinymaix/src/tm_model.c ****             tml_fc_t* l = (tml_fc_t*)(mdl->layer_body);
 122:lib/tinymaix/src/tm_model.c ****             res = tml_fc(&_in, &_out, (wtype_t*)(mdl->layer_body + l->w_oft), (btype_t*)(mdl->layer
 123:lib/tinymaix/src/tm_model.c ****                 (sctype_t*)(mdl->layer_body + l->ws_oft), h->in_s, h->in_zp, h->out_s, h->out_zp);
 124:lib/tinymaix/src/tm_model.c ****             break;}
 125:lib/tinymaix/src/tm_model.c ****         case TML_SOFTMAX: {
 126:lib/tinymaix/src/tm_model.c ****             TM_DBG("SOFTMAX\r\n")
 127:lib/tinymaix/src/tm_model.c ****             tml_softmax_t* l = (tml_softmax_t*)(mdl->layer_body);
 128:lib/tinymaix/src/tm_model.c ****             res = tml_softmax(&_in, &_out, h->in_s, h->in_zp, h->out_s, h->out_zp);
 129:lib/tinymaix/src/tm_model.c ****             break; }
 130:lib/tinymaix/src/tm_model.c ****         case TML_RESHAPE: {
 131:lib/tinymaix/src/tm_model.c ****             TM_DBG("RESHAPE\r\n")
 132:lib/tinymaix/src/tm_model.c ****             tml_reshape_t* l = (tml_reshape_t*)(mdl->layer_body);
 133:lib/tinymaix/src/tm_model.c ****             res = tml_reshape(&_in, &_out, h->in_s, h->in_zp, h->out_s, h->out_zp);
 134:lib/tinymaix/src/tm_model.c ****             break; }
 135:lib/tinymaix/src/tm_model.c ****         case TML_ADD: {
 136:lib/tinymaix/src/tm_model.c ****             TM_DBG("ADD\r\n")
 137:lib/tinymaix/src/tm_model.c ****             tml_add_t* l = (tml_add_t*)(mdl->layer_body);
 138:lib/tinymaix/src/tm_model.c ****             memcpy((void*)&_in1, (void*)(h->in_dims), sizeof(uint16_t)*4);
 139:lib/tinymaix/src/tm_model.c ****             _in1.data = (mtype_t *)(mdl->buf + l->in_oft1);
GAS LISTING C:\Users\Jesper\AppData\Local\Temp\ccxfaHGf.s 			page 13


 140:lib/tinymaix/src/tm_model.c ****             res = tml_add(&_in, &_in1, &_out, h->in_s, h->in_zp, l->in_s1, l->in_zp1, h->out_s, h->
 141:lib/tinymaix/src/tm_model.c ****             break; }
 142:lib/tinymaix/src/tm_model.c ****         default:
 143:lib/tinymaix/src/tm_model.c ****             TM_DBG("DEFAULT\r\n")
 469              		.loc 1 143 13
 470 007a B70B0000 		lui	s7,%hi(.LC9)
 104:lib/tinymaix/src/tm_model.c ****         case TML_CONV2D: 
 471              		.loc 1 104 9
 472 007e 93890900 		addi	s3,s3,%lo(.L34)
 473              	.LBB6:
 136:lib/tinymaix/src/tm_model.c ****             tml_add_t* l = (tml_add_t*)(mdl->layer_body);
 474              		.loc 1 136 13
 475 0082 370C0000 		lui	s8,%hi(.LC8)
 476              	.LBE6:
 477              	.LBB7:
 131:lib/tinymaix/src/tm_model.c ****             tml_reshape_t* l = (tml_reshape_t*)(mdl->layer_body);
 478              		.loc 1 131 13
 479 0086 B70C0000 		lui	s9,%hi(.LC7)
 480              	.LBE7:
 481              	.LBB8:
 126:lib/tinymaix/src/tm_model.c ****             tml_softmax_t* l = (tml_softmax_t*)(mdl->layer_body);
 482              		.loc 1 126 13
 483 008a 370D0000 		lui	s10,%hi(.LC6)
 484              	.LBE8:
 485              	.LBB9:
 120:lib/tinymaix/src/tm_model.c ****             tml_fc_t* l = (tml_fc_t*)(mdl->layer_body);
 486              		.loc 1 120 13
 487 008e B70D0000 		lui	s11,%hi(.LC5)
 488              	.LVL38:
 489              	.L30:
 490              	.LBE9:
 491              	.LBE21:
  95:lib/tinymaix/src/tm_model.c ****         tml_head_t* h = (tml_head_t*)(mdl->layer_body);
 492              		.loc 1 95 48 discriminator 1
 493 0092 1840     		lw	a4,0(s0)
  95:lib/tinymaix/src/tm_model.c ****         tml_head_t* h = (tml_head_t*)(mdl->layer_body);
 494              		.loc 1 95 30 discriminator 1
 495 0094 83572401 		lhu	a5,18(s0)
  95:lib/tinymaix/src/tm_model.c ****         tml_head_t* h = (tml_head_t*)(mdl->layer_body);
 496              		.loc 1 95 5 discriminator 1
 497 0098 0357A700 		lhu	a4,10(a4)
 498 009c 63EDE704 		bgtu	a4,a5,.L48
 144:lib/tinymaix/src/tm_model.c ****             res = TM_ERR_LAYERTYPE;
 145:lib/tinymaix/src/tm_model.c ****             break;
 146:lib/tinymaix/src/tm_model.c ****         }
 147:lib/tinymaix/src/tm_model.c ****         TM_DBG(" After switch in tm_run \r\n")
 148:lib/tinymaix/src/tm_model.c ****         if(res != TM_OK) return res;
 149:lib/tinymaix/src/tm_model.c ****         if(mdl->cb) ((tm_cb_t)mdl->cb)(mdl, h);    //layer callback
 150:lib/tinymaix/src/tm_model.c ****         if(h->is_out) {
 151:lib/tinymaix/src/tm_model.c ****             memcpy((void*)(&out[out_idx]), (void*)(&(h->out_dims)), sizeof(uint16_t)*4);
 152:lib/tinymaix/src/tm_model.c ****             if(mdl->b->out_deq == 0 || TM_MDL_TYPE == TM_MDL_FP32) //fp32 do not need deq
 153:lib/tinymaix/src/tm_model.c ****                 out[out_idx].data = (mtype_t*)(TML_GET_OUTPUT(mdl, h));
 154:lib/tinymaix/src/tm_model.c ****             else {
 155:lib/tinymaix/src/tm_model.c ****                 int out_size = h->out_dims[1]*h->out_dims[2]*h->out_dims[3];
 156:lib/tinymaix/src/tm_model.c ****                 float* outf = (float*)(TM_ALIGN(TML_GET_OUTPUT(mdl, h) + out_size));
 157:lib/tinymaix/src/tm_model.c ****                 for(int i=0; i<out_size; i++) //do dequant
 158:lib/tinymaix/src/tm_model.c ****                     outf[i] = TML_DEQUANT(h, (TML_GET_OUTPUT(mdl, h))[i]);
GAS LISTING C:\Users\Jesper\AppData\Local\Temp\ccxfaHGf.s 			page 14


 159:lib/tinymaix/src/tm_model.c ****                 out[out_idx].dataf = outf;
 160:lib/tinymaix/src/tm_model.c ****             }
 161:lib/tinymaix/src/tm_model.c ****             out_idx += 1;
 162:lib/tinymaix/src/tm_model.c ****         }
 163:lib/tinymaix/src/tm_model.c ****         mdl->layer_body += (h->size);
 164:lib/tinymaix/src/tm_model.c ****         TM_DBG(" Layer done in tm_run \r\n")
 165:lib/tinymaix/src/tm_model.c ****     }
 166:lib/tinymaix/src/tm_model.c ****     TM_DBG(" done with run, returning \r\n")
 499              		.loc 1 166 5 is_stmt 1
 500 00a0 9305600A 		li	a1,166
 501 00a4 13850400 		addi	a0,s1,%lo(.LC0)
 502 00a8 97000000 		call	printf
 502      E7800000 
 503              	.LVL39:
 504              		.loc 1 166 5
 505 00b0 0145     		li	a0,0
 506 00b2 97000000 		call	fflush
 506      E7800000 
 507              	.LVL40:
 508              		.loc 1 166 5
 509              		.loc 1 166 5
 510 00ba 37050000 		lui	a0,%hi(.LC12)
 511 00be 13050500 		addi	a0,a0,%lo(.LC12)
 512 00c2 97000000 		call	puts
 512      E7800000 
 513              	.LVL41:
 514              		.loc 1 166 5
 515 00ca 0145     		li	a0,0
 516 00cc 97000000 		call	fflush
 516      E7800000 
 517              	.LVL42:
 518              		.loc 1 166 5
 167:lib/tinymaix/src/tm_model.c ****     return TM_OK;
 519              		.loc 1 167 5
 520              		.loc 1 167 12 is_stmt 0
 521 00d4 8147     		li	a5,0
 522              	.L29:
 168:lib/tinymaix/src/tm_model.c **** }
 523              		.loc 1 168 1
 524 00d6 BE40     		lw	ra,204(sp)
 525              		.cfi_remember_state
 526              		.cfi_restore 1
 527 00d8 2E44     		lw	s0,200(sp)
 528              		.cfi_restore 8
 529              	.LVL43:
 530 00da 9E44     		lw	s1,196(sp)
 531              		.cfi_restore 9
 532 00dc 0E49     		lw	s2,192(sp)
 533              		.cfi_restore 18
 534              	.LVL44:
 535 00de FA59     		lw	s3,188(sp)
 536              		.cfi_restore 19
 537 00e0 6A5A     		lw	s4,184(sp)
 538              		.cfi_restore 20
 539 00e2 DA5A     		lw	s5,180(sp)
 540              		.cfi_restore 21
 541 00e4 4A5B     		lw	s6,176(sp)
GAS LISTING C:\Users\Jesper\AppData\Local\Temp\ccxfaHGf.s 			page 15


 542              		.cfi_restore 22
 543 00e6 BA5B     		lw	s7,172(sp)
 544              		.cfi_restore 23
 545 00e8 2A5C     		lw	s8,168(sp)
 546              		.cfi_restore 24
 547 00ea 9A5C     		lw	s9,164(sp)
 548              		.cfi_restore 25
 549 00ec 0A5D     		lw	s10,160(sp)
 550              		.cfi_restore 26
 551 00ee FA4D     		lw	s11,156(sp)
 552              		.cfi_restore 27
 553 00f0 3E85     		mv	a0,a5
 554 00f2 6961     		addi	sp,sp,208
 555              	.LCFI7:
 556              		.cfi_def_cfa_offset 0
 557              	.LVL45:
 558 00f4 8280     		jr	ra
 559              	.LVL46:
 560              	.L48:
 561              	.LCFI8:
 562              		.cfi_restore_state
 563              	.LBB22:
  96:lib/tinymaix/src/tm_model.c ****         if(mdl->layer_i>0) {
 564              		.loc 1 96 9 is_stmt 1
  96:lib/tinymaix/src/tm_model.c ****         if(mdl->layer_i>0) {
 565              		.loc 1 96 21 is_stmt 0
 566 00f6 832A4401 		lw	s5,20(s0)
 567              	.LVL47:
  97:lib/tinymaix/src/tm_model.c ****             _in.data  = (mtype_t *)(mdl->buf + h->in_oft);
 568              		.loc 1 97 9 is_stmt 1
 569 00fa 032A8400 		lw	s4,8(s0)
  97:lib/tinymaix/src/tm_model.c ****             _in.data  = (mtype_t *)(mdl->buf + h->in_oft);
 570              		.loc 1 97 11 is_stmt 0
 571 00fe 89CF     		beq	a5,zero,.L31
  98:lib/tinymaix/src/tm_model.c ****             memcpy((void*)&_in, (void*)(h->in_dims), sizeof(uint16_t)*4);
 572              		.loc 1 98 13 is_stmt 1
  98:lib/tinymaix/src/tm_model.c ****             memcpy((void*)&_in, (void*)(h->in_dims), sizeof(uint16_t)*4);
 573              		.loc 1 98 46 is_stmt 0
 574 0100 83A78A00 		lw	a5,8(s5)
  99:lib/tinymaix/src/tm_model.c ****         }
 575              		.loc 1 99 13
 576 0104 2146     		li	a2,8
 577 0106 93850A01 		addi	a1,s5,16
  98:lib/tinymaix/src/tm_model.c ****             memcpy((void*)&_in, (void*)(h->in_dims), sizeof(uint16_t)*4);
 578              		.loc 1 98 46
 579 010a D297     		add	a5,s4,a5
  99:lib/tinymaix/src/tm_model.c ****         }
 580              		.loc 1 99 13
 581 010c E810     		addi	a0,sp,108
  98:lib/tinymaix/src/tm_model.c ****             memcpy((void*)&_in, (void*)(h->in_dims), sizeof(uint16_t)*4);
 582              		.loc 1 98 23
 583 010e BEDA     		sw	a5,116(sp)
  99:lib/tinymaix/src/tm_model.c ****         }
 584              		.loc 1 99 13 is_stmt 1
 585 0110 97000000 		call	memcpy
 585      E7800000 
 586              	.LVL48:
GAS LISTING C:\Users\Jesper\AppData\Local\Temp\ccxfaHGf.s 			page 16


 587              	.L31:
 101:lib/tinymaix/src/tm_model.c ****         memcpy((void*)&_out, (void*)(h->out_dims), sizeof(uint16_t)*4);
 588              		.loc 1 101 9
 101:lib/tinymaix/src/tm_model.c ****         memcpy((void*)&_out, (void*)(h->out_dims), sizeof(uint16_t)*4);
 589              		.loc 1 101 42 is_stmt 0
 590 0118 83A7CA00 		lw	a5,12(s5)
 102:lib/tinymaix/src/tm_model.c ****         TM_DBG(" before switch in tm_run\r\n")
 591              		.loc 1 102 9
 592 011c 2146     		li	a2,8
 593 011e 4801     		addi	a0,sp,132
 101:lib/tinymaix/src/tm_model.c ****         memcpy((void*)&_out, (void*)(h->out_dims), sizeof(uint16_t)*4);
 594              		.loc 1 101 42
 595 0120 3E9A     		add	s4,s4,a5
 101:lib/tinymaix/src/tm_model.c ****         memcpy((void*)&_out, (void*)(h->out_dims), sizeof(uint16_t)*4);
 596              		.loc 1 101 19
 597 0122 52C7     		sw	s4,140(sp)
 102:lib/tinymaix/src/tm_model.c ****         TM_DBG(" before switch in tm_run\r\n")
 598              		.loc 1 102 9 is_stmt 1
 102:lib/tinymaix/src/tm_model.c ****         TM_DBG(" before switch in tm_run\r\n")
 599              		.loc 1 102 37 is_stmt 0
 600 0124 138A8A01 		addi	s4,s5,24
 102:lib/tinymaix/src/tm_model.c ****         TM_DBG(" before switch in tm_run\r\n")
 601              		.loc 1 102 9
 602 0128 D285     		mv	a1,s4
 603 012a 97000000 		call	memcpy
 603      E7800000 
 604              	.LVL49:
 103:lib/tinymaix/src/tm_model.c ****         switch(h->type){
 605              		.loc 1 103 9 is_stmt 1
 606 0132 93057006 		li	a1,103
 607 0136 13850400 		addi	a0,s1,%lo(.LC0)
 608 013a 97000000 		call	printf
 608      E7800000 
 609              	.LVL50:
 103:lib/tinymaix/src/tm_model.c ****         switch(h->type){
 610              		.loc 1 103 9
 611 0142 0145     		li	a0,0
 612 0144 97000000 		call	fflush
 612      E7800000 
 613              	.LVL51:
 103:lib/tinymaix/src/tm_model.c ****         switch(h->type){
 614              		.loc 1 103 9
 103:lib/tinymaix/src/tm_model.c ****         switch(h->type){
 615              		.loc 1 103 9
 616 014c B7070000 		lui	a5,%hi(.LC2)
 617 0150 13850700 		addi	a0,a5,%lo(.LC2)
 618 0154 97000000 		call	puts
 618      E7800000 
 619              	.LVL52:
 103:lib/tinymaix/src/tm_model.c ****         switch(h->type){
 620              		.loc 1 103 9
 621 015c 0145     		li	a0,0
 622 015e 97000000 		call	fflush
 622      E7800000 
 623              	.LVL53:
 103:lib/tinymaix/src/tm_model.c ****         switch(h->type){
 624              		.loc 1 103 9
GAS LISTING C:\Users\Jesper\AppData\Local\Temp\ccxfaHGf.s 			page 17


 104:lib/tinymaix/src/tm_model.c ****         case TML_CONV2D: 
 625              		.loc 1 104 9
 626 0166 83D70A00 		lhu	a5,0(s5)
 627 016a 1947     		li	a4,6
 628 016c 6360F734 		bgtu	a5,a4,.L32
 629 0170 8A07     		slli	a5,a5,2
 630 0172 CE97     		add	a5,a5,s3
 631 0174 9C43     		lw	a5,0(a5)
 632 0176 8287     		jr	a5
 633              		.section	.rodata.tm_run,"a",@progbits
 634              		.align	2
 635              		.align	2
 636              	.L34:
 637 0000 00000000 		.word	.L35
 638 0004 00000000 		.word	.L39
 639 0008 00000000 		.word	.L38
 640 000c 00000000 		.word	.L37
 641 0010 00000000 		.word	.L36
 642 0014 00000000 		.word	.L35
 643 0018 00000000 		.word	.L33
 644              		.section	.text.tm_run
 645              	.L35:
 646              	.LBB10:
 107:lib/tinymaix/src/tm_model.c ****             tml_conv2d_dw_t* l = (tml_conv2d_dw_t*)(mdl->layer_body);
 647              		.loc 1 107 13
 648 0178 9305B006 		li	a1,107
 649 017c 13850400 		addi	a0,s1,%lo(.LC0)
 650 0180 97000000 		call	printf
 650      E7800000 
 651              	.LVL54:
 107:lib/tinymaix/src/tm_model.c ****             tml_conv2d_dw_t* l = (tml_conv2d_dw_t*)(mdl->layer_body);
 652              		.loc 1 107 13
 653 0188 0145     		li	a0,0
 654 018a 97000000 		call	fflush
 654      E7800000 
 655              	.LVL55:
 107:lib/tinymaix/src/tm_model.c ****             tml_conv2d_dw_t* l = (tml_conv2d_dw_t*)(mdl->layer_body);
 656              		.loc 1 107 13
 107:lib/tinymaix/src/tm_model.c ****             tml_conv2d_dw_t* l = (tml_conv2d_dw_t*)(mdl->layer_body);
 657              		.loc 1 107 13
 658 0192 37050000 		lui	a0,%hi(.LC3)
 659 0196 13050500 		addi	a0,a0,%lo(.LC3)
 660 019a 97000000 		call	puts
 660      E7800000 
 661              	.LVL56:
 107:lib/tinymaix/src/tm_model.c ****             tml_conv2d_dw_t* l = (tml_conv2d_dw_t*)(mdl->layer_body);
 662              		.loc 1 107 13
 663 01a2 0145     		li	a0,0
 664 01a4 97000000 		call	fflush
 664      E7800000 
 665              	.LVL57:
 107:lib/tinymaix/src/tm_model.c ****             tml_conv2d_dw_t* l = (tml_conv2d_dw_t*)(mdl->layer_body);
 666              		.loc 1 107 13
 108:lib/tinymaix/src/tm_model.c ****             res = tml_conv2d_dwconv2d(&_in, &_out, (wtype_t*)(mdl->layer_body + l->w_oft), (btype_t
 667              		.loc 1 108 13
 108:lib/tinymaix/src/tm_model.c ****             res = tml_conv2d_dwconv2d(&_in, &_out, (wtype_t*)(mdl->layer_body + l->w_oft), (btype_t
 668              		.loc 1 108 30 is_stmt 0
GAS LISTING C:\Users\Jesper\AppData\Local\Temp\ccxfaHGf.s 			page 18


 669 01ac 5048     		lw	a2,20(s0)
 670              	.LVL58:
 109:lib/tinymaix/src/tm_model.c ****                 l->kernel_w, l->kernel_h, l->stride_w, l->stride_h, l->dilation_w, l->dilation_h, \
 671              		.loc 1 109 13 is_stmt 1
 109:lib/tinymaix/src/tm_model.c ****                 l->kernel_w, l->kernel_h, l->stride_w, l->stride_h, l->dilation_w, l->dilation_h, \
 672              		.loc 1 109 19 is_stmt 0
 673 01ae 83A5CA02 		lw	a1,44(s5)
 109:lib/tinymaix/src/tm_model.c ****                 l->kernel_w, l->kernel_h, l->stride_w, l->stride_h, l->dilation_w, l->dilation_h, \
 674              		.loc 1 109 119
 675 01b2 7446     		lw	a3,76(a2)
 109:lib/tinymaix/src/tm_model.c ****                 l->kernel_w, l->kernel_h, l->stride_w, l->stride_h, l->dilation_w, l->dilation_h, \
 676              		.loc 1 109 79
 677 01b4 2846     		lw	a0,72(a2)
 109:lib/tinymaix/src/tm_model.c ****                 l->kernel_w, l->kernel_h, l->stride_w, l->stride_h, l->dilation_w, l->dilation_h, \
 678              		.loc 1 109 19
 679 01b6 83483603 		lbu	a7,51(a2)
 680 01ba 03482603 		lbu	a6,50(a2)
 681 01be 83471603 		lbu	a5,49(a2)
 682 01c2 03470603 		lbu	a4,48(a2)
 683 01c6 2ED8     		sw	a1,48(sp)
 684 01c8 83A58A02 		lw	a1,40(s5)
 685 01cc B296     		add	a3,a2,a3
 686 01ce 2ED6     		sw	a1,44(sp)
 687 01d0 83A54A02 		lw	a1,36(s5)
 688 01d4 2ED4     		sw	a1,40(sp)
 689 01d6 83A50A02 		lw	a1,32(s5)
 690 01da 2ED2     		sw	a1,36(sp)
 112:lib/tinymaix/src/tm_model.c ****             break;}
 691              		.loc 1 112 45
 692 01dc 6C42     		lw	a1,68(a2)
 693 01de B295     		add	a1,a2,a1
 109:lib/tinymaix/src/tm_model.c ****                 l->kernel_w, l->kernel_h, l->stride_w, l->stride_h, l->dilation_w, l->dilation_h, \
 694              		.loc 1 109 19
 695 01e0 2ED0     		sw	a1,32(sp)
 696 01e2 4C5E     		lw	a1,60(a2)
 697 01e4 2ECE     		sw	a1,28(sp)
 698 01e6 8345B603 		lbu	a1,59(a2)
 699 01ea 2ECC     		sw	a1,24(sp)
 700 01ec 8345A603 		lbu	a1,58(a2)
 701 01f0 2ECA     		sw	a1,20(sp)
 702 01f2 83459603 		lbu	a1,57(a2)
 703 01f6 2EC8     		sw	a1,16(sp)
 704 01f8 83458603 		lbu	a1,56(a2)
 705 01fc 2EC6     		sw	a1,12(sp)
 706 01fe 83556603 		lhu	a1,54(a2)
 707 0202 2EC4     		sw	a1,8(sp)
 708 0204 83455603 		lbu	a1,53(a2)
 709 0208 2EC2     		sw	a1,4(sp)
 710 020a 83454603 		lbu	a1,52(a2)
 711 020e 2A96     		add	a2,a2,a0
 712              	.LVL59:
 713 0210 E810     		addi	a0,sp,108
 714 0212 2EC0     		sw	a1,0(sp)
 715 0214 4C01     		addi	a1,sp,132
 716 0216 97000000 		call	tml_conv2d_dwconv2d
 716      E7800000 
 717              	.LVL60:
GAS LISTING C:\Users\Jesper\AppData\Local\Temp\ccxfaHGf.s 			page 19


 718              	.L59:
 719              	.LBE10:
 720              	.LBB11:
 117:lib/tinymaix/src/tm_model.c ****             break;}
 721              		.loc 1 117 19
 722 021e AA87     		mv	a5,a0
 723              	.LVL61:
 118:lib/tinymaix/src/tm_model.c ****         case TML_FC: {
 724              		.loc 1 118 13 is_stmt 1
 725              	.L40:
 726              	.LBE11:
 147:lib/tinymaix/src/tm_model.c ****         if(res != TM_OK) return res;
 727              		.loc 1 147 9 is_stmt 0
 728 0220 93053009 		li	a1,147
 729 0224 13850400 		addi	a0,s1,%lo(.LC0)
 730 0228 BEC6     		sw	a5,76(sp)
 731              	.LVL62:
 147:lib/tinymaix/src/tm_model.c ****         if(res != TM_OK) return res;
 732              		.loc 1 147 9 is_stmt 1
 733 022a 97000000 		call	printf
 733      E7800000 
 734              	.LVL63:
 147:lib/tinymaix/src/tm_model.c ****         if(res != TM_OK) return res;
 735              		.loc 1 147 9
 736 0232 0145     		li	a0,0
 737 0234 97000000 		call	fflush
 737      E7800000 
 738              	.LVL64:
 147:lib/tinymaix/src/tm_model.c ****         if(res != TM_OK) return res;
 739              		.loc 1 147 9
 147:lib/tinymaix/src/tm_model.c ****         if(res != TM_OK) return res;
 740              		.loc 1 147 9
 741 023c 37050000 		lui	a0,%hi(.LC10)
 742 0240 13050500 		addi	a0,a0,%lo(.LC10)
 743 0244 97000000 		call	puts
 743      E7800000 
 744              	.LVL65:
 147:lib/tinymaix/src/tm_model.c ****         if(res != TM_OK) return res;
 745              		.loc 1 147 9
 746 024c 0145     		li	a0,0
 747 024e 97000000 		call	fflush
 747      E7800000 
 748              	.LVL66:
 147:lib/tinymaix/src/tm_model.c ****         if(res != TM_OK) return res;
 749              		.loc 1 147 9
 148:lib/tinymaix/src/tm_model.c ****         if(mdl->cb) ((tm_cb_t)mdl->cb)(mdl, h);    //layer callback
 750              		.loc 1 148 9
 148:lib/tinymaix/src/tm_model.c ****         if(mdl->cb) ((tm_cb_t)mdl->cb)(mdl, h);    //layer callback
 751              		.loc 1 148 11 is_stmt 0
 752 0256 B647     		lw	a5,76(sp)
 753 0258 E39F07E6 		bne	a5,zero,.L29
 149:lib/tinymaix/src/tm_model.c ****         if(h->is_out) {
 754              		.loc 1 149 9 is_stmt 1
 149:lib/tinymaix/src/tm_model.c ****         if(h->is_out) {
 755              		.loc 1 149 15 is_stmt 0
 756 025c 5C40     		lw	a5,4(s0)
 149:lib/tinymaix/src/tm_model.c ****         if(h->is_out) {
GAS LISTING C:\Users\Jesper\AppData\Local\Temp\ccxfaHGf.s 			page 20


 757              		.loc 1 149 11
 758 025e 81C7     		beq	a5,zero,.L42
 149:lib/tinymaix/src/tm_model.c ****         if(h->is_out) {
 759              		.loc 1 149 21 is_stmt 1 discriminator 1
 149:lib/tinymaix/src/tm_model.c ****         if(h->is_out) {
 760              		.loc 1 149 22 is_stmt 0 discriminator 1
 761 0260 D685     		mv	a1,s5
 762 0262 2285     		mv	a0,s0
 763 0264 8297     		jalr	a5
 764              	.LVL67:
 765              	.L42:
 150:lib/tinymaix/src/tm_model.c ****             memcpy((void*)(&out[out_idx]), (void*)(&(h->out_dims)), sizeof(uint16_t)*4);
 766              		.loc 1 150 9 is_stmt 1
 150:lib/tinymaix/src/tm_model.c ****             memcpy((void*)(&out[out_idx]), (void*)(&(h->out_dims)), sizeof(uint16_t)*4);
 767              		.loc 1 150 11 is_stmt 0
 768 0266 83D72A00 		lhu	a5,2(s5)
 769 026a 95CB     		beq	a5,zero,.L43
 151:lib/tinymaix/src/tm_model.c ****             if(mdl->b->out_deq == 0 || TM_MDL_TYPE == TM_MDL_FP32) //fp32 do not need deq
 770              		.loc 1 151 13 is_stmt 1
 151:lib/tinymaix/src/tm_model.c ****             if(mdl->b->out_deq == 0 || TM_MDL_TYPE == TM_MDL_FP32) //fp32 do not need deq
 771              		.loc 1 151 32 is_stmt 0
 772 026c B147     		li	a5,12
 773 026e B307F902 		mul	a5,s2,a5
 151:lib/tinymaix/src/tm_model.c ****             if(mdl->b->out_deq == 0 || TM_MDL_TYPE == TM_MDL_FP32) //fp32 do not need deq
 774              		.loc 1 151 28
 775 0272 2647     		lw	a4,72(sp)
 151:lib/tinymaix/src/tm_model.c ****             if(mdl->b->out_deq == 0 || TM_MDL_TYPE == TM_MDL_FP32) //fp32 do not need deq
 776              		.loc 1 151 13
 777 0274 2146     		li	a2,8
 778 0276 D285     		mv	a1,s4
 151:lib/tinymaix/src/tm_model.c ****             if(mdl->b->out_deq == 0 || TM_MDL_TYPE == TM_MDL_FP32) //fp32 do not need deq
 779              		.loc 1 151 28
 780 0278 330BF700 		add	s6,a4,a5
 151:lib/tinymaix/src/tm_model.c ****             if(mdl->b->out_deq == 0 || TM_MDL_TYPE == TM_MDL_FP32) //fp32 do not need deq
 781              		.loc 1 151 13
 782 027c 5A85     		mv	a0,s6
 783 027e 97000000 		call	memcpy
 783      E7800000 
 784              	.LVL68:
 152:lib/tinymaix/src/tm_model.c ****                 out[out_idx].data = (mtype_t*)(TML_GET_OUTPUT(mdl, h));
 785              		.loc 1 152 13 is_stmt 1
 152:lib/tinymaix/src/tm_model.c ****                 out[out_idx].data = (mtype_t*)(TML_GET_OUTPUT(mdl, h));
 786              		.loc 1 152 22 is_stmt 0
 787 0286 1840     		lw	a4,0(s0)
 788 0288 1044     		lw	a2,8(s0)
 789 028a 03A8CA00 		lw	a6,12(s5)
 152:lib/tinymaix/src/tm_model.c ****                 out[out_idx].data = (mtype_t*)(TML_GET_OUTPUT(mdl, h));
 790              		.loc 1 152 15
 791 028e 03475700 		lbu	a4,5(a4)
 792 0292 63170724 		bne	a4,zero,.L44
 153:lib/tinymaix/src/tm_model.c ****             else {
 793              		.loc 1 153 17 is_stmt 1
 153:lib/tinymaix/src/tm_model.c ****             else {
 794              		.loc 1 153 48 is_stmt 0
 795 0296 4296     		add	a2,a2,a6
 153:lib/tinymaix/src/tm_model.c ****             else {
 796              		.loc 1 153 35
GAS LISTING C:\Users\Jesper\AppData\Local\Temp\ccxfaHGf.s 			page 21


 797 0298 2324CB00 		sw	a2,8(s6)
 798              	.LVL69:
 799              	.L45:
 161:lib/tinymaix/src/tm_model.c ****         }
 800              		.loc 1 161 13 is_stmt 1
 161:lib/tinymaix/src/tm_model.c ****         }
 801              		.loc 1 161 21 is_stmt 0
 802 029c 0509     		addi	s2,s2,1
 803              	.LVL70:
 804              	.L43:
 163:lib/tinymaix/src/tm_model.c ****         TM_DBG(" Layer done in tm_run \r\n")
 805              		.loc 1 163 9 is_stmt 1 discriminator 2
 163:lib/tinymaix/src/tm_model.c ****         TM_DBG(" Layer done in tm_run \r\n")
 806              		.loc 1 163 25 is_stmt 0 discriminator 2
 807 029e 03A74A00 		lw	a4,4(s5)
 808 02a2 5C48     		lw	a5,20(s0)
 164:lib/tinymaix/src/tm_model.c ****     }
 809              		.loc 1 164 9 discriminator 2
 810 02a4 9305400A 		li	a1,164
 811 02a8 13850400 		addi	a0,s1,%lo(.LC0)
 163:lib/tinymaix/src/tm_model.c ****         TM_DBG(" Layer done in tm_run \r\n")
 812              		.loc 1 163 25 discriminator 2
 813 02ac BA97     		add	a5,a5,a4
 814 02ae 5CC8     		sw	a5,20(s0)
 164:lib/tinymaix/src/tm_model.c ****     }
 815              		.loc 1 164 9 is_stmt 1 discriminator 2
 816 02b0 97000000 		call	printf
 816      E7800000 
 817              	.LVL71:
 164:lib/tinymaix/src/tm_model.c ****     }
 818              		.loc 1 164 9 discriminator 2
 819 02b8 0145     		li	a0,0
 820 02ba 97000000 		call	fflush
 820      E7800000 
 821              	.LVL72:
 164:lib/tinymaix/src/tm_model.c ****     }
 822              		.loc 1 164 9 discriminator 2
 164:lib/tinymaix/src/tm_model.c ****     }
 823              		.loc 1 164 9 discriminator 2
 824 02c2 37050000 		lui	a0,%hi(.LC11)
 825 02c6 13050500 		addi	a0,a0,%lo(.LC11)
 826 02ca 97000000 		call	puts
 826      E7800000 
 827              	.LVL73:
 164:lib/tinymaix/src/tm_model.c ****     }
 828              		.loc 1 164 9 discriminator 2
 829 02d2 0145     		li	a0,0
 830 02d4 97000000 		call	fflush
 830      E7800000 
 831              	.LVL74:
 164:lib/tinymaix/src/tm_model.c ****     }
 832              		.loc 1 164 9 discriminator 2
 833              	.LBE22:
  95:lib/tinymaix/src/tm_model.c ****         tml_head_t* h = (tml_head_t*)(mdl->layer_body);
 834              		.loc 1 95 73 is_stmt 0 discriminator 2
 835 02dc 83572401 		lhu	a5,18(s0)
 836 02e0 8507     		addi	a5,a5,1
GAS LISTING C:\Users\Jesper\AppData\Local\Temp\ccxfaHGf.s 			page 22


 837 02e2 2319F400 		sh	a5,18(s0)
 838 02e6 75B3     		j	.L30
 839              	.L39:
 840              	.LBB23:
 841              	.LBB12:
 115:lib/tinymaix/src/tm_model.c ****             tml_gap_t* l = (tml_gap_t*)(mdl->layer_body);
 842              		.loc 1 115 13 is_stmt 1
 843 02e8 93053007 		li	a1,115
 844 02ec 13850400 		addi	a0,s1,%lo(.LC0)
 845 02f0 97000000 		call	printf
 845      E7800000 
 846              	.LVL75:
 115:lib/tinymaix/src/tm_model.c ****             tml_gap_t* l = (tml_gap_t*)(mdl->layer_body);
 847              		.loc 1 115 13
 848 02f8 0145     		li	a0,0
 849 02fa 97000000 		call	fflush
 849      E7800000 
 850              	.LVL76:
 115:lib/tinymaix/src/tm_model.c ****             tml_gap_t* l = (tml_gap_t*)(mdl->layer_body);
 851              		.loc 1 115 13
 115:lib/tinymaix/src/tm_model.c ****             tml_gap_t* l = (tml_gap_t*)(mdl->layer_body);
 852              		.loc 1 115 13
 853 0302 37050000 		lui	a0,%hi(.LC4)
 854 0306 13050500 		addi	a0,a0,%lo(.LC4)
 855 030a 97000000 		call	puts
 855      E7800000 
 856              	.LVL77:
 115:lib/tinymaix/src/tm_model.c ****             tml_gap_t* l = (tml_gap_t*)(mdl->layer_body);
 857              		.loc 1 115 13
 858 0312 0145     		li	a0,0
 859 0314 97000000 		call	fflush
 859      E7800000 
 860              	.LVL78:
 115:lib/tinymaix/src/tm_model.c ****             tml_gap_t* l = (tml_gap_t*)(mdl->layer_body);
 861              		.loc 1 115 13
 116:lib/tinymaix/src/tm_model.c ****             res = tml_gap(&_in, &_out, h->in_s, h->in_zp, h->out_s, h->out_zp);
 862              		.loc 1 116 13
 117:lib/tinymaix/src/tm_model.c ****             break;}
 863              		.loc 1 117 13
 117:lib/tinymaix/src/tm_model.c ****             break;}
 864              		.loc 1 117 19 is_stmt 0
 865 031c 83A7CA02 		lw	a5,44(s5)
 866 0320 03A78A02 		lw	a4,40(s5)
 867 0324 83A64A02 		lw	a3,36(s5)
 868 0328 03A60A02 		lw	a2,32(s5)
 869 032c 4C01     		addi	a1,sp,132
 870 032e E810     		addi	a0,sp,108
 871 0330 97000000 		call	tml_gap
 871      E7800000 
 872              	.LVL79:
 873 0338 DDB5     		j	.L59
 874              	.L38:
 875              	.LBE12:
 876              	.LBB13:
 120:lib/tinymaix/src/tm_model.c ****             tml_fc_t* l = (tml_fc_t*)(mdl->layer_body);
 877              		.loc 1 120 13 is_stmt 1
 878 033a 93058007 		li	a1,120
GAS LISTING C:\Users\Jesper\AppData\Local\Temp\ccxfaHGf.s 			page 23


 879 033e 13850400 		addi	a0,s1,%lo(.LC0)
 880 0342 97000000 		call	printf
 880      E7800000 
 881              	.LVL80:
 120:lib/tinymaix/src/tm_model.c ****             tml_fc_t* l = (tml_fc_t*)(mdl->layer_body);
 882              		.loc 1 120 13
 883 034a 0145     		li	a0,0
 884 034c 97000000 		call	fflush
 884      E7800000 
 885              	.LVL81:
 120:lib/tinymaix/src/tm_model.c ****             tml_fc_t* l = (tml_fc_t*)(mdl->layer_body);
 886              		.loc 1 120 13
 120:lib/tinymaix/src/tm_model.c ****             tml_fc_t* l = (tml_fc_t*)(mdl->layer_body);
 887              		.loc 1 120 13
 888 0354 13850D00 		addi	a0,s11,%lo(.LC5)
 889 0358 97000000 		call	puts
 889      E7800000 
 890              	.LVL82:
 120:lib/tinymaix/src/tm_model.c ****             tml_fc_t* l = (tml_fc_t*)(mdl->layer_body);
 891              		.loc 1 120 13
 892 0360 0145     		li	a0,0
 893 0362 97000000 		call	fflush
 893      E7800000 
 894              	.LVL83:
 120:lib/tinymaix/src/tm_model.c ****             tml_fc_t* l = (tml_fc_t*)(mdl->layer_body);
 895              		.loc 1 120 13
 121:lib/tinymaix/src/tm_model.c ****             res = tml_fc(&_in, &_out, (wtype_t*)(mdl->layer_body + l->w_oft), (btype_t*)(mdl->layer
 896              		.loc 1 121 13
 121:lib/tinymaix/src/tm_model.c ****             res = tml_fc(&_in, &_out, (wtype_t*)(mdl->layer_body + l->w_oft), (btype_t*)(mdl->layer
 897              		.loc 1 121 23 is_stmt 0
 898 036a 5048     		lw	a2,20(s0)
 899              	.LVL84:
 122:lib/tinymaix/src/tm_model.c ****                 (sctype_t*)(mdl->layer_body + l->ws_oft), h->in_s, h->in_zp, h->out_s, h->out_zp);
 900              		.loc 1 122 13 is_stmt 1
 122:lib/tinymaix/src/tm_model.c ****                 (sctype_t*)(mdl->layer_body + l->ws_oft), h->in_s, h->in_zp, h->out_s, h->out_zp);
 901              		.loc 1 122 19 is_stmt 0
 902 036c 03A5CA02 		lw	a0,44(s5)
 903 0370 83A88A02 		lw	a7,40(s5)
 123:lib/tinymaix/src/tm_model.c ****             break;}
 904              		.loc 1 123 45
 905 0374 185A     		lw	a4,48(a2)
 122:lib/tinymaix/src/tm_model.c ****                 (sctype_t*)(mdl->layer_body + l->ws_oft), h->in_s, h->in_zp, h->out_s, h->out_zp);
 906              		.loc 1 122 106
 907 0376 145E     		lw	a3,56(a2)
 122:lib/tinymaix/src/tm_model.c ****                 (sctype_t*)(mdl->layer_body + l->ws_oft), h->in_s, h->in_zp, h->out_s, h->out_zp);
 908              		.loc 1 122 66
 909 0378 4C5A     		lw	a1,52(a2)
 122:lib/tinymaix/src/tm_model.c ****                 (sctype_t*)(mdl->layer_body + l->ws_oft), h->in_s, h->in_zp, h->out_s, h->out_zp);
 910              		.loc 1 122 19
 911 037a 03A84A02 		lw	a6,36(s5)
 912 037e 83A70A02 		lw	a5,32(s5)
 913 0382 3297     		add	a4,a2,a4
 914 0384 2AC0     		sw	a0,0(sp)
 915 0386 B296     		add	a3,a2,a3
 916 0388 E810     		addi	a0,sp,108
 917 038a 2E96     		add	a2,a2,a1
 918              	.LVL85:
GAS LISTING C:\Users\Jesper\AppData\Local\Temp\ccxfaHGf.s 			page 24


 919 038c 4C01     		addi	a1,sp,132
 920 038e 97000000 		call	tml_fc
 920      E7800000 
 921              	.LVL86:
 922 0396 61B5     		j	.L59
 923              	.L37:
 924              	.LBE13:
 925              	.LBB14:
 126:lib/tinymaix/src/tm_model.c ****             tml_softmax_t* l = (tml_softmax_t*)(mdl->layer_body);
 926              		.loc 1 126 13 is_stmt 1
 927 0398 9305E007 		li	a1,126
 928 039c 13850400 		addi	a0,s1,%lo(.LC0)
 929 03a0 97000000 		call	printf
 929      E7800000 
 930              	.LVL87:
 126:lib/tinymaix/src/tm_model.c ****             tml_softmax_t* l = (tml_softmax_t*)(mdl->layer_body);
 931              		.loc 1 126 13
 932 03a8 0145     		li	a0,0
 933 03aa 97000000 		call	fflush
 933      E7800000 
 934              	.LVL88:
 126:lib/tinymaix/src/tm_model.c ****             tml_softmax_t* l = (tml_softmax_t*)(mdl->layer_body);
 935              		.loc 1 126 13
 126:lib/tinymaix/src/tm_model.c ****             tml_softmax_t* l = (tml_softmax_t*)(mdl->layer_body);
 936              		.loc 1 126 13
 937 03b2 13050D00 		addi	a0,s10,%lo(.LC6)
 938 03b6 97000000 		call	puts
 938      E7800000 
 939              	.LVL89:
 126:lib/tinymaix/src/tm_model.c ****             tml_softmax_t* l = (tml_softmax_t*)(mdl->layer_body);
 940              		.loc 1 126 13
 941 03be 0145     		li	a0,0
 942 03c0 97000000 		call	fflush
 942      E7800000 
 943              	.LVL90:
 126:lib/tinymaix/src/tm_model.c ****             tml_softmax_t* l = (tml_softmax_t*)(mdl->layer_body);
 944              		.loc 1 126 13
 127:lib/tinymaix/src/tm_model.c ****             res = tml_softmax(&_in, &_out, h->in_s, h->in_zp, h->out_s, h->out_zp);
 945              		.loc 1 127 13
 128:lib/tinymaix/src/tm_model.c ****             break; }
 946              		.loc 1 128 13
 128:lib/tinymaix/src/tm_model.c ****             break; }
 947              		.loc 1 128 19 is_stmt 0
 948 03c8 83A7CA02 		lw	a5,44(s5)
 949 03cc 03A78A02 		lw	a4,40(s5)
 950 03d0 83A64A02 		lw	a3,36(s5)
 951 03d4 03A60A02 		lw	a2,32(s5)
 952 03d8 4C01     		addi	a1,sp,132
 953 03da E810     		addi	a0,sp,108
 954 03dc 97000000 		call	tml_softmax
 954      E7800000 
 955              	.LVL91:
 956 03e4 2DBD     		j	.L59
 957              	.L36:
 958              	.LBE14:
 959              	.LBB15:
 131:lib/tinymaix/src/tm_model.c ****             tml_reshape_t* l = (tml_reshape_t*)(mdl->layer_body);
GAS LISTING C:\Users\Jesper\AppData\Local\Temp\ccxfaHGf.s 			page 25


 960              		.loc 1 131 13 is_stmt 1
 961 03e6 93053008 		li	a1,131
 962 03ea 13850400 		addi	a0,s1,%lo(.LC0)
 963 03ee 97000000 		call	printf
 963      E7800000 
 964              	.LVL92:
 131:lib/tinymaix/src/tm_model.c ****             tml_reshape_t* l = (tml_reshape_t*)(mdl->layer_body);
 965              		.loc 1 131 13
 966 03f6 0145     		li	a0,0
 967 03f8 97000000 		call	fflush
 967      E7800000 
 968              	.LVL93:
 131:lib/tinymaix/src/tm_model.c ****             tml_reshape_t* l = (tml_reshape_t*)(mdl->layer_body);
 969              		.loc 1 131 13
 131:lib/tinymaix/src/tm_model.c ****             tml_reshape_t* l = (tml_reshape_t*)(mdl->layer_body);
 970              		.loc 1 131 13
 971 0400 13850C00 		addi	a0,s9,%lo(.LC7)
 972 0404 97000000 		call	puts
 972      E7800000 
 973              	.LVL94:
 131:lib/tinymaix/src/tm_model.c ****             tml_reshape_t* l = (tml_reshape_t*)(mdl->layer_body);
 974              		.loc 1 131 13
 975 040c 0145     		li	a0,0
 976 040e 97000000 		call	fflush
 976      E7800000 
 977              	.LVL95:
 131:lib/tinymaix/src/tm_model.c ****             tml_reshape_t* l = (tml_reshape_t*)(mdl->layer_body);
 978              		.loc 1 131 13
 132:lib/tinymaix/src/tm_model.c ****             res = tml_reshape(&_in, &_out, h->in_s, h->in_zp, h->out_s, h->out_zp);
 979              		.loc 1 132 13
 133:lib/tinymaix/src/tm_model.c ****             break; }
 980              		.loc 1 133 13
 133:lib/tinymaix/src/tm_model.c ****             break; }
 981              		.loc 1 133 19 is_stmt 0
 982 0416 83A7CA02 		lw	a5,44(s5)
 983 041a 03A78A02 		lw	a4,40(s5)
 984 041e 83A64A02 		lw	a3,36(s5)
 985 0422 03A60A02 		lw	a2,32(s5)
 986 0426 4C01     		addi	a1,sp,132
 987 0428 E810     		addi	a0,sp,108
 988 042a 97000000 		call	tml_reshape
 988      E7800000 
 989              	.LVL96:
 990 0432 F5B3     		j	.L59
 991              	.L33:
 992              	.LBE15:
 993              	.LBB16:
 136:lib/tinymaix/src/tm_model.c ****             tml_add_t* l = (tml_add_t*)(mdl->layer_body);
 994              		.loc 1 136 13 is_stmt 1
 995 0434 93058008 		li	a1,136
 996 0438 13850400 		addi	a0,s1,%lo(.LC0)
 997 043c 97000000 		call	printf
 997      E7800000 
 998              	.LVL97:
 136:lib/tinymaix/src/tm_model.c ****             tml_add_t* l = (tml_add_t*)(mdl->layer_body);
 999              		.loc 1 136 13
 1000 0444 0145     		li	a0,0
GAS LISTING C:\Users\Jesper\AppData\Local\Temp\ccxfaHGf.s 			page 26


 1001 0446 97000000 		call	fflush
 1001      E7800000 
 1002              	.LVL98:
 136:lib/tinymaix/src/tm_model.c ****             tml_add_t* l = (tml_add_t*)(mdl->layer_body);
 1003              		.loc 1 136 13
 136:lib/tinymaix/src/tm_model.c ****             tml_add_t* l = (tml_add_t*)(mdl->layer_body);
 1004              		.loc 1 136 13
 1005 044e 13050C00 		addi	a0,s8,%lo(.LC8)
 1006 0452 97000000 		call	puts
 1006      E7800000 
 1007              	.LVL99:
 136:lib/tinymaix/src/tm_model.c ****             tml_add_t* l = (tml_add_t*)(mdl->layer_body);
 1008              		.loc 1 136 13
 1009 045a 0145     		li	a0,0
 1010 045c 97000000 		call	fflush
 1010      E7800000 
 1011              	.LVL100:
 136:lib/tinymaix/src/tm_model.c ****             tml_add_t* l = (tml_add_t*)(mdl->layer_body);
 1012              		.loc 1 136 13
 137:lib/tinymaix/src/tm_model.c ****             memcpy((void*)&_in1, (void*)(h->in_dims), sizeof(uint16_t)*4);
 1013              		.loc 1 137 13
 137:lib/tinymaix/src/tm_model.c ****             memcpy((void*)&_in1, (void*)(h->in_dims), sizeof(uint16_t)*4);
 1014              		.loc 1 137 24 is_stmt 0
 1015 0464 032B4401 		lw	s6,20(s0)
 1016              	.LVL101:
 138:lib/tinymaix/src/tm_model.c ****             _in1.data = (mtype_t *)(mdl->buf + l->in_oft1);
 1017              		.loc 1 138 13 is_stmt 1
 1018 0468 93850A01 		addi	a1,s5,16
 1019 046c 2146     		li	a2,8
 1020 046e A818     		addi	a0,sp,120
 1021 0470 97000000 		call	memcpy
 1021      E7800000 
 1022              	.LVL102:
 139:lib/tinymaix/src/tm_model.c ****             res = tml_add(&_in, &_in1, &_out, h->in_s, h->in_zp, l->in_s1, l->in_zp1, h->out_s, h->
 1023              		.loc 1 139 13
 139:lib/tinymaix/src/tm_model.c ****             res = tml_add(&_in, &_in1, &_out, h->in_s, h->in_zp, l->in_s1, l->in_zp1, h->out_s, h->
 1024              		.loc 1 139 46 is_stmt 0
 1025 0478 83260B03 		lw	a3,48(s6)
 1026 047c 1844     		lw	a4,8(s0)
 140:lib/tinymaix/src/tm_model.c ****             break; }
 1027              		.loc 1 140 19
 1028 047e 03A6CA02 		lw	a2,44(s5)
 1029 0482 83A88A02 		lw	a7,40(s5)
 139:lib/tinymaix/src/tm_model.c ****             res = tml_add(&_in, &_in1, &_out, h->in_s, h->in_zp, l->in_s1, l->in_zp1, h->out_s, h->
 1030              		.loc 1 139 46
 1031 0486 3697     		add	a4,a4,a3
 139:lib/tinymaix/src/tm_model.c ****             res = tml_add(&_in, &_in1, &_out, h->in_s, h->in_zp, l->in_s1, l->in_zp1, h->out_s, h->
 1032              		.loc 1 139 23
 1033 0488 3AC1     		sw	a4,128(sp)
 140:lib/tinymaix/src/tm_model.c ****             break; }
 1034              		.loc 1 140 13 is_stmt 1
 140:lib/tinymaix/src/tm_model.c ****             break; }
 1035              		.loc 1 140 19 is_stmt 0
 1036 048a 03288B03 		lw	a6,56(s6)
 1037 048e 83274B03 		lw	a5,52(s6)
 1038 0492 03A74A02 		lw	a4,36(s5)
 1039 0496 83A60A02 		lw	a3,32(s5)
GAS LISTING C:\Users\Jesper\AppData\Local\Temp\ccxfaHGf.s 			page 27


 1040 049a AC18     		addi	a1,sp,120
 1041 049c 32C0     		sw	a2,0(sp)
 1042 049e E810     		addi	a0,sp,108
 1043 04a0 5001     		addi	a2,sp,132
 1044 04a2 97000000 		call	tml_add
 1044      E7800000 
 1045              	.LVL103:
 1046 04aa 95BB     		j	.L59
 1047              	.LVL104:
 1048              	.L32:
 1049              	.LBE16:
 143:lib/tinymaix/src/tm_model.c ****             res = TM_ERR_LAYERTYPE;
 1050              		.loc 1 143 13 is_stmt 1
 1051 04ac 9305F008 		li	a1,143
 1052 04b0 13850400 		addi	a0,s1,%lo(.LC0)
 1053 04b4 97000000 		call	printf
 1053      E7800000 
 1054              	.LVL105:
 143:lib/tinymaix/src/tm_model.c ****             res = TM_ERR_LAYERTYPE;
 1055              		.loc 1 143 13
 1056 04bc 0145     		li	a0,0
 1057 04be 97000000 		call	fflush
 1057      E7800000 
 1058              	.LVL106:
 143:lib/tinymaix/src/tm_model.c ****             res = TM_ERR_LAYERTYPE;
 1059              		.loc 1 143 13
 143:lib/tinymaix/src/tm_model.c ****             res = TM_ERR_LAYERTYPE;
 1060              		.loc 1 143 13
 1061 04c6 13850B00 		addi	a0,s7,%lo(.LC9)
 1062 04ca 97000000 		call	puts
 1062      E7800000 
 1063              	.LVL107:
 143:lib/tinymaix/src/tm_model.c ****             res = TM_ERR_LAYERTYPE;
 1064              		.loc 1 143 13
 1065 04d2 0145     		li	a0,0
 1066 04d4 97000000 		call	fflush
 1066      E7800000 
 1067              	.LVL108:
 143:lib/tinymaix/src/tm_model.c ****             res = TM_ERR_LAYERTYPE;
 1068              		.loc 1 143 13
 144:lib/tinymaix/src/tm_model.c ****             break;
 1069              		.loc 1 144 13
 145:lib/tinymaix/src/tm_model.c ****         }
 1070              		.loc 1 145 13
 144:lib/tinymaix/src/tm_model.c ****             break;
 1071              		.loc 1 144 17 is_stmt 0
 1072 04dc 9547     		li	a5,5
 145:lib/tinymaix/src/tm_model.c ****         }
 1073              		.loc 1 145 13
 1074 04de 89B3     		j	.L40
 1075              	.LVL109:
 1076              	.L44:
 1077              	.LBB17:
 155:lib/tinymaix/src/tm_model.c ****                 float* outf = (float*)(TM_ALIGN(TML_GET_OUTPUT(mdl, h) + out_size));
 1078              		.loc 1 155 17 is_stmt 1
 155:lib/tinymaix/src/tm_model.c ****                 float* outf = (float*)(TM_ALIGN(TML_GET_OUTPUT(mdl, h) + out_size));
 1079              		.loc 1 155 58 is_stmt 0
GAS LISTING C:\Users\Jesper\AppData\Local\Temp\ccxfaHGf.s 			page 28


 1080 04e0 83D6CA01 		lhu	a3,28(s5)
 155:lib/tinymaix/src/tm_model.c ****                 float* outf = (float*)(TM_ALIGN(TML_GET_OUTPUT(mdl, h) + out_size));
 1081              		.loc 1 155 43
 1082 04e4 03D7AA01 		lhu	a4,26(s5)
 155:lib/tinymaix/src/tm_model.c ****                 float* outf = (float*)(TM_ALIGN(TML_GET_OUTPUT(mdl, h) + out_size));
 1083              		.loc 1 155 46
 1084 04e8 3307D702 		mul	a4,a4,a3
 155:lib/tinymaix/src/tm_model.c ****                 float* outf = (float*)(TM_ALIGN(TML_GET_OUTPUT(mdl, h) + out_size));
 1085              		.loc 1 155 73
 1086 04ec 83D6EA01 		lhu	a3,30(s5)
 155:lib/tinymaix/src/tm_model.c ****                 float* outf = (float*)(TM_ALIGN(TML_GET_OUTPUT(mdl, h) + out_size));
 1087              		.loc 1 155 21
 1088 04f0 3307D702 		mul	a4,a4,a3
 1089              	.LVL110:
 156:lib/tinymaix/src/tm_model.c ****                 for(int i=0; i<out_size; i++) //do dequant
 1090              		.loc 1 156 17 is_stmt 1
 1091              	.LBB18:
 157:lib/tinymaix/src/tm_model.c ****                     outf[i] = TML_DEQUANT(h, (TML_GET_OUTPUT(mdl, h))[i]);
 1092              		.loc 1 157 25 is_stmt 0
 1093 04f4 8146     		li	a3,0
 1094              	.LBE18:
 156:lib/tinymaix/src/tm_model.c ****                 for(int i=0; i<out_size; i++) //do dequant
 1095              		.loc 1 156 40
 1096 04f6 330A0701 		add	s4,a4,a6
 1097 04fa 329A     		add	s4,a2,s4
 1098 04fc 1D0A     		addi	s4,s4,7
 1099 04fe 137A8AFF 		andi	s4,s4,-8
 1100              	.LVL111:
 157:lib/tinymaix/src/tm_model.c ****                     outf[i] = TML_DEQUANT(h, (TML_GET_OUTPUT(mdl, h))[i]);
 1101              		.loc 1 157 17 is_stmt 1
 1102              	.LBB19:
 157:lib/tinymaix/src/tm_model.c ****                     outf[i] = TML_DEQUANT(h, (TML_GET_OUTPUT(mdl, h))[i]);
 1103              		.loc 1 157 21
 1104              	.L46:
 157:lib/tinymaix/src/tm_model.c ****                     outf[i] = TML_DEQUANT(h, (TML_GET_OUTPUT(mdl, h))[i]);
 1105              		.loc 1 157 17 is_stmt 0 discriminator 1
 1106 0502 6395E600 		bne	a3,a4,.L47
 1107              	.LBE19:
 159:lib/tinymaix/src/tm_model.c ****             }
 1108              		.loc 1 159 17 is_stmt 1
 159:lib/tinymaix/src/tm_model.c ****             }
 1109              		.loc 1 159 36 is_stmt 0
 1110 0506 23244B01 		sw	s4,8(s6)
 1111 050a 49BB     		j	.L45
 1112              	.L47:
 1113              	.LBB20:
 158:lib/tinymaix/src/tm_model.c ****                 out[out_idx].dataf = outf;
 1114              		.loc 1 158 31 discriminator 3
 1115 050c B305D800 		add	a1,a6,a3
 1116 0510 B295     		add	a1,a2,a1
 1117 0512 03850500 		lb	a0,0(a1)
 1118 0516 83A5CA02 		lw	a1,44(s5)
 158:lib/tinymaix/src/tm_model.c ****                 out[out_idx].dataf = outf;
 1119              		.loc 1 158 29 discriminator 3
 1120 051a 93982600 		slli	a7,a3,2
 1121 051e D298     		add	a7,a7,s4
 158:lib/tinymaix/src/tm_model.c ****                 out[out_idx].dataf = outf;
GAS LISTING C:\Users\Jesper\AppData\Local\Temp\ccxfaHGf.s 			page 29


 1122              		.loc 1 158 31 discriminator 3
 1123 0520 0D8D     		sub	a0,a0,a1
 1124 0522 BACE     		sw	a4,92(sp)
 158:lib/tinymaix/src/tm_model.c ****                 out[out_idx].dataf = outf;
 1125              		.loc 1 158 21 is_stmt 1 discriminator 3
 158:lib/tinymaix/src/tm_model.c ****                 out[out_idx].dataf = outf;
 1126              		.loc 1 158 29 is_stmt 0 discriminator 3
 1127 0524 C6CC     		sw	a7,88(sp)
 158:lib/tinymaix/src/tm_model.c ****                 out[out_idx].dataf = outf;
 1128              		.loc 1 158 31 discriminator 3
 1129 0526 B6CA     		sw	a3,84(sp)
 1130 0528 C2C8     		sw	a6,80(sp)
 1131 052a B2C6     		sw	a2,76(sp)
 1132 052c 97000000 		call	__floatsisf
 1132      E7800000 
 1133              	.LVL112:
 1134 0534 83A58A02 		lw	a1,40(s5)
 1135 0538 97000000 		call	__mulsf3
 1135      E7800000 
 1136              	.LVL113:
 158:lib/tinymaix/src/tm_model.c ****                 out[out_idx].dataf = outf;
 1137              		.loc 1 158 29 discriminator 3
 1138 0540 E648     		lw	a7,88(sp)
 157:lib/tinymaix/src/tm_model.c ****                     outf[i] = TML_DEQUANT(h, (TML_GET_OUTPUT(mdl, h))[i]);
 1139              		.loc 1 157 43 discriminator 3
 1140 0542 D646     		lw	a3,84(sp)
 1141 0544 7647     		lw	a4,92(sp)
 158:lib/tinymaix/src/tm_model.c ****                 out[out_idx].dataf = outf;
 1142              		.loc 1 158 29 discriminator 3
 1143 0546 23A0A800 		sw	a0,0(a7)
 157:lib/tinymaix/src/tm_model.c ****                     outf[i] = TML_DEQUANT(h, (TML_GET_OUTPUT(mdl, h))[i]);
 1144              		.loc 1 157 43 discriminator 3
 1145 054a 8506     		addi	a3,a3,1
 1146 054c 4648     		lw	a6,80(sp)
 1147 054e 3646     		lw	a2,76(sp)
 1148              	.LVL114:
 1149 0550 4DBF     		j	.L46
 1150              	.LBE20:
 1151              	.LBE17:
 1152              	.LBE23:
 1153              		.cfi_endproc
 1154              	.LFE31:
 1156              		.section	.rodata.tm_run.str1.4,"aMS",@progbits,1
 1157              		.align	2
 1158              	.LC0:
 1159 0000 2323234C 		.string	"###L%d: "
 1159      25643A20 
 1159      00
 1160 0009 000000   		.zero	3
 1161              	.LC1:
 1162 000c 20696E20 		.string	" in tm_run\r"
 1162      746D5F72 
 1162      756E0D00 
 1163              	.LC2:
 1164 0018 20626566 		.string	" before switch in tm_run\r"
 1164      6F726520 
 1164      73776974 
GAS LISTING C:\Users\Jesper\AppData\Local\Temp\ccxfaHGf.s 			page 30


 1164      63682069 
 1164      6E20746D 
 1165 0032 0000     		.zero	2
 1166              	.LC3:
 1167 0034 4457434F 		.string	"DWCONV2D\r"
 1167      4E563244 
 1167      0D00
 1168 003e 0000     		.zero	2
 1169              	.LC4:
 1170 0040 4741500D 		.string	"GAP\r"
 1170      00
 1171 0045 000000   		.zero	3
 1172              	.LC5:
 1173 0048 46430D00 		.string	"FC\r"
 1174              	.LC6:
 1175 004c 534F4654 		.string	"SOFTMAX\r"
 1175      4D41580D 
 1175      00
 1176 0055 000000   		.zero	3
 1177              	.LC7:
 1178 0058 52455348 		.string	"RESHAPE\r"
 1178      4150450D 
 1178      00
 1179 0061 000000   		.zero	3
 1180              	.LC8:
 1181 0064 4144440D 		.string	"ADD\r"
 1181      00
 1182 0069 000000   		.zero	3
 1183              	.LC9:
 1184 006c 44454641 		.string	"DEFAULT\r"
 1184      554C540D 
 1184      00
 1185 0075 000000   		.zero	3
 1186              	.LC10:
 1187 0078 20416674 		.string	" After switch in tm_run \r"
 1187      65722073 
 1187      77697463 
 1187      6820696E 
 1187      20746D5F 
 1188 0092 0000     		.zero	2
 1189              	.LC11:
 1190 0094 204C6179 		.string	" Layer done in tm_run \r"
 1190      65722064 
 1190      6F6E6520 
 1190      696E2074 
 1190      6D5F7275 
 1191              	.LC12:
 1192 00ac 20646F6E 		.string	" done with run, returning \r"
 1192      65207769 
 1192      74682072 
 1192      756E2C20 
 1192      72657475 
 1193              		.text
 1194              	.Letext0:
 1195              		.file 2 "c:\\users\\jesper\\documents\\ml_sommarjobb\\toolchain-gd32v-v201-win\\toolchain-gd32v-v2
 1196              		.file 3 "c:\\users\\jesper\\documents\\ml_sommarjobb\\toolchain-gd32v-v201-win\\toolchain-gd32v-v2
 1197              		.file 4 "c:\\users\\jesper\\documents\\ml_sommarjobb\\toolchain-gd32v-v201-win\\toolchain-gd32v-v2
GAS LISTING C:\Users\Jesper\AppData\Local\Temp\ccxfaHGf.s 			page 31


 1198              		.file 5 "c:\\users\\jesper\\documents\\ml_sommarjobb\\toolchain-gd32v-v201-win\\toolchain-gd32v-v2
 1199              		.file 6 "c:\\users\\jesper\\documents\\ml_sommarjobb\\toolchain-gd32v-v201-win\\toolchain-gd32v-v2
 1200              		.file 7 "c:\\users\\jesper\\documents\\ml_sommarjobb\\toolchain-gd32v-v201-win\\toolchain-gd32v-v2
 1201              		.file 8 "c:\\users\\jesper\\documents\\ml_sommarjobb\\toolchain-gd32v-v201-win\\toolchain-gd32v-v2
 1202              		.file 9 "./../../firmware/GD32VF103_standard_peripheral/system_gd32vf103.h"
 1203              		.file 10 "c:\\users\\jesper\\documents\\ml_sommarjobb\\toolchain-gd32v-v201-win\\toolchain-gd32v-v
 1204              		.file 11 "lib/tinymaix/include/tinymaix.h"
 1205              		.file 12 "c:\\users\\jesper\\documents\\ml_sommarjobb\\toolchain-gd32v-v201-win\\toolchain-gd32v-v
 1206              		.file 13 "<built-in>"
GAS LISTING C:\Users\Jesper\AppData\Local\Temp\ccxfaHGf.s 			page 32


DEFINED SYMBOLS
                            *ABS*:0000000000000000 tm_model.c
C:\Users\Jesper\AppData\Local\Temp\ccxfaHGf.s:13     .text.tm_load:0000000000000000 tm_load
C:\Users\Jesper\AppData\Local\Temp\ccxfaHGf.s:17     .text.tm_load:0000000000000000 .L0 
C:\Users\Jesper\AppData\Local\Temp\ccxfaHGf.s:19     .text.tm_load:0000000000000000 .L0 
C:\Users\Jesper\AppData\Local\Temp\ccxfaHGf.s:20     .text.tm_load:0000000000000000 .L0 
C:\Users\Jesper\AppData\Local\Temp\ccxfaHGf.s:21     .text.tm_load:0000000000000000 .L0 
C:\Users\Jesper\AppData\Local\Temp\ccxfaHGf.s:22     .text.tm_load:0000000000000000 .L0 
C:\Users\Jesper\AppData\Local\Temp\ccxfaHGf.s:24     .text.tm_load:0000000000000002 .L0 
C:\Users\Jesper\AppData\Local\Temp\ccxfaHGf.s:26     .text.tm_load:0000000000000004 .L0 
C:\Users\Jesper\AppData\Local\Temp\ccxfaHGf.s:29     .text.tm_load:0000000000000006 .L0 
C:\Users\Jesper\AppData\Local\Temp\ccxfaHGf.s:33     .text.tm_load:000000000000000c .L0 
C:\Users\Jesper\AppData\Local\Temp\ccxfaHGf.s:36     .text.tm_load:0000000000000012 .L0 
C:\Users\Jesper\AppData\Local\Temp\ccxfaHGf.s:37     .text.tm_load:0000000000000012 .L0 
C:\Users\Jesper\AppData\Local\Temp\ccxfaHGf.s:38     .text.tm_load:0000000000000012 .L0 
C:\Users\Jesper\AppData\Local\Temp\ccxfaHGf.s:40     .text.tm_load:0000000000000012 .L0 
C:\Users\Jesper\AppData\Local\Temp\ccxfaHGf.s:43     .text.tm_load:000000000000001a .L0 
C:\Users\Jesper\AppData\Local\Temp\ccxfaHGf.s:44     .text.tm_load:000000000000001a .L0 
C:\Users\Jesper\AppData\Local\Temp\ccxfaHGf.s:46     .text.tm_load:000000000000001e .L0 
C:\Users\Jesper\AppData\Local\Temp\ccxfaHGf.s:48     .text.tm_load:0000000000000020 .L0 
C:\Users\Jesper\AppData\Local\Temp\ccxfaHGf.s:50     .text.tm_load:0000000000000022 .L0 
C:\Users\Jesper\AppData\Local\Temp\ccxfaHGf.s:52     .text.tm_load:0000000000000024 .L0 
C:\Users\Jesper\AppData\Local\Temp\ccxfaHGf.s:56     .text.tm_load:000000000000002a .L0 
C:\Users\Jesper\AppData\Local\Temp\ccxfaHGf.s:57     .text.tm_load:000000000000002a .L0 
C:\Users\Jesper\AppData\Local\Temp\ccxfaHGf.s:58     .text.tm_load:000000000000002a .L0 
C:\Users\Jesper\AppData\Local\Temp\ccxfaHGf.s:59     .text.tm_load:000000000000002a .L0 
C:\Users\Jesper\AppData\Local\Temp\ccxfaHGf.s:61     .text.tm_load:000000000000002c .L0 
C:\Users\Jesper\AppData\Local\Temp\ccxfaHGf.s:62     .text.tm_load:000000000000002c .L0 
C:\Users\Jesper\AppData\Local\Temp\ccxfaHGf.s:66     .text.tm_load:0000000000000036 .L0 
C:\Users\Jesper\AppData\Local\Temp\ccxfaHGf.s:68     .text.tm_load:0000000000000038 .L0 
C:\Users\Jesper\AppData\Local\Temp\ccxfaHGf.s:69     .text.tm_load:0000000000000038 .L0 
C:\Users\Jesper\AppData\Local\Temp\ccxfaHGf.s:72     .text.tm_load:000000000000003a .L0 
C:\Users\Jesper\AppData\Local\Temp\ccxfaHGf.s:76     .text.tm_load:000000000000003c .L0 
C:\Users\Jesper\AppData\Local\Temp\ccxfaHGf.s:77     .text.tm_load:000000000000003e .L0 
C:\Users\Jesper\AppData\Local\Temp\ccxfaHGf.s:78     .text.tm_load:000000000000003e .L0 
C:\Users\Jesper\AppData\Local\Temp\ccxfaHGf.s:80     .text.tm_load:0000000000000040 .L0 
C:\Users\Jesper\AppData\Local\Temp\ccxfaHGf.s:83     .text.tm_load:0000000000000042 .L0 
C:\Users\Jesper\AppData\Local\Temp\ccxfaHGf.s:85     .text.tm_load:0000000000000044 .L0 
C:\Users\Jesper\AppData\Local\Temp\ccxfaHGf.s:88     .text.tm_load:0000000000000046 .L0 
C:\Users\Jesper\AppData\Local\Temp\ccxfaHGf.s:93     .text.tm_load:0000000000000048 .L0 
C:\Users\Jesper\AppData\Local\Temp\ccxfaHGf.s:95     .text.tm_load:0000000000000048 .L0 
C:\Users\Jesper\AppData\Local\Temp\ccxfaHGf.s:96     .text.tm_load:0000000000000048 .L0 
C:\Users\Jesper\AppData\Local\Temp\ccxfaHGf.s:100    .text.tm_load:000000000000004e .L0 
C:\Users\Jesper\AppData\Local\Temp\ccxfaHGf.s:101    .text.tm_load:000000000000004e .L0 
C:\Users\Jesper\AppData\Local\Temp\ccxfaHGf.s:103    .text.tm_load:0000000000000050 .L0 
C:\Users\Jesper\AppData\Local\Temp\ccxfaHGf.s:105    .text.tm_load:0000000000000052 .L0 
C:\Users\Jesper\AppData\Local\Temp\ccxfaHGf.s:106    .text.tm_load:0000000000000052 .L0 
C:\Users\Jesper\AppData\Local\Temp\ccxfaHGf.s:109    .text.tm_load:000000000000005a .L0 
C:\Users\Jesper\AppData\Local\Temp\ccxfaHGf.s:111    .text.tm_load:000000000000005c .L0 
C:\Users\Jesper\AppData\Local\Temp\ccxfaHGf.s:112    .text.tm_load:000000000000005c .L0 
C:\Users\Jesper\AppData\Local\Temp\ccxfaHGf.s:115    .text.tm_load:000000000000005e .L0 
C:\Users\Jesper\AppData\Local\Temp\ccxfaHGf.s:116    .text.tm_load:000000000000005e .L0 
C:\Users\Jesper\AppData\Local\Temp\ccxfaHGf.s:118    .text.tm_load:0000000000000062 .L0 
C:\Users\Jesper\AppData\Local\Temp\ccxfaHGf.s:120    .text.tm_load:0000000000000064 .L0 
C:\Users\Jesper\AppData\Local\Temp\ccxfaHGf.s:122    .text.tm_load:0000000000000068 .L0 
C:\Users\Jesper\AppData\Local\Temp\ccxfaHGf.s:123    .text.tm_load:0000000000000068 .L0 
C:\Users\Jesper\AppData\Local\Temp\ccxfaHGf.s:129    .text.tm_load:0000000000000078 .L0 
GAS LISTING C:\Users\Jesper\AppData\Local\Temp\ccxfaHGf.s 			page 33


C:\Users\Jesper\AppData\Local\Temp\ccxfaHGf.s:130    .text.tm_load:0000000000000078 .L0 
C:\Users\Jesper\AppData\Local\Temp\ccxfaHGf.s:132    .text.tm_load:000000000000007a .L0 
C:\Users\Jesper\AppData\Local\Temp\ccxfaHGf.s:134    .text.tm_load:000000000000007c .L0 
C:\Users\Jesper\AppData\Local\Temp\ccxfaHGf.s:136    .text.tm_load:0000000000000080 .L0 
C:\Users\Jesper\AppData\Local\Temp\ccxfaHGf.s:137    .text.tm_load:0000000000000080 .L0 
C:\Users\Jesper\AppData\Local\Temp\ccxfaHGf.s:141    .text.tm_load:0000000000000082 .L0 
C:\Users\Jesper\AppData\Local\Temp\ccxfaHGf.s:142    .text.tm_load:0000000000000082 .L0 
C:\Users\Jesper\AppData\Local\Temp\ccxfaHGf.s:144    .text.tm_load:0000000000000084 .L0 
C:\Users\Jesper\AppData\Local\Temp\ccxfaHGf.s:145    .text.tm_load:0000000000000084 .L0 
C:\Users\Jesper\AppData\Local\Temp\ccxfaHGf.s:150    .text.tm_load:000000000000008a .L0 
C:\Users\Jesper\AppData\Local\Temp\ccxfaHGf.s:151    .text.tm_load:000000000000008a .L0 
C:\Users\Jesper\AppData\Local\Temp\ccxfaHGf.s:156    .text.tm_load:0000000000000090 .L0 
C:\Users\Jesper\AppData\Local\Temp\ccxfaHGf.s:158    .text.tm_load:0000000000000094 .L0 
C:\Users\Jesper\AppData\Local\Temp\ccxfaHGf.s:165    .text.tm_unload:0000000000000000 tm_unload
C:\Users\Jesper\AppData\Local\Temp\ccxfaHGf.s:168    .text.tm_unload:0000000000000000 .L0 
C:\Users\Jesper\AppData\Local\Temp\ccxfaHGf.s:170    .text.tm_unload:0000000000000000 .L0 
C:\Users\Jesper\AppData\Local\Temp\ccxfaHGf.s:171    .text.tm_unload:0000000000000000 .L0 
C:\Users\Jesper\AppData\Local\Temp\ccxfaHGf.s:172    .text.tm_unload:0000000000000000 .L0 
C:\Users\Jesper\AppData\Local\Temp\ccxfaHGf.s:175    .text.tm_unload:0000000000000006 .L0 
C:\Users\Jesper\AppData\Local\Temp\ccxfaHGf.s:181    .text.tm_unload:0000000000000010 .L0 
C:\Users\Jesper\AppData\Local\Temp\ccxfaHGf.s:182    .text.tm_unload:0000000000000012 .L0 
C:\Users\Jesper\AppData\Local\Temp\ccxfaHGf.s:193    .text.tm_preprocess:0000000000000000 tm_preprocess
C:\Users\Jesper\AppData\Local\Temp\ccxfaHGf.s:196    .text.tm_preprocess:0000000000000000 .L0 
C:\Users\Jesper\AppData\Local\Temp\ccxfaHGf.s:198    .text.tm_preprocess:0000000000000000 .L0 
C:\Users\Jesper\AppData\Local\Temp\ccxfaHGf.s:199    .text.tm_preprocess:0000000000000000 .L0 
C:\Users\Jesper\AppData\Local\Temp\ccxfaHGf.s:200    .text.tm_preprocess:0000000000000000 .L0 
C:\Users\Jesper\AppData\Local\Temp\ccxfaHGf.s:201    .text.tm_preprocess:0000000000000000 .L0 
C:\Users\Jesper\AppData\Local\Temp\ccxfaHGf.s:202    .text.tm_preprocess:0000000000000000 .L0 
C:\Users\Jesper\AppData\Local\Temp\ccxfaHGf.s:203    .text.tm_preprocess:0000000000000000 .L0 
C:\Users\Jesper\AppData\Local\Temp\ccxfaHGf.s:205    .text.tm_preprocess:0000000000000002 .L0 
C:\Users\Jesper\AppData\Local\Temp\ccxfaHGf.s:207    .text.tm_preprocess:0000000000000002 .L0 
C:\Users\Jesper\AppData\Local\Temp\ccxfaHGf.s:209    .text.tm_preprocess:0000000000000006 .L0 
C:\Users\Jesper\AppData\Local\Temp\ccxfaHGf.s:210    .text.tm_preprocess:0000000000000008 .L0 
C:\Users\Jesper\AppData\Local\Temp\ccxfaHGf.s:212    .text.tm_preprocess:0000000000000008 .L0 
C:\Users\Jesper\AppData\Local\Temp\ccxfaHGf.s:214    .text.tm_preprocess:000000000000000c .L0 
C:\Users\Jesper\AppData\Local\Temp\ccxfaHGf.s:217    .text.tm_preprocess:0000000000000010 .L0 
C:\Users\Jesper\AppData\Local\Temp\ccxfaHGf.s:219    .text.tm_preprocess:0000000000000014 .L0 
C:\Users\Jesper\AppData\Local\Temp\ccxfaHGf.s:221    .text.tm_preprocess:0000000000000018 .L0 
C:\Users\Jesper\AppData\Local\Temp\ccxfaHGf.s:227    .text.tm_preprocess:0000000000000024 .L0 
C:\Users\Jesper\AppData\Local\Temp\ccxfaHGf.s:228    .text.tm_preprocess:0000000000000024 .L0 
C:\Users\Jesper\AppData\Local\Temp\ccxfaHGf.s:229    .text.tm_preprocess:0000000000000024 .L0 
C:\Users\Jesper\AppData\Local\Temp\ccxfaHGf.s:230    .text.tm_preprocess:0000000000000024 .L0 
C:\Users\Jesper\AppData\Local\Temp\ccxfaHGf.s:231    .text.tm_preprocess:0000000000000024 .L0 
C:\Users\Jesper\AppData\Local\Temp\ccxfaHGf.s:232    .text.tm_preprocess:0000000000000024 .L0 
C:\Users\Jesper\AppData\Local\Temp\ccxfaHGf.s:233    .text.tm_preprocess:0000000000000024 .L0 
C:\Users\Jesper\AppData\Local\Temp\ccxfaHGf.s:234    .text.tm_preprocess:0000000000000024 .L0 
C:\Users\Jesper\AppData\Local\Temp\ccxfaHGf.s:236    .text.tm_preprocess:0000000000000024 .L0 
C:\Users\Jesper\AppData\Local\Temp\ccxfaHGf.s:239    .text.tm_preprocess:0000000000000028 .L0 
C:\Users\Jesper\AppData\Local\Temp\ccxfaHGf.s:244    .text.tm_preprocess:0000000000000034 .L0 
C:\Users\Jesper\AppData\Local\Temp\ccxfaHGf.s:245    .text.tm_preprocess:0000000000000034 .L0 
C:\Users\Jesper\AppData\Local\Temp\ccxfaHGf.s:247    .text.tm_preprocess:0000000000000036 .L0 
C:\Users\Jesper\AppData\Local\Temp\ccxfaHGf.s:249    .text.tm_preprocess:0000000000000038 .L0 
C:\Users\Jesper\AppData\Local\Temp\ccxfaHGf.s:252    .text.tm_preprocess:000000000000003a .L0 
C:\Users\Jesper\AppData\Local\Temp\ccxfaHGf.s:256    .text.tm_preprocess:0000000000000040 .L0 
C:\Users\Jesper\AppData\Local\Temp\ccxfaHGf.s:258    .text.tm_preprocess:0000000000000044 .L0 
C:\Users\Jesper\AppData\Local\Temp\ccxfaHGf.s:261    .text.tm_preprocess:0000000000000048 .L0 
C:\Users\Jesper\AppData\Local\Temp\ccxfaHGf.s:265    .text.tm_preprocess:000000000000004a .L0 
GAS LISTING C:\Users\Jesper\AppData\Local\Temp\ccxfaHGf.s 			page 34


C:\Users\Jesper\AppData\Local\Temp\ccxfaHGf.s:270    .text.tm_preprocess:000000000000004e .L0 
C:\Users\Jesper\AppData\Local\Temp\ccxfaHGf.s:271    .text.tm_preprocess:000000000000004e .L0 
C:\Users\Jesper\AppData\Local\Temp\ccxfaHGf.s:272    .text.tm_preprocess:0000000000000050 .L0 
C:\Users\Jesper\AppData\Local\Temp\ccxfaHGf.s:273    .text.tm_preprocess:0000000000000050 .L0 
C:\Users\Jesper\AppData\Local\Temp\ccxfaHGf.s:275    .text.tm_preprocess:0000000000000052 .L0 
C:\Users\Jesper\AppData\Local\Temp\ccxfaHGf.s:277    .text.tm_preprocess:0000000000000054 .L0 
C:\Users\Jesper\AppData\Local\Temp\ccxfaHGf.s:280    .text.tm_preprocess:0000000000000056 .L0 
C:\Users\Jesper\AppData\Local\Temp\ccxfaHGf.s:282    .text.tm_preprocess:0000000000000058 .L0 
C:\Users\Jesper\AppData\Local\Temp\ccxfaHGf.s:284    .text.tm_preprocess:000000000000005a .L0 
C:\Users\Jesper\AppData\Local\Temp\ccxfaHGf.s:286    .text.tm_preprocess:000000000000005c .L0 
C:\Users\Jesper\AppData\Local\Temp\ccxfaHGf.s:288    .text.tm_preprocess:000000000000005e .L0 
C:\Users\Jesper\AppData\Local\Temp\ccxfaHGf.s:290    .text.tm_preprocess:0000000000000060 .L0 
C:\Users\Jesper\AppData\Local\Temp\ccxfaHGf.s:294    .text.tm_preprocess:0000000000000064 .L0 
C:\Users\Jesper\AppData\Local\Temp\ccxfaHGf.s:299    .text.tm_preprocess:0000000000000066 .L0 
C:\Users\Jesper\AppData\Local\Temp\ccxfaHGf.s:302    .text.tm_preprocess:0000000000000066 .L0 
C:\Users\Jesper\AppData\Local\Temp\ccxfaHGf.s:303    .text.tm_preprocess:0000000000000066 .L0 
C:\Users\Jesper\AppData\Local\Temp\ccxfaHGf.s:306    .text.tm_preprocess:000000000000006c .L0 
C:\Users\Jesper\AppData\Local\Temp\ccxfaHGf.s:308    .text.tm_preprocess:000000000000006e .L0 
C:\Users\Jesper\AppData\Local\Temp\ccxfaHGf.s:310    .text.tm_preprocess:0000000000000070 .L0 
C:\Users\Jesper\AppData\Local\Temp\ccxfaHGf.s:312    .text.tm_preprocess:0000000000000072 .L0 
C:\Users\Jesper\AppData\Local\Temp\ccxfaHGf.s:314    .text.tm_preprocess:0000000000000076 .L0 
C:\Users\Jesper\AppData\Local\Temp\ccxfaHGf.s:318    .text.tm_preprocess:0000000000000080 .L0 
C:\Users\Jesper\AppData\Local\Temp\ccxfaHGf.s:326    .text.tm_preprocess:0000000000000096 .L0 
C:\Users\Jesper\AppData\Local\Temp\ccxfaHGf.s:328    .text.tm_preprocess:0000000000000098 .L0 
C:\Users\Jesper\AppData\Local\Temp\ccxfaHGf.s:332    .text.tm_preprocess:00000000000000a4 .L0 
C:\Users\Jesper\AppData\Local\Temp\ccxfaHGf.s:340    .text.tm_preprocess:00000000000000a8 .L0 
C:\Users\Jesper\AppData\Local\Temp\ccxfaHGf.s:341    .text.tm_preprocess:00000000000000a8 .L0 
C:\Users\Jesper\AppData\Local\Temp\ccxfaHGf.s:343    .text.tm_preprocess:00000000000000aa .L0 
C:\Users\Jesper\AppData\Local\Temp\ccxfaHGf.s:345    .text.tm_preprocess:00000000000000ac .L0 
C:\Users\Jesper\AppData\Local\Temp\ccxfaHGf.s:347    .text.tm_preprocess:00000000000000ae .L0 
C:\Users\Jesper\AppData\Local\Temp\ccxfaHGf.s:349    .text.tm_preprocess:00000000000000b2 .L0 
C:\Users\Jesper\AppData\Local\Temp\ccxfaHGf.s:351    .text.tm_preprocess:00000000000000b4 .L0 
C:\Users\Jesper\AppData\Local\Temp\ccxfaHGf.s:354    .text.tm_preprocess:00000000000000b6 .L0 
C:\Users\Jesper\AppData\Local\Temp\ccxfaHGf.s:356    .text.tm_preprocess:00000000000000ba .L0 
C:\Users\Jesper\AppData\Local\Temp\ccxfaHGf.s:360    .text.tm_preprocess:00000000000000be .L0 
C:\Users\Jesper\AppData\Local\Temp\ccxfaHGf.s:365    .text.tm_preprocess:00000000000000c4 .L0 
C:\Users\Jesper\AppData\Local\Temp\ccxfaHGf.s:368    .text.tm_preprocess:00000000000000c8 .L0 
C:\Users\Jesper\AppData\Local\Temp\ccxfaHGf.s:376    .text.tm_run:0000000000000000 tm_run
C:\Users\Jesper\AppData\Local\Temp\ccxfaHGf.s:379    .text.tm_run:0000000000000000 .L0 
C:\Users\Jesper\AppData\Local\Temp\ccxfaHGf.s:381    .text.tm_run:0000000000000000 .L0 
C:\Users\Jesper\AppData\Local\Temp\ccxfaHGf.s:382    .text.tm_run:0000000000000000 .L0 
C:\Users\Jesper\AppData\Local\Temp\ccxfaHGf.s:383    .text.tm_run:0000000000000000 .L0 
C:\Users\Jesper\AppData\Local\Temp\ccxfaHGf.s:385    .text.tm_run:0000000000000002 .L0 
C:\Users\Jesper\AppData\Local\Temp\ccxfaHGf.s:387    .text.tm_run:0000000000000004 .L0 
C:\Users\Jesper\AppData\Local\Temp\ccxfaHGf.s:389    .text.tm_run:0000000000000004 .L0 
C:\Users\Jesper\AppData\Local\Temp\ccxfaHGf.s:391    .text.tm_run:0000000000000008 .L0 
C:\Users\Jesper\AppData\Local\Temp\ccxfaHGf.s:393    .text.tm_run:000000000000000c .L0 
C:\Users\Jesper\AppData\Local\Temp\ccxfaHGf.s:394    .text.tm_run:000000000000000c .L0 
C:\Users\Jesper\AppData\Local\Temp\ccxfaHGf.s:398    .text.tm_run:0000000000000010 .L0 
C:\Users\Jesper\AppData\Local\Temp\ccxfaHGf.s:403    .text.tm_run:0000000000000018 .L0 
C:\Users\Jesper\AppData\Local\Temp\ccxfaHGf.s:414    .text.tm_run:000000000000002e .L0 
C:\Users\Jesper\AppData\Local\Temp\ccxfaHGf.s:415    .text.tm_run:000000000000002e .L0 
C:\Users\Jesper\AppData\Local\Temp\ccxfaHGf.s:416    .text.tm_run:000000000000002e .L0 
C:\Users\Jesper\AppData\Local\Temp\ccxfaHGf.s:417    .text.tm_run:000000000000002e .L0 
C:\Users\Jesper\AppData\Local\Temp\ccxfaHGf.s:418    .text.tm_run:000000000000002e .L0 
C:\Users\Jesper\AppData\Local\Temp\ccxfaHGf.s:419    .text.tm_run:000000000000002e .L0 
C:\Users\Jesper\AppData\Local\Temp\ccxfaHGf.s:420    .text.tm_run:000000000000002e .L0 
GAS LISTING C:\Users\Jesper\AppData\Local\Temp\ccxfaHGf.s 			page 35


C:\Users\Jesper\AppData\Local\Temp\ccxfaHGf.s:421    .text.tm_run:000000000000002e .L0 
C:\Users\Jesper\AppData\Local\Temp\ccxfaHGf.s:422    .text.tm_run:000000000000002e .L0 
C:\Users\Jesper\AppData\Local\Temp\ccxfaHGf.s:423    .text.tm_run:000000000000002e .L0 
C:\Users\Jesper\AppData\Local\Temp\ccxfaHGf.s:425    .text.tm_run:000000000000002e .L0 
C:\Users\Jesper\AppData\Local\Temp\ccxfaHGf.s:428    .text.tm_run:0000000000000036 .L0 
C:\Users\Jesper\AppData\Local\Temp\ccxfaHGf.s:432    .text.tm_run:0000000000000040 .L0 
C:\Users\Jesper\AppData\Local\Temp\ccxfaHGf.s:433    .text.tm_run:0000000000000040 .L0 
C:\Users\Jesper\AppData\Local\Temp\ccxfaHGf.s:438    .text.tm_run:0000000000000050 .L0 
C:\Users\Jesper\AppData\Local\Temp\ccxfaHGf.s:442    .text.tm_run:000000000000005a .L0 
C:\Users\Jesper\AppData\Local\Temp\ccxfaHGf.s:443    .text.tm_run:000000000000005a .L0 
C:\Users\Jesper\AppData\Local\Temp\ccxfaHGf.s:444    .text.tm_run:000000000000005a .L0 
C:\Users\Jesper\AppData\Local\Temp\ccxfaHGf.s:445    .text.tm_run:000000000000005a .L0 
C:\Users\Jesper\AppData\Local\Temp\ccxfaHGf.s:446    .text.tm_run:000000000000005a .L0 
C:\Users\Jesper\AppData\Local\Temp\ccxfaHGf.s:452    .text.tm_run:0000000000000068 .L0 
C:\Users\Jesper\AppData\Local\Temp\ccxfaHGf.s:453    .text.tm_run:0000000000000068 .L0 
C:\Users\Jesper\AppData\Local\Temp\ccxfaHGf.s:456    .text.tm_run:000000000000006a .L0 
C:\Users\Jesper\AppData\Local\Temp\ccxfaHGf.s:459    .text.tm_run:000000000000006e .L0 
C:\Users\Jesper\AppData\Local\Temp\ccxfaHGf.s:461    .text.tm_run:0000000000000072 .L0 
C:\Users\Jesper\AppData\Local\Temp\ccxfaHGf.s:463    .text.tm_run:0000000000000076 .L0 
C:\Users\Jesper\AppData\Local\Temp\ccxfaHGf.s:465    .text.tm_run:0000000000000078 .L0 
C:\Users\Jesper\AppData\Local\Temp\ccxfaHGf.s:466    .text.tm_run:0000000000000078 .L0 
C:\Users\Jesper\AppData\Local\Temp\ccxfaHGf.s:470    .text.tm_run:000000000000007a .L0 
C:\Users\Jesper\AppData\Local\Temp\ccxfaHGf.s:472    .text.tm_run:000000000000007e .L0 
C:\Users\Jesper\AppData\Local\Temp\ccxfaHGf.s:475    .text.tm_run:0000000000000082 .L0 
C:\Users\Jesper\AppData\Local\Temp\ccxfaHGf.s:479    .text.tm_run:0000000000000086 .L0 
C:\Users\Jesper\AppData\Local\Temp\ccxfaHGf.s:483    .text.tm_run:000000000000008a .L0 
C:\Users\Jesper\AppData\Local\Temp\ccxfaHGf.s:487    .text.tm_run:000000000000008e .L0 
C:\Users\Jesper\AppData\Local\Temp\ccxfaHGf.s:493    .text.tm_run:0000000000000092 .L0 
C:\Users\Jesper\AppData\Local\Temp\ccxfaHGf.s:495    .text.tm_run:0000000000000094 .L0 
C:\Users\Jesper\AppData\Local\Temp\ccxfaHGf.s:497    .text.tm_run:0000000000000098 .L0 
C:\Users\Jesper\AppData\Local\Temp\ccxfaHGf.s:500    .text.tm_run:00000000000000a0 .L0 
C:\Users\Jesper\AppData\Local\Temp\ccxfaHGf.s:505    .text.tm_run:00000000000000b0 .L0 
C:\Users\Jesper\AppData\Local\Temp\ccxfaHGf.s:509    .text.tm_run:00000000000000ba .L0 
C:\Users\Jesper\AppData\Local\Temp\ccxfaHGf.s:510    .text.tm_run:00000000000000ba .L0 
C:\Users\Jesper\AppData\Local\Temp\ccxfaHGf.s:515    .text.tm_run:00000000000000ca .L0 
C:\Users\Jesper\AppData\Local\Temp\ccxfaHGf.s:519    .text.tm_run:00000000000000d4 .L0 
C:\Users\Jesper\AppData\Local\Temp\ccxfaHGf.s:520    .text.tm_run:00000000000000d4 .L0 
C:\Users\Jesper\AppData\Local\Temp\ccxfaHGf.s:521    .text.tm_run:00000000000000d4 .L0 
C:\Users\Jesper\AppData\Local\Temp\ccxfaHGf.s:524    .text.tm_run:00000000000000d6 .L0 
C:\Users\Jesper\AppData\Local\Temp\ccxfaHGf.s:525    .text.tm_run:00000000000000d8 .L0 
C:\Users\Jesper\AppData\Local\Temp\ccxfaHGf.s:526    .text.tm_run:00000000000000d8 .L0 
C:\Users\Jesper\AppData\Local\Temp\ccxfaHGf.s:528    .text.tm_run:00000000000000da .L0 
C:\Users\Jesper\AppData\Local\Temp\ccxfaHGf.s:531    .text.tm_run:00000000000000dc .L0 
C:\Users\Jesper\AppData\Local\Temp\ccxfaHGf.s:533    .text.tm_run:00000000000000de .L0 
C:\Users\Jesper\AppData\Local\Temp\ccxfaHGf.s:536    .text.tm_run:00000000000000e0 .L0 
C:\Users\Jesper\AppData\Local\Temp\ccxfaHGf.s:538    .text.tm_run:00000000000000e2 .L0 
C:\Users\Jesper\AppData\Local\Temp\ccxfaHGf.s:540    .text.tm_run:00000000000000e4 .L0 
C:\Users\Jesper\AppData\Local\Temp\ccxfaHGf.s:542    .text.tm_run:00000000000000e6 .L0 
C:\Users\Jesper\AppData\Local\Temp\ccxfaHGf.s:544    .text.tm_run:00000000000000e8 .L0 
C:\Users\Jesper\AppData\Local\Temp\ccxfaHGf.s:546    .text.tm_run:00000000000000ea .L0 
C:\Users\Jesper\AppData\Local\Temp\ccxfaHGf.s:548    .text.tm_run:00000000000000ec .L0 
C:\Users\Jesper\AppData\Local\Temp\ccxfaHGf.s:550    .text.tm_run:00000000000000ee .L0 
C:\Users\Jesper\AppData\Local\Temp\ccxfaHGf.s:552    .text.tm_run:00000000000000f0 .L0 
C:\Users\Jesper\AppData\Local\Temp\ccxfaHGf.s:556    .text.tm_run:00000000000000f4 .L0 
C:\Users\Jesper\AppData\Local\Temp\ccxfaHGf.s:562    .text.tm_run:00000000000000f6 .L0 
C:\Users\Jesper\AppData\Local\Temp\ccxfaHGf.s:565    .text.tm_run:00000000000000f6 .L0 
C:\Users\Jesper\AppData\Local\Temp\ccxfaHGf.s:566    .text.tm_run:00000000000000f6 .L0 
GAS LISTING C:\Users\Jesper\AppData\Local\Temp\ccxfaHGf.s 			page 36


C:\Users\Jesper\AppData\Local\Temp\ccxfaHGf.s:569    .text.tm_run:00000000000000fa .L0 
C:\Users\Jesper\AppData\Local\Temp\ccxfaHGf.s:571    .text.tm_run:00000000000000fe .L0 
C:\Users\Jesper\AppData\Local\Temp\ccxfaHGf.s:573    .text.tm_run:0000000000000100 .L0 
C:\Users\Jesper\AppData\Local\Temp\ccxfaHGf.s:574    .text.tm_run:0000000000000100 .L0 
C:\Users\Jesper\AppData\Local\Temp\ccxfaHGf.s:576    .text.tm_run:0000000000000104 .L0 
C:\Users\Jesper\AppData\Local\Temp\ccxfaHGf.s:579    .text.tm_run:000000000000010a .L0 
C:\Users\Jesper\AppData\Local\Temp\ccxfaHGf.s:581    .text.tm_run:000000000000010c .L0 
C:\Users\Jesper\AppData\Local\Temp\ccxfaHGf.s:583    .text.tm_run:000000000000010e .L0 
C:\Users\Jesper\AppData\Local\Temp\ccxfaHGf.s:585    .text.tm_run:0000000000000110 .L0 
C:\Users\Jesper\AppData\Local\Temp\ccxfaHGf.s:589    .text.tm_run:0000000000000118 .L0 
C:\Users\Jesper\AppData\Local\Temp\ccxfaHGf.s:590    .text.tm_run:0000000000000118 .L0 
C:\Users\Jesper\AppData\Local\Temp\ccxfaHGf.s:592    .text.tm_run:000000000000011c .L0 
C:\Users\Jesper\AppData\Local\Temp\ccxfaHGf.s:595    .text.tm_run:0000000000000120 .L0 
C:\Users\Jesper\AppData\Local\Temp\ccxfaHGf.s:597    .text.tm_run:0000000000000122 .L0 
C:\Users\Jesper\AppData\Local\Temp\ccxfaHGf.s:599    .text.tm_run:0000000000000124 .L0 
C:\Users\Jesper\AppData\Local\Temp\ccxfaHGf.s:600    .text.tm_run:0000000000000124 .L0 
C:\Users\Jesper\AppData\Local\Temp\ccxfaHGf.s:602    .text.tm_run:0000000000000128 .L0 
C:\Users\Jesper\AppData\Local\Temp\ccxfaHGf.s:606    .text.tm_run:0000000000000132 .L0 
C:\Users\Jesper\AppData\Local\Temp\ccxfaHGf.s:611    .text.tm_run:0000000000000142 .L0 
C:\Users\Jesper\AppData\Local\Temp\ccxfaHGf.s:615    .text.tm_run:000000000000014c .L0 
C:\Users\Jesper\AppData\Local\Temp\ccxfaHGf.s:616    .text.tm_run:000000000000014c .L0 
C:\Users\Jesper\AppData\Local\Temp\ccxfaHGf.s:621    .text.tm_run:000000000000015c .L0 
C:\Users\Jesper\AppData\Local\Temp\ccxfaHGf.s:625    .text.tm_run:0000000000000166 .L0 
C:\Users\Jesper\AppData\Local\Temp\ccxfaHGf.s:626    .text.tm_run:0000000000000166 .L0 
C:\Users\Jesper\AppData\Local\Temp\ccxfaHGf.s:648    .text.tm_run:0000000000000178 .L0 
C:\Users\Jesper\AppData\Local\Temp\ccxfaHGf.s:653    .text.tm_run:0000000000000188 .L0 
C:\Users\Jesper\AppData\Local\Temp\ccxfaHGf.s:657    .text.tm_run:0000000000000192 .L0 
C:\Users\Jesper\AppData\Local\Temp\ccxfaHGf.s:658    .text.tm_run:0000000000000192 .L0 
C:\Users\Jesper\AppData\Local\Temp\ccxfaHGf.s:663    .text.tm_run:00000000000001a2 .L0 
C:\Users\Jesper\AppData\Local\Temp\ccxfaHGf.s:667    .text.tm_run:00000000000001ac .L0 
C:\Users\Jesper\AppData\Local\Temp\ccxfaHGf.s:668    .text.tm_run:00000000000001ac .L0 
C:\Users\Jesper\AppData\Local\Temp\ccxfaHGf.s:669    .text.tm_run:00000000000001ac .L0 
C:\Users\Jesper\AppData\Local\Temp\ccxfaHGf.s:672    .text.tm_run:00000000000001ae .L0 
C:\Users\Jesper\AppData\Local\Temp\ccxfaHGf.s:673    .text.tm_run:00000000000001ae .L0 
C:\Users\Jesper\AppData\Local\Temp\ccxfaHGf.s:675    .text.tm_run:00000000000001b2 .L0 
C:\Users\Jesper\AppData\Local\Temp\ccxfaHGf.s:677    .text.tm_run:00000000000001b4 .L0 
C:\Users\Jesper\AppData\Local\Temp\ccxfaHGf.s:679    .text.tm_run:00000000000001b6 .L0 
C:\Users\Jesper\AppData\Local\Temp\ccxfaHGf.s:692    .text.tm_run:00000000000001dc .L0 
C:\Users\Jesper\AppData\Local\Temp\ccxfaHGf.s:695    .text.tm_run:00000000000001e0 .L0 
C:\Users\Jesper\AppData\Local\Temp\ccxfaHGf.s:722    .text.tm_run:000000000000021e .L0 
C:\Users\Jesper\AppData\Local\Temp\ccxfaHGf.s:727    .text.tm_run:0000000000000220 .L0 
C:\Users\Jesper\AppData\Local\Temp\ccxfaHGf.s:728    .text.tm_run:0000000000000220 .L0 
C:\Users\Jesper\AppData\Local\Temp\ccxfaHGf.s:733    .text.tm_run:000000000000022a .L0 
C:\Users\Jesper\AppData\Local\Temp\ccxfaHGf.s:736    .text.tm_run:0000000000000232 .L0 
C:\Users\Jesper\AppData\Local\Temp\ccxfaHGf.s:740    .text.tm_run:000000000000023c .L0 
C:\Users\Jesper\AppData\Local\Temp\ccxfaHGf.s:741    .text.tm_run:000000000000023c .L0 
C:\Users\Jesper\AppData\Local\Temp\ccxfaHGf.s:746    .text.tm_run:000000000000024c .L0 
C:\Users\Jesper\AppData\Local\Temp\ccxfaHGf.s:750    .text.tm_run:0000000000000256 .L0 
C:\Users\Jesper\AppData\Local\Temp\ccxfaHGf.s:751    .text.tm_run:0000000000000256 .L0 
C:\Users\Jesper\AppData\Local\Temp\ccxfaHGf.s:752    .text.tm_run:0000000000000256 .L0 
C:\Users\Jesper\AppData\Local\Temp\ccxfaHGf.s:755    .text.tm_run:000000000000025c .L0 
C:\Users\Jesper\AppData\Local\Temp\ccxfaHGf.s:756    .text.tm_run:000000000000025c .L0 
C:\Users\Jesper\AppData\Local\Temp\ccxfaHGf.s:758    .text.tm_run:000000000000025e .L0 
C:\Users\Jesper\AppData\Local\Temp\ccxfaHGf.s:760    .text.tm_run:0000000000000260 .L0 
C:\Users\Jesper\AppData\Local\Temp\ccxfaHGf.s:761    .text.tm_run:0000000000000260 .L0 
C:\Users\Jesper\AppData\Local\Temp\ccxfaHGf.s:767    .text.tm_run:0000000000000266 .L0 
C:\Users\Jesper\AppData\Local\Temp\ccxfaHGf.s:768    .text.tm_run:0000000000000266 .L0 
GAS LISTING C:\Users\Jesper\AppData\Local\Temp\ccxfaHGf.s 			page 37


C:\Users\Jesper\AppData\Local\Temp\ccxfaHGf.s:771    .text.tm_run:000000000000026c .L0 
C:\Users\Jesper\AppData\Local\Temp\ccxfaHGf.s:772    .text.tm_run:000000000000026c .L0 
C:\Users\Jesper\AppData\Local\Temp\ccxfaHGf.s:775    .text.tm_run:0000000000000272 .L0 
C:\Users\Jesper\AppData\Local\Temp\ccxfaHGf.s:777    .text.tm_run:0000000000000274 .L0 
C:\Users\Jesper\AppData\Local\Temp\ccxfaHGf.s:780    .text.tm_run:0000000000000278 .L0 
C:\Users\Jesper\AppData\Local\Temp\ccxfaHGf.s:782    .text.tm_run:000000000000027c .L0 
C:\Users\Jesper\AppData\Local\Temp\ccxfaHGf.s:786    .text.tm_run:0000000000000286 .L0 
C:\Users\Jesper\AppData\Local\Temp\ccxfaHGf.s:787    .text.tm_run:0000000000000286 .L0 
C:\Users\Jesper\AppData\Local\Temp\ccxfaHGf.s:791    .text.tm_run:000000000000028e .L0 
C:\Users\Jesper\AppData\Local\Temp\ccxfaHGf.s:794    .text.tm_run:0000000000000296 .L0 
C:\Users\Jesper\AppData\Local\Temp\ccxfaHGf.s:795    .text.tm_run:0000000000000296 .L0 
C:\Users\Jesper\AppData\Local\Temp\ccxfaHGf.s:797    .text.tm_run:0000000000000298 .L0 
C:\Users\Jesper\AppData\Local\Temp\ccxfaHGf.s:801    .text.tm_run:000000000000029c .L0 
C:\Users\Jesper\AppData\Local\Temp\ccxfaHGf.s:802    .text.tm_run:000000000000029c .L0 
C:\Users\Jesper\AppData\Local\Temp\ccxfaHGf.s:806    .text.tm_run:000000000000029e .L0 
C:\Users\Jesper\AppData\Local\Temp\ccxfaHGf.s:807    .text.tm_run:000000000000029e .L0 
C:\Users\Jesper\AppData\Local\Temp\ccxfaHGf.s:810    .text.tm_run:00000000000002a4 .L0 
C:\Users\Jesper\AppData\Local\Temp\ccxfaHGf.s:813    .text.tm_run:00000000000002ac .L0 
C:\Users\Jesper\AppData\Local\Temp\ccxfaHGf.s:816    .text.tm_run:00000000000002b0 .L0 
C:\Users\Jesper\AppData\Local\Temp\ccxfaHGf.s:819    .text.tm_run:00000000000002b8 .L0 
C:\Users\Jesper\AppData\Local\Temp\ccxfaHGf.s:823    .text.tm_run:00000000000002c2 .L0 
C:\Users\Jesper\AppData\Local\Temp\ccxfaHGf.s:824    .text.tm_run:00000000000002c2 .L0 
C:\Users\Jesper\AppData\Local\Temp\ccxfaHGf.s:829    .text.tm_run:00000000000002d2 .L0 
C:\Users\Jesper\AppData\Local\Temp\ccxfaHGf.s:834    .text.tm_run:00000000000002dc .L0 
C:\Users\Jesper\AppData\Local\Temp\ccxfaHGf.s:835    .text.tm_run:00000000000002dc .L0 
C:\Users\Jesper\AppData\Local\Temp\ccxfaHGf.s:843    .text.tm_run:00000000000002e8 .L0 
C:\Users\Jesper\AppData\Local\Temp\ccxfaHGf.s:848    .text.tm_run:00000000000002f8 .L0 
C:\Users\Jesper\AppData\Local\Temp\ccxfaHGf.s:852    .text.tm_run:0000000000000302 .L0 
C:\Users\Jesper\AppData\Local\Temp\ccxfaHGf.s:853    .text.tm_run:0000000000000302 .L0 
C:\Users\Jesper\AppData\Local\Temp\ccxfaHGf.s:858    .text.tm_run:0000000000000312 .L0 
C:\Users\Jesper\AppData\Local\Temp\ccxfaHGf.s:862    .text.tm_run:000000000000031c .L0 
C:\Users\Jesper\AppData\Local\Temp\ccxfaHGf.s:863    .text.tm_run:000000000000031c .L0 
C:\Users\Jesper\AppData\Local\Temp\ccxfaHGf.s:864    .text.tm_run:000000000000031c .L0 
C:\Users\Jesper\AppData\Local\Temp\ccxfaHGf.s:865    .text.tm_run:000000000000031c .L0 
C:\Users\Jesper\AppData\Local\Temp\ccxfaHGf.s:878    .text.tm_run:000000000000033a .L0 
C:\Users\Jesper\AppData\Local\Temp\ccxfaHGf.s:883    .text.tm_run:000000000000034a .L0 
C:\Users\Jesper\AppData\Local\Temp\ccxfaHGf.s:887    .text.tm_run:0000000000000354 .L0 
C:\Users\Jesper\AppData\Local\Temp\ccxfaHGf.s:888    .text.tm_run:0000000000000354 .L0 
C:\Users\Jesper\AppData\Local\Temp\ccxfaHGf.s:892    .text.tm_run:0000000000000360 .L0 
C:\Users\Jesper\AppData\Local\Temp\ccxfaHGf.s:896    .text.tm_run:000000000000036a .L0 
C:\Users\Jesper\AppData\Local\Temp\ccxfaHGf.s:897    .text.tm_run:000000000000036a .L0 
C:\Users\Jesper\AppData\Local\Temp\ccxfaHGf.s:898    .text.tm_run:000000000000036a .L0 
C:\Users\Jesper\AppData\Local\Temp\ccxfaHGf.s:901    .text.tm_run:000000000000036c .L0 
C:\Users\Jesper\AppData\Local\Temp\ccxfaHGf.s:902    .text.tm_run:000000000000036c .L0 
C:\Users\Jesper\AppData\Local\Temp\ccxfaHGf.s:905    .text.tm_run:0000000000000374 .L0 
C:\Users\Jesper\AppData\Local\Temp\ccxfaHGf.s:907    .text.tm_run:0000000000000376 .L0 
C:\Users\Jesper\AppData\Local\Temp\ccxfaHGf.s:909    .text.tm_run:0000000000000378 .L0 
C:\Users\Jesper\AppData\Local\Temp\ccxfaHGf.s:911    .text.tm_run:000000000000037a .L0 
C:\Users\Jesper\AppData\Local\Temp\ccxfaHGf.s:927    .text.tm_run:0000000000000398 .L0 
C:\Users\Jesper\AppData\Local\Temp\ccxfaHGf.s:932    .text.tm_run:00000000000003a8 .L0 
C:\Users\Jesper\AppData\Local\Temp\ccxfaHGf.s:936    .text.tm_run:00000000000003b2 .L0 
C:\Users\Jesper\AppData\Local\Temp\ccxfaHGf.s:937    .text.tm_run:00000000000003b2 .L0 
C:\Users\Jesper\AppData\Local\Temp\ccxfaHGf.s:941    .text.tm_run:00000000000003be .L0 
C:\Users\Jesper\AppData\Local\Temp\ccxfaHGf.s:945    .text.tm_run:00000000000003c8 .L0 
C:\Users\Jesper\AppData\Local\Temp\ccxfaHGf.s:946    .text.tm_run:00000000000003c8 .L0 
C:\Users\Jesper\AppData\Local\Temp\ccxfaHGf.s:947    .text.tm_run:00000000000003c8 .L0 
C:\Users\Jesper\AppData\Local\Temp\ccxfaHGf.s:948    .text.tm_run:00000000000003c8 .L0 
GAS LISTING C:\Users\Jesper\AppData\Local\Temp\ccxfaHGf.s 			page 38


C:\Users\Jesper\AppData\Local\Temp\ccxfaHGf.s:961    .text.tm_run:00000000000003e6 .L0 
C:\Users\Jesper\AppData\Local\Temp\ccxfaHGf.s:966    .text.tm_run:00000000000003f6 .L0 
C:\Users\Jesper\AppData\Local\Temp\ccxfaHGf.s:970    .text.tm_run:0000000000000400 .L0 
C:\Users\Jesper\AppData\Local\Temp\ccxfaHGf.s:971    .text.tm_run:0000000000000400 .L0 
C:\Users\Jesper\AppData\Local\Temp\ccxfaHGf.s:975    .text.tm_run:000000000000040c .L0 
C:\Users\Jesper\AppData\Local\Temp\ccxfaHGf.s:979    .text.tm_run:0000000000000416 .L0 
C:\Users\Jesper\AppData\Local\Temp\ccxfaHGf.s:980    .text.tm_run:0000000000000416 .L0 
C:\Users\Jesper\AppData\Local\Temp\ccxfaHGf.s:981    .text.tm_run:0000000000000416 .L0 
C:\Users\Jesper\AppData\Local\Temp\ccxfaHGf.s:982    .text.tm_run:0000000000000416 .L0 
C:\Users\Jesper\AppData\Local\Temp\ccxfaHGf.s:995    .text.tm_run:0000000000000434 .L0 
C:\Users\Jesper\AppData\Local\Temp\ccxfaHGf.s:1000   .text.tm_run:0000000000000444 .L0 
C:\Users\Jesper\AppData\Local\Temp\ccxfaHGf.s:1004   .text.tm_run:000000000000044e .L0 
C:\Users\Jesper\AppData\Local\Temp\ccxfaHGf.s:1005   .text.tm_run:000000000000044e .L0 
C:\Users\Jesper\AppData\Local\Temp\ccxfaHGf.s:1009   .text.tm_run:000000000000045a .L0 
C:\Users\Jesper\AppData\Local\Temp\ccxfaHGf.s:1013   .text.tm_run:0000000000000464 .L0 
C:\Users\Jesper\AppData\Local\Temp\ccxfaHGf.s:1014   .text.tm_run:0000000000000464 .L0 
C:\Users\Jesper\AppData\Local\Temp\ccxfaHGf.s:1015   .text.tm_run:0000000000000464 .L0 
C:\Users\Jesper\AppData\Local\Temp\ccxfaHGf.s:1018   .text.tm_run:0000000000000468 .L0 
C:\Users\Jesper\AppData\Local\Temp\ccxfaHGf.s:1024   .text.tm_run:0000000000000478 .L0 
C:\Users\Jesper\AppData\Local\Temp\ccxfaHGf.s:1025   .text.tm_run:0000000000000478 .L0 
C:\Users\Jesper\AppData\Local\Temp\ccxfaHGf.s:1028   .text.tm_run:000000000000047e .L0 
C:\Users\Jesper\AppData\Local\Temp\ccxfaHGf.s:1031   .text.tm_run:0000000000000486 .L0 
C:\Users\Jesper\AppData\Local\Temp\ccxfaHGf.s:1033   .text.tm_run:0000000000000488 .L0 
C:\Users\Jesper\AppData\Local\Temp\ccxfaHGf.s:1035   .text.tm_run:000000000000048a .L0 
C:\Users\Jesper\AppData\Local\Temp\ccxfaHGf.s:1036   .text.tm_run:000000000000048a .L0 
C:\Users\Jesper\AppData\Local\Temp\ccxfaHGf.s:1051   .text.tm_run:00000000000004ac .L0 
C:\Users\Jesper\AppData\Local\Temp\ccxfaHGf.s:1056   .text.tm_run:00000000000004bc .L0 
C:\Users\Jesper\AppData\Local\Temp\ccxfaHGf.s:1060   .text.tm_run:00000000000004c6 .L0 
C:\Users\Jesper\AppData\Local\Temp\ccxfaHGf.s:1061   .text.tm_run:00000000000004c6 .L0 
C:\Users\Jesper\AppData\Local\Temp\ccxfaHGf.s:1065   .text.tm_run:00000000000004d2 .L0 
C:\Users\Jesper\AppData\Local\Temp\ccxfaHGf.s:1069   .text.tm_run:00000000000004dc .L0 
C:\Users\Jesper\AppData\Local\Temp\ccxfaHGf.s:1070   .text.tm_run:00000000000004dc .L0 
C:\Users\Jesper\AppData\Local\Temp\ccxfaHGf.s:1071   .text.tm_run:00000000000004dc .L0 
C:\Users\Jesper\AppData\Local\Temp\ccxfaHGf.s:1072   .text.tm_run:00000000000004dc .L0 
C:\Users\Jesper\AppData\Local\Temp\ccxfaHGf.s:1074   .text.tm_run:00000000000004de .L0 
C:\Users\Jesper\AppData\Local\Temp\ccxfaHGf.s:1079   .text.tm_run:00000000000004e0 .L0 
C:\Users\Jesper\AppData\Local\Temp\ccxfaHGf.s:1080   .text.tm_run:00000000000004e0 .L0 
C:\Users\Jesper\AppData\Local\Temp\ccxfaHGf.s:1082   .text.tm_run:00000000000004e4 .L0 
C:\Users\Jesper\AppData\Local\Temp\ccxfaHGf.s:1084   .text.tm_run:00000000000004e8 .L0 
C:\Users\Jesper\AppData\Local\Temp\ccxfaHGf.s:1086   .text.tm_run:00000000000004ec .L0 
C:\Users\Jesper\AppData\Local\Temp\ccxfaHGf.s:1088   .text.tm_run:00000000000004f0 .L0 
C:\Users\Jesper\AppData\Local\Temp\ccxfaHGf.s:1092   .text.tm_run:00000000000004f4 .L0 
C:\Users\Jesper\AppData\Local\Temp\ccxfaHGf.s:1093   .text.tm_run:00000000000004f4 .L0 
C:\Users\Jesper\AppData\Local\Temp\ccxfaHGf.s:1096   .text.tm_run:00000000000004f6 .L0 
C:\Users\Jesper\AppData\Local\Temp\ccxfaHGf.s:1103   .text.tm_run:0000000000000502 .L0 
C:\Users\Jesper\AppData\Local\Temp\ccxfaHGf.s:1105   .text.tm_run:0000000000000502 .L0 
C:\Users\Jesper\AppData\Local\Temp\ccxfaHGf.s:1106   .text.tm_run:0000000000000502 .L0 
C:\Users\Jesper\AppData\Local\Temp\ccxfaHGf.s:1109   .text.tm_run:0000000000000506 .L0 
C:\Users\Jesper\AppData\Local\Temp\ccxfaHGf.s:1110   .text.tm_run:0000000000000506 .L0 
C:\Users\Jesper\AppData\Local\Temp\ccxfaHGf.s:1115   .text.tm_run:000000000000050c .L0 
C:\Users\Jesper\AppData\Local\Temp\ccxfaHGf.s:1120   .text.tm_run:000000000000051a .L0 
C:\Users\Jesper\AppData\Local\Temp\ccxfaHGf.s:1123   .text.tm_run:0000000000000520 .L0 
C:\Users\Jesper\AppData\Local\Temp\ccxfaHGf.s:1126   .text.tm_run:0000000000000524 .L0 
C:\Users\Jesper\AppData\Local\Temp\ccxfaHGf.s:1127   .text.tm_run:0000000000000524 .L0 
C:\Users\Jesper\AppData\Local\Temp\ccxfaHGf.s:1129   .text.tm_run:0000000000000526 .L0 
C:\Users\Jesper\AppData\Local\Temp\ccxfaHGf.s:1138   .text.tm_run:0000000000000540 .L0 
C:\Users\Jesper\AppData\Local\Temp\ccxfaHGf.s:1140   .text.tm_run:0000000000000542 .L0 
GAS LISTING C:\Users\Jesper\AppData\Local\Temp\ccxfaHGf.s 			page 39


C:\Users\Jesper\AppData\Local\Temp\ccxfaHGf.s:1143   .text.tm_run:0000000000000546 .L0 
C:\Users\Jesper\AppData\Local\Temp\ccxfaHGf.s:1145   .text.tm_run:000000000000054a .L0 
C:\Users\Jesper\AppData\Local\Temp\ccxfaHGf.s:1153   .text.tm_run:0000000000000552 .L0 
C:\Users\Jesper\AppData\Local\Temp\ccxfaHGf.s:161    .text.tm_load:0000000000000094 .L0 
C:\Users\Jesper\AppData\Local\Temp\ccxfaHGf.s:189    .text.tm_unload:0000000000000012 .L0 
C:\Users\Jesper\AppData\Local\Temp\ccxfaHGf.s:372    .text.tm_preprocess:00000000000000c8 .L0 
C:\Users\Jesper\AppData\Local\Temp\ccxfaHGf.s:1156   .text.tm_run:0000000000000552 .L0 
                     .debug_frame:0000000000000000 .L0 
C:\Users\Jesper\AppData\Local\Temp\ccxfaHGf.s:154    .text.tm_load:0000000000000090 .L9
C:\Users\Jesper\AppData\Local\Temp\ccxfaHGf.s:74     .text.tm_load:000000000000003c .L1
C:\Users\Jesper\AppData\Local\Temp\ccxfaHGf.s:139    .text.tm_load:0000000000000082 .L3
C:\Users\Jesper\AppData\Local\Temp\ccxfaHGf.s:91     .text.tm_load:0000000000000048 .L4
C:\Users\Jesper\AppData\Local\Temp\ccxfaHGf.s:148    .text.tm_load:000000000000008a .L6
C:\Users\Jesper\AppData\Local\Temp\ccxfaHGf.s:70     .text.tm_load:000000000000003a .L7
C:\Users\Jesper\AppData\Local\Temp\ccxfaHGf.s:98     .text.tm_load:000000000000004e .L5
C:\Users\Jesper\AppData\Local\Temp\ccxfaHGf.s:113    .text.tm_load:000000000000005e .L8
C:\Users\Jesper\AppData\Local\Temp\ccxfaHGf.s:179    .text.tm_unload:0000000000000010 .L15
C:\Users\Jesper\AppData\Local\Temp\ccxfaHGf.s:250    .text.tm_preprocess:000000000000003a .L18
C:\Users\Jesper\AppData\Local\Temp\ccxfaHGf.s:363    .text.tm_preprocess:00000000000000c4 .L26
C:\Users\Jesper\AppData\Local\Temp\ccxfaHGf.s:267    .text.tm_preprocess:000000000000004e .L23
C:\Users\Jesper\AppData\Local\Temp\ccxfaHGf.s:297    .text.tm_preprocess:0000000000000066 .L22
C:\Users\Jesper\AppData\Local\Temp\ccxfaHGf.s:263    .text.tm_preprocess:000000000000004a .L21
C:\Users\Jesper\AppData\Local\Temp\ccxfaHGf.s:336    .text.tm_preprocess:00000000000000a8 .L24
C:\Users\Jesper\AppData\Local\Temp\ccxfaHGf.s:358    .text.tm_preprocess:00000000000000be .L19
C:\Users\Jesper\AppData\Local\Temp\ccxfaHGf.s:1158   .rodata.tm_run.str1.4:0000000000000000 .LC0
C:\Users\Jesper\AppData\Local\Temp\ccxfaHGf.s:1161   .rodata.tm_run.str1.4:000000000000000c .LC1
C:\Users\Jesper\AppData\Local\Temp\ccxfaHGf.s:636    .rodata.tm_run:0000000000000000 .L34
C:\Users\Jesper\AppData\Local\Temp\ccxfaHGf.s:1183   .rodata.tm_run.str1.4:000000000000006c .LC9
C:\Users\Jesper\AppData\Local\Temp\ccxfaHGf.s:1180   .rodata.tm_run.str1.4:0000000000000064 .LC8
C:\Users\Jesper\AppData\Local\Temp\ccxfaHGf.s:1177   .rodata.tm_run.str1.4:0000000000000058 .LC7
C:\Users\Jesper\AppData\Local\Temp\ccxfaHGf.s:1174   .rodata.tm_run.str1.4:000000000000004c .LC6
C:\Users\Jesper\AppData\Local\Temp\ccxfaHGf.s:1172   .rodata.tm_run.str1.4:0000000000000048 .LC5
C:\Users\Jesper\AppData\Local\Temp\ccxfaHGf.s:1191   .rodata.tm_run.str1.4:00000000000000ac .LC12
C:\Users\Jesper\AppData\Local\Temp\ccxfaHGf.s:1163   .rodata.tm_run.str1.4:0000000000000018 .LC2
C:\Users\Jesper\AppData\Local\Temp\ccxfaHGf.s:1166   .rodata.tm_run.str1.4:0000000000000034 .LC3
C:\Users\Jesper\AppData\Local\Temp\ccxfaHGf.s:1186   .rodata.tm_run.str1.4:0000000000000078 .LC10
C:\Users\Jesper\AppData\Local\Temp\ccxfaHGf.s:1189   .rodata.tm_run.str1.4:0000000000000094 .LC11
C:\Users\Jesper\AppData\Local\Temp\ccxfaHGf.s:1169   .rodata.tm_run.str1.4:0000000000000040 .LC4
C:\Users\Jesper\AppData\Local\Temp\ccxfaHGf.s:560    .text.tm_run:00000000000000f6 .L48
C:\Users\Jesper\AppData\Local\Temp\ccxfaHGf.s:587    .text.tm_run:0000000000000118 .L31
C:\Users\Jesper\AppData\Local\Temp\ccxfaHGf.s:1048   .text.tm_run:00000000000004ac .L32
C:\Users\Jesper\AppData\Local\Temp\ccxfaHGf.s:522    .text.tm_run:00000000000000d6 .L29
C:\Users\Jesper\AppData\Local\Temp\ccxfaHGf.s:765    .text.tm_run:0000000000000266 .L42
C:\Users\Jesper\AppData\Local\Temp\ccxfaHGf.s:804    .text.tm_run:000000000000029e .L43
C:\Users\Jesper\AppData\Local\Temp\ccxfaHGf.s:1076   .text.tm_run:00000000000004e0 .L44
C:\Users\Jesper\AppData\Local\Temp\ccxfaHGf.s:489    .text.tm_run:0000000000000092 .L30
C:\Users\Jesper\AppData\Local\Temp\ccxfaHGf.s:718    .text.tm_run:000000000000021e .L59
C:\Users\Jesper\AppData\Local\Temp\ccxfaHGf.s:725    .text.tm_run:0000000000000220 .L40
C:\Users\Jesper\AppData\Local\Temp\ccxfaHGf.s:1112   .text.tm_run:000000000000050c .L47
C:\Users\Jesper\AppData\Local\Temp\ccxfaHGf.s:799    .text.tm_run:000000000000029c .L45
C:\Users\Jesper\AppData\Local\Temp\ccxfaHGf.s:1104   .text.tm_run:0000000000000502 .L46
C:\Users\Jesper\AppData\Local\Temp\ccxfaHGf.s:645    .text.tm_run:0000000000000178 .L35
C:\Users\Jesper\AppData\Local\Temp\ccxfaHGf.s:839    .text.tm_run:00000000000002e8 .L39
C:\Users\Jesper\AppData\Local\Temp\ccxfaHGf.s:874    .text.tm_run:000000000000033a .L38
C:\Users\Jesper\AppData\Local\Temp\ccxfaHGf.s:923    .text.tm_run:0000000000000398 .L37
C:\Users\Jesper\AppData\Local\Temp\ccxfaHGf.s:957    .text.tm_run:00000000000003e6 .L36
C:\Users\Jesper\AppData\Local\Temp\ccxfaHGf.s:991    .text.tm_run:0000000000000434 .L33
GAS LISTING C:\Users\Jesper\AppData\Local\Temp\ccxfaHGf.s 			page 40


C:\Users\Jesper\AppData\Local\Temp\ccxfaHGf.s:4936   .debug_abbrev:0000000000000000 .Ldebug_abbrev0
C:\Users\Jesper\AppData\Local\Temp\ccxfaHGf.s:6485   .debug_str:00000000000000fb .LASF247
C:\Users\Jesper\AppData\Local\Temp\ccxfaHGf.s:6757   .debug_str:00000000000006f2 .LASF248
C:\Users\Jesper\AppData\Local\Temp\ccxfaHGf.s:6683   .debug_str:0000000000000531 .LASF249
C:\Users\Jesper\AppData\Local\Temp\ccxfaHGf.s:6361   .debug_ranges:0000000000000000 .Ldebug_ranges0
C:\Users\Jesper\AppData\Local\Temp\ccxfaHGf.s:6427   .debug_line:0000000000000000 .Ldebug_line0
C:\Users\Jesper\AppData\Local\Temp\ccxfaHGf.s:6775   .debug_str:000000000000075d .LASF0
C:\Users\Jesper\AppData\Local\Temp\ccxfaHGf.s:6543   .debug_str:0000000000000296 .LASF2
C:\Users\Jesper\AppData\Local\Temp\ccxfaHGf.s:6503   .debug_str:00000000000001c7 .LASF1
C:\Users\Jesper\AppData\Local\Temp\ccxfaHGf.s:6557   .debug_str:00000000000002d3 .LASF3
C:\Users\Jesper\AppData\Local\Temp\ccxfaHGf.s:6841   .debug_str:000000000000088d .LASF4
C:\Users\Jesper\AppData\Local\Temp\ccxfaHGf.s:6583   .debug_str:0000000000000358 .LASF5
C:\Users\Jesper\AppData\Local\Temp\ccxfaHGf.s:6903   .debug_str:00000000000009a3 .LASF6
C:\Users\Jesper\AppData\Local\Temp\ccxfaHGf.s:6913   .debug_str:00000000000009de .LASF7
C:\Users\Jesper\AppData\Local\Temp\ccxfaHGf.s:6521   .debug_str:0000000000000223 .LASF8
C:\Users\Jesper\AppData\Local\Temp\ccxfaHGf.s:6671   .debug_str:00000000000004f1 .LASF9
C:\Users\Jesper\AppData\Local\Temp\ccxfaHGf.s:6629   .debug_str:0000000000000413 .LASF10
C:\Users\Jesper\AppData\Local\Temp\ccxfaHGf.s:6679   .debug_str:000000000000051c .LASF11
C:\Users\Jesper\AppData\Local\Temp\ccxfaHGf.s:6781   .debug_str:0000000000000771 .LASF12
C:\Users\Jesper\AppData\Local\Temp\ccxfaHGf.s:6703   .debug_str:00000000000005e8 .LASF13
C:\Users\Jesper\AppData\Local\Temp\ccxfaHGf.s:6429   .debug_str:0000000000000000 .LASF14
C:\Users\Jesper\AppData\Local\Temp\ccxfaHGf.s:6545   .debug_str:00000000000002a2 .LASF15
C:\Users\Jesper\AppData\Local\Temp\ccxfaHGf.s:6787   .debug_str:000000000000079d .LASF16
C:\Users\Jesper\AppData\Local\Temp\ccxfaHGf.s:6453   .debug_str:0000000000000065 .LASF17
C:\Users\Jesper\AppData\Local\Temp\ccxfaHGf.s:6887   .debug_str:0000000000000959 .LASF18
C:\Users\Jesper\AppData\Local\Temp\ccxfaHGf.s:6435   .debug_str:0000000000000017 .LASF19
C:\Users\Jesper\AppData\Local\Temp\ccxfaHGf.s:6747   .debug_str:00000000000006b6 .LASF20
C:\Users\Jesper\AppData\Local\Temp\ccxfaHGf.s:6825   .debug_str:0000000000000848 .LASF21
C:\Users\Jesper\AppData\Local\Temp\ccxfaHGf.s:6895   .debug_str:0000000000000985 .LASF22
C:\Users\Jesper\AppData\Local\Temp\ccxfaHGf.s:6769   .debug_str:0000000000000740 .LASF23
C:\Users\Jesper\AppData\Local\Temp\ccxfaHGf.s:6433   .debug_str:000000000000000e .LASF24
C:\Users\Jesper\AppData\Local\Temp\ccxfaHGf.s:6501   .debug_str:00000000000001c1 .LASF25
C:\Users\Jesper\AppData\Local\Temp\ccxfaHGf.s:6771   .debug_str:0000000000000748 .LASF26
C:\Users\Jesper\AppData\Local\Temp\ccxfaHGf.s:6741   .debug_str:000000000000069b .LASF27
C:\Users\Jesper\AppData\Local\Temp\ccxfaHGf.s:6441   .debug_str:0000000000000037 .LASF28
C:\Users\Jesper\AppData\Local\Temp\ccxfaHGf.s:6821   .debug_str:0000000000000838 .LASF29
C:\Users\Jesper\AppData\Local\Temp\ccxfaHGf.s:6883   .debug_str:0000000000000945 .LASF30
C:\Users\Jesper\AppData\Local\Temp\ccxfaHGf.s:6645   .debug_str:000000000000046b .LASF31
C:\Users\Jesper\AppData\Local\Temp\ccxfaHGf.s:6817   .debug_str:0000000000000828 .LASF32
C:\Users\Jesper\AppData\Local\Temp\ccxfaHGf.s:6655   .debug_str:000000000000049d .LASF37
C:\Users\Jesper\AppData\Local\Temp\ccxfaHGf.s:6829   .debug_str:0000000000000856 .LASF33
C:\Users\Jesper\AppData\Local\Temp\ccxfaHGf.s:6659   .debug_str:00000000000004b0 .LASF34
C:\Users\Jesper\AppData\Local\Temp\ccxfaHGf.s:6699   .debug_str:00000000000005dc .LASF35
C:\Users\Jesper\AppData\Local\Temp\ccxfaHGf.s:6615   .debug_str:00000000000003db .LASF36
C:\Users\Jesper\AppData\Local\Temp\ccxfaHGf.s:6463   .debug_str:0000000000000095 .LASF38
C:\Users\Jesper\AppData\Local\Temp\ccxfaHGf.s:6469   .debug_str:00000000000000b1 .LASF39
C:\Users\Jesper\AppData\Local\Temp\ccxfaHGf.s:6927   .debug_str:0000000000000a22 .LASF40
C:\Users\Jesper\AppData\Local\Temp\ccxfaHGf.s:6907   .debug_str:00000000000009bc .LASF41
C:\Users\Jesper\AppData\Local\Temp\ccxfaHGf.s:6715   .debug_str:0000000000000622 .LASF42
C:\Users\Jesper\AppData\Local\Temp\ccxfaHGf.s:6533   .debug_str:0000000000000262 .LASF43
C:\Users\Jesper\AppData\Local\Temp\ccxfaHGf.s:6853   .debug_str:00000000000008c5 .LASF44
C:\Users\Jesper\AppData\Local\Temp\ccxfaHGf.s:6745   .debug_str:00000000000006ac .LASF45
C:\Users\Jesper\AppData\Local\Temp\ccxfaHGf.s:6749   .debug_str:00000000000006c2 .LASF46
C:\Users\Jesper\AppData\Local\Temp\ccxfaHGf.s:6919   .debug_str:0000000000000a01 .LASF47
C:\Users\Jesper\AppData\Local\Temp\ccxfaHGf.s:6507   .debug_str:00000000000001d7 .LASF48
C:\Users\Jesper\AppData\Local\Temp\ccxfaHGf.s:6917   .debug_str:00000000000009f9 .LASF49
C:\Users\Jesper\AppData\Local\Temp\ccxfaHGf.s:6789   .debug_str:00000000000007a6 .LASF50
GAS LISTING C:\Users\Jesper\AppData\Local\Temp\ccxfaHGf.s 			page 41


C:\Users\Jesper\AppData\Local\Temp\ccxfaHGf.s:6849   .debug_str:00000000000008b7 .LASF51
C:\Users\Jesper\AppData\Local\Temp\ccxfaHGf.s:6871   .debug_str:000000000000090e .LASF52
C:\Users\Jesper\AppData\Local\Temp\ccxfaHGf.s:6737   .debug_str:0000000000000689 .LASF53
C:\Users\Jesper\AppData\Local\Temp\ccxfaHGf.s:6865   .debug_str:00000000000008fb .LASF54
C:\Users\Jesper\AppData\Local\Temp\ccxfaHGf.s:6577   .debug_str:0000000000000346 .LASF55
C:\Users\Jesper\AppData\Local\Temp\ccxfaHGf.s:6867   .debug_str:0000000000000900 .LASF56
C:\Users\Jesper\AppData\Local\Temp\ccxfaHGf.s:6807   .debug_str:00000000000007f7 .LASF57
C:\Users\Jesper\AppData\Local\Temp\ccxfaHGf.s:6527   .debug_str:0000000000000242 .LASF58
C:\Users\Jesper\AppData\Local\Temp\ccxfaHGf.s:6635   .debug_str:0000000000000439 .LASF59
C:\Users\Jesper\AppData\Local\Temp\ccxfaHGf.s:6733   .debug_str:0000000000000673 .LASF60
C:\Users\Jesper\AppData\Local\Temp\ccxfaHGf.s:6505   .debug_str:00000000000001d1 .LASF61
C:\Users\Jesper\AppData\Local\Temp\ccxfaHGf.s:6861   .debug_str:00000000000008ed .LASF62
C:\Users\Jesper\AppData\Local\Temp\ccxfaHGf.s:6607   .debug_str:00000000000003bc .LASF63
C:\Users\Jesper\AppData\Local\Temp\ccxfaHGf.s:6445   .debug_str:0000000000000044 .LASF64
C:\Users\Jesper\AppData\Local\Temp\ccxfaHGf.s:6451   .debug_str:000000000000005e .LASF65
C:\Users\Jesper\AppData\Local\Temp\ccxfaHGf.s:6761   .debug_str:0000000000000717 .LASF66
C:\Users\Jesper\AppData\Local\Temp\ccxfaHGf.s:6579   .debug_str:000000000000034b .LASF67
C:\Users\Jesper\AppData\Local\Temp\ccxfaHGf.s:6723   .debug_str:0000000000000643 .LASF68
C:\Users\Jesper\AppData\Local\Temp\ccxfaHGf.s:6467   .debug_str:00000000000000ab .LASF69
C:\Users\Jesper\AppData\Local\Temp\ccxfaHGf.s:6805   .debug_str:00000000000007ee .LASF70
C:\Users\Jesper\AppData\Local\Temp\ccxfaHGf.s:6621   .debug_str:00000000000003f2 .LASF71
C:\Users\Jesper\AppData\Local\Temp\ccxfaHGf.s:6831   .debug_str:000000000000085c .LASF72
C:\Users\Jesper\AppData\Local\Temp\ccxfaHGf.s:6479   .debug_str:00000000000000e3 .LASF73
C:\Users\Jesper\AppData\Local\Temp\ccxfaHGf.s:6729   .debug_str:000000000000065f .LASF74
C:\Users\Jesper\AppData\Local\Temp\ccxfaHGf.s:6639   .debug_str:000000000000044c .LASF75
C:\Users\Jesper\AppData\Local\Temp\ccxfaHGf.s:6563   .debug_str:0000000000000303 .LASF76
C:\Users\Jesper\AppData\Local\Temp\ccxfaHGf.s:6651   .debug_str:000000000000048a .LASF77
C:\Users\Jesper\AppData\Local\Temp\ccxfaHGf.s:6585   .debug_str:0000000000000363 .LASF78
C:\Users\Jesper\AppData\Local\Temp\ccxfaHGf.s:6797   .debug_str:00000000000007ca .LASF79
C:\Users\Jesper\AppData\Local\Temp\ccxfaHGf.s:6725   .debug_str:0000000000000649 .LASF80
C:\Users\Jesper\AppData\Local\Temp\ccxfaHGf.s:6863   .debug_str:00000000000008f6 .LASF81
C:\Users\Jesper\AppData\Local\Temp\ccxfaHGf.s:6673   .debug_str:00000000000004fc .LASF82
C:\Users\Jesper\AppData\Local\Temp\ccxfaHGf.s:6561   .debug_str:00000000000002ea .LASF83
C:\Users\Jesper\AppData\Local\Temp\ccxfaHGf.s:6881   .debug_str:000000000000093d .LASF84
C:\Users\Jesper\AppData\Local\Temp\ccxfaHGf.s:6637   .debug_str:0000000000000441 .LASF85
C:\Users\Jesper\AppData\Local\Temp\ccxfaHGf.s:6663   .debug_str:00000000000004c3 .LASF86
C:\Users\Jesper\AppData\Local\Temp\ccxfaHGf.s:6891   .debug_str:000000000000096d .LASF87
C:\Users\Jesper\AppData\Local\Temp\ccxfaHGf.s:6525   .debug_str:0000000000000238 .LASF88
C:\Users\Jesper\AppData\Local\Temp\ccxfaHGf.s:6627   .debug_str:000000000000040e .LASF89
C:\Users\Jesper\AppData\Local\Temp\ccxfaHGf.s:6691   .debug_str:00000000000005be .LASF90
C:\Users\Jesper\AppData\Local\Temp\ccxfaHGf.s:6457   .debug_str:000000000000007a .LASF91
C:\Users\Jesper\AppData\Local\Temp\ccxfaHGf.s:6623   .debug_str:00000000000003fa .LASF92
C:\Users\Jesper\AppData\Local\Temp\ccxfaHGf.s:6721   .debug_str:000000000000063e .LASF93
C:\Users\Jesper\AppData\Local\Temp\ccxfaHGf.s:6665   .debug_str:00000000000004cd .LASF94
C:\Users\Jesper\AppData\Local\Temp\ccxfaHGf.s:6619   .debug_str:00000000000003e8 .LASF95
C:\Users\Jesper\AppData\Local\Temp\ccxfaHGf.s:6685   .debug_str:000000000000059e .LASF96
C:\Users\Jesper\AppData\Local\Temp\ccxfaHGf.s:6443   .debug_str:000000000000003f .LASF97
C:\Users\Jesper\AppData\Local\Temp\ccxfaHGf.s:6575   .debug_str:0000000000000341 .LASF98
C:\Users\Jesper\AppData\Local\Temp\ccxfaHGf.s:6819   .debug_str:0000000000000831 .LASF99
C:\Users\Jesper\AppData\Local\Temp\ccxfaHGf.s:6697   .debug_str:00000000000005d6 .LASF100
C:\Users\Jesper\AppData\Local\Temp\ccxfaHGf.s:6681   .debug_str:000000000000052a .LASF101
C:\Users\Jesper\AppData\Local\Temp\ccxfaHGf.s:6693   .debug_str:00000000000005c8 .LASF102
C:\Users\Jesper\AppData\Local\Temp\ccxfaHGf.s:6793   .debug_str:00000000000007bb .LASF103
C:\Users\Jesper\AppData\Local\Temp\ccxfaHGf.s:6755   .debug_str:00000000000006ec .LASF104
C:\Users\Jesper\AppData\Local\Temp\ccxfaHGf.s:6489   .debug_str:0000000000000188 .LASF105
C:\Users\Jesper\AppData\Local\Temp\ccxfaHGf.s:6901   .debug_str:000000000000099e .LASF106
C:\Users\Jesper\AppData\Local\Temp\ccxfaHGf.s:6541   .debug_str:0000000000000289 .LASF107
GAS LISTING C:\Users\Jesper\AppData\Local\Temp\ccxfaHGf.s 			page 42


C:\Users\Jesper\AppData\Local\Temp\ccxfaHGf.s:6809   .debug_str:00000000000007fd .LASF108
C:\Users\Jesper\AppData\Local\Temp\ccxfaHGf.s:6455   .debug_str:000000000000006d .LASF109
C:\Users\Jesper\AppData\Local\Temp\ccxfaHGf.s:6529   .debug_str:0000000000000248 .LASF110
C:\Users\Jesper\AppData\Local\Temp\ccxfaHGf.s:6689   .debug_str:00000000000005af .LASF111
C:\Users\Jesper\AppData\Local\Temp\ccxfaHGf.s:6731   .debug_str:0000000000000668 .LASF112
C:\Users\Jesper\AppData\Local\Temp\ccxfaHGf.s:6823   .debug_str:0000000000000843 .LASF113
C:\Users\Jesper\AppData\Local\Temp\ccxfaHGf.s:6839   .debug_str:0000000000000880 .LASF114
C:\Users\Jesper\AppData\Local\Temp\ccxfaHGf.s:6773   .debug_str:000000000000074f .LASF115
C:\Users\Jesper\AppData\Local\Temp\ccxfaHGf.s:6727   .debug_str:0000000000000651 .LASF116
C:\Users\Jesper\AppData\Local\Temp\ccxfaHGf.s:6471   .debug_str:00000000000000ba .LASF117
C:\Users\Jesper\AppData\Local\Temp\ccxfaHGf.s:6653   .debug_str:0000000000000491 .LASF118
C:\Users\Jesper\AppData\Local\Temp\ccxfaHGf.s:6931   .debug_str:0000000000000a39 .LASF119
C:\Users\Jesper\AppData\Local\Temp\ccxfaHGf.s:6519   .debug_str:0000000000000215 .LASF120
C:\Users\Jesper\AppData\Local\Temp\ccxfaHGf.s:6813   .debug_str:0000000000000811 .LASF121
C:\Users\Jesper\AppData\Local\Temp\ccxfaHGf.s:6909   .debug_str:00000000000009c6 .LASF122
C:\Users\Jesper\AppData\Local\Temp\ccxfaHGf.s:6711   .debug_str:000000000000060b .LASF123
C:\Users\Jesper\AppData\Local\Temp\ccxfaHGf.s:6465   .debug_str:000000000000009a .LASF124
C:\Users\Jesper\AppData\Local\Temp\ccxfaHGf.s:6707   .debug_str:00000000000005fa .LASF125
C:\Users\Jesper\AppData\Local\Temp\ccxfaHGf.s:6873   .debug_str:0000000000000916 .LASF126
C:\Users\Jesper\AppData\Local\Temp\ccxfaHGf.s:6687   .debug_str:00000000000005a6 .LASF127
C:\Users\Jesper\AppData\Local\Temp\ccxfaHGf.s:6461   .debug_str:000000000000008d .LASF128
C:\Users\Jesper\AppData\Local\Temp\ccxfaHGf.s:6439   .debug_str:000000000000002c .LASF250
C:\Users\Jesper\AppData\Local\Temp\ccxfaHGf.s:6523   .debug_str:000000000000022c .LASF129
C:\Users\Jesper\AppData\Local\Temp\ccxfaHGf.s:6565   .debug_str:000000000000030a .LASF130
C:\Users\Jesper\AppData\Local\Temp\ccxfaHGf.s:6847   .debug_str:00000000000008ad .LASF131
C:\Users\Jesper\AppData\Local\Temp\ccxfaHGf.s:6641   .debug_str:0000000000000454 .LASF132
C:\Users\Jesper\AppData\Local\Temp\ccxfaHGf.s:6591   .debug_str:0000000000000379 .LASF133
C:\Users\Jesper\AppData\Local\Temp\ccxfaHGf.s:6921   .debug_str:0000000000000a0c .LASF134
C:\Users\Jesper\AppData\Local\Temp\ccxfaHGf.s:6601   .debug_str:00000000000003a3 .LASF135
C:\Users\Jesper\AppData\Local\Temp\ccxfaHGf.s:6879   .debug_str:0000000000000935 .LASF136
C:\Users\Jesper\AppData\Local\Temp\ccxfaHGf.s:6803   .debug_str:00000000000007e6 .LASF137
C:\Users\Jesper\AppData\Local\Temp\ccxfaHGf.s:6595   .debug_str:000000000000038b .LASF138
C:\Users\Jesper\AppData\Local\Temp\ccxfaHGf.s:6845   .debug_str:00000000000008a3 .LASF139
C:\Users\Jesper\AppData\Local\Temp\ccxfaHGf.s:6493   .debug_str:0000000000000196 .LASF140
C:\Users\Jesper\AppData\Local\Temp\ccxfaHGf.s:6767   .debug_str:0000000000000737 .LASF141
C:\Users\Jesper\AppData\Local\Temp\ccxfaHGf.s:6701   .debug_str:00000000000005e2 .LASF142
C:\Users\Jesper\AppData\Local\Temp\ccxfaHGf.s:6551   .debug_str:00000000000002bc .LASF143
C:\Users\Jesper\AppData\Local\Temp\ccxfaHGf.s:6677   .debug_str:0000000000000515 .LASF144
C:\Users\Jesper\AppData\Local\Temp\ccxfaHGf.s:6801   .debug_str:00000000000007d9 .LASF145
C:\Users\Jesper\AppData\Local\Temp\ccxfaHGf.s:6473   .debug_str:00000000000000c4 .LASF146
C:\Users\Jesper\AppData\Local\Temp\ccxfaHGf.s:6459   .debug_str:0000000000000082 .LASF147
C:\Users\Jesper\AppData\Local\Temp\ccxfaHGf.s:6915   .debug_str:00000000000009e8 .LASF148
C:\Users\Jesper\AppData\Local\Temp\ccxfaHGf.s:6843   .debug_str:0000000000000897 .LASF149
C:\Users\Jesper\AppData\Local\Temp\ccxfaHGf.s:6509   .debug_str:00000000000001e5 .LASF150
C:\Users\Jesper\AppData\Local\Temp\ccxfaHGf.s:6735   .debug_str:000000000000067a .LASF151
C:\Users\Jesper\AppData\Local\Temp\ccxfaHGf.s:6483   .debug_str:00000000000000ee .LASF152
C:\Users\Jesper\AppData\Local\Temp\ccxfaHGf.s:6759   .debug_str:000000000000070e .LASF153
C:\Users\Jesper\AppData\Local\Temp\ccxfaHGf.s:6765   .debug_str:000000000000072c .LASF154
C:\Users\Jesper\AppData\Local\Temp\ccxfaHGf.s:6647   .debug_str:000000000000047d .LASF155
C:\Users\Jesper\AppData\Local\Temp\ccxfaHGf.s:6811   .debug_str:000000000000080a .LASF156
C:\Users\Jesper\AppData\Local\Temp\ccxfaHGf.s:6625   .debug_str:0000000000000402 .LASF157
C:\Users\Jesper\AppData\Local\Temp\ccxfaHGf.s:6537   .debug_str:0000000000000273 .LASF158
C:\Users\Jesper\AppData\Local\Temp\ccxfaHGf.s:6899   .debug_str:0000000000000991 .LASF159
C:\Users\Jesper\AppData\Local\Temp\ccxfaHGf.s:6593   .debug_str:0000000000000383 .LASF160
C:\Users\Jesper\AppData\Local\Temp\ccxfaHGf.s:6531   .debug_str:0000000000000257 .LASF161
C:\Users\Jesper\AppData\Local\Temp\ccxfaHGf.s:6587   .debug_str:000000000000036a .LASF162
C:\Users\Jesper\AppData\Local\Temp\ccxfaHGf.s:6885   .debug_str:000000000000094d .LASF163
GAS LISTING C:\Users\Jesper\AppData\Local\Temp\ccxfaHGf.s 			page 43


C:\Users\Jesper\AppData\Local\Temp\ccxfaHGf.s:6929   .debug_str:0000000000000a2b .LASF164
C:\Users\Jesper\AppData\Local\Temp\ccxfaHGf.s:6833   .debug_str:0000000000000862 .LASF165
C:\Users\Jesper\AppData\Local\Temp\ccxfaHGf.s:6893   .debug_str:0000000000000975 .LASF166
C:\Users\Jesper\AppData\Local\Temp\ccxfaHGf.s:6669   .debug_str:00000000000004e1 .LASF167
C:\Users\Jesper\AppData\Local\Temp\ccxfaHGf.s:6751   .debug_str:00000000000006cc .LASF168
C:\Users\Jesper\AppData\Local\Temp\ccxfaHGf.s:6695   .debug_str:00000000000005ce .LASF169
C:\Users\Jesper\AppData\Local\Temp\ccxfaHGf.s:6905   .debug_str:00000000000009b6 .LASF170
C:\Users\Jesper\AppData\Local\Temp\ccxfaHGf.s:6743   .debug_str:00000000000006a3 .LASF171
C:\Users\Jesper\AppData\Local\Temp\ccxfaHGf.s:6497   .debug_str:00000000000001a8 .LASF172
C:\Users\Jesper\AppData\Local\Temp\ccxfaHGf.s:6571   .debug_str:000000000000032f .LASF173
C:\Users\Jesper\AppData\Local\Temp\ccxfaHGf.s:6631   .debug_str:0000000000000425 .LASF174
C:\Users\Jesper\AppData\Local\Temp\ccxfaHGf.s:6739   .debug_str:0000000000000691 .LASF175
C:\Users\Jesper\AppData\Local\Temp\ccxfaHGf.s:6633   .debug_str:0000000000000430 .LASF176
C:\Users\Jesper\AppData\Local\Temp\ccxfaHGf.s:6495   .debug_str:000000000000019f .LASF177
C:\Users\Jesper\AppData\Local\Temp\ccxfaHGf.s:6717   .debug_str:000000000000062c .LASF178
C:\Users\Jesper\AppData\Local\Temp\ccxfaHGf.s:6569   .debug_str:0000000000000326 .LASF179
C:\Users\Jesper\AppData\Local\Temp\ccxfaHGf.s:6603   .debug_str:00000000000003ab .LASF180
C:\Users\Jesper\AppData\Local\Temp\ccxfaHGf.s:6515   .debug_str:0000000000000201 .LASF181
C:\Users\Jesper\AppData\Local\Temp\ccxfaHGf.s:6855   .debug_str:00000000000008cf .LASF182
C:\Users\Jesper\AppData\Local\Temp\ccxfaHGf.s:6511   .debug_str:00000000000001f1 .LASF183
C:\Users\Jesper\AppData\Local\Temp\ccxfaHGf.s:6657   .debug_str:00000000000004a5 .LASF184
C:\Users\Jesper\AppData\Local\Temp\ccxfaHGf.s:6573   .debug_str:0000000000000339 .LASF185
C:\Users\Jesper\AppData\Local\Temp\ccxfaHGf.s:6859   .debug_str:00000000000008e2 .LASF186
C:\Users\Jesper\AppData\Local\Temp\ccxfaHGf.s:6513   .debug_str:00000000000001f8 .LASF187
C:\Users\Jesper\AppData\Local\Temp\ccxfaHGf.s:6923   .debug_str:0000000000000a16 .LASF188
C:\Users\Jesper\AppData\Local\Temp\ccxfaHGf.s:6777   .debug_str:0000000000000766 .LASF189
C:\Users\Jesper\AppData\Local\Temp\ccxfaHGf.s:6613   .debug_str:00000000000003d6 .LASF190
C:\Users\Jesper\AppData\Local\Temp\ccxfaHGf.s:6559   .debug_str:00000000000002e1 .LASF191
C:\Users\Jesper\AppData\Local\Temp\ccxfaHGf.s:6487   .debug_str:0000000000000183 .LASF192
C:\Users\Jesper\AppData\Local\Temp\ccxfaHGf.s:6643   .debug_str:0000000000000464 .LASF193
C:\Users\Jesper\AppData\Local\Temp\ccxfaHGf.s:6779   .debug_str:000000000000076c .LASF194
C:\Users\Jesper\AppData\Local\Temp\ccxfaHGf.s:6799   .debug_str:00000000000007d2 .LASF195
C:\Users\Jesper\AppData\Local\Temp\ccxfaHGf.s:6611   .debug_str:00000000000003ce .LASF196
C:\Users\Jesper\AppData\Local\Temp\ccxfaHGf.s:6649   .debug_str:0000000000000485 .LASF197
C:\Users\Jesper\AppData\Local\Temp\ccxfaHGf.s:6477   .debug_str:00000000000000dd .LASF198
C:\Users\Jesper\AppData\Local\Temp\ccxfaHGf.s:6447   .debug_str:000000000000004a .LASF199
C:\Users\Jesper\AppData\Local\Temp\ccxfaHGf.s:6431   .debug_str:0000000000000007 .LASF200
C:\Users\Jesper\AppData\Local\Temp\ccxfaHGf.s:6889   .debug_str:0000000000000962 .LASF201
C:\Users\Jesper\AppData\Local\Temp\ccxfaHGf.s:6605   .debug_str:00000000000003b3 .LASF202
C:\Users\Jesper\AppData\Local\Temp\ccxfaHGf.s:6597   .debug_str:0000000000000393 .LASF203
C:\Users\Jesper\AppData\Local\Temp\ccxfaHGf.s:6791   .debug_str:00000000000007b2 .LASF204
C:\Users\Jesper\AppData\Local\Temp\ccxfaHGf.s:6785   .debug_str:0000000000000794 .LASF205
C:\Users\Jesper\AppData\Local\Temp\ccxfaHGf.s:6667   .debug_str:00000000000004d6 .LASF206
C:\Users\Jesper\AppData\Local\Temp\ccxfaHGf.s:6661   .debug_str:00000000000004b8 .LASF207
C:\Users\Jesper\AppData\Local\Temp\ccxfaHGf.s:6719   .debug_str:0000000000000634 .LASF208
C:\Users\Jesper\AppData\Local\Temp\ccxfaHGf.s:6857   .debug_str:00000000000008db .LASF209
C:\Users\Jesper\AppData\Local\Temp\ccxfaHGf.s:6547   .debug_str:00000000000002aa .LASF210
C:\Users\Jesper\AppData\Local\Temp\ccxfaHGf.s:6581   .debug_str:0000000000000352 .LASF211
C:\Users\Jesper\AppData\Local\Temp\ccxfaHGf.s:6875   .debug_str:000000000000091d .LASF212
C:\Users\Jesper\AppData\Local\Temp\ccxfaHGf.s:6539   .debug_str:000000000000027f .LASF213
C:\Users\Jesper\AppData\Local\Temp\ccxfaHGf.s:6835   .debug_str:0000000000000871 .LASF214
C:\Users\Jesper\AppData\Local\Temp\ccxfaHGf.s:6449   .debug_str:0000000000000050 .LASF215
C:\Users\Jesper\AppData\Local\Temp\ccxfaHGf.s:6437   .debug_str:000000000000001e .LASF216
C:\Users\Jesper\AppData\Local\Temp\ccxfaHGf.s:6815   .debug_str:0000000000000820 .LASF217
C:\Users\Jesper\AppData\Local\Temp\ccxfaHGf.s:6837   .debug_str:000000000000087a .LASF218
C:\Users\Jesper\AppData\Local\Temp\ccxfaHGf.s:6555   .debug_str:00000000000002cc .LASF219
C:\Users\Jesper\AppData\Local\Temp\ccxfaHGf.s:6553   .debug_str:00000000000002c2 .LASF220
GAS LISTING C:\Users\Jesper\AppData\Local\Temp\ccxfaHGf.s 			page 44


C:\Users\Jesper\AppData\Local\Temp\ccxfaHGf.s:6517   .debug_str:000000000000020d .LASF221
C:\Users\Jesper\AppData\Local\Temp\ccxfaHGf.s:6795   .debug_str:00000000000007c3 .LASF227
C:\Users\Jesper\AppData\Local\Temp\ccxfaHGf.s:377    .text.tm_run:0000000000000000 .LFB31
C:\Users\Jesper\AppData\Local\Temp\ccxfaHGf.s:1154   .text.tm_run:0000000000000552 .LFE31
C:\Users\Jesper\AppData\Local\Temp\ccxfaHGf.s:5756   .debug_loc:0000000000000000 .LLST18
C:\Users\Jesper\AppData\Local\Temp\ccxfaHGf.s:5779   .debug_loc:000000000000003a .LLST19
C:\Users\Jesper\AppData\Local\Temp\ccxfaHGf.s:5801   .debug_loc:0000000000000071 .LLST20
C:\Users\Jesper\AppData\Local\Temp\ccxfaHGf.s:5819   .debug_loc:000000000000009d .LLST21
C:\Users\Jesper\AppData\Local\Temp\ccxfaHGf.s:6851   .debug_str:00000000000008c0 .LASF222
C:\Users\Jesper\AppData\Local\Temp\ccxfaHGf.s:6589   .debug_str:0000000000000374 .LASF223
C:\Users\Jesper\AppData\Local\Temp\ccxfaHGf.s:5841   .debug_loc:00000000000000d7 .LLST22
C:\Users\Jesper\AppData\Local\Temp\ccxfaHGf.s:6491   .debug_str:000000000000018e .LASF224
C:\Users\Jesper\AppData\Local\Temp\ccxfaHGf.s:5868   .debug_loc:000000000000011c .LLST23
C:\Users\Jesper\AppData\Local\Temp\ccxfaHGf.s:646    .text.tm_run:0000000000000178 .LBB10
C:\Users\Jesper\AppData\Local\Temp\ccxfaHGf.s:719    .text.tm_run:000000000000021e .LBE10
C:\Users\Jesper\AppData\Local\Temp\ccxfaHGf.s:5884   .debug_loc:0000000000000146 .LLST28
C:\Users\Jesper\AppData\Local\Temp\ccxfaHGf.s:651    .text.tm_run:0000000000000188 .LVL54
C:\Users\Jesper\AppData\Local\Temp\ccxfaHGf.s:655    .text.tm_run:0000000000000192 .LVL55
C:\Users\Jesper\AppData\Local\Temp\ccxfaHGf.s:661    .text.tm_run:00000000000001a2 .LVL56
C:\Users\Jesper\AppData\Local\Temp\ccxfaHGf.s:665    .text.tm_run:00000000000001ac .LVL57
C:\Users\Jesper\AppData\Local\Temp\ccxfaHGf.s:717    .text.tm_run:000000000000021e .LVL60
C:\Users\Jesper\AppData\Local\Temp\ccxfaHGf.s:5891   .debug_loc:0000000000000159 .LLST29
C:\Users\Jesper\AppData\Local\Temp\ccxfaHGf.s:846    .text.tm_run:00000000000002f8 .LVL75
C:\Users\Jesper\AppData\Local\Temp\ccxfaHGf.s:850    .text.tm_run:0000000000000302 .LVL76
C:\Users\Jesper\AppData\Local\Temp\ccxfaHGf.s:856    .text.tm_run:0000000000000312 .LVL77
C:\Users\Jesper\AppData\Local\Temp\ccxfaHGf.s:860    .text.tm_run:000000000000031c .LVL78
C:\Users\Jesper\AppData\Local\Temp\ccxfaHGf.s:872    .text.tm_run:0000000000000338 .LVL79
C:\Users\Jesper\AppData\Local\Temp\ccxfaHGf.s:5899   .debug_loc:000000000000016d .LLST27
C:\Users\Jesper\AppData\Local\Temp\ccxfaHGf.s:881    .text.tm_run:000000000000034a .LVL80
C:\Users\Jesper\AppData\Local\Temp\ccxfaHGf.s:885    .text.tm_run:0000000000000354 .LVL81
C:\Users\Jesper\AppData\Local\Temp\ccxfaHGf.s:890    .text.tm_run:0000000000000360 .LVL82
C:\Users\Jesper\AppData\Local\Temp\ccxfaHGf.s:894    .text.tm_run:000000000000036a .LVL83
C:\Users\Jesper\AppData\Local\Temp\ccxfaHGf.s:921    .text.tm_run:0000000000000396 .LVL86
C:\Users\Jesper\AppData\Local\Temp\ccxfaHGf.s:5906   .debug_loc:0000000000000180 .LLST26
C:\Users\Jesper\AppData\Local\Temp\ccxfaHGf.s:930    .text.tm_run:00000000000003a8 .LVL87
C:\Users\Jesper\AppData\Local\Temp\ccxfaHGf.s:934    .text.tm_run:00000000000003b2 .LVL88
C:\Users\Jesper\AppData\Local\Temp\ccxfaHGf.s:939    .text.tm_run:00000000000003be .LVL89
C:\Users\Jesper\AppData\Local\Temp\ccxfaHGf.s:943    .text.tm_run:00000000000003c8 .LVL90
C:\Users\Jesper\AppData\Local\Temp\ccxfaHGf.s:955    .text.tm_run:00000000000003e4 .LVL91
C:\Users\Jesper\AppData\Local\Temp\ccxfaHGf.s:5914   .debug_loc:0000000000000194 .LLST25
C:\Users\Jesper\AppData\Local\Temp\ccxfaHGf.s:964    .text.tm_run:00000000000003f6 .LVL92
C:\Users\Jesper\AppData\Local\Temp\ccxfaHGf.s:968    .text.tm_run:0000000000000400 .LVL93
C:\Users\Jesper\AppData\Local\Temp\ccxfaHGf.s:973    .text.tm_run:000000000000040c .LVL94
C:\Users\Jesper\AppData\Local\Temp\ccxfaHGf.s:977    .text.tm_run:0000000000000416 .LVL95
C:\Users\Jesper\AppData\Local\Temp\ccxfaHGf.s:989    .text.tm_run:0000000000000432 .LVL96
C:\Users\Jesper\AppData\Local\Temp\ccxfaHGf.s:5922   .debug_loc:00000000000001a8 .LLST24
C:\Users\Jesper\AppData\Local\Temp\ccxfaHGf.s:998    .text.tm_run:0000000000000444 .LVL97
C:\Users\Jesper\AppData\Local\Temp\ccxfaHGf.s:1002   .text.tm_run:000000000000044e .LVL98
C:\Users\Jesper\AppData\Local\Temp\ccxfaHGf.s:1007   .text.tm_run:000000000000045a .LVL99
C:\Users\Jesper\AppData\Local\Temp\ccxfaHGf.s:1011   .text.tm_run:0000000000000464 .LVL100
C:\Users\Jesper\AppData\Local\Temp\ccxfaHGf.s:1022   .text.tm_run:0000000000000478 .LVL102
C:\Users\Jesper\AppData\Local\Temp\ccxfaHGf.s:1045   .text.tm_run:00000000000004aa .LVL103
C:\Users\Jesper\AppData\Local\Temp\ccxfaHGf.s:1077   .text.tm_run:00000000000004e0 .LBB17
C:\Users\Jesper\AppData\Local\Temp\ccxfaHGf.s:1151   .text.tm_run:0000000000000552 .LBE17
C:\Users\Jesper\AppData\Local\Temp\ccxfaHGf.s:6567   .debug_str:000000000000031d .LASF225
C:\Users\Jesper\AppData\Local\Temp\ccxfaHGf.s:5929   .debug_loc:00000000000001bb .LLST30
C:\Users\Jesper\AppData\Local\Temp\ccxfaHGf.s:6705   .debug_str:00000000000005f5 .LASF226
GAS LISTING C:\Users\Jesper\AppData\Local\Temp\ccxfaHGf.s 			page 45


C:\Users\Jesper\AppData\Local\Temp\ccxfaHGf.s:5941   .debug_loc:00000000000001db .LLST31
C:\Users\Jesper\AppData\Local\Temp\ccxfaHGf.s:586    .text.tm_run:0000000000000118 .LVL48
C:\Users\Jesper\AppData\Local\Temp\ccxfaHGf.s:604    .text.tm_run:0000000000000132 .LVL49
C:\Users\Jesper\AppData\Local\Temp\ccxfaHGf.s:609    .text.tm_run:0000000000000142 .LVL50
C:\Users\Jesper\AppData\Local\Temp\ccxfaHGf.s:613    .text.tm_run:000000000000014c .LVL51
C:\Users\Jesper\AppData\Local\Temp\ccxfaHGf.s:619    .text.tm_run:000000000000015c .LVL52
C:\Users\Jesper\AppData\Local\Temp\ccxfaHGf.s:623    .text.tm_run:0000000000000166 .LVL53
C:\Users\Jesper\AppData\Local\Temp\ccxfaHGf.s:734    .text.tm_run:0000000000000232 .LVL63
C:\Users\Jesper\AppData\Local\Temp\ccxfaHGf.s:738    .text.tm_run:000000000000023c .LVL64
C:\Users\Jesper\AppData\Local\Temp\ccxfaHGf.s:744    .text.tm_run:000000000000024c .LVL65
C:\Users\Jesper\AppData\Local\Temp\ccxfaHGf.s:748    .text.tm_run:0000000000000256 .LVL66
C:\Users\Jesper\AppData\Local\Temp\ccxfaHGf.s:764    .text.tm_run:0000000000000266 .LVL67
C:\Users\Jesper\AppData\Local\Temp\ccxfaHGf.s:784    .text.tm_run:0000000000000286 .LVL68
C:\Users\Jesper\AppData\Local\Temp\ccxfaHGf.s:817    .text.tm_run:00000000000002b8 .LVL71
C:\Users\Jesper\AppData\Local\Temp\ccxfaHGf.s:821    .text.tm_run:00000000000002c2 .LVL72
C:\Users\Jesper\AppData\Local\Temp\ccxfaHGf.s:827    .text.tm_run:00000000000002d2 .LVL73
C:\Users\Jesper\AppData\Local\Temp\ccxfaHGf.s:831    .text.tm_run:00000000000002dc .LVL74
C:\Users\Jesper\AppData\Local\Temp\ccxfaHGf.s:1054   .text.tm_run:00000000000004bc .LVL105
C:\Users\Jesper\AppData\Local\Temp\ccxfaHGf.s:1058   .text.tm_run:00000000000004c6 .LVL106
C:\Users\Jesper\AppData\Local\Temp\ccxfaHGf.s:1063   .text.tm_run:00000000000004d2 .LVL107
C:\Users\Jesper\AppData\Local\Temp\ccxfaHGf.s:1067   .text.tm_run:00000000000004dc .LVL108
C:\Users\Jesper\AppData\Local\Temp\ccxfaHGf.s:426    .text.tm_run:0000000000000036 .LVL32
C:\Users\Jesper\AppData\Local\Temp\ccxfaHGf.s:430    .text.tm_run:0000000000000040 .LVL33
C:\Users\Jesper\AppData\Local\Temp\ccxfaHGf.s:436    .text.tm_run:0000000000000050 .LVL34
C:\Users\Jesper\AppData\Local\Temp\ccxfaHGf.s:440    .text.tm_run:000000000000005a .LVL35
C:\Users\Jesper\AppData\Local\Temp\ccxfaHGf.s:450    .text.tm_run:0000000000000068 .LVL36
C:\Users\Jesper\AppData\Local\Temp\ccxfaHGf.s:503    .text.tm_run:00000000000000b0 .LVL39
C:\Users\Jesper\AppData\Local\Temp\ccxfaHGf.s:507    .text.tm_run:00000000000000ba .LVL40
C:\Users\Jesper\AppData\Local\Temp\ccxfaHGf.s:513    .text.tm_run:00000000000000ca .LVL41
C:\Users\Jesper\AppData\Local\Temp\ccxfaHGf.s:517    .text.tm_run:00000000000000d4 .LVL42
C:\Users\Jesper\AppData\Local\Temp\ccxfaHGf.s:6675   .debug_str:0000000000000507 .LASF228
C:\Users\Jesper\AppData\Local\Temp\ccxfaHGf.s:194    .text.tm_preprocess:0000000000000000 .LFB30
C:\Users\Jesper\AppData\Local\Temp\ccxfaHGf.s:369    .text.tm_preprocess:00000000000000c8 .LFE30
C:\Users\Jesper\AppData\Local\Temp\ccxfaHGf.s:5957   .debug_loc:0000000000000206 .LLST8
C:\Users\Jesper\AppData\Local\Temp\ccxfaHGf.s:5980   .debug_loc:000000000000023e .LLST9
C:\Users\Jesper\AppData\Local\Temp\ccxfaHGf.s:6877   .debug_str:000000000000092d .LASF229
C:\Users\Jesper\AppData\Local\Temp\ccxfaHGf.s:5998   .debug_loc:000000000000026a .LLST10
C:\Users\Jesper\AppData\Local\Temp\ccxfaHGf.s:6016   .debug_loc:0000000000000296 .LLST11
C:\Users\Jesper\AppData\Local\Temp\ccxfaHGf.s:6042   .debug_loc:00000000000002d8 .LLST12
C:\Users\Jesper\AppData\Local\Temp\ccxfaHGf.s:6068   .debug_loc:000000000000031a .LLST13
C:\Users\Jesper\AppData\Local\Temp\ccxfaHGf.s:6087   .debug_loc:0000000000000340 .LLST14
C:\Users\Jesper\AppData\Local\Temp\ccxfaHGf.s:6713   .debug_str:000000000000061a .LASF230
C:\Users\Jesper\AppData\Local\Temp\ccxfaHGf.s:6106   .debug_loc:0000000000000366 .LLST15
C:\Users\Jesper\AppData\Local\Temp\ccxfaHGf.s:6117   .debug_loc:0000000000000384 .LLST16
C:\Users\Jesper\AppData\Local\Temp\ccxfaHGf.s:338    .text.tm_preprocess:00000000000000a8 .LBB4
C:\Users\Jesper\AppData\Local\Temp\ccxfaHGf.s:367    .text.tm_preprocess:00000000000000c8 .LBE4
C:\Users\Jesper\AppData\Local\Temp\ccxfaHGf.s:6128   .debug_loc:00000000000003a2 .LLST17
C:\Users\Jesper\AppData\Local\Temp\ccxfaHGf.s:6609   .debug_str:00000000000003c4 .LASF251
C:\Users\Jesper\AppData\Local\Temp\ccxfaHGf.s:166    .text.tm_unload:0000000000000000 .LFB29
C:\Users\Jesper\AppData\Local\Temp\ccxfaHGf.s:183    .text.tm_unload:0000000000000012 .LFE29
C:\Users\Jesper\AppData\Local\Temp\ccxfaHGf.s:6135   .debug_loc:00000000000003b5 .LLST7
C:\Users\Jesper\AppData\Local\Temp\ccxfaHGf.s:178    .text.tm_unload:0000000000000010 .LVL13
C:\Users\Jesper\AppData\Local\Temp\ccxfaHGf.s:6617   .debug_str:00000000000003e0 .LASF231
C:\Users\Jesper\AppData\Local\Temp\ccxfaHGf.s:14     .text.tm_load:0000000000000000 .LFB28
C:\Users\Jesper\AppData\Local\Temp\ccxfaHGf.s:159    .text.tm_load:0000000000000094 .LFE28
C:\Users\Jesper\AppData\Local\Temp\ccxfaHGf.s:6153   .debug_loc:00000000000003e1 .LLST0
C:\Users\Jesper\AppData\Local\Temp\ccxfaHGf.s:6176   .debug_loc:0000000000000419 .LLST1
GAS LISTING C:\Users\Jesper\AppData\Local\Temp\ccxfaHGf.s 			page 46


C:\Users\Jesper\AppData\Local\Temp\ccxfaHGf.s:6198   .debug_loc:0000000000000450 .LLST2
C:\Users\Jesper\AppData\Local\Temp\ccxfaHGf.s:6224   .debug_loc:0000000000000492 .LLST3
C:\Users\Jesper\AppData\Local\Temp\ccxfaHGf.s:6253   .debug_loc:00000000000004d7 .LLST4
C:\Users\Jesper\AppData\Local\Temp\ccxfaHGf.s:6282   .debug_loc:000000000000051c .LLST5
C:\Users\Jesper\AppData\Local\Temp\ccxfaHGf.s:6709   .debug_str:0000000000000603 .LASF232
C:\Users\Jesper\AppData\Local\Temp\ccxfaHGf.s:6316   .debug_loc:0000000000000574 .LLST6
C:\Users\Jesper\AppData\Local\Temp\ccxfaHGf.s:64     .text.tm_load:0000000000000036 .LVL2
C:\Users\Jesper\AppData\Local\Temp\ccxfaHGf.s:107    .text.tm_load:000000000000005a .LVL6
C:\Users\Jesper\AppData\Local\Temp\ccxfaHGf.s:127    .text.tm_load:0000000000000078 .LVL7
C:\Users\Jesper\AppData\Local\Temp\ccxfaHGf.s:6599   .debug_str:000000000000039c .LASF233
C:\Users\Jesper\AppData\Local\Temp\ccxfaHGf.s:6925   .debug_str:0000000000000a1b .LASF234
C:\Users\Jesper\AppData\Local\Temp\ccxfaHGf.s:6481   .debug_str:00000000000000e9 .LASF240
C:\Users\Jesper\AppData\Local\Temp\ccxfaHGf.s:6763   .debug_str:000000000000071d .LASF242
C:\Users\Jesper\AppData\Local\Temp\ccxfaHGf.s:6753   .debug_str:00000000000006d8 .LASF235
C:\Users\Jesper\AppData\Local\Temp\ccxfaHGf.s:6535   .debug_str:000000000000026b .LASF236
C:\Users\Jesper\AppData\Local\Temp\ccxfaHGf.s:6911   .debug_str:00000000000009d7 .LASF237
C:\Users\Jesper\AppData\Local\Temp\ccxfaHGf.s:6549   .debug_str:00000000000002b0 .LASF238
C:\Users\Jesper\AppData\Local\Temp\ccxfaHGf.s:6783   .debug_str:0000000000000788 .LASF239
C:\Users\Jesper\AppData\Local\Temp\ccxfaHGf.s:6869   .debug_str:0000000000000907 .LASF241
C:\Users\Jesper\AppData\Local\Temp\ccxfaHGf.s:6499   .debug_str:00000000000001b0 .LASF243
C:\Users\Jesper\AppData\Local\Temp\ccxfaHGf.s:6475   .debug_str:00000000000000d5 .LASF244
C:\Users\Jesper\AppData\Local\Temp\ccxfaHGf.s:6897   .debug_str:000000000000098c .LASF245
C:\Users\Jesper\AppData\Local\Temp\ccxfaHGf.s:6827   .debug_str:000000000000084f .LASF246
C:\Users\Jesper\AppData\Local\Temp\ccxfaHGf.s:384    .text.tm_run:0000000000000002 .LCFI6
C:\Users\Jesper\AppData\Local\Temp\ccxfaHGf.s:555    .text.tm_run:00000000000000f4 .LCFI7
C:\Users\Jesper\AppData\Local\Temp\ccxfaHGf.s:561    .text.tm_run:00000000000000f6 .LCFI8
C:\Users\Jesper\AppData\Local\Temp\ccxfaHGf.s:380    .text.tm_run:0000000000000000 .LVL29
C:\Users\Jesper\AppData\Local\Temp\ccxfaHGf.s:399    .text.tm_run:0000000000000014 .LVL30
C:\Users\Jesper\AppData\Local\Temp\ccxfaHGf.s:529    .text.tm_run:00000000000000da .LVL43
C:\Users\Jesper\AppData\Local\Temp\ccxfaHGf.s:559    .text.tm_run:00000000000000f6 .LVL46
C:\Users\Jesper\AppData\Local\Temp\ccxfaHGf.s:401    .text.tm_run:0000000000000018 .LVL31
C:\Users\Jesper\AppData\Local\Temp\ccxfaHGf.s:467    .text.tm_run:000000000000007a .LVL37
C:\Users\Jesper\AppData\Local\Temp\ccxfaHGf.s:557    .text.tm_run:00000000000000f4 .LVL45
C:\Users\Jesper\AppData\Local\Temp\ccxfaHGf.s:488    .text.tm_run:0000000000000092 .LVL38
C:\Users\Jesper\AppData\Local\Temp\ccxfaHGf.s:731    .text.tm_run:000000000000022a .LVL62
C:\Users\Jesper\AppData\Local\Temp\ccxfaHGf.s:798    .text.tm_run:000000000000029c .LVL69
C:\Users\Jesper\AppData\Local\Temp\ccxfaHGf.s:1075   .text.tm_run:00000000000004e0 .LVL109
C:\Users\Jesper\AppData\Local\Temp\ccxfaHGf.s:1100   .text.tm_run:0000000000000502 .LVL111
C:\Users\Jesper\AppData\Local\Temp\ccxfaHGf.s:534    .text.tm_run:00000000000000de .LVL44
C:\Users\Jesper\AppData\Local\Temp\ccxfaHGf.s:670    .text.tm_run:00000000000001ae .LVL58
C:\Users\Jesper\AppData\Local\Temp\ccxfaHGf.s:712    .text.tm_run:0000000000000210 .LVL59
C:\Users\Jesper\AppData\Local\Temp\ccxfaHGf.s:899    .text.tm_run:000000000000036c .LVL84
C:\Users\Jesper\AppData\Local\Temp\ccxfaHGf.s:918    .text.tm_run:000000000000038c .LVL85
C:\Users\Jesper\AppData\Local\Temp\ccxfaHGf.s:1016   .text.tm_run:0000000000000468 .LVL101
C:\Users\Jesper\AppData\Local\Temp\ccxfaHGf.s:1047   .text.tm_run:00000000000004ac .LVL104
C:\Users\Jesper\AppData\Local\Temp\ccxfaHGf.s:1089   .text.tm_run:00000000000004f4 .LVL110
C:\Users\Jesper\AppData\Local\Temp\ccxfaHGf.s:1133   .text.tm_run:0000000000000534 .LVL112
C:\Users\Jesper\AppData\Local\Temp\ccxfaHGf.s:1148   .text.tm_run:0000000000000550 .LVL114
C:\Users\Jesper\AppData\Local\Temp\ccxfaHGf.s:204    .text.tm_preprocess:0000000000000002 .LCFI3
C:\Users\Jesper\AppData\Local\Temp\ccxfaHGf.s:293    .text.tm_preprocess:0000000000000064 .LCFI4
C:\Users\Jesper\AppData\Local\Temp\ccxfaHGf.s:298    .text.tm_preprocess:0000000000000066 .LCFI5
C:\Users\Jesper\AppData\Local\Temp\ccxfaHGf.s:197    .text.tm_preprocess:0000000000000000 .LVL14
C:\Users\Jesper\AppData\Local\Temp\ccxfaHGf.s:262    .text.tm_preprocess:000000000000004a .LVL16
C:\Users\Jesper\AppData\Local\Temp\ccxfaHGf.s:335    .text.tm_preprocess:00000000000000a8 .LVL25
C:\Users\Jesper\AppData\Local\Temp\ccxfaHGf.s:362    .text.tm_preprocess:00000000000000c4 .LVL28
C:\Users\Jesper\AppData\Local\Temp\ccxfaHGf.s:266    .text.tm_preprocess:000000000000004e .LVL17
C:\Users\Jesper\AppData\Local\Temp\ccxfaHGf.s:296    .text.tm_preprocess:0000000000000066 .LVL19
GAS LISTING C:\Users\Jesper\AppData\Local\Temp\ccxfaHGf.s 			page 47


C:\Users\Jesper\AppData\Local\Temp\ccxfaHGf.s:237    .text.tm_preprocess:0000000000000028 .LVL15
C:\Users\Jesper\AppData\Local\Temp\ccxfaHGf.s:278    .text.tm_preprocess:0000000000000054 .LVL18
C:\Users\Jesper\AppData\Local\Temp\ccxfaHGf.s:169    .text.tm_unload:0000000000000000 .LVL11
C:\Users\Jesper\AppData\Local\Temp\ccxfaHGf.s:176    .text.tm_unload:0000000000000008 .LVL12
C:\Users\Jesper\AppData\Local\Temp\ccxfaHGf.s:23     .text.tm_load:0000000000000002 .LCFI0
C:\Users\Jesper\AppData\Local\Temp\ccxfaHGf.s:87     .text.tm_load:0000000000000046 .LCFI1
C:\Users\Jesper\AppData\Local\Temp\ccxfaHGf.s:92     .text.tm_load:0000000000000048 .LCFI2
C:\Users\Jesper\AppData\Local\Temp\ccxfaHGf.s:18     .text.tm_load:0000000000000000 .LVL0
C:\Users\Jesper\AppData\Local\Temp\ccxfaHGf.s:30     .text.tm_load:0000000000000008 .LVL1
C:\Users\Jesper\AppData\Local\Temp\ccxfaHGf.s:81     .text.tm_load:0000000000000040 .LVL4
C:\Users\Jesper\AppData\Local\Temp\ccxfaHGf.s:90     .text.tm_load:0000000000000048 .LVL5
C:\Users\Jesper\AppData\Local\Temp\ccxfaHGf.s:73     .text.tm_load:000000000000003c .LVL3
C:\Users\Jesper\AppData\Local\Temp\ccxfaHGf.s:153    .text.tm_load:0000000000000090 .LVL10
C:\Users\Jesper\AppData\Local\Temp\ccxfaHGf.s:138    .text.tm_load:0000000000000082 .LVL8
C:\Users\Jesper\AppData\Local\Temp\ccxfaHGf.s:147    .text.tm_load:000000000000008a .LVL9
C:\Users\Jesper\AppData\Local\Temp\ccxfaHGf.s:1208   .debug_info:0000000000000000 .Ldebug_info0
C:\Users\Jesper\AppData\Local\Temp\ccxfaHGf.s:259    .text.tm_preprocess:0000000000000048 .LBB2
C:\Users\Jesper\AppData\Local\Temp\ccxfaHGf.s:268    .text.tm_preprocess:000000000000004e .LBE2
C:\Users\Jesper\AppData\Local\Temp\ccxfaHGf.s:300    .text.tm_preprocess:0000000000000066 .LBB3
C:\Users\Jesper\AppData\Local\Temp\ccxfaHGf.s:337    .text.tm_preprocess:00000000000000a8 .LBE3
C:\Users\Jesper\AppData\Local\Temp\ccxfaHGf.s:454    .text.tm_run:000000000000006a .LBB5
C:\Users\Jesper\AppData\Local\Temp\ccxfaHGf.s:457    .text.tm_run:000000000000006e .LBE5
C:\Users\Jesper\AppData\Local\Temp\ccxfaHGf.s:468    .text.tm_run:000000000000007a .LBB21
C:\Users\Jesper\AppData\Local\Temp\ccxfaHGf.s:491    .text.tm_run:0000000000000092 .LBE21
C:\Users\Jesper\AppData\Local\Temp\ccxfaHGf.s:563    .text.tm_run:00000000000000f6 .LBB22
C:\Users\Jesper\AppData\Local\Temp\ccxfaHGf.s:833    .text.tm_run:00000000000002dc .LBE22
C:\Users\Jesper\AppData\Local\Temp\ccxfaHGf.s:840    .text.tm_run:00000000000002e8 .LBB23
C:\Users\Jesper\AppData\Local\Temp\ccxfaHGf.s:1152   .text.tm_run:0000000000000552 .LBE23
C:\Users\Jesper\AppData\Local\Temp\ccxfaHGf.s:473    .text.tm_run:0000000000000082 .LBB6
C:\Users\Jesper\AppData\Local\Temp\ccxfaHGf.s:476    .text.tm_run:0000000000000086 .LBE6
C:\Users\Jesper\AppData\Local\Temp\ccxfaHGf.s:993    .text.tm_run:0000000000000434 .LBB16
C:\Users\Jesper\AppData\Local\Temp\ccxfaHGf.s:1049   .text.tm_run:00000000000004ac .LBE16
C:\Users\Jesper\AppData\Local\Temp\ccxfaHGf.s:477    .text.tm_run:0000000000000086 .LBB7
C:\Users\Jesper\AppData\Local\Temp\ccxfaHGf.s:480    .text.tm_run:000000000000008a .LBE7
C:\Users\Jesper\AppData\Local\Temp\ccxfaHGf.s:959    .text.tm_run:00000000000003e6 .LBB15
C:\Users\Jesper\AppData\Local\Temp\ccxfaHGf.s:992    .text.tm_run:0000000000000434 .LBE15
C:\Users\Jesper\AppData\Local\Temp\ccxfaHGf.s:481    .text.tm_run:000000000000008a .LBB8
C:\Users\Jesper\AppData\Local\Temp\ccxfaHGf.s:484    .text.tm_run:000000000000008e .LBE8
C:\Users\Jesper\AppData\Local\Temp\ccxfaHGf.s:925    .text.tm_run:0000000000000398 .LBB14
C:\Users\Jesper\AppData\Local\Temp\ccxfaHGf.s:958    .text.tm_run:00000000000003e6 .LBE14
C:\Users\Jesper\AppData\Local\Temp\ccxfaHGf.s:485    .text.tm_run:000000000000008e .LBB9
C:\Users\Jesper\AppData\Local\Temp\ccxfaHGf.s:490    .text.tm_run:0000000000000092 .LBE9
C:\Users\Jesper\AppData\Local\Temp\ccxfaHGf.s:876    .text.tm_run:000000000000033a .LBB13
C:\Users\Jesper\AppData\Local\Temp\ccxfaHGf.s:924    .text.tm_run:0000000000000398 .LBE13
C:\Users\Jesper\AppData\Local\Temp\ccxfaHGf.s:720    .text.tm_run:000000000000021e .LBB11
C:\Users\Jesper\AppData\Local\Temp\ccxfaHGf.s:726    .text.tm_run:0000000000000220 .LBE11
C:\Users\Jesper\AppData\Local\Temp\ccxfaHGf.s:841    .text.tm_run:00000000000002e8 .LBB12
C:\Users\Jesper\AppData\Local\Temp\ccxfaHGf.s:875    .text.tm_run:000000000000033a .LBE12
C:\Users\Jesper\AppData\Local\Temp\ccxfaHGf.s:1091   .text.tm_run:00000000000004f4 .LBB18
C:\Users\Jesper\AppData\Local\Temp\ccxfaHGf.s:1094   .text.tm_run:00000000000004f6 .LBE18
C:\Users\Jesper\AppData\Local\Temp\ccxfaHGf.s:1102   .text.tm_run:0000000000000502 .LBB19
C:\Users\Jesper\AppData\Local\Temp\ccxfaHGf.s:1107   .text.tm_run:0000000000000506 .LBE19
C:\Users\Jesper\AppData\Local\Temp\ccxfaHGf.s:1113   .text.tm_run:000000000000050c .LBB20
C:\Users\Jesper\AppData\Local\Temp\ccxfaHGf.s:1150   .text.tm_run:0000000000000552 .LBE20

UNDEFINED SYMBOLS
malloc
GAS LISTING C:\Users\Jesper\AppData\Local\Temp\ccxfaHGf.s 			page 48


memcpy
free
__divsf3
__floatsisf
__addsf3
__fixsfsi
__mulsf3
printf
fflush
puts
tml_conv2d_dwconv2d
tml_gap
tml_fc
tml_softmax
tml_reshape
tml_add
