GAS LISTING C:\Users\Jesper\AppData\Local\Temp\cc0J3Ydy.s 			page 1


   1              		.file	"tm_stat.c"
   2              		.option nopic
   3              		.attribute arch, "rv32i2p0_m2p0_a2p0_c2p0"
   4              		.attribute unaligned_access, 0
   5              		.attribute stack_align, 16
   6              		.text
   7              	.Ltext0:
   8              		.cfi_sections	.debug_frame
   9              		.globl	__extendsfdf2
  10              		.globl	__floatunsidf
  11              		.globl	__muldf3
  12              		.globl	__floatsidf
  13              		.globl	__divdf3
  14              		.section	.text.tm_stat,"ax",@progbits
  15              		.align	1
  16              		.globl	tm_stat
  18              	tm_stat:
  19              	.LFB28:
  20              		.file 1 "lib/tinymaix/src/tm_stat.c"
   1:lib/tinymaix/src/tm_stat.c **** /* Copyright 2022 Sipeed Technology Co., Ltd. All Rights Reserved.
   2:lib/tinymaix/src/tm_stat.c **** Licensed under the Apache License, Version 2.0 (the "License");
   3:lib/tinymaix/src/tm_stat.c **** you may not use this file except in compliance with the License.
   4:lib/tinymaix/src/tm_stat.c **** You may obtain a copy of the License at
   5:lib/tinymaix/src/tm_stat.c ****     http://www.apache.org/licenses/LICENSE-2.0
   6:lib/tinymaix/src/tm_stat.c **** Unless required by applicable law or agreed to in writing, software
   7:lib/tinymaix/src/tm_stat.c **** distributed under the License is distributed on an "AS IS" BASIS,
   8:lib/tinymaix/src/tm_stat.c **** WITHOUT WARRANTIES OR CONDITIONS OF ANY KIND, either express or implied.
   9:lib/tinymaix/src/tm_stat.c **** See the License for the specific language governing permissions and
  10:lib/tinymaix/src/tm_stat.c **** limitations under the License.
  11:lib/tinymaix/src/tm_stat.c **** ==============================================================================*/
  12:lib/tinymaix/src/tm_stat.c **** 
  13:lib/tinymaix/src/tm_stat.c **** #include "tinymaix.h"
  14:lib/tinymaix/src/tm_stat.c **** 
  15:lib/tinymaix/src/tm_stat.c **** #if TM_ENABLE_STAT
  16:lib/tinymaix/src/tm_stat.c **** static const char* mdl_type_str[6] = {
  17:lib/tinymaix/src/tm_stat.c ****     "int8",   
  18:lib/tinymaix/src/tm_stat.c ****     "int16",     
  19:lib/tinymaix/src/tm_stat.c ****     "fp32",    
  20:lib/tinymaix/src/tm_stat.c ****     "fp16",  
  21:lib/tinymaix/src/tm_stat.c ****     "fp8 1.4.3", 
  22:lib/tinymaix/src/tm_stat.c ****     "fp8 1.5.2", 
  23:lib/tinymaix/src/tm_stat.c **** };
  24:lib/tinymaix/src/tm_stat.c **** 
  25:lib/tinymaix/src/tm_stat.c **** static const char* tml_str_tbl[TML_MAXCNT] = {
  26:lib/tinymaix/src/tm_stat.c ****     "Conv2D",   /*TML_CONV2D  = 0,*/
  27:lib/tinymaix/src/tm_stat.c ****     "GAP",      /*TML_GAP     = 1,*/
  28:lib/tinymaix/src/tm_stat.c ****     "FC",       /*TML_FC      = 2,*/
  29:lib/tinymaix/src/tm_stat.c ****     "Softmax",  /*TML_SOFTMAX = 3,*/
  30:lib/tinymaix/src/tm_stat.c ****     "Reshape",  /*TML_RESHAPE = 4,*/
  31:lib/tinymaix/src/tm_stat.c ****     "DWConv2D", /*TML_DWCONV2D= 5,*/
  32:lib/tinymaix/src/tm_stat.c ****     "ADD",      /*TML_ADD     = 6,*/
  33:lib/tinymaix/src/tm_stat.c **** };
  34:lib/tinymaix/src/tm_stat.c **** 
  35:lib/tinymaix/src/tm_stat.c **** static const int tml_headsize_tbl[TML_MAXCNT] = {
  36:lib/tinymaix/src/tm_stat.c ****     sizeof(tml_conv2d_dw_t),
  37:lib/tinymaix/src/tm_stat.c ****     sizeof(tml_gap_t),
  38:lib/tinymaix/src/tm_stat.c ****     sizeof(tml_fc_t),
GAS LISTING C:\Users\Jesper\AppData\Local\Temp\cc0J3Ydy.s 			page 2


  39:lib/tinymaix/src/tm_stat.c ****     sizeof(tml_softmax_t),
  40:lib/tinymaix/src/tm_stat.c ****     sizeof(tml_reshape_t),
  41:lib/tinymaix/src/tm_stat.c ****     sizeof(tml_conv2d_dw_t),
  42:lib/tinymaix/src/tm_stat.c ****     sizeof(tml_add_t),
  43:lib/tinymaix/src/tm_stat.c **** };
  44:lib/tinymaix/src/tm_stat.c **** 
  45:lib/tinymaix/src/tm_stat.c **** tm_err_t tm_stat(tm_mdlbin_t* b)
  46:lib/tinymaix/src/tm_stat.c **** {   
  21              		.loc 1 46 1
  22              		.cfi_startproc
  23              	.LVL0:
  47:lib/tinymaix/src/tm_stat.c ****     printf("================================ model stat ================================\r\n");
  24              		.loc 1 47 5
  46:lib/tinymaix/src/tm_stat.c ****     printf("================================ model stat ================================\r\n");
  25              		.loc 1 46 1 is_stmt 0
  26 0000 7571     		addi	sp,sp,-144
  27              	.LCFI0:
  28              		.cfi_def_cfa_offset 144
  29 0002 4AC1     		sw	s2,128(sp)
  30              		.cfi_offset 18, -16
  31 0004 2A89     		mv	s2,a0
  32              		.loc 1 47 5
  33 0006 37050000 		lui	a0,%hi(.LC0)
  34              	.LVL1:
  35 000a 13050500 		addi	a0,a0,%lo(.LC0)
  46:lib/tinymaix/src/tm_stat.c ****     printf("================================ model stat ================================\r\n");
  36              		.loc 1 46 1
  37 000e 06C7     		sw	ra,140(sp)
  38 0010 22C5     		sw	s0,136(sp)
  39 0012 D2DC     		sw	s4,120(sp)
  40 0014 D6DA     		sw	s5,116(sp)
  41 0016 DAD8     		sw	s6,112(sp)
  42 0018 DED6     		sw	s7,108(sp)
  43 001a E2D4     		sw	s8,104(sp)
  44 001c E6D2     		sw	s9,100(sp)
  45 001e EAD0     		sw	s10,96(sp)
  46 0020 26C3     		sw	s1,132(sp)
  47 0022 CEDE     		sw	s3,124(sp)
  48              		.cfi_offset 1, -4
  49              		.cfi_offset 8, -8
  50              		.cfi_offset 20, -24
  51              		.cfi_offset 21, -28
  52              		.cfi_offset 22, -32
  53              		.cfi_offset 23, -36
  54              		.cfi_offset 24, -40
  55              		.cfi_offset 25, -44
  56              		.cfi_offset 26, -48
  57              		.cfi_offset 9, -12
  58              		.cfi_offset 19, -20
  59              		.loc 1 47 5
  60 0024 97000000 		call	puts
  60      E7800000 
  61              	.LVL2:
  48:lib/tinymaix/src/tm_stat.c ****     printf("mdl_type=%d (%s))\r\n", b->mdl_type, mdl_type_str[b->mdl_type]);
  62              		.loc 1 48 5 is_stmt 1
  63 002c 83454900 		lbu	a1,4(s2)
  64 0030 B7070000 		lui	a5,%hi(.LANCHOR0)
GAS LISTING C:\Users\Jesper\AppData\Local\Temp\cc0J3Ydy.s 			page 3


  65 0034 93870700 		addi	a5,a5,%lo(.LANCHOR0)
  66 0038 13972500 		slli	a4,a1,2
  67 003c BA97     		add	a5,a5,a4
  68 003e 9043     		lw	a2,0(a5)
  69 0040 37050000 		lui	a0,%hi(.LC1)
  70 0044 13050500 		addi	a0,a0,%lo(.LC1)
  71 0048 97000000 		call	printf
  71      E7800000 
  72              	.LVL3:
  49:lib/tinymaix/src/tm_stat.c ****     printf("out_deq=%d \r\n", b->out_deq);
  73              		.loc 1 49 5
  74 0050 83455900 		lbu	a1,5(s2)
  75 0054 37050000 		lui	a0,%hi(.LC2)
  76 0058 13050500 		addi	a0,a0,%lo(.LC2)
  77 005c 97000000 		call	printf
  77      E7800000 
  78              	.LVL4:
  50:lib/tinymaix/src/tm_stat.c ****     printf("input_cnt=%d, output_cnt=%d, layer_cnt=%d\r\n", b->input_cnt, b->output_cnt, b->layer_c
  79              		.loc 1 50 5
  80 0064 8356A900 		lhu	a3,10(s2)
  81 0068 03568900 		lhu	a2,8(s2)
  82 006c 83556900 		lhu	a1,6(s2)
  83 0070 37050000 		lui	a0,%hi(.LC3)
  84 0074 13050500 		addi	a0,a0,%lo(.LC3)
  85 0078 97000000 		call	printf
  85      E7800000 
  86              	.LVL5:
  51:lib/tinymaix/src/tm_stat.c ****     uint16_t* idim = b->in_dims;
  87              		.loc 1 51 5
  52:lib/tinymaix/src/tm_stat.c ****     printf("input %ddims: (%d, %d, %d)\r\n", idim[0],idim[1],idim[2],idim[3]);
  88              		.loc 1 52 5
  89 0080 0357A901 		lhu	a4,26(s2)
  90 0084 83568901 		lhu	a3,24(s2)
  91 0088 03566901 		lhu	a2,22(s2)
  92 008c 83554901 		lhu	a1,20(s2)
  93 0090 37050000 		lui	a0,%hi(.LC4)
  94 0094 13050500 		addi	a0,a0,%lo(.LC4)
  95 0098 97000000 		call	printf
  95      E7800000 
  96              	.LVL6:
  53:lib/tinymaix/src/tm_stat.c ****     uint16_t* odim = b->out_dims;
  97              		.loc 1 53 5
  54:lib/tinymaix/src/tm_stat.c ****     printf("output %ddims: (%d, %d, %d)\r\n", odim[0],odim[1],odim[2],odim[3]);
  98              		.loc 1 54 5
  99 00a0 03572902 		lhu	a4,34(s2)
 100 00a4 83560902 		lhu	a3,32(s2)
 101 00a8 0356E901 		lhu	a2,30(s2)
 102 00ac 8355C901 		lhu	a1,28(s2)
 103 00b0 37050000 		lui	a0,%hi(.LC5)
 104 00b4 13050500 		addi	a0,a0,%lo(.LC5)
 105 00b8 97000000 		call	printf
 105      E7800000 
 106              	.LVL7:
  55:lib/tinymaix/src/tm_stat.c ****     //printf("model param bin addr: 0x%x\r\n", (uint32_t)(b->layers_body));
  56:lib/tinymaix/src/tm_stat.c ****     printf("main buf size %d; sub buf size %d\r\n", \
 107              		.loc 1 56 5
 108 00c0 03260901 		lw	a2,16(s2)
GAS LISTING C:\Users\Jesper\AppData\Local\Temp\cc0J3Ydy.s 			page 4


 109 00c4 8325C900 		lw	a1,12(s2)
 110 00c8 37050000 		lui	a0,%hi(.LC6)
 111 00cc 13050500 		addi	a0,a0,%lo(.LC6)
 112 00d0 97000000 		call	printf
 112      E7800000 
 113              	.LVL8:
  57:lib/tinymaix/src/tm_stat.c ****         b->buf_size,b->sub_size);
  58:lib/tinymaix/src/tm_stat.c **** 
  59:lib/tinymaix/src/tm_stat.c ****     printf("//Note: PARAM is layer param size, include align padding\r\n\r\n");
 114              		.loc 1 59 5
 115 00d8 37050000 		lui	a0,%hi(.LC7)
 116 00dc 13050500 		addi	a0,a0,%lo(.LC7)
 117 00e0 97000000 		call	puts
 117      E7800000 
 118              	.LVL9:
  60:lib/tinymaix/src/tm_stat.c ****     printf("Idx\tLayer\t         outshape\tinoft\toutoft\tPARAM\tMEMOUT OPS\r\n");
 119              		.loc 1 60 5
 120 00e8 37050000 		lui	a0,%hi(.LC8)
 121 00ec 13050500 		addi	a0,a0,%lo(.LC8)
 122 00f0 97000000 		call	puts
 122      E7800000 
 123              	.LVL10:
  61:lib/tinymaix/src/tm_stat.c ****     printf("---\tInput    \t%3d,%3d,%3d\t-   \t0    \t0 \t%ld \t0\r\n",\
 124              		.loc 1 61 5
 125 00f8 83556901 		lhu	a1,22(s2)
 126 00fc 03568901 		lhu	a2,24(s2)
 127 0100 8356A901 		lhu	a3,26(s2)
 128 0104 37050000 		lui	a0,%hi(.LC9)
  62:lib/tinymaix/src/tm_stat.c ****         idim[1],idim[2],idim[3], (long int)(idim[1]*idim[2]*idim[3]*sizeof(mtype_t)));
 129              		.loc 1 62 52 is_stmt 0
 130 0108 3387C502 		mul	a4,a1,a2
  61:lib/tinymaix/src/tm_stat.c ****     printf("---\tInput    \t%3d,%3d,%3d\t-   \t0    \t0 \t%ld \t0\r\n",\
 131              		.loc 1 61 5
 132 010c 13050500 		addi	a0,a0,%lo(.LC9)
 133              	.LBB2:
 134              	.LBB3:
  63:lib/tinymaix/src/tm_stat.c ****     //      000  Input    -     224,224,3  0x40001234 0x40004000 100000 500000 200000
  64:lib/tinymaix/src/tm_stat.c ****     //printf("000  Input    -     %3d,%3d,%d  0x%08x   0x%08x     %6d %6d %6d\r\n",) 
  65:lib/tinymaix/src/tm_stat.c ****     int sum_param = 0;
  66:lib/tinymaix/src/tm_stat.c ****     int sum_ops   = 0;
  67:lib/tinymaix/src/tm_stat.c ****     uint8_t*layer_body  = (uint8_t*)b->layers_body;
  68:lib/tinymaix/src/tm_stat.c ****     int layer_i;
  69:lib/tinymaix/src/tm_stat.c ****     for(layer_i = 0; layer_i < b->layer_cnt; layer_i++){
  70:lib/tinymaix/src/tm_stat.c ****         tml_head_t* h = (tml_head_t*)(layer_body);
  71:lib/tinymaix/src/tm_stat.c ****         TM_DBG("body oft = %d\r\n", (uint32_t)((size_t)h - (size_t)(b)));
  72:lib/tinymaix/src/tm_stat.c ****         TM_DBG("type=%d, is_out=%d, size=%d, in_oft=%d, out_oft=%d, in_dims=[%d,%d,%d,%d], out_dims
  73:lib/tinymaix/src/tm_stat.c ****                 h->type,h->is_out,h->size,h->in_oft,h->out_oft,\
  74:lib/tinymaix/src/tm_stat.c ****                 h->in_dims[0],h->in_dims[1],h->in_dims[2],h->in_dims[3],\
  75:lib/tinymaix/src/tm_stat.c ****                 h->out_dims[0],h->out_dims[1],h->out_dims[2],h->out_dims[3],\
  76:lib/tinymaix/src/tm_stat.c ****                 h->in_s,(int32_t)(h->in_zp),h->out_s,(int32_t)(h->out_zp));
  77:lib/tinymaix/src/tm_stat.c ****         if(h->type < TML_MAXCNT) {
  78:lib/tinymaix/src/tm_stat.c ****             int memout = h->out_dims[1]*h->out_dims[2]*h->out_dims[3];
  79:lib/tinymaix/src/tm_stat.c ****             sum_param += (h->size - tml_headsize_tbl[h->type]);
 135              		.loc 1 79 53
 136 0110 B70B0000 		lui	s7,%hi(.LANCHOR1)
  80:lib/tinymaix/src/tm_stat.c ****             int ops = 0;
  81:lib/tinymaix/src/tm_stat.c ****             switch(h->type){
GAS LISTING C:\Users\Jesper\AppData\Local\Temp\cc0J3Ydy.s 			page 5


 137              		.loc 1 81 13
 138 0114 B70C0000 		lui	s9,%hi(.L6)
  82:lib/tinymaix/src/tm_stat.c ****             case TML_CONV2D: {
  83:lib/tinymaix/src/tm_stat.c ****                 tml_conv2d_dw_t* l = (tml_conv2d_dw_t*)(layer_body);
  84:lib/tinymaix/src/tm_stat.c ****                 ops = memout*(l->kernel_w)*(l->kernel_h)*(h->in_dims[3]);   //MAC as ops
  85:lib/tinymaix/src/tm_stat.c ****                 TM_DBG("Conv2d: kw=%d, kh=%d, sw=%d, sh=%d, dw=%d, dh=%d, act=%d, pad=[%d,%d,%d,%d]
  86:lib/tinymaix/src/tm_stat.c ****                     l->kernel_w, l->kernel_h, l->stride_w, l->stride_h, l->dilation_w, l->dilation_
  87:lib/tinymaix/src/tm_stat.c ****                     l->act, l->pad[0], l->pad[1], l->pad[2], l->pad[3], l->depth_mul, \
  88:lib/tinymaix/src/tm_stat.c ****                     l->ws_oft, l->w_oft, l->b_oft);
  89:lib/tinymaix/src/tm_stat.c ****                 break;}
  90:lib/tinymaix/src/tm_stat.c ****             case TML_GAP:
  91:lib/tinymaix/src/tm_stat.c ****                 ops = (h->in_dims[1])*(h->in_dims[2])*(h->in_dims[3]);  //SUM as ops
  92:lib/tinymaix/src/tm_stat.c ****                 break;
  93:lib/tinymaix/src/tm_stat.c ****             case TML_FC: {
  94:lib/tinymaix/src/tm_stat.c ****                 tml_fc_t* l = (tml_fc_t*)(layer_body);
  95:lib/tinymaix/src/tm_stat.c ****                 ops = (h->out_dims[3])*(h->in_dims[3]);         //MAC as ops
  96:lib/tinymaix/src/tm_stat.c ****                 TM_DBG("FC: ws_oft=%d, w_oft=%d, b_oft=%d\r\n",\
  97:lib/tinymaix/src/tm_stat.c ****                     l->ws_oft, l->w_oft, l->b_oft);
  98:lib/tinymaix/src/tm_stat.c ****                 break;}
  99:lib/tinymaix/src/tm_stat.c ****             case TML_SOFTMAX:
 100:lib/tinymaix/src/tm_stat.c ****                 ops = 6*(h->out_dims[3]);                       //mixed
 101:lib/tinymaix/src/tm_stat.c ****                 break;
 102:lib/tinymaix/src/tm_stat.c ****             case TML_DWCONV2D: {
 103:lib/tinymaix/src/tm_stat.c ****                 tml_conv2d_dw_t* l = (tml_conv2d_dw_t*)(layer_body);
 104:lib/tinymaix/src/tm_stat.c ****                 ops = memout*(l->kernel_w)*(l->kernel_h)*1;   //MAC as ops
 105:lib/tinymaix/src/tm_stat.c ****                 TM_DBG("DWConv2d: kw=%d, kh=%d, sw=%d, sh=%d, dw=%d, dh=%d, act=%d, pad=[%d,%d,%d,%
 106:lib/tinymaix/src/tm_stat.c ****                     l->kernel_w, l->kernel_h, l->stride_w, l->stride_h, l->dilation_w, l->dilation_
 107:lib/tinymaix/src/tm_stat.c ****                     l->act, l->pad[0], l->pad[1], l->pad[2], l->pad[3], l->depth_mul,\
 108:lib/tinymaix/src/tm_stat.c ****                     l->ws_oft, l->w_oft, l->b_oft);
 109:lib/tinymaix/src/tm_stat.c ****                 break;}
 110:lib/tinymaix/src/tm_stat.c ****             default:
 111:lib/tinymaix/src/tm_stat.c ****                 ops = 0;
 112:lib/tinymaix/src/tm_stat.c ****                 break;
 113:lib/tinymaix/src/tm_stat.c ****             }
 114:lib/tinymaix/src/tm_stat.c ****             sum_ops += ops;
 115:lib/tinymaix/src/tm_stat.c ****             printf("%03d\t%s      \t%3d,%3d,%3d\t%d\t%d\t%d\t%ld\t", layer_i, tml_str_tbl[h->type],
 139              		.loc 1 115 13
 140 0118 370D0000 		lui	s10,%hi(.LANCHOR2)
 141              	.LBE3:
 142              	.LBE2:
  67:lib/tinymaix/src/tm_stat.c ****     int layer_i;
 143              		.loc 1 67 13
 144 011c 13040904 		addi	s0,s2,64
  69:lib/tinymaix/src/tm_stat.c ****         tml_head_t* h = (tml_head_t*)(layer_body);
 145              		.loc 1 69 17
 146 0120 014B     		li	s6,0
  66:lib/tinymaix/src/tm_stat.c ****     uint8_t*layer_body  = (uint8_t*)b->layers_body;
 147              		.loc 1 66 9
 148 0122 014C     		li	s8,0
  65:lib/tinymaix/src/tm_stat.c ****     int sum_ops   = 0;
 149              		.loc 1 65 9
 150 0124 014A     		li	s4,0
 151              	.LBB12:
  71:lib/tinymaix/src/tm_stat.c ****         TM_DBG("type=%d, is_out=%d, size=%d, in_oft=%d, out_oft=%d, in_dims=[%d,%d,%d,%d], out_dims
 152              		.loc 1 71 9
 153 0126 B70A0000 		lui	s5,%hi(.LC10)
 154              	.LBE12:
GAS LISTING C:\Users\Jesper\AppData\Local\Temp\cc0J3Ydy.s 			page 6


  61:lib/tinymaix/src/tm_stat.c ****         idim[1],idim[2],idim[3], (long int)(idim[1]*idim[2]*idim[3]*sizeof(mtype_t)));
 155              		.loc 1 61 5
 156 012a 3307D702 		mul	a4,a4,a3
 157              	.LBB13:
 158              	.LBB8:
  79:lib/tinymaix/src/tm_stat.c ****             int ops = 0;
 159              		.loc 1 79 53
 160 012e 938B0B00 		addi	s7,s7,%lo(.LANCHOR1)
  81:lib/tinymaix/src/tm_stat.c ****             case TML_CONV2D: {
 161              		.loc 1 81 13
 162 0132 938C0C00 		addi	s9,s9,%lo(.L6)
 163              		.loc 1 115 13
 164 0136 130D0D00 		addi	s10,s10,%lo(.LANCHOR2)
 165              	.LBE8:
 166              	.LBE13:
  61:lib/tinymaix/src/tm_stat.c ****         idim[1],idim[2],idim[3], (long int)(idim[1]*idim[2]*idim[3]*sizeof(mtype_t)));
 167              		.loc 1 61 5
 168 013a 97000000 		call	printf
 168      E7800000 
 169              	.LVL11:
  65:lib/tinymaix/src/tm_stat.c ****     int sum_ops   = 0;
 170              		.loc 1 65 5 is_stmt 1
  66:lib/tinymaix/src/tm_stat.c ****     uint8_t*layer_body  = (uint8_t*)b->layers_body;
 171              		.loc 1 66 5
  67:lib/tinymaix/src/tm_stat.c ****     int layer_i;
 172              		.loc 1 67 5
  68:lib/tinymaix/src/tm_stat.c ****     for(layer_i = 0; layer_i < b->layer_cnt; layer_i++){
 173              		.loc 1 68 5
  69:lib/tinymaix/src/tm_stat.c ****         tml_head_t* h = (tml_head_t*)(layer_body);
 174              		.loc 1 69 5
 175              	.L2:
  69:lib/tinymaix/src/tm_stat.c ****         tml_head_t* h = (tml_head_t*)(layer_body);
 176              		.loc 1 69 33 is_stmt 0 discriminator 1
 177 0142 8357A900 		lhu	a5,10(s2)
  69:lib/tinymaix/src/tm_stat.c ****         tml_head_t* h = (tml_head_t*)(layer_body);
 178              		.loc 1 69 5 discriminator 1
 179 0146 6342FB0A 		bgt	a5,s6,.L11
 116:lib/tinymaix/src/tm_stat.c ****                 h->out_dims[1], h->out_dims[2], h->out_dims[3], \
 117:lib/tinymaix/src/tm_stat.c ****                 h->in_oft, h->out_oft, h->size - tml_headsize_tbl[h->type], \
 118:lib/tinymaix/src/tm_stat.c ****                 (long int)(memout*sizeof(mtype_t)));
 119:lib/tinymaix/src/tm_stat.c ****             printf("%d\r\n", ops);
 120:lib/tinymaix/src/tm_stat.c ****         } else {
 121:lib/tinymaix/src/tm_stat.c ****             return TM_ERR_LAYERTYPE;
 122:lib/tinymaix/src/tm_stat.c ****         }
 123:lib/tinymaix/src/tm_stat.c ****         layer_body += (h->size);
 124:lib/tinymaix/src/tm_stat.c ****     }
 125:lib/tinymaix/src/tm_stat.c ****     printf("\r\nTotal param ~%.1f KB, OPS ~%.2f MOPS, buffer %.1f KB\r\n\r\n", \
 180              		.loc 1 125 5 is_stmt 1
 126:lib/tinymaix/src/tm_stat.c ****         sum_param/1024.0, sum_ops/1000000.0, (b->buf_size + b->sub_size)/1024.0);
 181              		.loc 1 126 59 is_stmt 0
 182 014a 83270901 		lw	a5,16(s2)
 183 014e 0325C900 		lw	a0,12(s2)
 125:lib/tinymaix/src/tm_stat.c ****         sum_param/1024.0, sum_ops/1000000.0, (b->buf_size + b->sub_size)/1024.0);
 184              		.loc 1 125 5
 185 0152 37040000 		lui	s0,%hi(.LC18)
 186              	.LVL12:
 187 0156 3E95     		add	a0,a0,a5
GAS LISTING C:\Users\Jesper\AppData\Local\Temp\cc0J3Ydy.s 			page 7


 188 0158 97000000 		call	__floatunsidf
 188      E7800000 
 189              	.LVL13:
 190 0160 03260400 		lw	a2,%lo(.LC18)(s0)
 191 0164 83264400 		lw	a3,%lo(.LC18+4)(s0)
 192 0168 97000000 		call	__muldf3
 192      E7800000 
 193              	.LVL14:
 194 0170 AAC4     		sw	a0,72(sp)
 195 0172 6285     		mv	a0,s8
 196 0174 AEC6     		sw	a1,76(sp)
 197 0176 97000000 		call	__floatsidf
 197      E7800000 
 198              	.LVL15:
 199 017e B7070000 		lui	a5,%hi(.LC19)
 200 0182 03A60700 		lw	a2,%lo(.LC19)(a5)
 201 0186 83A64700 		lw	a3,%lo(.LC19+4)(a5)
 202 018a 97000000 		call	__divdf3
 202      E7800000 
 203              	.LVL16:
 204 0192 AAC0     		sw	a0,64(sp)
 205 0194 5285     		mv	a0,s4
 206 0196 AEC2     		sw	a1,68(sp)
 207 0198 97000000 		call	__floatsidf
 207      E7800000 
 208              	.LVL17:
 209 01a0 03260400 		lw	a2,%lo(.LC18)(s0)
 210 01a4 83264400 		lw	a3,%lo(.LC18+4)(s0)
 211 01a8 97000000 		call	__muldf3
 211      E7800000 
 212              	.LVL18:
 213 01b0 2648     		lw	a6,72(sp)
 214 01b2 B648     		lw	a7,76(sp)
 215 01b4 0647     		lw	a4,64(sp)
 216 01b6 9647     		lw	a5,68(sp)
 217 01b8 2A86     		mv	a2,a0
 218 01ba 37050000 		lui	a0,%hi(.LC20)
 219 01be AE86     		mv	a3,a1
 220 01c0 13050500 		addi	a0,a0,%lo(.LC20)
 221 01c4 97000000 		call	printf
 221      E7800000 
 222              	.LVL19:
 127:lib/tinymaix/src/tm_stat.c ****     return TM_OK;
 223              		.loc 1 127 5 is_stmt 1
 224              		.loc 1 127 12 is_stmt 0
 225 01cc 0145     		li	a0,0
 226              	.L1:
 128:lib/tinymaix/src/tm_stat.c **** } 
 227              		.loc 1 128 1
 228 01ce BA40     		lw	ra,140(sp)
 229              		.cfi_remember_state
 230              		.cfi_restore 1
 231 01d0 2A44     		lw	s0,136(sp)
 232              		.cfi_restore 8
 233 01d2 9A44     		lw	s1,132(sp)
 234              		.cfi_restore 9
 235 01d4 0A49     		lw	s2,128(sp)
GAS LISTING C:\Users\Jesper\AppData\Local\Temp\cc0J3Ydy.s 			page 8


 236              		.cfi_restore 18
 237              	.LVL20:
 238 01d6 F659     		lw	s3,124(sp)
 239              		.cfi_restore 19
 240 01d8 665A     		lw	s4,120(sp)
 241              		.cfi_restore 20
 242              	.LVL21:
 243 01da D65A     		lw	s5,116(sp)
 244              		.cfi_restore 21
 245 01dc 465B     		lw	s6,112(sp)
 246              		.cfi_restore 22
 247              	.LVL22:
 248 01de B65B     		lw	s7,108(sp)
 249              		.cfi_restore 23
 250 01e0 265C     		lw	s8,104(sp)
 251              		.cfi_restore 24
 252              	.LVL23:
 253 01e2 965C     		lw	s9,100(sp)
 254              		.cfi_restore 25
 255 01e4 065D     		lw	s10,96(sp)
 256              		.cfi_restore 26
 257 01e6 4961     		addi	sp,sp,144
 258              	.LCFI1:
 259              		.cfi_def_cfa_offset 0
 260 01e8 8280     		jr	ra
 261              	.LVL24:
 262              	.L11:
 263              	.LCFI2:
 264              		.cfi_restore_state
 265              	.LBB14:
  70:lib/tinymaix/src/tm_stat.c ****         TM_DBG("body oft = %d\r\n", (uint32_t)((size_t)h - (size_t)(b)));
 266              		.loc 1 70 9 is_stmt 1
  71:lib/tinymaix/src/tm_stat.c ****         TM_DBG("type=%d, is_out=%d, size=%d, in_oft=%d, out_oft=%d, in_dims=[%d,%d,%d,%d], out_dims
 267              		.loc 1 71 9
 268 01ea 93057004 		li	a1,71
 269 01ee 13850A00 		addi	a0,s5,%lo(.LC10)
 270 01f2 97000000 		call	printf
 270      E7800000 
 271              	.LVL25:
  71:lib/tinymaix/src/tm_stat.c ****         TM_DBG("type=%d, is_out=%d, size=%d, in_oft=%d, out_oft=%d, in_dims=[%d,%d,%d,%d], out_dims
 272              		.loc 1 71 9
 273 01fa 0145     		li	a0,0
 274 01fc 97000000 		call	fflush
 274      E7800000 
 275              	.LVL26:
  71:lib/tinymaix/src/tm_stat.c ****         TM_DBG("type=%d, is_out=%d, size=%d, in_oft=%d, out_oft=%d, in_dims=[%d,%d,%d,%d], out_dims
 276              		.loc 1 71 9
  71:lib/tinymaix/src/tm_stat.c ****         TM_DBG("type=%d, is_out=%d, size=%d, in_oft=%d, out_oft=%d, in_dims=[%d,%d,%d,%d], out_dims
 277              		.loc 1 71 9
 278 0204 37050000 		lui	a0,%hi(.LC11)
 279 0208 B3052441 		sub	a1,s0,s2
 280 020c 13050500 		addi	a0,a0,%lo(.LC11)
 281 0210 97000000 		call	printf
 281      E7800000 
 282              	.LVL27:
  71:lib/tinymaix/src/tm_stat.c ****         TM_DBG("type=%d, is_out=%d, size=%d, in_oft=%d, out_oft=%d, in_dims=[%d,%d,%d,%d], out_dims
 283              		.loc 1 71 9
GAS LISTING C:\Users\Jesper\AppData\Local\Temp\cc0J3Ydy.s 			page 9


 284 0218 0145     		li	a0,0
 285 021a 97000000 		call	fflush
 285      E7800000 
 286              	.LVL28:
  71:lib/tinymaix/src/tm_stat.c ****         TM_DBG("type=%d, is_out=%d, size=%d, in_oft=%d, out_oft=%d, in_dims=[%d,%d,%d,%d], out_dims
 287              		.loc 1 71 9
  71:lib/tinymaix/src/tm_stat.c ****         TM_DBG("type=%d, is_out=%d, size=%d, in_oft=%d, out_oft=%d, in_dims=[%d,%d,%d,%d], out_dims
 288              		.loc 1 71 73
  72:lib/tinymaix/src/tm_stat.c ****                 h->type,h->is_out,h->size,h->in_oft,h->out_oft,\
 289              		.loc 1 72 9
 290 0222 9305C004 		li	a1,76
 291 0226 13850A00 		addi	a0,s5,%lo(.LC10)
 292 022a 97000000 		call	printf
 292      E7800000 
 293              	.LVL29:
  72:lib/tinymaix/src/tm_stat.c ****                 h->type,h->is_out,h->size,h->in_oft,h->out_oft,\
 294              		.loc 1 72 9
 295 0232 0145     		li	a0,0
 296 0234 97000000 		call	fflush
 296      E7800000 
 297              	.LVL30:
  72:lib/tinymaix/src/tm_stat.c ****                 h->type,h->is_out,h->size,h->in_oft,h->out_oft,\
 298              		.loc 1 72 9
  72:lib/tinymaix/src/tm_stat.c ****                 h->type,h->is_out,h->size,h->in_oft,h->out_oft,\
 299              		.loc 1 72 9
 300 023c 4C54     		lw	a1,44(s0)
 301 023e 83582401 		lhu	a7,18(s0)
 302 0242 03580401 		lhu	a6,16(s0)
 303 0246 5C44     		lw	a5,12(s0)
 304 0248 1844     		lw	a4,8(s0)
 305 024a 5440     		lw	a3,4(s0)
 306 024c 03562400 		lhu	a2,2(s0)
 307 0250 83540400 		lhu	s1,0(s0)
 308 0254 2ED8     		sw	a1,48(sp)
 309 0256 0854     		lw	a0,40(s0)
 310 0258 C6CE     		sw	a7,92(sp)
 311 025a C2CC     		sw	a6,88(sp)
 312 025c BECA     		sw	a5,84(sp)
 313 025e BAC8     		sw	a4,80(sp)
 314 0260 B6C4     		sw	a3,72(sp)
 315 0262 B2C0     		sw	a2,64(sp)
 316 0264 97000000 		call	__extendsfdf2
 316      E7800000 
 317              	.LVL31:
 318 026c 2AD4     		sw	a0,40(sp)
 319 026e 2ED6     		sw	a1,44(sp)
 320 0270 4C50     		lw	a1,36(s0)
 321 0272 2ED0     		sw	a1,32(sp)
 322 0274 0850     		lw	a0,32(s0)
 323 0276 97000000 		call	__extendsfdf2
 323      E7800000 
 324              	.LVL32:
 325 027e 2ACC     		sw	a0,24(sp)
 326 0280 2ECE     		sw	a1,28(sp)
 327 0282 8355E401 		lhu	a1,30(s0)
 328 0286 D647     		lw	a5,84(sp)
 329 0288 4647     		lw	a4,80(sp)
GAS LISTING C:\Users\Jesper\AppData\Local\Temp\cc0J3Ydy.s 			page 10


 330 028a 2ECA     		sw	a1,20(sp)
 331 028c 8355C401 		lhu	a1,28(s0)
 332 0290 F648     		lw	a7,92(sp)
 333 0292 6648     		lw	a6,88(sp)
 334 0294 2EC8     		sw	a1,16(sp)
 335 0296 8355A401 		lhu	a1,26(s0)
 336 029a A646     		lw	a3,72(sp)
 337 029c 37050000 		lui	a0,%hi(.LC12)
 338 02a0 2EC6     		sw	a1,12(sp)
 339 02a2 83558401 		lhu	a1,24(s0)
 340 02a6 13050500 		addi	a0,a0,%lo(.LC12)
 341 02aa 2EC4     		sw	a1,8(sp)
 342 02ac 83556401 		lhu	a1,22(s0)
 343 02b0 2EC2     		sw	a1,4(sp)
 344 02b2 83554401 		lhu	a1,20(s0)
 345 02b6 2EC0     		sw	a1,0(sp)
 346 02b8 0646     		lw	a2,64(sp)
 347 02ba A685     		mv	a1,s1
 348 02bc 97000000 		call	printf
 348      E7800000 
 349              	.LVL33:
  72:lib/tinymaix/src/tm_stat.c ****                 h->type,h->is_out,h->size,h->in_oft,h->out_oft,\
 350              		.loc 1 72 9
 351 02c4 0145     		li	a0,0
 352 02c6 97000000 		call	fflush
 352      E7800000 
 353              	.LVL34:
  72:lib/tinymaix/src/tm_stat.c ****                 h->type,h->is_out,h->size,h->in_oft,h->out_oft,\
 354              		.loc 1 72 9
  76:lib/tinymaix/src/tm_stat.c ****         if(h->type < TML_MAXCNT) {
 355              		.loc 1 76 75
  77:lib/tinymaix/src/tm_stat.c ****             int memout = h->out_dims[1]*h->out_dims[2]*h->out_dims[3];
 356              		.loc 1 77 9
  77:lib/tinymaix/src/tm_stat.c ****             int memout = h->out_dims[1]*h->out_dims[2]*h->out_dims[3];
 357              		.loc 1 77 13 is_stmt 0
 358 02ce 03570400 		lhu	a4,0(s0)
  77:lib/tinymaix/src/tm_stat.c ****             int memout = h->out_dims[1]*h->out_dims[2]*h->out_dims[3];
 359              		.loc 1 77 11
 360 02d2 9947     		li	a5,6
 361 02d4 63E9E71E 		bgtu	a4,a5,.L12
 362              	.LBB9:
  78:lib/tinymaix/src/tm_stat.c ****             sum_param += (h->size - tml_headsize_tbl[h->type]);
 363              		.loc 1 78 13 is_stmt 1
  78:lib/tinymaix/src/tm_stat.c ****             sum_param += (h->size - tml_headsize_tbl[h->type]);
 364              		.loc 1 78 52 is_stmt 0
 365 02d8 8357C401 		lhu	a5,28(s0)
  78:lib/tinymaix/src/tm_stat.c ****             sum_param += (h->size - tml_headsize_tbl[h->type]);
 366              		.loc 1 78 37
 367 02dc 8359A401 		lhu	s3,26(s0)
  78:lib/tinymaix/src/tm_stat.c ****             sum_param += (h->size - tml_headsize_tbl[h->type]);
 368              		.loc 1 78 67
 369 02e0 8354E401 		lhu	s1,30(s0)
  78:lib/tinymaix/src/tm_stat.c ****             sum_param += (h->size - tml_headsize_tbl[h->type]);
 370              		.loc 1 78 40
 371 02e4 B389F902 		mul	s3,s3,a5
  79:lib/tinymaix/src/tm_stat.c ****             int ops = 0;
 372              		.loc 1 79 23
GAS LISTING C:\Users\Jesper\AppData\Local\Temp\cc0J3Ydy.s 			page 11


 373 02e8 5C40     		lw	a5,4(s0)
 374 02ea 3E9A     		add	s4,s4,a5
 375              	.LVL35:
  79:lib/tinymaix/src/tm_stat.c ****             int ops = 0;
 376              		.loc 1 79 53
 377 02ec 93172700 		slli	a5,a4,2
 378 02f0 B386FB00 		add	a3,s7,a5
  79:lib/tinymaix/src/tm_stat.c ****             int ops = 0;
 379              		.loc 1 79 23
 380 02f4 9442     		lw	a3,0(a3)
 381 02f6 330ADA40 		sub	s4,s4,a3
  81:lib/tinymaix/src/tm_stat.c ****             case TML_CONV2D: {
 382              		.loc 1 81 13
 383 02fa 9546     		li	a3,5
  78:lib/tinymaix/src/tm_stat.c ****             sum_param += (h->size - tml_headsize_tbl[h->type]);
 384              		.loc 1 78 17
 385 02fc B3899902 		mul	s3,s3,s1
 386              	.LVL36:
  79:lib/tinymaix/src/tm_stat.c ****             int ops = 0;
 387              		.loc 1 79 13 is_stmt 1
  80:lib/tinymaix/src/tm_stat.c ****             switch(h->type){
 388              		.loc 1 80 13
  81:lib/tinymaix/src/tm_stat.c ****             case TML_CONV2D: {
 389              		.loc 1 81 13
 390 0300 63E1E61C 		bgtu	a4,a3,.L13
 391 0304 E697     		add	a5,a5,s9
 392 0306 9C43     		lw	a5,0(a5)
 393 0308 8287     		jr	a5
 394              		.section	.rodata.tm_stat,"a",@progbits
 395              		.align	2
 396              		.align	2
 397              	.L6:
 398 0000 00000000 		.word	.L10
 399 0004 00000000 		.word	.L9
 400 0008 00000000 		.word	.L8
 401 000c 00000000 		.word	.L7
 402 0010 00000000 		.word	.L13
 403 0014 00000000 		.word	.L5
 404              		.section	.text.tm_stat
 405              	.L10:
 406              	.LBB4:
  83:lib/tinymaix/src/tm_stat.c ****                 ops = memout*(l->kernel_w)*(l->kernel_h)*(h->in_dims[3]);   //MAC as ops
 407              		.loc 1 83 17
 408              	.LVL37:
  84:lib/tinymaix/src/tm_stat.c ****                 TM_DBG("Conv2d: kw=%d, kh=%d, sw=%d, sh=%d, dw=%d, dh=%d, act=%d, pad=[%d,%d,%d,%d]
 409              		.loc 1 84 17
  84:lib/tinymaix/src/tm_stat.c ****                 TM_DBG("Conv2d: kw=%d, kh=%d, sw=%d, sh=%d, dw=%d, dh=%d, act=%d, pad=[%d,%d,%d,%d]
 410              		.loc 1 84 32 is_stmt 0
 411 030a 83440403 		lbu	s1,48(s0)
  84:lib/tinymaix/src/tm_stat.c ****                 TM_DBG("Conv2d: kw=%d, kh=%d, sw=%d, sh=%d, dw=%d, dh=%d, act=%d, pad=[%d,%d,%d,%d]
 412              		.loc 1 84 46
 413 030e 83471403 		lbu	a5,49(s0)
  85:lib/tinymaix/src/tm_stat.c ****                     l->kernel_w, l->kernel_h, l->stride_w, l->stride_h, l->dilation_w, l->dilation_
 414              		.loc 1 85 17
 415 0312 93058005 		li	a1,88
  84:lib/tinymaix/src/tm_stat.c ****                 TM_DBG("Conv2d: kw=%d, kh=%d, sw=%d, sh=%d, dw=%d, dh=%d, act=%d, pad=[%d,%d,%d,%d]
 416              		.loc 1 84 29
GAS LISTING C:\Users\Jesper\AppData\Local\Temp\cc0J3Ydy.s 			page 12


 417 0316 B3843403 		mul	s1,s1,s3
  85:lib/tinymaix/src/tm_stat.c ****                     l->kernel_w, l->kernel_h, l->stride_w, l->stride_h, l->dilation_w, l->dilation_
 418              		.loc 1 85 17
 419 031a 13850A00 		addi	a0,s5,%lo(.LC10)
  84:lib/tinymaix/src/tm_stat.c ****                 TM_DBG("Conv2d: kw=%d, kh=%d, sw=%d, sh=%d, dw=%d, dh=%d, act=%d, pad=[%d,%d,%d,%d]
 420              		.loc 1 84 43
 421 031e B384F402 		mul	s1,s1,a5
  84:lib/tinymaix/src/tm_stat.c ****                 TM_DBG("Conv2d: kw=%d, kh=%d, sw=%d, sh=%d, dw=%d, dh=%d, act=%d, pad=[%d,%d,%d,%d]
 422              		.loc 1 84 69
 423 0322 83576401 		lhu	a5,22(s0)
  84:lib/tinymaix/src/tm_stat.c ****                 TM_DBG("Conv2d: kw=%d, kh=%d, sw=%d, sh=%d, dw=%d, dh=%d, act=%d, pad=[%d,%d,%d,%d]
 424              		.loc 1 84 21
 425 0326 B384F402 		mul	s1,s1,a5
 426              	.LVL38:
  85:lib/tinymaix/src/tm_stat.c ****                     l->kernel_w, l->kernel_h, l->stride_w, l->stride_h, l->dilation_w, l->dilation_
 427              		.loc 1 85 17 is_stmt 1
 428 032a 97000000 		call	printf
 428      E7800000 
 429              	.LVL39:
  85:lib/tinymaix/src/tm_stat.c ****                     l->kernel_w, l->kernel_h, l->stride_w, l->stride_h, l->dilation_w, l->dilation_
 430              		.loc 1 85 17
 431 0332 0145     		li	a0,0
 432 0334 97000000 		call	fflush
 432      E7800000 
 433              	.LVL40:
  85:lib/tinymaix/src/tm_stat.c ****                     l->kernel_w, l->kernel_h, l->stride_w, l->stride_h, l->dilation_w, l->dilation_
 434              		.loc 1 85 17
  85:lib/tinymaix/src/tm_stat.c ****                     l->kernel_w, l->kernel_h, l->stride_w, l->stride_h, l->dilation_w, l->dilation_
 435              		.loc 1 85 17
 436 033c 7C44     		lw	a5,76(s0)
 437 033e 37050000 		lui	a0,%hi(.LC13)
 438 0342 13050500 		addi	a0,a0,%lo(.LC13)
 439 0346 3ECE     		sw	a5,28(sp)
 440 0348 3C44     		lw	a5,72(s0)
 441 034a 3ECC     		sw	a5,24(sp)
 442 034c 7C40     		lw	a5,68(s0)
 443 034e 3ECA     		sw	a5,20(sp)
 444 0350 5C5C     		lw	a5,60(s0)
 445 0352 3EC8     		sw	a5,16(sp)
 446 0354 8347B403 		lbu	a5,59(s0)
 447 0358 3EC6     		sw	a5,12(sp)
 448 035a 8347A403 		lbu	a5,58(s0)
 449 035e 3EC4     		sw	a5,8(sp)
 450 0360 83479403 		lbu	a5,57(s0)
 451 0364 3EC2     		sw	a5,4(sp)
 452 0366 83478403 		lbu	a5,56(s0)
 453 036a 3EC0     		sw	a5,0(sp)
 454 036c 83586403 		lhu	a7,54(s0)
 455 0370 03485403 		lbu	a6,53(s0)
 456 0374 83474403 		lbu	a5,52(s0)
 457 0378 03473403 		lbu	a4,51(s0)
 458 037c 83462403 		lbu	a3,50(s0)
 459 0380 03461403 		lbu	a2,49(s0)
 460 0384 83450403 		lbu	a1,48(s0)
 461              	.LVL41:
 462              	.L17:
 463              	.LBE4:
GAS LISTING C:\Users\Jesper\AppData\Local\Temp\cc0J3Ydy.s 			page 13


 464              	.LBB5:
 105:lib/tinymaix/src/tm_stat.c ****                     l->kernel_w, l->kernel_h, l->stride_w, l->stride_h, l->dilation_w, l->dilation_
 465              		.loc 1 105 17 is_stmt 0
 466 0388 97000000 		call	printf
 466      E7800000 
 467              	.LVL42:
 105:lib/tinymaix/src/tm_stat.c ****                     l->kernel_w, l->kernel_h, l->stride_w, l->stride_h, l->dilation_w, l->dilation_
 468              		.loc 1 105 17 is_stmt 1
 469 0390 81A8     		j	.L15
 470              	.LVL43:
 471              	.L9:
 472              	.LBE5:
  91:lib/tinymaix/src/tm_stat.c ****                 break;
 473              		.loc 1 91 17
  91:lib/tinymaix/src/tm_stat.c ****                 break;
 474              		.loc 1 91 50 is_stmt 0
 475 0392 83574401 		lhu	a5,20(s0)
  91:lib/tinymaix/src/tm_stat.c ****                 break;
 476              		.loc 1 91 34
 477 0396 83542401 		lhu	s1,18(s0)
  91:lib/tinymaix/src/tm_stat.c ****                 break;
 478              		.loc 1 91 38
 479 039a B384F402 		mul	s1,s1,a5
  91:lib/tinymaix/src/tm_stat.c ****                 break;
 480              		.loc 1 91 66
 481 039e 83576401 		lhu	a5,22(s0)
 482              	.L16:
 100:lib/tinymaix/src/tm_stat.c ****                 break;
 483              		.loc 1 100 21
 484 03a2 B384F402 		mul	s1,s1,a5
 485              	.LVL44:
 101:lib/tinymaix/src/tm_stat.c ****             case TML_DWCONV2D: {
 486              		.loc 1 101 17 is_stmt 1
 487 03a6 91A0     		j	.L4
 488              	.LVL45:
 489              	.L8:
 490              	.LBB6:
  94:lib/tinymaix/src/tm_stat.c ****                 ops = (h->out_dims[3])*(h->in_dims[3]);         //MAC as ops
 491              		.loc 1 94 17
  95:lib/tinymaix/src/tm_stat.c ****                 TM_DBG("FC: ws_oft=%d, w_oft=%d, b_oft=%d\r\n",\
 492              		.loc 1 95 17
  95:lib/tinymaix/src/tm_stat.c ****                 TM_DBG("FC: ws_oft=%d, w_oft=%d, b_oft=%d\r\n",\
 493              		.loc 1 95 51 is_stmt 0
 494 03a8 83576401 		lhu	a5,22(s0)
  96:lib/tinymaix/src/tm_stat.c ****                     l->ws_oft, l->w_oft, l->b_oft);
 495              		.loc 1 96 17
 496 03ac 93051006 		li	a1,97
 497 03b0 13850A00 		addi	a0,s5,%lo(.LC10)
  95:lib/tinymaix/src/tm_stat.c ****                 TM_DBG("FC: ws_oft=%d, w_oft=%d, b_oft=%d\r\n",\
 498              		.loc 1 95 21
 499 03b4 B3849702 		mul	s1,a5,s1
 500              	.LVL46:
  96:lib/tinymaix/src/tm_stat.c ****                     l->ws_oft, l->w_oft, l->b_oft);
 501              		.loc 1 96 17 is_stmt 1
 502 03b8 97000000 		call	printf
 502      E7800000 
 503              	.LVL47:
GAS LISTING C:\Users\Jesper\AppData\Local\Temp\cc0J3Ydy.s 			page 14


  96:lib/tinymaix/src/tm_stat.c ****                     l->ws_oft, l->w_oft, l->b_oft);
 504              		.loc 1 96 17
 505 03c0 0145     		li	a0,0
 506 03c2 97000000 		call	fflush
 506      E7800000 
 507              	.LVL48:
  96:lib/tinymaix/src/tm_stat.c ****                     l->ws_oft, l->w_oft, l->b_oft);
 508              		.loc 1 96 17
  96:lib/tinymaix/src/tm_stat.c ****                     l->ws_oft, l->w_oft, l->b_oft);
 509              		.loc 1 96 17
 510 03ca 145C     		lw	a3,56(s0)
 511 03cc 5058     		lw	a2,52(s0)
 512 03ce 0C58     		lw	a1,48(s0)
 513 03d0 37050000 		lui	a0,%hi(.LC14)
 514 03d4 13050500 		addi	a0,a0,%lo(.LC14)
 515 03d8 97000000 		call	printf
 515      E7800000 
 516              	.LVL49:
 517              	.L15:
  96:lib/tinymaix/src/tm_stat.c ****                     l->ws_oft, l->w_oft, l->b_oft);
 518              		.loc 1 96 17
 519 03e0 0145     		li	a0,0
 520 03e2 97000000 		call	fflush
 520      E7800000 
 521              	.LVL50:
  96:lib/tinymaix/src/tm_stat.c ****                     l->ws_oft, l->w_oft, l->b_oft);
 522              		.loc 1 96 17
  97:lib/tinymaix/src/tm_stat.c ****                 break;}
 523              		.loc 1 97 51
  98:lib/tinymaix/src/tm_stat.c ****             case TML_SOFTMAX:
 524              		.loc 1 98 17
 525              	.L4:
 526              	.LBE6:
 114:lib/tinymaix/src/tm_stat.c ****             printf("%03d\t%s      \t%3d,%3d,%3d\t%d\t%d\t%d\t%ld\t", layer_i, tml_str_tbl[h->type],
 527              		.loc 1 114 13
 115:lib/tinymaix/src/tm_stat.c ****                 h->out_dims[1], h->out_dims[2], h->out_dims[3], \
 528              		.loc 1 115 92 is_stmt 0
 529 03ea 83570400 		lhu	a5,0(s0)
 115:lib/tinymaix/src/tm_stat.c ****                 h->out_dims[1], h->out_dims[2], h->out_dims[3], \
 530              		.loc 1 115 13
 531 03ee 4EC2     		sw	s3,4(sp)
 532 03f0 5840     		lw	a4,4(s0)
 533 03f2 8A07     		slli	a5,a5,2
 534 03f4 3306FD00 		add	a2,s10,a5
 117:lib/tinymaix/src/tm_stat.c ****                 (long int)(memout*sizeof(mtype_t)));
 535              		.loc 1 117 66
 536 03f8 DE97     		add	a5,s7,a5
 115:lib/tinymaix/src/tm_stat.c ****                 h->out_dims[1], h->out_dims[2], h->out_dims[3], \
 537              		.loc 1 115 13
 538 03fa 9C43     		lw	a5,0(a5)
 539 03fc 1042     		lw	a2,0(a2)
 540 03fe 37050000 		lui	a0,%hi(.LC16)
 541 0402 B307F740 		sub	a5,a4,a5
 542 0406 3EC0     		sw	a5,0(sp)
 543 0408 8357E401 		lhu	a5,30(s0)
 544 040c 8328C400 		lw	a7,12(s0)
 545 0410 03288400 		lw	a6,8(s0)
GAS LISTING C:\Users\Jesper\AppData\Local\Temp\cc0J3Ydy.s 			page 15


 546 0414 0357C401 		lhu	a4,28(s0)
 547 0418 8356A401 		lhu	a3,26(s0)
 548 041c DA85     		mv	a1,s6
 549 041e 13050500 		addi	a0,a0,%lo(.LC16)
 550 0422 97000000 		call	printf
 550      E7800000 
 551              	.LVL51:
 119:lib/tinymaix/src/tm_stat.c ****         } else {
 552              		.loc 1 119 13
 553 042a 37050000 		lui	a0,%hi(.LC17)
 554 042e A685     		mv	a1,s1
 555 0430 13050500 		addi	a0,a0,%lo(.LC17)
 556 0434 97000000 		call	printf
 556      E7800000 
 557              	.LVL52:
 558              	.LBE9:
 123:lib/tinymaix/src/tm_stat.c ****     }
 559              		.loc 1 123 25
 560 043c 5C40     		lw	a5,4(s0)
 561              	.LBB10:
 114:lib/tinymaix/src/tm_stat.c ****             printf("%03d\t%s      \t%3d,%3d,%3d\t%d\t%d\t%d\t%ld\t", layer_i, tml_str_tbl[h->type],
 562              		.loc 1 114 21
 563 043e 269C     		add	s8,s8,s1
 564              	.LVL53:
 115:lib/tinymaix/src/tm_stat.c ****                 h->out_dims[1], h->out_dims[2], h->out_dims[3], \
 565              		.loc 1 115 13 is_stmt 1
 119:lib/tinymaix/src/tm_stat.c ****         } else {
 566              		.loc 1 119 13
 567              	.LBE10:
 123:lib/tinymaix/src/tm_stat.c ****     }
 568              		.loc 1 123 9
 569              	.LBE14:
  69:lib/tinymaix/src/tm_stat.c ****         tml_head_t* h = (tml_head_t*)(layer_body);
 570              		.loc 1 69 53 is_stmt 0
 571 0440 050B     		addi	s6,s6,1
 572              	.LVL54:
 573              	.LBB15:
 123:lib/tinymaix/src/tm_stat.c ****     }
 574              		.loc 1 123 20
 575 0442 3E94     		add	s0,s0,a5
 576              	.LVL55:
 577 0444 FDB9     		j	.L2
 578              	.LVL56:
 579              	.L7:
 580              	.LBB11:
 100:lib/tinymaix/src/tm_stat.c ****                 break;
 581              		.loc 1 100 17 is_stmt 1
 100:lib/tinymaix/src/tm_stat.c ****                 break;
 582              		.loc 1 100 21 is_stmt 0
 583 0446 9947     		li	a5,6
 584 0448 A9BF     		j	.L16
 585              	.L5:
 586              	.LBB7:
 103:lib/tinymaix/src/tm_stat.c ****                 ops = memout*(l->kernel_w)*(l->kernel_h)*1;   //MAC as ops
 587              		.loc 1 103 17 is_stmt 1
 588              	.LVL57:
 104:lib/tinymaix/src/tm_stat.c ****                 TM_DBG("DWConv2d: kw=%d, kh=%d, sw=%d, sh=%d, dw=%d, dh=%d, act=%d, pad=[%d,%d,%d,%
GAS LISTING C:\Users\Jesper\AppData\Local\Temp\cc0J3Ydy.s 			page 16


 589              		.loc 1 104 17
 104:lib/tinymaix/src/tm_stat.c ****                 TM_DBG("DWConv2d: kw=%d, kh=%d, sw=%d, sh=%d, dw=%d, dh=%d, act=%d, pad=[%d,%d,%d,%
 590              		.loc 1 104 32 is_stmt 0
 591 044a 83440403 		lbu	s1,48(s0)
 104:lib/tinymaix/src/tm_stat.c ****                 TM_DBG("DWConv2d: kw=%d, kh=%d, sw=%d, sh=%d, dw=%d, dh=%d, act=%d, pad=[%d,%d,%d,%
 592              		.loc 1 104 46
 593 044e 83471403 		lbu	a5,49(s0)
 105:lib/tinymaix/src/tm_stat.c ****                     l->kernel_w, l->kernel_h, l->stride_w, l->stride_h, l->dilation_w, l->dilation_
 594              		.loc 1 105 17
 595 0452 9305C006 		li	a1,108
 104:lib/tinymaix/src/tm_stat.c ****                 TM_DBG("DWConv2d: kw=%d, kh=%d, sw=%d, sh=%d, dw=%d, dh=%d, act=%d, pad=[%d,%d,%d,%
 596              		.loc 1 104 29
 597 0456 B3843403 		mul	s1,s1,s3
 105:lib/tinymaix/src/tm_stat.c ****                     l->kernel_w, l->kernel_h, l->stride_w, l->stride_h, l->dilation_w, l->dilation_
 598              		.loc 1 105 17
 599 045a 13850A00 		addi	a0,s5,%lo(.LC10)
 104:lib/tinymaix/src/tm_stat.c ****                 TM_DBG("DWConv2d: kw=%d, kh=%d, sw=%d, sh=%d, dw=%d, dh=%d, act=%d, pad=[%d,%d,%d,%
 600              		.loc 1 104 21
 601 045e B384F402 		mul	s1,s1,a5
 602              	.LVL58:
 105:lib/tinymaix/src/tm_stat.c ****                     l->kernel_w, l->kernel_h, l->stride_w, l->stride_h, l->dilation_w, l->dilation_
 603              		.loc 1 105 17 is_stmt 1
 604 0462 97000000 		call	printf
 604      E7800000 
 605              	.LVL59:
 105:lib/tinymaix/src/tm_stat.c ****                     l->kernel_w, l->kernel_h, l->stride_w, l->stride_h, l->dilation_w, l->dilation_
 606              		.loc 1 105 17
 607 046a 0145     		li	a0,0
 608 046c 97000000 		call	fflush
 608      E7800000 
 609              	.LVL60:
 105:lib/tinymaix/src/tm_stat.c ****                     l->kernel_w, l->kernel_h, l->stride_w, l->stride_h, l->dilation_w, l->dilation_
 610              		.loc 1 105 17
 105:lib/tinymaix/src/tm_stat.c ****                     l->kernel_w, l->kernel_h, l->stride_w, l->stride_h, l->dilation_w, l->dilation_
 611              		.loc 1 105 17
 612 0474 7C44     		lw	a5,76(s0)
 613 0476 37050000 		lui	a0,%hi(.LC15)
 614 047a 13050500 		addi	a0,a0,%lo(.LC15)
 615 047e 3ECE     		sw	a5,28(sp)
 616 0480 3C44     		lw	a5,72(s0)
 617 0482 3ECC     		sw	a5,24(sp)
 618 0484 7C40     		lw	a5,68(s0)
 619 0486 3ECA     		sw	a5,20(sp)
 620 0488 5C5C     		lw	a5,60(s0)
 621 048a 3EC8     		sw	a5,16(sp)
 622 048c 8347B403 		lbu	a5,59(s0)
 623 0490 3EC6     		sw	a5,12(sp)
 624 0492 8347A403 		lbu	a5,58(s0)
 625 0496 3EC4     		sw	a5,8(sp)
 626 0498 83479403 		lbu	a5,57(s0)
 627 049c 3EC2     		sw	a5,4(sp)
 628 049e 83478403 		lbu	a5,56(s0)
 629 04a2 3EC0     		sw	a5,0(sp)
 630 04a4 83586403 		lhu	a7,54(s0)
 631 04a8 03485403 		lbu	a6,53(s0)
 632 04ac 83474403 		lbu	a5,52(s0)
 633 04b0 03473403 		lbu	a4,51(s0)
GAS LISTING C:\Users\Jesper\AppData\Local\Temp\cc0J3Ydy.s 			page 17


 634 04b4 83462403 		lbu	a3,50(s0)
 635 04b8 03461403 		lbu	a2,49(s0)
 636 04bc 83450403 		lbu	a1,48(s0)
 637 04c0 E1B5     		j	.L17
 638              	.LVL61:
 639              	.L13:
 640              	.LBE7:
 111:lib/tinymaix/src/tm_stat.c ****                 break;
 641              		.loc 1 111 21 is_stmt 0
 642 04c2 8144     		li	s1,0
 643 04c4 1DB7     		j	.L4
 644              	.LVL62:
 645              	.L12:
 646              	.LBE11:
 121:lib/tinymaix/src/tm_stat.c ****         }
 647              		.loc 1 121 20
 648 04c6 1545     		li	a0,5
 649 04c8 19B3     		j	.L1
 650              	.LBE15:
 651              		.cfi_endproc
 652              	.LFE28:
 654              		.section	.rodata.mdl_type_str,"a"
 655              		.align	2
 656              		.set	.LANCHOR0,. + 0
 659              	mdl_type_str:
 660 0000 00000000 		.word	.LC28
 661 0004 00000000 		.word	.LC29
 662 0008 00000000 		.word	.LC30
 663 000c 00000000 		.word	.LC31
 664 0010 00000000 		.word	.LC32
 665 0014 00000000 		.word	.LC33
 666              		.section	.rodata.str1.4,"aMS",@progbits,1
 667              		.align	2
 668              	.LC21:
 669 0000 436F6E76 		.string	"Conv2D"
 669      324400
 670 0007 00       		.zero	1
 671              	.LC22:
 672 0008 47415000 		.string	"GAP"
 673              	.LC23:
 674 000c 464300   		.string	"FC"
 675 000f 00       		.zero	1
 676              	.LC24:
 677 0010 536F6674 		.string	"Softmax"
 677      6D617800 
 678              	.LC25:
 679 0018 52657368 		.string	"Reshape"
 679      61706500 
 680              	.LC26:
 681 0020 4457436F 		.string	"DWConv2D"
 681      6E763244 
 681      00
 682 0029 000000   		.zero	3
 683              	.LC27:
 684 002c 41444400 		.string	"ADD"
 685              	.LC28:
 686 0030 696E7438 		.string	"int8"
GAS LISTING C:\Users\Jesper\AppData\Local\Temp\cc0J3Ydy.s 			page 18


 686      00
 687 0035 000000   		.zero	3
 688              	.LC29:
 689 0038 696E7431 		.string	"int16"
 689      3600
 690 003e 0000     		.zero	2
 691              	.LC30:
 692 0040 66703332 		.string	"fp32"
 692      00
 693 0045 000000   		.zero	3
 694              	.LC31:
 695 0048 66703136 		.string	"fp16"
 695      00
 696 004d 000000   		.zero	3
 697              	.LC32:
 698 0050 66703820 		.string	"fp8 1.4.3"
 698      312E342E 
 698      3300
 699 005a 0000     		.zero	2
 700              	.LC33:
 701 005c 66703820 		.string	"fp8 1.5.2"
 701      312E352E 
 701      3200
 702              		.section	.rodata.tm_stat.cst8,"aM",@progbits,8
 703              		.align	3
 704              	.LC18:
 705 0000 00000000 		.word	0
 706 0004 0000503F 		.word	1062207488
 707              	.LC19:
 708 0008 00000000 		.word	0
 709 000c 80842E41 		.word	1093567616
 710              		.section	.rodata.tm_stat.str1.4,"aMS",@progbits,1
 711              		.align	2
 712              	.LC0:
 713 0000 3D3D3D3D 		.string	"================================ model stat ================================\r"
 713      3D3D3D3D 
 713      3D3D3D3D 
 713      3D3D3D3D 
 713      3D3D3D3D 
 714 004e 0000     		.zero	2
 715              	.LC1:
 716 0050 6D646C5F 		.string	"mdl_type=%d (%s))\r\n"
 716      74797065 
 716      3D256420 
 716      28257329 
 716      290D0A00 
 717              	.LC2:
 718 0064 6F75745F 		.string	"out_deq=%d \r\n"
 718      6465713D 
 718      2564200D 
 718      0A00
 719 0072 0000     		.zero	2
 720              	.LC3:
 721 0074 696E7075 		.string	"input_cnt=%d, output_cnt=%d, layer_cnt=%d\r\n"
 721      745F636E 
 721      743D2564 
 721      2C206F75 
GAS LISTING C:\Users\Jesper\AppData\Local\Temp\cc0J3Ydy.s 			page 19


 721      74707574 
 722              	.LC4:
 723 00a0 696E7075 		.string	"input %ddims: (%d, %d, %d)\r\n"
 723      74202564 
 723      64696D73 
 723      3A202825 
 723      642C2025 
 724 00bd 000000   		.zero	3
 725              	.LC5:
 726 00c0 6F757470 		.string	"output %ddims: (%d, %d, %d)\r\n"
 726      75742025 
 726      6464696D 
 726      733A2028 
 726      25642C20 
 727 00de 0000     		.zero	2
 728              	.LC6:
 729 00e0 6D61696E 		.string	"main buf size %d; sub buf size %d\r\n"
 729      20627566 
 729      2073697A 
 729      65202564 
 729      3B207375 
 730              	.LC7:
 731 0104 2F2F4E6F 		.string	"//Note: PARAM is layer param size, include align padding\r\n\r"
 731      74653A20 
 731      50415241 
 731      4D206973 
 731      206C6179 
 732              	.LC8:
 733 0140 49647809 		.string	"Idx\tLayer\t         outshape\tinoft\toutoft\tPARAM\tMEMOUT OPS\r"
 733      4C617965 
 733      72092020 
 733      20202020 
 733      2020206F 
 734 017b 00       		.zero	1
 735              	.LC9:
 736 017c 2D2D2D09 		.string	"---\tInput    \t%3d,%3d,%3d\t-   \t0    \t0 \t%ld \t0\r\n"
 736      496E7075 
 736      74202020 
 736      20092533 
 736      642C2533 
 737 01ad 000000   		.zero	3
 738              	.LC10:
 739 01b0 2323234C 		.string	"###L%d: "
 739      25643A20 
 739      00
 740 01b9 000000   		.zero	3
 741              	.LC11:
 742 01bc 626F6479 		.string	"body oft = %d\r\n"
 742      206F6674 
 742      203D2025 
 742      640D0A00 
 743              	.LC12:
 744 01cc 74797065 		.string	"type=%d, is_out=%d, size=%d, in_oft=%d, out_oft=%d, in_dims=[%d,%d,%d,%d], out_dims=[%d,%
 744      3D25642C 
 744      2069735F 
 744      6F75743D 
 744      25642C20 
GAS LISTING C:\Users\Jesper\AppData\Local\Temp\cc0J3Ydy.s 			page 20


 745              	.LC13:
 746 025c 436F6E76 		.string	"Conv2d: kw=%d, kh=%d, sw=%d, sh=%d, dw=%d, dh=%d, act=%d, pad=[%d,%d,%d,%d], dmul=%d, ws_
 746      32643A20 
 746      6B773D25 
 746      642C206B 
 746      683D2564 
 747 02d2 0000     		.zero	2
 748              	.LC14:
 749 02d4 46433A20 		.string	"FC: ws_oft=%d, w_oft=%d, b_oft=%d\r\n"
 749      77735F6F 
 749      66743D25 
 749      642C2077 
 749      5F6F6674 
 750              	.LC15:
 751 02f8 4457436F 		.string	"DWConv2d: kw=%d, kh=%d, sw=%d, sh=%d, dw=%d, dh=%d, act=%d, pad=[%d,%d,%d,%d], dmul=%d, w
 751      6E763264 
 751      3A206B77 
 751      3D25642C 
 751      206B683D 
 752              	.LC16:
 753 0370 25303364 		.string	"%03d\t%s      \t%3d,%3d,%3d\t%d\t%d\t%d\t%ld\t"
 753      09257320 
 753      20202020 
 753      20092533 
 753      642C2533 
 754              	.LC17:
 755 0398 25640D0A 		.string	"%d\r\n"
 755      00
 756 039d 000000   		.zero	3
 757              	.LC20:
 758 03a0 0D0A546F 		.string	"\r\nTotal param ~%.1f KB, OPS ~%.2f MOPS, buffer %.1f KB\r\n\r\n"
 758      74616C20 
 758      70617261 
 758      6D207E25 
 758      2E316620 
 759              		.section	.rodata.tml_headsize_tbl,"a"
 760              		.align	2
 761              		.set	.LANCHOR1,. + 0
 764              	tml_headsize_tbl:
 765 0000 50000000 		.word	80
 766 0004 30000000 		.word	48
 767 0008 40000000 		.word	64
 768 000c 30000000 		.word	48
 769 0010 30000000 		.word	48
 770 0014 50000000 		.word	80
 771 0018 40000000 		.word	64
 772              		.section	.rodata.tml_str_tbl,"a"
 773              		.align	2
 774              		.set	.LANCHOR2,. + 0
 777              	tml_str_tbl:
 778 0000 00000000 		.word	.LC21
 779 0004 00000000 		.word	.LC22
 780 0008 00000000 		.word	.LC23
 781 000c 00000000 		.word	.LC24
 782 0010 00000000 		.word	.LC25
 783 0014 00000000 		.word	.LC26
 784 0018 00000000 		.word	.LC27
GAS LISTING C:\Users\Jesper\AppData\Local\Temp\cc0J3Ydy.s 			page 21


 785              		.text
 786              	.Letext0:
 787              		.file 2 "c:\\users\\jesper\\documents\\ml_sommarjobb\\toolchain-gd32v-v201-win\\toolchain-gd32v-v2
 788              		.file 3 "c:\\users\\jesper\\documents\\ml_sommarjobb\\toolchain-gd32v-v201-win\\toolchain-gd32v-v2
 789              		.file 4 "c:\\users\\jesper\\documents\\ml_sommarjobb\\toolchain-gd32v-v201-win\\toolchain-gd32v-v2
 790              		.file 5 "c:\\users\\jesper\\documents\\ml_sommarjobb\\toolchain-gd32v-v201-win\\toolchain-gd32v-v2
 791              		.file 6 "c:\\users\\jesper\\documents\\ml_sommarjobb\\toolchain-gd32v-v201-win\\toolchain-gd32v-v2
 792              		.file 7 "c:\\users\\jesper\\documents\\ml_sommarjobb\\toolchain-gd32v-v201-win\\toolchain-gd32v-v2
 793              		.file 8 "c:\\users\\jesper\\documents\\ml_sommarjobb\\toolchain-gd32v-v201-win\\toolchain-gd32v-v2
 794              		.file 9 "./../../firmware/GD32VF103_standard_peripheral/system_gd32vf103.h"
 795              		.file 10 "c:\\users\\jesper\\documents\\ml_sommarjobb\\toolchain-gd32v-v201-win\\toolchain-gd32v-v
 796              		.file 11 "lib/tinymaix/include/tinymaix.h"
 797              		.file 12 "c:\\users\\jesper\\documents\\ml_sommarjobb\\toolchain-gd32v-v201-win\\toolchain-gd32v-v
 798              		.file 13 "<built-in>"
GAS LISTING C:\Users\Jesper\AppData\Local\Temp\cc0J3Ydy.s 			page 22

