GAS LISTING C:\Users\Jesper\AppData\Local\Temp\ccjhfN0u.s 			page 1


   1              		.file	"tm_stat.c"
   2              		.option nopic
   3              		.attribute arch, "rv32i2p0_m2p0_a2p0_c2p0"
   4              		.attribute unaligned_access, 0
   5              		.attribute stack_align, 16
   6              		.text
   7              	.Ltext0:
   8              		.cfi_sections	.debug_frame
   9              		.globl	__extendsfdf2
  10              		.globl	__floatunsidf
  11              		.globl	__muldf3
  12              		.globl	__floatsidf
  13              		.globl	__divdf3
  14              		.section	.text.tm_stat,"ax",@progbits
  15              		.align	1
  16              		.globl	tm_stat
  18              	tm_stat:
  19              	.LFB26:
  20              		.file 1 "lib/tinymaix/src/tm_stat.c"
   1:lib/tinymaix/src/tm_stat.c **** /* Copyright 2022 Sipeed Technology Co., Ltd. All Rights Reserved.
   2:lib/tinymaix/src/tm_stat.c **** Licensed under the Apache License, Version 2.0 (the "License");
   3:lib/tinymaix/src/tm_stat.c **** you may not use this file except in compliance with the License.
   4:lib/tinymaix/src/tm_stat.c **** You may obtain a copy of the License at
   5:lib/tinymaix/src/tm_stat.c ****     http://www.apache.org/licenses/LICENSE-2.0
   6:lib/tinymaix/src/tm_stat.c **** Unless required by applicable law or agreed to in writing, software
   7:lib/tinymaix/src/tm_stat.c **** distributed under the License is distributed on an "AS IS" BASIS,
   8:lib/tinymaix/src/tm_stat.c **** WITHOUT WARRANTIES OR CONDITIONS OF ANY KIND, either express or implied.
   9:lib/tinymaix/src/tm_stat.c **** See the License for the specific language governing permissions and
  10:lib/tinymaix/src/tm_stat.c **** limitations under the License.
  11:lib/tinymaix/src/tm_stat.c **** ==============================================================================*/
  12:lib/tinymaix/src/tm_stat.c **** 
  13:lib/tinymaix/src/tm_stat.c **** #include "tinymaix.h"
  14:lib/tinymaix/src/tm_stat.c **** 
  15:lib/tinymaix/src/tm_stat.c **** #if TM_ENABLE_STAT
  16:lib/tinymaix/src/tm_stat.c **** static const char* mdl_type_str[6] = {
  17:lib/tinymaix/src/tm_stat.c ****     "int8",   
  18:lib/tinymaix/src/tm_stat.c ****     "int16",     
  19:lib/tinymaix/src/tm_stat.c ****     "fp32",    
  20:lib/tinymaix/src/tm_stat.c ****     "fp16",  
  21:lib/tinymaix/src/tm_stat.c ****     "fp8 1.4.3", 
  22:lib/tinymaix/src/tm_stat.c ****     "fp8 1.5.2", 
  23:lib/tinymaix/src/tm_stat.c **** };
  24:lib/tinymaix/src/tm_stat.c **** 
  25:lib/tinymaix/src/tm_stat.c **** static const char* tml_str_tbl[TML_MAXCNT] = {
  26:lib/tinymaix/src/tm_stat.c ****     "Conv2D",   /*TML_CONV2D  = 0,*/
  27:lib/tinymaix/src/tm_stat.c ****     "GAP",      /*TML_GAP     = 1,*/
  28:lib/tinymaix/src/tm_stat.c ****     "FC",       /*TML_FC      = 2,*/
  29:lib/tinymaix/src/tm_stat.c ****     "Softmax",  /*TML_SOFTMAX = 3,*/
  30:lib/tinymaix/src/tm_stat.c ****     "Reshape",  /*TML_RESHAPE = 4,*/
  31:lib/tinymaix/src/tm_stat.c ****     "DWConv2D", /*TML_DWCONV2D= 5,*/
  32:lib/tinymaix/src/tm_stat.c ****     "ADD",      /*TML_ADD     = 6,*/
  33:lib/tinymaix/src/tm_stat.c **** };
  34:lib/tinymaix/src/tm_stat.c **** 
  35:lib/tinymaix/src/tm_stat.c **** static const int tml_headsize_tbl[TML_MAXCNT] = {
  36:lib/tinymaix/src/tm_stat.c ****     sizeof(tml_conv2d_dw_t),
  37:lib/tinymaix/src/tm_stat.c ****     sizeof(tml_gap_t),
  38:lib/tinymaix/src/tm_stat.c ****     sizeof(tml_fc_t),
GAS LISTING C:\Users\Jesper\AppData\Local\Temp\ccjhfN0u.s 			page 2


  39:lib/tinymaix/src/tm_stat.c ****     sizeof(tml_softmax_t),
  40:lib/tinymaix/src/tm_stat.c ****     sizeof(tml_reshape_t),
  41:lib/tinymaix/src/tm_stat.c ****     sizeof(tml_conv2d_dw_t),
  42:lib/tinymaix/src/tm_stat.c ****     sizeof(tml_add_t),
  43:lib/tinymaix/src/tm_stat.c **** };
  44:lib/tinymaix/src/tm_stat.c **** 
  45:lib/tinymaix/src/tm_stat.c **** tm_err_t tm_stat(tm_mdlbin_t* b)
  46:lib/tinymaix/src/tm_stat.c **** {   
  21              		.loc 1 46 1
  22              		.cfi_startproc
  23              	.LVL0:
  47:lib/tinymaix/src/tm_stat.c ****     printf("================================ model stat ================================\n");
  24              		.loc 1 47 5
  46:lib/tinymaix/src/tm_stat.c ****     printf("================================ model stat ================================\n");
  25              		.loc 1 46 1 is_stmt 0
  26 0000 7571     		addi	sp,sp,-144
  27              	.LCFI0:
  28              		.cfi_def_cfa_offset 144
  29 0002 4AC1     		sw	s2,128(sp)
  30              		.cfi_offset 18, -16
  31 0004 2A89     		mv	s2,a0
  32              		.loc 1 47 5
  33 0006 37050000 		lui	a0,%hi(.LC0)
  34              	.LVL1:
  35 000a 13050500 		addi	a0,a0,%lo(.LC0)
  46:lib/tinymaix/src/tm_stat.c ****     printf("================================ model stat ================================\n");
  36              		.loc 1 46 1
  37 000e 06C7     		sw	ra,140(sp)
  38 0010 22C5     		sw	s0,136(sp)
  39 0012 D2DC     		sw	s4,120(sp)
  40 0014 D6DA     		sw	s5,116(sp)
  41 0016 DAD8     		sw	s6,112(sp)
  42 0018 DED6     		sw	s7,108(sp)
  43 001a E2D4     		sw	s8,104(sp)
  44 001c E6D2     		sw	s9,100(sp)
  45 001e EAD0     		sw	s10,96(sp)
  46 0020 26C3     		sw	s1,132(sp)
  47 0022 CEDE     		sw	s3,124(sp)
  48              		.cfi_offset 1, -4
  49              		.cfi_offset 8, -8
  50              		.cfi_offset 20, -24
  51              		.cfi_offset 21, -28
  52              		.cfi_offset 22, -32
  53              		.cfi_offset 23, -36
  54              		.cfi_offset 24, -40
  55              		.cfi_offset 25, -44
  56              		.cfi_offset 26, -48
  57              		.cfi_offset 9, -12
  58              		.cfi_offset 19, -20
  59              		.loc 1 47 5
  60 0024 97000000 		call	puts
  60      E7800000 
  61              	.LVL2:
  48:lib/tinymaix/src/tm_stat.c ****     printf("mdl_type=%d (%s))\n", b->mdl_type, mdl_type_str[b->mdl_type]);
  62              		.loc 1 48 5 is_stmt 1
  63 002c 83454900 		lbu	a1,4(s2)
  64 0030 B7070000 		lui	a5,%hi(.LANCHOR0)
GAS LISTING C:\Users\Jesper\AppData\Local\Temp\ccjhfN0u.s 			page 3


  65 0034 93870700 		addi	a5,a5,%lo(.LANCHOR0)
  66 0038 13972500 		slli	a4,a1,2
  67 003c BA97     		add	a5,a5,a4
  68 003e 9043     		lw	a2,0(a5)
  69 0040 37050000 		lui	a0,%hi(.LC1)
  70 0044 13050500 		addi	a0,a0,%lo(.LC1)
  71 0048 97000000 		call	printf
  71      E7800000 
  72              	.LVL3:
  49:lib/tinymaix/src/tm_stat.c ****     printf("out_deq=%d \n", b->out_deq);
  73              		.loc 1 49 5
  74 0050 83455900 		lbu	a1,5(s2)
  75 0054 37050000 		lui	a0,%hi(.LC2)
  76 0058 13050500 		addi	a0,a0,%lo(.LC2)
  77 005c 97000000 		call	printf
  77      E7800000 
  78              	.LVL4:
  50:lib/tinymaix/src/tm_stat.c ****     printf("input_cnt=%d, output_cnt=%d, layer_cnt=%d\n", b->input_cnt, b->output_cnt, b->layer_cnt
  79              		.loc 1 50 5
  80 0064 8356A900 		lhu	a3,10(s2)
  81 0068 03568900 		lhu	a2,8(s2)
  82 006c 83556900 		lhu	a1,6(s2)
  83 0070 37050000 		lui	a0,%hi(.LC3)
  84 0074 13050500 		addi	a0,a0,%lo(.LC3)
  85 0078 97000000 		call	printf
  85      E7800000 
  86              	.LVL5:
  51:lib/tinymaix/src/tm_stat.c ****     uint16_t* idim = b->in_dims;
  87              		.loc 1 51 5
  52:lib/tinymaix/src/tm_stat.c ****     printf("input %ddims: (%d, %d, %d)\n", idim[0],idim[1],idim[2],idim[3]);
  88              		.loc 1 52 5
  89 0080 0357A901 		lhu	a4,26(s2)
  90 0084 83568901 		lhu	a3,24(s2)
  91 0088 03566901 		lhu	a2,22(s2)
  92 008c 83554901 		lhu	a1,20(s2)
  93 0090 37050000 		lui	a0,%hi(.LC4)
  94 0094 13050500 		addi	a0,a0,%lo(.LC4)
  95 0098 97000000 		call	printf
  95      E7800000 
  96              	.LVL6:
  53:lib/tinymaix/src/tm_stat.c ****     uint16_t* odim = b->out_dims;
  97              		.loc 1 53 5
  54:lib/tinymaix/src/tm_stat.c ****     printf("output %ddims: (%d, %d, %d)\n", odim[0],odim[1],odim[2],odim[3]);
  98              		.loc 1 54 5
  99 00a0 03572902 		lhu	a4,34(s2)
 100 00a4 83560902 		lhu	a3,32(s2)
 101 00a8 0356E901 		lhu	a2,30(s2)
 102 00ac 8355C901 		lhu	a1,28(s2)
 103 00b0 37050000 		lui	a0,%hi(.LC5)
 104 00b4 13050500 		addi	a0,a0,%lo(.LC5)
 105 00b8 97000000 		call	printf
 105      E7800000 
 106              	.LVL7:
  55:lib/tinymaix/src/tm_stat.c ****     //printf("model param bin addr: 0x%x\n", (uint32_t)(b->layers_body));
  56:lib/tinymaix/src/tm_stat.c ****     printf("main buf size %d; sub buf size %d\n", \
 107              		.loc 1 56 5
 108 00c0 03260901 		lw	a2,16(s2)
GAS LISTING C:\Users\Jesper\AppData\Local\Temp\ccjhfN0u.s 			page 4


 109 00c4 8325C900 		lw	a1,12(s2)
 110 00c8 37050000 		lui	a0,%hi(.LC6)
 111 00cc 13050500 		addi	a0,a0,%lo(.LC6)
 112 00d0 97000000 		call	printf
 112      E7800000 
 113              	.LVL8:
  57:lib/tinymaix/src/tm_stat.c ****         b->buf_size,b->sub_size);
  58:lib/tinymaix/src/tm_stat.c **** 
  59:lib/tinymaix/src/tm_stat.c ****     printf("//Note: PARAM is layer param size, include align padding\r\n\r\n");
 114              		.loc 1 59 5
 115 00d8 37050000 		lui	a0,%hi(.LC7)
 116 00dc 13050500 		addi	a0,a0,%lo(.LC7)
 117 00e0 97000000 		call	puts
 117      E7800000 
 118              	.LVL9:
  60:lib/tinymaix/src/tm_stat.c ****     printf("Idx\tLayer\t         outshape\tinoft\toutoft\tPARAM\tMEMOUT OPS\n");
 119              		.loc 1 60 5
 120 00e8 37050000 		lui	a0,%hi(.LC8)
 121 00ec 13050500 		addi	a0,a0,%lo(.LC8)
 122 00f0 97000000 		call	puts
 122      E7800000 
 123              	.LVL10:
  61:lib/tinymaix/src/tm_stat.c ****     printf("---\tInput    \t%3d,%3d,%3d\t-   \t0    \t0 \t%ld \t0\n",\
 124              		.loc 1 61 5
 125 00f8 83556901 		lhu	a1,22(s2)
 126 00fc 03568901 		lhu	a2,24(s2)
 127 0100 8356A901 		lhu	a3,26(s2)
 128 0104 37050000 		lui	a0,%hi(.LC9)
  62:lib/tinymaix/src/tm_stat.c ****         idim[1],idim[2],idim[3], (long int)(idim[1]*idim[2]*idim[3]*sizeof(mtype_t)));
 129              		.loc 1 62 52 is_stmt 0
 130 0108 3387C502 		mul	a4,a1,a2
  61:lib/tinymaix/src/tm_stat.c ****     printf("---\tInput    \t%3d,%3d,%3d\t-   \t0    \t0 \t%ld \t0\n",\
 131              		.loc 1 61 5
 132 010c 13050500 		addi	a0,a0,%lo(.LC9)
 133              	.LBB2:
 134              	.LBB3:
  63:lib/tinymaix/src/tm_stat.c ****     //      000  Input    -     224,224,3  0x40001234 0x40004000 100000 500000 200000
  64:lib/tinymaix/src/tm_stat.c ****     //printf("000  Input    -     %3d,%3d,%d  0x%08x   0x%08x     %6d %6d %6d\n",) 
  65:lib/tinymaix/src/tm_stat.c ****     int sum_param = 0;
  66:lib/tinymaix/src/tm_stat.c ****     int sum_ops   = 0;
  67:lib/tinymaix/src/tm_stat.c ****     uint8_t*layer_body  = (uint8_t*)b->layers_body;
  68:lib/tinymaix/src/tm_stat.c ****     int layer_i;
  69:lib/tinymaix/src/tm_stat.c ****     for(layer_i = 0; layer_i < b->layer_cnt; layer_i++){
  70:lib/tinymaix/src/tm_stat.c ****         tml_head_t* h = (tml_head_t*)(layer_body);
  71:lib/tinymaix/src/tm_stat.c ****         TM_DBG("body oft = %d\n", (uint32_t)((size_t)h - (size_t)(b)));
  72:lib/tinymaix/src/tm_stat.c ****         TM_DBG("type=%d, is_out=%d, size=%d, in_oft=%d, out_oft=%d, in_dims=[%d,%d,%d,%d], out_dims
  73:lib/tinymaix/src/tm_stat.c ****                 h->type,h->is_out,h->size,h->in_oft,h->out_oft,\
  74:lib/tinymaix/src/tm_stat.c ****                 h->in_dims[0],h->in_dims[1],h->in_dims[2],h->in_dims[3],\
  75:lib/tinymaix/src/tm_stat.c ****                 h->out_dims[0],h->out_dims[1],h->out_dims[2],h->out_dims[3],\
  76:lib/tinymaix/src/tm_stat.c ****                 h->in_s,(int32_t)(h->in_zp),h->out_s,(int32_t)(h->out_zp));
  77:lib/tinymaix/src/tm_stat.c ****         if(h->type < TML_MAXCNT) {
  78:lib/tinymaix/src/tm_stat.c ****             int memout = h->out_dims[1]*h->out_dims[2]*h->out_dims[3];
  79:lib/tinymaix/src/tm_stat.c ****             sum_param += (h->size - tml_headsize_tbl[h->type]);
 135              		.loc 1 79 53
 136 0110 B70B0000 		lui	s7,%hi(.LANCHOR1)
  80:lib/tinymaix/src/tm_stat.c ****             int ops = 0;
  81:lib/tinymaix/src/tm_stat.c ****             switch(h->type){
GAS LISTING C:\Users\Jesper\AppData\Local\Temp\ccjhfN0u.s 			page 5


 137              		.loc 1 81 13
 138 0114 B70C0000 		lui	s9,%hi(.L6)
  82:lib/tinymaix/src/tm_stat.c ****             case TML_CONV2D: {
  83:lib/tinymaix/src/tm_stat.c ****                 tml_conv2d_dw_t* l = (tml_conv2d_dw_t*)(layer_body);
  84:lib/tinymaix/src/tm_stat.c ****                 ops = memout*(l->kernel_w)*(l->kernel_h)*(h->in_dims[3]);   //MAC as ops
  85:lib/tinymaix/src/tm_stat.c ****                 TM_DBG("Conv2d: kw=%d, kh=%d, sw=%d, sh=%d, dw=%d, dh=%d, act=%d, pad=[%d,%d,%d,%d]
  86:lib/tinymaix/src/tm_stat.c ****                     l->kernel_w, l->kernel_h, l->stride_w, l->stride_h, l->dilation_w, l->dilation_
  87:lib/tinymaix/src/tm_stat.c ****                     l->act, l->pad[0], l->pad[1], l->pad[2], l->pad[3], l->depth_mul, \
  88:lib/tinymaix/src/tm_stat.c ****                     l->ws_oft, l->w_oft, l->b_oft);
  89:lib/tinymaix/src/tm_stat.c ****                 break;}
  90:lib/tinymaix/src/tm_stat.c ****             case TML_GAP:
  91:lib/tinymaix/src/tm_stat.c ****                 ops = (h->in_dims[1])*(h->in_dims[2])*(h->in_dims[3]);  //SUM as ops
  92:lib/tinymaix/src/tm_stat.c ****                 break;
  93:lib/tinymaix/src/tm_stat.c ****             case TML_FC: {
  94:lib/tinymaix/src/tm_stat.c ****                 tml_fc_t* l = (tml_fc_t*)(layer_body);
  95:lib/tinymaix/src/tm_stat.c ****                 ops = (h->out_dims[3])*(h->in_dims[3]);         //MAC as ops
  96:lib/tinymaix/src/tm_stat.c ****                 TM_DBG("FC: ws_oft=%d, w_oft=%d, b_oft=%d\n",\
  97:lib/tinymaix/src/tm_stat.c ****                     l->ws_oft, l->w_oft, l->b_oft);
  98:lib/tinymaix/src/tm_stat.c ****                 break;}
  99:lib/tinymaix/src/tm_stat.c ****             case TML_SOFTMAX:
 100:lib/tinymaix/src/tm_stat.c ****                 ops = 6*(h->out_dims[3]);                       //mixed
 101:lib/tinymaix/src/tm_stat.c ****                 break;
 102:lib/tinymaix/src/tm_stat.c ****             case TML_DWCONV2D: {
 103:lib/tinymaix/src/tm_stat.c ****                 tml_conv2d_dw_t* l = (tml_conv2d_dw_t*)(layer_body);
 104:lib/tinymaix/src/tm_stat.c ****                 ops = memout*(l->kernel_w)*(l->kernel_h)*1;   //MAC as ops
 105:lib/tinymaix/src/tm_stat.c ****                 TM_DBG("DWConv2d: kw=%d, kh=%d, sw=%d, sh=%d, dw=%d, dh=%d, act=%d, pad=[%d,%d,%d,%
 106:lib/tinymaix/src/tm_stat.c ****                     l->kernel_w, l->kernel_h, l->stride_w, l->stride_h, l->dilation_w, l->dilation_
 107:lib/tinymaix/src/tm_stat.c ****                     l->act, l->pad[0], l->pad[1], l->pad[2], l->pad[3], l->depth_mul,\
 108:lib/tinymaix/src/tm_stat.c ****                     l->ws_oft, l->w_oft, l->b_oft);
 109:lib/tinymaix/src/tm_stat.c ****                 break;}
 110:lib/tinymaix/src/tm_stat.c ****             default:
 111:lib/tinymaix/src/tm_stat.c ****                 ops = 0;
 112:lib/tinymaix/src/tm_stat.c ****                 break;
 113:lib/tinymaix/src/tm_stat.c ****             }
 114:lib/tinymaix/src/tm_stat.c ****             sum_ops += ops;
 115:lib/tinymaix/src/tm_stat.c ****             printf("%03d\t%s      \t%3d,%3d,%3d\t%d\t%d\t%d\t%ld\t", layer_i, tml_str_tbl[h->type],
 139              		.loc 1 115 13
 140 0118 370D0000 		lui	s10,%hi(.LANCHOR2)
 141              	.LBE3:
 142              	.LBE2:
  67:lib/tinymaix/src/tm_stat.c ****     int layer_i;
 143              		.loc 1 67 13
 144 011c 13040904 		addi	s0,s2,64
  69:lib/tinymaix/src/tm_stat.c ****         tml_head_t* h = (tml_head_t*)(layer_body);
 145              		.loc 1 69 17
 146 0120 014B     		li	s6,0
  66:lib/tinymaix/src/tm_stat.c ****     uint8_t*layer_body  = (uint8_t*)b->layers_body;
 147              		.loc 1 66 9
 148 0122 014C     		li	s8,0
  65:lib/tinymaix/src/tm_stat.c ****     int sum_ops   = 0;
 149              		.loc 1 65 9
 150 0124 014A     		li	s4,0
 151              	.LBB12:
  71:lib/tinymaix/src/tm_stat.c ****         TM_DBG("type=%d, is_out=%d, size=%d, in_oft=%d, out_oft=%d, in_dims=[%d,%d,%d,%d], out_dims
 152              		.loc 1 71 9
 153 0126 B70A0000 		lui	s5,%hi(.LC10)
 154              	.LBE12:
GAS LISTING C:\Users\Jesper\AppData\Local\Temp\ccjhfN0u.s 			page 6


  61:lib/tinymaix/src/tm_stat.c ****         idim[1],idim[2],idim[3], (long int)(idim[1]*idim[2]*idim[3]*sizeof(mtype_t)));
 155              		.loc 1 61 5
 156 012a 3307D702 		mul	a4,a4,a3
 157              	.LBB13:
 158              	.LBB8:
  79:lib/tinymaix/src/tm_stat.c ****             int ops = 0;
 159              		.loc 1 79 53
 160 012e 938B0B00 		addi	s7,s7,%lo(.LANCHOR1)
  81:lib/tinymaix/src/tm_stat.c ****             case TML_CONV2D: {
 161              		.loc 1 81 13
 162 0132 938C0C00 		addi	s9,s9,%lo(.L6)
 163              		.loc 1 115 13
 164 0136 130D0D00 		addi	s10,s10,%lo(.LANCHOR2)
 165              	.LBE8:
 166              	.LBE13:
  61:lib/tinymaix/src/tm_stat.c ****         idim[1],idim[2],idim[3], (long int)(idim[1]*idim[2]*idim[3]*sizeof(mtype_t)));
 167              		.loc 1 61 5
 168 013a 97000000 		call	printf
 168      E7800000 
 169              	.LVL11:
  65:lib/tinymaix/src/tm_stat.c ****     int sum_ops   = 0;
 170              		.loc 1 65 5 is_stmt 1
  66:lib/tinymaix/src/tm_stat.c ****     uint8_t*layer_body  = (uint8_t*)b->layers_body;
 171              		.loc 1 66 5
  67:lib/tinymaix/src/tm_stat.c ****     int layer_i;
 172              		.loc 1 67 5
  68:lib/tinymaix/src/tm_stat.c ****     for(layer_i = 0; layer_i < b->layer_cnt; layer_i++){
 173              		.loc 1 68 5
  69:lib/tinymaix/src/tm_stat.c ****         tml_head_t* h = (tml_head_t*)(layer_body);
 174              		.loc 1 69 5
 175              	.L2:
  69:lib/tinymaix/src/tm_stat.c ****         tml_head_t* h = (tml_head_t*)(layer_body);
 176              		.loc 1 69 33 is_stmt 0 discriminator 1
 177 0142 8357A900 		lhu	a5,10(s2)
  69:lib/tinymaix/src/tm_stat.c ****         tml_head_t* h = (tml_head_t*)(layer_body);
 178              		.loc 1 69 5 discriminator 1
 179 0146 6342FB0A 		bgt	a5,s6,.L11
 116:lib/tinymaix/src/tm_stat.c ****                 h->out_dims[1], h->out_dims[2], h->out_dims[3], \
 117:lib/tinymaix/src/tm_stat.c ****                 h->in_oft, h->out_oft, h->size - tml_headsize_tbl[h->type], \
 118:lib/tinymaix/src/tm_stat.c ****                 (long int)(memout*sizeof(mtype_t)));
 119:lib/tinymaix/src/tm_stat.c ****             printf("%d\r\n", ops);
 120:lib/tinymaix/src/tm_stat.c ****         } else {
 121:lib/tinymaix/src/tm_stat.c ****             return TM_ERR_LAYERTYPE;
 122:lib/tinymaix/src/tm_stat.c ****         }
 123:lib/tinymaix/src/tm_stat.c ****         layer_body += (h->size);
 124:lib/tinymaix/src/tm_stat.c ****     }
 125:lib/tinymaix/src/tm_stat.c ****     printf("\r\nTotal param ~%.1f KB, OPS ~%.2f MOPS, buffer %.1f KB\r\n\r\n", \
 180              		.loc 1 125 5 is_stmt 1
 126:lib/tinymaix/src/tm_stat.c ****         sum_param/1024.0, sum_ops/1000000.0, (b->buf_size + b->sub_size)/1024.0);
 181              		.loc 1 126 59 is_stmt 0
 182 014a 83270901 		lw	a5,16(s2)
 183 014e 0325C900 		lw	a0,12(s2)
 125:lib/tinymaix/src/tm_stat.c ****         sum_param/1024.0, sum_ops/1000000.0, (b->buf_size + b->sub_size)/1024.0);
 184              		.loc 1 125 5
 185 0152 37040000 		lui	s0,%hi(.LC18)
 186              	.LVL12:
 187 0156 3E95     		add	a0,a0,a5
GAS LISTING C:\Users\Jesper\AppData\Local\Temp\ccjhfN0u.s 			page 7


 188 0158 97000000 		call	__floatunsidf
 188      E7800000 
 189              	.LVL13:
 190 0160 03260400 		lw	a2,%lo(.LC18)(s0)
 191 0164 83264400 		lw	a3,%lo(.LC18+4)(s0)
 192 0168 97000000 		call	__muldf3
 192      E7800000 
 193              	.LVL14:
 194 0170 AAC4     		sw	a0,72(sp)
 195 0172 6285     		mv	a0,s8
 196 0174 AEC6     		sw	a1,76(sp)
 197 0176 97000000 		call	__floatsidf
 197      E7800000 
 198              	.LVL15:
 199 017e B7070000 		lui	a5,%hi(.LC19)
 200 0182 03A60700 		lw	a2,%lo(.LC19)(a5)
 201 0186 83A64700 		lw	a3,%lo(.LC19+4)(a5)
 202 018a 97000000 		call	__divdf3
 202      E7800000 
 203              	.LVL16:
 204 0192 AAC0     		sw	a0,64(sp)
 205 0194 5285     		mv	a0,s4
 206 0196 AEC2     		sw	a1,68(sp)
 207 0198 97000000 		call	__floatsidf
 207      E7800000 
 208              	.LVL17:
 209 01a0 03260400 		lw	a2,%lo(.LC18)(s0)
 210 01a4 83264400 		lw	a3,%lo(.LC18+4)(s0)
 211 01a8 97000000 		call	__muldf3
 211      E7800000 
 212              	.LVL18:
 213 01b0 2648     		lw	a6,72(sp)
 214 01b2 B648     		lw	a7,76(sp)
 215 01b4 0647     		lw	a4,64(sp)
 216 01b6 9647     		lw	a5,68(sp)
 217 01b8 2A86     		mv	a2,a0
 218 01ba 37050000 		lui	a0,%hi(.LC20)
 219 01be AE86     		mv	a3,a1
 220 01c0 13050500 		addi	a0,a0,%lo(.LC20)
 221 01c4 97000000 		call	printf
 221      E7800000 
 222              	.LVL19:
 127:lib/tinymaix/src/tm_stat.c ****     return TM_OK;
 223              		.loc 1 127 5 is_stmt 1
 224              		.loc 1 127 12 is_stmt 0
 225 01cc 0145     		li	a0,0
 226              	.L1:
 128:lib/tinymaix/src/tm_stat.c **** } 
 227              		.loc 1 128 1
 228 01ce BA40     		lw	ra,140(sp)
 229              		.cfi_remember_state
 230              		.cfi_restore 1
 231 01d0 2A44     		lw	s0,136(sp)
 232              		.cfi_restore 8
 233 01d2 9A44     		lw	s1,132(sp)
 234              		.cfi_restore 9
 235 01d4 0A49     		lw	s2,128(sp)
GAS LISTING C:\Users\Jesper\AppData\Local\Temp\ccjhfN0u.s 			page 8


 236              		.cfi_restore 18
 237              	.LVL20:
 238 01d6 F659     		lw	s3,124(sp)
 239              		.cfi_restore 19
 240 01d8 665A     		lw	s4,120(sp)
 241              		.cfi_restore 20
 242              	.LVL21:
 243 01da D65A     		lw	s5,116(sp)
 244              		.cfi_restore 21
 245 01dc 465B     		lw	s6,112(sp)
 246              		.cfi_restore 22
 247              	.LVL22:
 248 01de B65B     		lw	s7,108(sp)
 249              		.cfi_restore 23
 250 01e0 265C     		lw	s8,104(sp)
 251              		.cfi_restore 24
 252              	.LVL23:
 253 01e2 965C     		lw	s9,100(sp)
 254              		.cfi_restore 25
 255 01e4 065D     		lw	s10,96(sp)
 256              		.cfi_restore 26
 257 01e6 4961     		addi	sp,sp,144
 258              	.LCFI1:
 259              		.cfi_def_cfa_offset 0
 260 01e8 8280     		jr	ra
 261              	.LVL24:
 262              	.L11:
 263              	.LCFI2:
 264              		.cfi_restore_state
 265              	.LBB14:
  70:lib/tinymaix/src/tm_stat.c ****         TM_DBG("body oft = %d\n", (uint32_t)((size_t)h - (size_t)(b)));
 266              		.loc 1 70 9 is_stmt 1
  71:lib/tinymaix/src/tm_stat.c ****         TM_DBG("type=%d, is_out=%d, size=%d, in_oft=%d, out_oft=%d, in_dims=[%d,%d,%d,%d], out_dims
 267              		.loc 1 71 9
 268 01ea 93057004 		li	a1,71
 269 01ee 13850A00 		addi	a0,s5,%lo(.LC10)
 270 01f2 97000000 		call	printf
 270      E7800000 
 271              	.LVL25:
  71:lib/tinymaix/src/tm_stat.c ****         TM_DBG("type=%d, is_out=%d, size=%d, in_oft=%d, out_oft=%d, in_dims=[%d,%d,%d,%d], out_dims
 272              		.loc 1 71 9
 273 01fa 37050000 		lui	a0,%hi(.LC11)
 274 01fe B3052441 		sub	a1,s0,s2
 275 0202 13050500 		addi	a0,a0,%lo(.LC11)
 276 0206 97000000 		call	printf
 276      E7800000 
 277              	.LVL26:
  71:lib/tinymaix/src/tm_stat.c ****         TM_DBG("type=%d, is_out=%d, size=%d, in_oft=%d, out_oft=%d, in_dims=[%d,%d,%d,%d], out_dims
 278              		.loc 1 71 71
  72:lib/tinymaix/src/tm_stat.c ****                 h->type,h->is_out,h->size,h->in_oft,h->out_oft,\
 279              		.loc 1 72 9
 280 020e 9305C004 		li	a1,76
 281 0212 13850A00 		addi	a0,s5,%lo(.LC10)
 282 0216 97000000 		call	printf
 282      E7800000 
 283              	.LVL27:
  72:lib/tinymaix/src/tm_stat.c ****                 h->type,h->is_out,h->size,h->in_oft,h->out_oft,\
GAS LISTING C:\Users\Jesper\AppData\Local\Temp\ccjhfN0u.s 			page 9


 284              		.loc 1 72 9
 285 021e 4C54     		lw	a1,44(s0)
 286 0220 83582401 		lhu	a7,18(s0)
 287 0224 03580401 		lhu	a6,16(s0)
 288 0228 5C44     		lw	a5,12(s0)
 289 022a 1844     		lw	a4,8(s0)
 290 022c 5440     		lw	a3,4(s0)
 291 022e 03562400 		lhu	a2,2(s0)
 292 0232 83540400 		lhu	s1,0(s0)
 293 0236 2ED8     		sw	a1,48(sp)
 294 0238 0854     		lw	a0,40(s0)
 295 023a C6CE     		sw	a7,92(sp)
 296 023c C2CC     		sw	a6,88(sp)
 297 023e BECA     		sw	a5,84(sp)
 298 0240 BAC8     		sw	a4,80(sp)
 299 0242 B6C4     		sw	a3,72(sp)
 300 0244 B2C0     		sw	a2,64(sp)
 301 0246 97000000 		call	__extendsfdf2
 301      E7800000 
 302              	.LVL28:
 303 024e 2AD4     		sw	a0,40(sp)
 304 0250 2ED6     		sw	a1,44(sp)
 305 0252 4C50     		lw	a1,36(s0)
 306 0254 2ED0     		sw	a1,32(sp)
 307 0256 0850     		lw	a0,32(s0)
 308 0258 97000000 		call	__extendsfdf2
 308      E7800000 
 309              	.LVL29:
 310 0260 2ACC     		sw	a0,24(sp)
 311 0262 2ECE     		sw	a1,28(sp)
 312 0264 8355E401 		lhu	a1,30(s0)
 313 0268 D647     		lw	a5,84(sp)
 314 026a 4647     		lw	a4,80(sp)
 315 026c 2ECA     		sw	a1,20(sp)
 316 026e 8355C401 		lhu	a1,28(s0)
 317 0272 F648     		lw	a7,92(sp)
 318 0274 6648     		lw	a6,88(sp)
 319 0276 2EC8     		sw	a1,16(sp)
 320 0278 8355A401 		lhu	a1,26(s0)
 321 027c A646     		lw	a3,72(sp)
 322 027e 37050000 		lui	a0,%hi(.LC12)
 323 0282 2EC6     		sw	a1,12(sp)
 324 0284 83558401 		lhu	a1,24(s0)
 325 0288 13050500 		addi	a0,a0,%lo(.LC12)
 326 028c 2EC4     		sw	a1,8(sp)
 327 028e 83556401 		lhu	a1,22(s0)
 328 0292 2EC2     		sw	a1,4(sp)
 329 0294 83554401 		lhu	a1,20(s0)
 330 0298 2EC0     		sw	a1,0(sp)
 331 029a 0646     		lw	a2,64(sp)
 332 029c A685     		mv	a1,s1
 333 029e 97000000 		call	printf
 333      E7800000 
 334              	.LVL30:
  76:lib/tinymaix/src/tm_stat.c ****         if(h->type < TML_MAXCNT) {
 335              		.loc 1 76 75
  77:lib/tinymaix/src/tm_stat.c ****             int memout = h->out_dims[1]*h->out_dims[2]*h->out_dims[3];
GAS LISTING C:\Users\Jesper\AppData\Local\Temp\ccjhfN0u.s 			page 10


 336              		.loc 1 77 9
  77:lib/tinymaix/src/tm_stat.c ****             int memout = h->out_dims[1]*h->out_dims[2]*h->out_dims[3];
 337              		.loc 1 77 13 is_stmt 0
 338 02a6 03570400 		lhu	a4,0(s0)
  77:lib/tinymaix/src/tm_stat.c ****             int memout = h->out_dims[1]*h->out_dims[2]*h->out_dims[3];
 339              		.loc 1 77 11
 340 02aa 9947     		li	a5,6
 341 02ac 63E5E71C 		bgtu	a4,a5,.L12
 342              	.LBB9:
  78:lib/tinymaix/src/tm_stat.c ****             sum_param += (h->size - tml_headsize_tbl[h->type]);
 343              		.loc 1 78 13 is_stmt 1
  78:lib/tinymaix/src/tm_stat.c ****             sum_param += (h->size - tml_headsize_tbl[h->type]);
 344              		.loc 1 78 52 is_stmt 0
 345 02b0 8357C401 		lhu	a5,28(s0)
  78:lib/tinymaix/src/tm_stat.c ****             sum_param += (h->size - tml_headsize_tbl[h->type]);
 346              		.loc 1 78 37
 347 02b4 8359A401 		lhu	s3,26(s0)
  78:lib/tinymaix/src/tm_stat.c ****             sum_param += (h->size - tml_headsize_tbl[h->type]);
 348              		.loc 1 78 67
 349 02b8 8354E401 		lhu	s1,30(s0)
  78:lib/tinymaix/src/tm_stat.c ****             sum_param += (h->size - tml_headsize_tbl[h->type]);
 350              		.loc 1 78 40
 351 02bc B389F902 		mul	s3,s3,a5
  79:lib/tinymaix/src/tm_stat.c ****             int ops = 0;
 352              		.loc 1 79 23
 353 02c0 5C40     		lw	a5,4(s0)
 354 02c2 3E9A     		add	s4,s4,a5
 355              	.LVL31:
  79:lib/tinymaix/src/tm_stat.c ****             int ops = 0;
 356              		.loc 1 79 53
 357 02c4 93172700 		slli	a5,a4,2
 358 02c8 B386FB00 		add	a3,s7,a5
  79:lib/tinymaix/src/tm_stat.c ****             int ops = 0;
 359              		.loc 1 79 23
 360 02cc 9442     		lw	a3,0(a3)
 361 02ce 330ADA40 		sub	s4,s4,a3
  81:lib/tinymaix/src/tm_stat.c ****             case TML_CONV2D: {
 362              		.loc 1 81 13
 363 02d2 9546     		li	a3,5
  78:lib/tinymaix/src/tm_stat.c ****             sum_param += (h->size - tml_headsize_tbl[h->type]);
 364              		.loc 1 78 17
 365 02d4 B3899902 		mul	s3,s3,s1
 366              	.LVL32:
  79:lib/tinymaix/src/tm_stat.c ****             int ops = 0;
 367              		.loc 1 79 13 is_stmt 1
  80:lib/tinymaix/src/tm_stat.c ****             switch(h->type){
 368              		.loc 1 80 13
  81:lib/tinymaix/src/tm_stat.c ****             case TML_CONV2D: {
 369              		.loc 1 81 13
 370 02d8 63EDE618 		bgtu	a4,a3,.L13
 371 02dc E697     		add	a5,a5,s9
 372 02de 9C43     		lw	a5,0(a5)
 373 02e0 8287     		jr	a5
 374              		.section	.rodata.tm_stat,"a",@progbits
 375              		.align	2
 376              		.align	2
 377              	.L6:
GAS LISTING C:\Users\Jesper\AppData\Local\Temp\ccjhfN0u.s 			page 11


 378 0000 00000000 		.word	.L10
 379 0004 00000000 		.word	.L9
 380 0008 00000000 		.word	.L8
 381 000c 00000000 		.word	.L7
 382 0010 00000000 		.word	.L13
 383 0014 00000000 		.word	.L5
 384              		.section	.text.tm_stat
 385              	.L10:
 386              	.LBB4:
  83:lib/tinymaix/src/tm_stat.c ****                 ops = memout*(l->kernel_w)*(l->kernel_h)*(h->in_dims[3]);   //MAC as ops
 387              		.loc 1 83 17
 388              	.LVL33:
  84:lib/tinymaix/src/tm_stat.c ****                 TM_DBG("Conv2d: kw=%d, kh=%d, sw=%d, sh=%d, dw=%d, dh=%d, act=%d, pad=[%d,%d,%d,%d]
 389              		.loc 1 84 17
  84:lib/tinymaix/src/tm_stat.c ****                 TM_DBG("Conv2d: kw=%d, kh=%d, sw=%d, sh=%d, dw=%d, dh=%d, act=%d, pad=[%d,%d,%d,%d]
 390              		.loc 1 84 32 is_stmt 0
 391 02e2 83440403 		lbu	s1,48(s0)
  84:lib/tinymaix/src/tm_stat.c ****                 TM_DBG("Conv2d: kw=%d, kh=%d, sw=%d, sh=%d, dw=%d, dh=%d, act=%d, pad=[%d,%d,%d,%d]
 392              		.loc 1 84 46
 393 02e6 83471403 		lbu	a5,49(s0)
  85:lib/tinymaix/src/tm_stat.c ****                     l->kernel_w, l->kernel_h, l->stride_w, l->stride_h, l->dilation_w, l->dilation_
 394              		.loc 1 85 17
 395 02ea 93058005 		li	a1,88
  84:lib/tinymaix/src/tm_stat.c ****                 TM_DBG("Conv2d: kw=%d, kh=%d, sw=%d, sh=%d, dw=%d, dh=%d, act=%d, pad=[%d,%d,%d,%d]
 396              		.loc 1 84 29
 397 02ee B3843403 		mul	s1,s1,s3
  85:lib/tinymaix/src/tm_stat.c ****                     l->kernel_w, l->kernel_h, l->stride_w, l->stride_h, l->dilation_w, l->dilation_
 398              		.loc 1 85 17
 399 02f2 13850A00 		addi	a0,s5,%lo(.LC10)
  84:lib/tinymaix/src/tm_stat.c ****                 TM_DBG("Conv2d: kw=%d, kh=%d, sw=%d, sh=%d, dw=%d, dh=%d, act=%d, pad=[%d,%d,%d,%d]
 400              		.loc 1 84 43
 401 02f6 B384F402 		mul	s1,s1,a5
  84:lib/tinymaix/src/tm_stat.c ****                 TM_DBG("Conv2d: kw=%d, kh=%d, sw=%d, sh=%d, dw=%d, dh=%d, act=%d, pad=[%d,%d,%d,%d]
 402              		.loc 1 84 69
 403 02fa 83576401 		lhu	a5,22(s0)
  84:lib/tinymaix/src/tm_stat.c ****                 TM_DBG("Conv2d: kw=%d, kh=%d, sw=%d, sh=%d, dw=%d, dh=%d, act=%d, pad=[%d,%d,%d,%d]
 404              		.loc 1 84 21
 405 02fe B384F402 		mul	s1,s1,a5
 406              	.LVL34:
  85:lib/tinymaix/src/tm_stat.c ****                     l->kernel_w, l->kernel_h, l->stride_w, l->stride_h, l->dilation_w, l->dilation_
 407              		.loc 1 85 17 is_stmt 1
 408 0302 97000000 		call	printf
 408      E7800000 
 409              	.LVL35:
  85:lib/tinymaix/src/tm_stat.c ****                     l->kernel_w, l->kernel_h, l->stride_w, l->stride_h, l->dilation_w, l->dilation_
 410              		.loc 1 85 17
 411 030a 7C44     		lw	a5,76(s0)
 412 030c 37050000 		lui	a0,%hi(.LC13)
 413 0310 13050500 		addi	a0,a0,%lo(.LC13)
 414 0314 3ECE     		sw	a5,28(sp)
 415 0316 3C44     		lw	a5,72(s0)
 416 0318 3ECC     		sw	a5,24(sp)
 417 031a 7C40     		lw	a5,68(s0)
 418 031c 3ECA     		sw	a5,20(sp)
 419 031e 5C5C     		lw	a5,60(s0)
 420 0320 3EC8     		sw	a5,16(sp)
 421 0322 8347B403 		lbu	a5,59(s0)
GAS LISTING C:\Users\Jesper\AppData\Local\Temp\ccjhfN0u.s 			page 12


 422 0326 3EC6     		sw	a5,12(sp)
 423 0328 8347A403 		lbu	a5,58(s0)
 424 032c 3EC4     		sw	a5,8(sp)
 425 032e 83479403 		lbu	a5,57(s0)
 426 0332 3EC2     		sw	a5,4(sp)
 427 0334 83478403 		lbu	a5,56(s0)
 428 0338 3EC0     		sw	a5,0(sp)
 429 033a 83586403 		lhu	a7,54(s0)
 430 033e 03485403 		lbu	a6,53(s0)
 431 0342 83474403 		lbu	a5,52(s0)
 432 0346 03473403 		lbu	a4,51(s0)
 433 034a 83462403 		lbu	a3,50(s0)
 434 034e 03461403 		lbu	a2,49(s0)
 435 0352 83450403 		lbu	a1,48(s0)
 436              	.LVL36:
 437              	.L15:
 438              	.LBE4:
 439              	.LBB5:
 105:lib/tinymaix/src/tm_stat.c ****                     l->kernel_w, l->kernel_h, l->stride_w, l->stride_h, l->dilation_w, l->dilation_
 440              		.loc 1 105 17 is_stmt 0
 441 0356 97000000 		call	printf
 441      E7800000 
 442              	.LVL37:
 108:lib/tinymaix/src/tm_stat.c ****                 break;}
 443              		.loc 1 108 51 is_stmt 1
 109:lib/tinymaix/src/tm_stat.c ****             default:
 444              		.loc 1 109 17
 445 035e 99A0     		j	.L4
 446              	.LVL38:
 447              	.L9:
 448              	.LBE5:
  91:lib/tinymaix/src/tm_stat.c ****                 break;
 449              		.loc 1 91 17
  91:lib/tinymaix/src/tm_stat.c ****                 break;
 450              		.loc 1 91 50 is_stmt 0
 451 0360 83574401 		lhu	a5,20(s0)
  91:lib/tinymaix/src/tm_stat.c ****                 break;
 452              		.loc 1 91 34
 453 0364 83542401 		lhu	s1,18(s0)
  91:lib/tinymaix/src/tm_stat.c ****                 break;
 454              		.loc 1 91 38
 455 0368 B384F402 		mul	s1,s1,a5
  91:lib/tinymaix/src/tm_stat.c ****                 break;
 456              		.loc 1 91 66
 457 036c 83576401 		lhu	a5,22(s0)
 458              	.L16:
 100:lib/tinymaix/src/tm_stat.c ****                 break;
 459              		.loc 1 100 21
 460 0370 B384F402 		mul	s1,s1,a5
 461              	.LVL39:
 101:lib/tinymaix/src/tm_stat.c ****             case TML_DWCONV2D: {
 462              		.loc 1 101 17 is_stmt 1
 463 0374 05A8     		j	.L4
 464              	.LVL40:
 465              	.L8:
 466              	.LBB6:
  94:lib/tinymaix/src/tm_stat.c ****                 ops = (h->out_dims[3])*(h->in_dims[3]);         //MAC as ops
GAS LISTING C:\Users\Jesper\AppData\Local\Temp\ccjhfN0u.s 			page 13


 467              		.loc 1 94 17
  95:lib/tinymaix/src/tm_stat.c ****                 TM_DBG("FC: ws_oft=%d, w_oft=%d, b_oft=%d\n",\
 468              		.loc 1 95 17
  95:lib/tinymaix/src/tm_stat.c ****                 TM_DBG("FC: ws_oft=%d, w_oft=%d, b_oft=%d\n",\
 469              		.loc 1 95 51 is_stmt 0
 470 0376 83576401 		lhu	a5,22(s0)
  96:lib/tinymaix/src/tm_stat.c ****                     l->ws_oft, l->w_oft, l->b_oft);
 471              		.loc 1 96 17
 472 037a 93051006 		li	a1,97
 473 037e 13850A00 		addi	a0,s5,%lo(.LC10)
  95:lib/tinymaix/src/tm_stat.c ****                 TM_DBG("FC: ws_oft=%d, w_oft=%d, b_oft=%d\n",\
 474              		.loc 1 95 21
 475 0382 B3849702 		mul	s1,a5,s1
 476              	.LVL41:
  96:lib/tinymaix/src/tm_stat.c ****                     l->ws_oft, l->w_oft, l->b_oft);
 477              		.loc 1 96 17 is_stmt 1
 478 0386 97000000 		call	printf
 478      E7800000 
 479              	.LVL42:
  96:lib/tinymaix/src/tm_stat.c ****                     l->ws_oft, l->w_oft, l->b_oft);
 480              		.loc 1 96 17
 481 038e 145C     		lw	a3,56(s0)
 482 0390 5058     		lw	a2,52(s0)
 483 0392 0C58     		lw	a1,48(s0)
 484 0394 37050000 		lui	a0,%hi(.LC14)
 485 0398 13050500 		addi	a0,a0,%lo(.LC14)
 486 039c 97000000 		call	printf
 486      E7800000 
 487              	.LVL43:
  97:lib/tinymaix/src/tm_stat.c ****                 break;}
 488              		.loc 1 97 51
  98:lib/tinymaix/src/tm_stat.c ****             case TML_SOFTMAX:
 489              		.loc 1 98 17
 490              	.L4:
 491              	.LBE6:
 114:lib/tinymaix/src/tm_stat.c ****             printf("%03d\t%s      \t%3d,%3d,%3d\t%d\t%d\t%d\t%ld\t", layer_i, tml_str_tbl[h->type],
 492              		.loc 1 114 13
 115:lib/tinymaix/src/tm_stat.c ****                 h->out_dims[1], h->out_dims[2], h->out_dims[3], \
 493              		.loc 1 115 92 is_stmt 0
 494 03a4 83570400 		lhu	a5,0(s0)
 115:lib/tinymaix/src/tm_stat.c ****                 h->out_dims[1], h->out_dims[2], h->out_dims[3], \
 495              		.loc 1 115 13
 496 03a8 4EC2     		sw	s3,4(sp)
 497 03aa 5840     		lw	a4,4(s0)
 498 03ac 8A07     		slli	a5,a5,2
 499 03ae 3306FD00 		add	a2,s10,a5
 117:lib/tinymaix/src/tm_stat.c ****                 (long int)(memout*sizeof(mtype_t)));
 500              		.loc 1 117 66
 501 03b2 DE97     		add	a5,s7,a5
 115:lib/tinymaix/src/tm_stat.c ****                 h->out_dims[1], h->out_dims[2], h->out_dims[3], \
 502              		.loc 1 115 13
 503 03b4 9C43     		lw	a5,0(a5)
 504 03b6 1042     		lw	a2,0(a2)
 505 03b8 37050000 		lui	a0,%hi(.LC16)
 506 03bc B307F740 		sub	a5,a4,a5
 507 03c0 3EC0     		sw	a5,0(sp)
 508 03c2 8357E401 		lhu	a5,30(s0)
GAS LISTING C:\Users\Jesper\AppData\Local\Temp\ccjhfN0u.s 			page 14


 509 03c6 8328C400 		lw	a7,12(s0)
 510 03ca 03288400 		lw	a6,8(s0)
 511 03ce 0357C401 		lhu	a4,28(s0)
 512 03d2 8356A401 		lhu	a3,26(s0)
 513 03d6 DA85     		mv	a1,s6
 514 03d8 13050500 		addi	a0,a0,%lo(.LC16)
 515 03dc 97000000 		call	printf
 515      E7800000 
 516              	.LVL44:
 119:lib/tinymaix/src/tm_stat.c ****         } else {
 517              		.loc 1 119 13
 518 03e4 37050000 		lui	a0,%hi(.LC17)
 519 03e8 A685     		mv	a1,s1
 520 03ea 13050500 		addi	a0,a0,%lo(.LC17)
 521 03ee 97000000 		call	printf
 521      E7800000 
 522              	.LVL45:
 523              	.LBE9:
 123:lib/tinymaix/src/tm_stat.c ****     }
 524              		.loc 1 123 25
 525 03f6 5C40     		lw	a5,4(s0)
 526              	.LBB10:
 114:lib/tinymaix/src/tm_stat.c ****             printf("%03d\t%s      \t%3d,%3d,%3d\t%d\t%d\t%d\t%ld\t", layer_i, tml_str_tbl[h->type],
 527              		.loc 1 114 21
 528 03f8 269C     		add	s8,s8,s1
 529              	.LVL46:
 115:lib/tinymaix/src/tm_stat.c ****                 h->out_dims[1], h->out_dims[2], h->out_dims[3], \
 530              		.loc 1 115 13 is_stmt 1
 119:lib/tinymaix/src/tm_stat.c ****         } else {
 531              		.loc 1 119 13
 532              	.LBE10:
 123:lib/tinymaix/src/tm_stat.c ****     }
 533              		.loc 1 123 9
 534              	.LBE14:
  69:lib/tinymaix/src/tm_stat.c ****         tml_head_t* h = (tml_head_t*)(layer_body);
 535              		.loc 1 69 53 is_stmt 0
 536 03fa 050B     		addi	s6,s6,1
 537              	.LVL47:
 538              	.LBB15:
 123:lib/tinymaix/src/tm_stat.c ****     }
 539              		.loc 1 123 20
 540 03fc 3E94     		add	s0,s0,a5
 541              	.LVL48:
 542 03fe 91B3     		j	.L2
 543              	.LVL49:
 544              	.L7:
 545              	.LBB11:
 100:lib/tinymaix/src/tm_stat.c ****                 break;
 546              		.loc 1 100 17 is_stmt 1
 100:lib/tinymaix/src/tm_stat.c ****                 break;
 547              		.loc 1 100 21 is_stmt 0
 548 0400 9947     		li	a5,6
 549 0402 BDB7     		j	.L16
 550              	.L5:
 551              	.LBB7:
 103:lib/tinymaix/src/tm_stat.c ****                 ops = memout*(l->kernel_w)*(l->kernel_h)*1;   //MAC as ops
 552              		.loc 1 103 17 is_stmt 1
GAS LISTING C:\Users\Jesper\AppData\Local\Temp\ccjhfN0u.s 			page 15


 553              	.LVL50:
 104:lib/tinymaix/src/tm_stat.c ****                 TM_DBG("DWConv2d: kw=%d, kh=%d, sw=%d, sh=%d, dw=%d, dh=%d, act=%d, pad=[%d,%d,%d,%
 554              		.loc 1 104 17
 104:lib/tinymaix/src/tm_stat.c ****                 TM_DBG("DWConv2d: kw=%d, kh=%d, sw=%d, sh=%d, dw=%d, dh=%d, act=%d, pad=[%d,%d,%d,%
 555              		.loc 1 104 32 is_stmt 0
 556 0404 83440403 		lbu	s1,48(s0)
 104:lib/tinymaix/src/tm_stat.c ****                 TM_DBG("DWConv2d: kw=%d, kh=%d, sw=%d, sh=%d, dw=%d, dh=%d, act=%d, pad=[%d,%d,%d,%
 557              		.loc 1 104 46
 558 0408 83471403 		lbu	a5,49(s0)
 105:lib/tinymaix/src/tm_stat.c ****                     l->kernel_w, l->kernel_h, l->stride_w, l->stride_h, l->dilation_w, l->dilation_
 559              		.loc 1 105 17
 560 040c 9305C006 		li	a1,108
 104:lib/tinymaix/src/tm_stat.c ****                 TM_DBG("DWConv2d: kw=%d, kh=%d, sw=%d, sh=%d, dw=%d, dh=%d, act=%d, pad=[%d,%d,%d,%
 561              		.loc 1 104 29
 562 0410 B3843403 		mul	s1,s1,s3
 105:lib/tinymaix/src/tm_stat.c ****                     l->kernel_w, l->kernel_h, l->stride_w, l->stride_h, l->dilation_w, l->dilation_
 563              		.loc 1 105 17
 564 0414 13850A00 		addi	a0,s5,%lo(.LC10)
 104:lib/tinymaix/src/tm_stat.c ****                 TM_DBG("DWConv2d: kw=%d, kh=%d, sw=%d, sh=%d, dw=%d, dh=%d, act=%d, pad=[%d,%d,%d,%
 565              		.loc 1 104 21
 566 0418 B384F402 		mul	s1,s1,a5
 567              	.LVL51:
 105:lib/tinymaix/src/tm_stat.c ****                     l->kernel_w, l->kernel_h, l->stride_w, l->stride_h, l->dilation_w, l->dilation_
 568              		.loc 1 105 17 is_stmt 1
 569 041c 97000000 		call	printf
 569      E7800000 
 570              	.LVL52:
 105:lib/tinymaix/src/tm_stat.c ****                     l->kernel_w, l->kernel_h, l->stride_w, l->stride_h, l->dilation_w, l->dilation_
 571              		.loc 1 105 17
 572 0424 7C44     		lw	a5,76(s0)
 573 0426 37050000 		lui	a0,%hi(.LC15)
 574 042a 13050500 		addi	a0,a0,%lo(.LC15)
 575 042e 3ECE     		sw	a5,28(sp)
 576 0430 3C44     		lw	a5,72(s0)
 577 0432 3ECC     		sw	a5,24(sp)
 578 0434 7C40     		lw	a5,68(s0)
 579 0436 3ECA     		sw	a5,20(sp)
 580 0438 5C5C     		lw	a5,60(s0)
 581 043a 3EC8     		sw	a5,16(sp)
 582 043c 8347B403 		lbu	a5,59(s0)
 583 0440 3EC6     		sw	a5,12(sp)
 584 0442 8347A403 		lbu	a5,58(s0)
 585 0446 3EC4     		sw	a5,8(sp)
 586 0448 83479403 		lbu	a5,57(s0)
 587 044c 3EC2     		sw	a5,4(sp)
 588 044e 83478403 		lbu	a5,56(s0)
 589 0452 3EC0     		sw	a5,0(sp)
 590 0454 83586403 		lhu	a7,54(s0)
 591 0458 03485403 		lbu	a6,53(s0)
 592 045c 83474403 		lbu	a5,52(s0)
 593 0460 03473403 		lbu	a4,51(s0)
 594 0464 83462403 		lbu	a3,50(s0)
 595 0468 03461403 		lbu	a2,49(s0)
 596 046c 83450403 		lbu	a1,48(s0)
 597 0470 DDB5     		j	.L15
 598              	.LVL53:
 599              	.L13:
GAS LISTING C:\Users\Jesper\AppData\Local\Temp\ccjhfN0u.s 			page 16


 600              	.LBE7:
 111:lib/tinymaix/src/tm_stat.c ****                 break;
 601              		.loc 1 111 21 is_stmt 0
 602 0472 8144     		li	s1,0
 603 0474 05BF     		j	.L4
 604              	.LVL54:
 605              	.L12:
 606              	.LBE11:
 121:lib/tinymaix/src/tm_stat.c ****         }
 607              		.loc 1 121 20
 608 0476 1545     		li	a0,5
 609 0478 99BB     		j	.L1
 610              	.LBE15:
 611              		.cfi_endproc
 612              	.LFE26:
 614              		.section	.rodata.mdl_type_str,"a"
 615              		.align	2
 616              		.set	.LANCHOR0,. + 0
 619              	mdl_type_str:
 620 0000 00000000 		.word	.LC28
 621 0004 00000000 		.word	.LC29
 622 0008 00000000 		.word	.LC30
 623 000c 00000000 		.word	.LC31
 624 0010 00000000 		.word	.LC32
 625 0014 00000000 		.word	.LC33
 626              		.section	.rodata.str1.4,"aMS",@progbits,1
 627              		.align	2
 628              	.LC21:
 629 0000 436F6E76 		.string	"Conv2D"
 629      324400
 630 0007 00       		.zero	1
 631              	.LC22:
 632 0008 47415000 		.string	"GAP"
 633              	.LC23:
 634 000c 464300   		.string	"FC"
 635 000f 00       		.zero	1
 636              	.LC24:
 637 0010 536F6674 		.string	"Softmax"
 637      6D617800 
 638              	.LC25:
 639 0018 52657368 		.string	"Reshape"
 639      61706500 
 640              	.LC26:
 641 0020 4457436F 		.string	"DWConv2D"
 641      6E763244 
 641      00
 642 0029 000000   		.zero	3
 643              	.LC27:
 644 002c 41444400 		.string	"ADD"
 645              	.LC28:
 646 0030 696E7438 		.string	"int8"
 646      00
 647 0035 000000   		.zero	3
 648              	.LC29:
 649 0038 696E7431 		.string	"int16"
 649      3600
 650 003e 0000     		.zero	2
GAS LISTING C:\Users\Jesper\AppData\Local\Temp\ccjhfN0u.s 			page 17


 651              	.LC30:
 652 0040 66703332 		.string	"fp32"
 652      00
 653 0045 000000   		.zero	3
 654              	.LC31:
 655 0048 66703136 		.string	"fp16"
 655      00
 656 004d 000000   		.zero	3
 657              	.LC32:
 658 0050 66703820 		.string	"fp8 1.4.3"
 658      312E342E 
 658      3300
 659 005a 0000     		.zero	2
 660              	.LC33:
 661 005c 66703820 		.string	"fp8 1.5.2"
 661      312E352E 
 661      3200
 662              		.section	.rodata.tm_stat.cst8,"aM",@progbits,8
 663              		.align	3
 664              	.LC18:
 665 0000 00000000 		.word	0
 666 0004 0000503F 		.word	1062207488
 667              	.LC19:
 668 0008 00000000 		.word	0
 669 000c 80842E41 		.word	1093567616
 670              		.section	.rodata.tm_stat.str1.4,"aMS",@progbits,1
 671              		.align	2
 672              	.LC0:
 673 0000 3D3D3D3D 		.string	"================================ model stat ================================"
 673      3D3D3D3D 
 673      3D3D3D3D 
 673      3D3D3D3D 
 673      3D3D3D3D 
 674 004d 000000   		.zero	3
 675              	.LC1:
 676 0050 6D646C5F 		.string	"mdl_type=%d (%s))\n"
 676      74797065 
 676      3D256420 
 676      28257329 
 676      290A00
 677 0063 00       		.zero	1
 678              	.LC2:
 679 0064 6F75745F 		.string	"out_deq=%d \n"
 679      6465713D 
 679      2564200A 
 679      00
 680 0071 000000   		.zero	3
 681              	.LC3:
 682 0074 696E7075 		.string	"input_cnt=%d, output_cnt=%d, layer_cnt=%d\n"
 682      745F636E 
 682      743D2564 
 682      2C206F75 
 682      74707574 
 683 009f 00       		.zero	1
 684              	.LC4:
 685 00a0 696E7075 		.string	"input %ddims: (%d, %d, %d)\n"
 685      74202564 
GAS LISTING C:\Users\Jesper\AppData\Local\Temp\ccjhfN0u.s 			page 18


 685      64696D73 
 685      3A202825 
 685      642C2025 
 686              	.LC5:
 687 00bc 6F757470 		.string	"output %ddims: (%d, %d, %d)\n"
 687      75742025 
 687      6464696D 
 687      733A2028 
 687      25642C20 
 688 00d9 000000   		.zero	3
 689              	.LC6:
 690 00dc 6D61696E 		.string	"main buf size %d; sub buf size %d\n"
 690      20627566 
 690      2073697A 
 690      65202564 
 690      3B207375 
 691 00ff 00       		.zero	1
 692              	.LC7:
 693 0100 2F2F4E6F 		.string	"//Note: PARAM is layer param size, include align padding\r\n\r"
 693      74653A20 
 693      50415241 
 693      4D206973 
 693      206C6179 
 694              	.LC8:
 695 013c 49647809 		.string	"Idx\tLayer\t         outshape\tinoft\toutoft\tPARAM\tMEMOUT OPS"
 695      4C617965 
 695      72092020 
 695      20202020 
 695      2020206F 
 696 0176 0000     		.zero	2
 697              	.LC9:
 698 0178 2D2D2D09 		.string	"---\tInput    \t%3d,%3d,%3d\t-   \t0    \t0 \t%ld \t0\n"
 698      496E7075 
 698      74202020 
 698      20092533 
 698      642C2533 
 699              	.LC10:
 700 01a8 2323234C 		.string	"###L%d: "
 700      25643A20 
 700      00
 701 01b1 000000   		.zero	3
 702              	.LC11:
 703 01b4 626F6479 		.string	"body oft = %d\n"
 703      206F6674 
 703      203D2025 
 703      640A00
 704 01c3 00       		.zero	1
 705              	.LC12:
 706 01c4 74797065 		.string	"type=%d, is_out=%d, size=%d, in_oft=%d, out_oft=%d, in_dims=[%d,%d,%d,%d], out_dims=[%d,%
 706      3D25642C 
 706      2069735F 
 706      6F75743D 
 706      25642C20 
 707 0253 00       		.zero	1
 708              	.LC13:
 709 0254 436F6E76 		.string	"Conv2d: kw=%d, kh=%d, sw=%d, sh=%d, dw=%d, dh=%d, act=%d, pad=[%d,%d,%d,%d], dmul=%d, ws_
 709      32643A20 
GAS LISTING C:\Users\Jesper\AppData\Local\Temp\ccjhfN0u.s 			page 19


 709      6B773D25 
 709      642C206B 
 709      683D2564 
 710 02c9 000000   		.zero	3
 711              	.LC14:
 712 02cc 46433A20 		.string	"FC: ws_oft=%d, w_oft=%d, b_oft=%d\n"
 712      77735F6F 
 712      66743D25 
 712      642C2077 
 712      5F6F6674 
 713 02ef 00       		.zero	1
 714              	.LC15:
 715 02f0 4457436F 		.string	"DWConv2d: kw=%d, kh=%d, sw=%d, sh=%d, dw=%d, dh=%d, act=%d, pad=[%d,%d,%d,%d], dmul=%d, w
 715      6E763264 
 715      3A206B77 
 715      3D25642C 
 715      206B683D 
 716 0367 00       		.zero	1
 717              	.LC16:
 718 0368 25303364 		.string	"%03d\t%s      \t%3d,%3d,%3d\t%d\t%d\t%d\t%ld\t"
 718      09257320 
 718      20202020 
 718      20092533 
 718      642C2533 
 719              	.LC17:
 720 0390 25640D0A 		.string	"%d\r\n"
 720      00
 721 0395 000000   		.zero	3
 722              	.LC20:
 723 0398 0D0A546F 		.string	"\r\nTotal param ~%.1f KB, OPS ~%.2f MOPS, buffer %.1f KB\r\n\r\n"
 723      74616C20 
 723      70617261 
 723      6D207E25 
 723      2E316620 
 724              		.section	.rodata.tml_headsize_tbl,"a"
 725              		.align	2
 726              		.set	.LANCHOR1,. + 0
 729              	tml_headsize_tbl:
 730 0000 50000000 		.word	80
 731 0004 30000000 		.word	48
 732 0008 40000000 		.word	64
 733 000c 30000000 		.word	48
 734 0010 30000000 		.word	48
 735 0014 50000000 		.word	80
 736 0018 40000000 		.word	64
 737              		.section	.rodata.tml_str_tbl,"a"
 738              		.align	2
 739              		.set	.LANCHOR2,. + 0
 742              	tml_str_tbl:
 743 0000 00000000 		.word	.LC21
 744 0004 00000000 		.word	.LC22
 745 0008 00000000 		.word	.LC23
 746 000c 00000000 		.word	.LC24
 747 0010 00000000 		.word	.LC25
 748 0014 00000000 		.word	.LC26
 749 0018 00000000 		.word	.LC27
 750              		.text
GAS LISTING C:\Users\Jesper\AppData\Local\Temp\ccjhfN0u.s 			page 20


 751              	.Letext0:
 752              		.file 2 "c:\\users\\jesper\\documents\\ml_sommarjobb\\toolchain-gd32v-v201-win\\toolchain-gd32v-v2
 753              		.file 3 "c:\\users\\jesper\\documents\\ml_sommarjobb\\toolchain-gd32v-v201-win\\toolchain-gd32v-v2
 754              		.file 4 "c:\\users\\jesper\\documents\\ml_sommarjobb\\toolchain-gd32v-v201-win\\toolchain-gd32v-v2
 755              		.file 5 "c:\\users\\jesper\\documents\\ml_sommarjobb\\toolchain-gd32v-v201-win\\toolchain-gd32v-v2
 756              		.file 6 "c:\\users\\jesper\\documents\\ml_sommarjobb\\toolchain-gd32v-v201-win\\toolchain-gd32v-v2
 757              		.file 7 "c:\\users\\jesper\\documents\\ml_sommarjobb\\toolchain-gd32v-v201-win\\toolchain-gd32v-v2
 758              		.file 8 "c:\\users\\jesper\\documents\\ml_sommarjobb\\toolchain-gd32v-v201-win\\toolchain-gd32v-v2
 759              		.file 9 "c:\\users\\jesper\\documents\\ml_sommarjobb\\toolchain-gd32v-v201-win\\toolchain-gd32v-v2
 760              		.file 10 "include/tinymaix.h"
 761              		.file 11 "c:\\users\\jesper\\documents\\ml_sommarjobb\\toolchain-gd32v-v201-win\\toolchain-gd32v-v
 762              		.file 12 "<built-in>"
GAS LISTING C:\Users\Jesper\AppData\Local\Temp\ccjhfN0u.s 			page 21


DEFINED SYMBOLS
                            *ABS*:0000000000000000 tm_stat.c
C:\Users\Jesper\AppData\Local\Temp\ccjhfN0u.s:18     .text.tm_stat:0000000000000000 tm_stat
C:\Users\Jesper\AppData\Local\Temp\ccjhfN0u.s:22     .text.tm_stat:0000000000000000 .L0 
C:\Users\Jesper\AppData\Local\Temp\ccjhfN0u.s:24     .text.tm_stat:0000000000000000 .L0 
C:\Users\Jesper\AppData\Local\Temp\ccjhfN0u.s:25     .text.tm_stat:0000000000000000 .L0 
C:\Users\Jesper\AppData\Local\Temp\ccjhfN0u.s:26     .text.tm_stat:0000000000000000 .L0 
C:\Users\Jesper\AppData\Local\Temp\ccjhfN0u.s:28     .text.tm_stat:0000000000000002 .L0 
C:\Users\Jesper\AppData\Local\Temp\ccjhfN0u.s:30     .text.tm_stat:0000000000000004 .L0 
C:\Users\Jesper\AppData\Local\Temp\ccjhfN0u.s:33     .text.tm_stat:0000000000000006 .L0 
C:\Users\Jesper\AppData\Local\Temp\ccjhfN0u.s:37     .text.tm_stat:000000000000000e .L0 
C:\Users\Jesper\AppData\Local\Temp\ccjhfN0u.s:48     .text.tm_stat:0000000000000024 .L0 
C:\Users\Jesper\AppData\Local\Temp\ccjhfN0u.s:49     .text.tm_stat:0000000000000024 .L0 
C:\Users\Jesper\AppData\Local\Temp\ccjhfN0u.s:50     .text.tm_stat:0000000000000024 .L0 
C:\Users\Jesper\AppData\Local\Temp\ccjhfN0u.s:51     .text.tm_stat:0000000000000024 .L0 
C:\Users\Jesper\AppData\Local\Temp\ccjhfN0u.s:52     .text.tm_stat:0000000000000024 .L0 
C:\Users\Jesper\AppData\Local\Temp\ccjhfN0u.s:53     .text.tm_stat:0000000000000024 .L0 
C:\Users\Jesper\AppData\Local\Temp\ccjhfN0u.s:54     .text.tm_stat:0000000000000024 .L0 
C:\Users\Jesper\AppData\Local\Temp\ccjhfN0u.s:55     .text.tm_stat:0000000000000024 .L0 
C:\Users\Jesper\AppData\Local\Temp\ccjhfN0u.s:56     .text.tm_stat:0000000000000024 .L0 
C:\Users\Jesper\AppData\Local\Temp\ccjhfN0u.s:57     .text.tm_stat:0000000000000024 .L0 
C:\Users\Jesper\AppData\Local\Temp\ccjhfN0u.s:58     .text.tm_stat:0000000000000024 .L0 
C:\Users\Jesper\AppData\Local\Temp\ccjhfN0u.s:60     .text.tm_stat:0000000000000024 .L0 
C:\Users\Jesper\AppData\Local\Temp\ccjhfN0u.s:63     .text.tm_stat:000000000000002c .L0 
C:\Users\Jesper\AppData\Local\Temp\ccjhfN0u.s:74     .text.tm_stat:0000000000000050 .L0 
C:\Users\Jesper\AppData\Local\Temp\ccjhfN0u.s:80     .text.tm_stat:0000000000000064 .L0 
C:\Users\Jesper\AppData\Local\Temp\ccjhfN0u.s:88     .text.tm_stat:0000000000000080 .L0 
C:\Users\Jesper\AppData\Local\Temp\ccjhfN0u.s:89     .text.tm_stat:0000000000000080 .L0 
C:\Users\Jesper\AppData\Local\Temp\ccjhfN0u.s:98     .text.tm_stat:00000000000000a0 .L0 
C:\Users\Jesper\AppData\Local\Temp\ccjhfN0u.s:99     .text.tm_stat:00000000000000a0 .L0 
C:\Users\Jesper\AppData\Local\Temp\ccjhfN0u.s:108    .text.tm_stat:00000000000000c0 .L0 
C:\Users\Jesper\AppData\Local\Temp\ccjhfN0u.s:115    .text.tm_stat:00000000000000d8 .L0 
C:\Users\Jesper\AppData\Local\Temp\ccjhfN0u.s:120    .text.tm_stat:00000000000000e8 .L0 
C:\Users\Jesper\AppData\Local\Temp\ccjhfN0u.s:125    .text.tm_stat:00000000000000f8 .L0 
C:\Users\Jesper\AppData\Local\Temp\ccjhfN0u.s:130    .text.tm_stat:0000000000000108 .L0 
C:\Users\Jesper\AppData\Local\Temp\ccjhfN0u.s:132    .text.tm_stat:000000000000010c .L0 
C:\Users\Jesper\AppData\Local\Temp\ccjhfN0u.s:136    .text.tm_stat:0000000000000110 .L0 
C:\Users\Jesper\AppData\Local\Temp\ccjhfN0u.s:138    .text.tm_stat:0000000000000114 .L0 
C:\Users\Jesper\AppData\Local\Temp\ccjhfN0u.s:140    .text.tm_stat:0000000000000118 .L0 
C:\Users\Jesper\AppData\Local\Temp\ccjhfN0u.s:144    .text.tm_stat:000000000000011c .L0 
C:\Users\Jesper\AppData\Local\Temp\ccjhfN0u.s:146    .text.tm_stat:0000000000000120 .L0 
C:\Users\Jesper\AppData\Local\Temp\ccjhfN0u.s:148    .text.tm_stat:0000000000000122 .L0 
C:\Users\Jesper\AppData\Local\Temp\ccjhfN0u.s:150    .text.tm_stat:0000000000000124 .L0 
C:\Users\Jesper\AppData\Local\Temp\ccjhfN0u.s:153    .text.tm_stat:0000000000000126 .L0 
C:\Users\Jesper\AppData\Local\Temp\ccjhfN0u.s:156    .text.tm_stat:000000000000012a .L0 
C:\Users\Jesper\AppData\Local\Temp\ccjhfN0u.s:160    .text.tm_stat:000000000000012e .L0 
C:\Users\Jesper\AppData\Local\Temp\ccjhfN0u.s:162    .text.tm_stat:0000000000000132 .L0 
C:\Users\Jesper\AppData\Local\Temp\ccjhfN0u.s:164    .text.tm_stat:0000000000000136 .L0 
C:\Users\Jesper\AppData\Local\Temp\ccjhfN0u.s:168    .text.tm_stat:000000000000013a .L0 
C:\Users\Jesper\AppData\Local\Temp\ccjhfN0u.s:171    .text.tm_stat:0000000000000142 .L0 
C:\Users\Jesper\AppData\Local\Temp\ccjhfN0u.s:172    .text.tm_stat:0000000000000142 .L0 
C:\Users\Jesper\AppData\Local\Temp\ccjhfN0u.s:173    .text.tm_stat:0000000000000142 .L0 
C:\Users\Jesper\AppData\Local\Temp\ccjhfN0u.s:174    .text.tm_stat:0000000000000142 .L0 
C:\Users\Jesper\AppData\Local\Temp\ccjhfN0u.s:176    .text.tm_stat:0000000000000142 .L0 
C:\Users\Jesper\AppData\Local\Temp\ccjhfN0u.s:177    .text.tm_stat:0000000000000142 .L0 
C:\Users\Jesper\AppData\Local\Temp\ccjhfN0u.s:179    .text.tm_stat:0000000000000146 .L0 
C:\Users\Jesper\AppData\Local\Temp\ccjhfN0u.s:181    .text.tm_stat:000000000000014a .L0 
GAS LISTING C:\Users\Jesper\AppData\Local\Temp\ccjhfN0u.s 			page 22


C:\Users\Jesper\AppData\Local\Temp\ccjhfN0u.s:182    .text.tm_stat:000000000000014a .L0 
C:\Users\Jesper\AppData\Local\Temp\ccjhfN0u.s:185    .text.tm_stat:0000000000000152 .L0 
C:\Users\Jesper\AppData\Local\Temp\ccjhfN0u.s:224    .text.tm_stat:00000000000001cc .L0 
C:\Users\Jesper\AppData\Local\Temp\ccjhfN0u.s:225    .text.tm_stat:00000000000001cc .L0 
C:\Users\Jesper\AppData\Local\Temp\ccjhfN0u.s:228    .text.tm_stat:00000000000001ce .L0 
C:\Users\Jesper\AppData\Local\Temp\ccjhfN0u.s:229    .text.tm_stat:00000000000001d0 .L0 
C:\Users\Jesper\AppData\Local\Temp\ccjhfN0u.s:230    .text.tm_stat:00000000000001d0 .L0 
C:\Users\Jesper\AppData\Local\Temp\ccjhfN0u.s:232    .text.tm_stat:00000000000001d2 .L0 
C:\Users\Jesper\AppData\Local\Temp\ccjhfN0u.s:234    .text.tm_stat:00000000000001d4 .L0 
C:\Users\Jesper\AppData\Local\Temp\ccjhfN0u.s:236    .text.tm_stat:00000000000001d6 .L0 
C:\Users\Jesper\AppData\Local\Temp\ccjhfN0u.s:239    .text.tm_stat:00000000000001d8 .L0 
C:\Users\Jesper\AppData\Local\Temp\ccjhfN0u.s:241    .text.tm_stat:00000000000001da .L0 
C:\Users\Jesper\AppData\Local\Temp\ccjhfN0u.s:244    .text.tm_stat:00000000000001dc .L0 
C:\Users\Jesper\AppData\Local\Temp\ccjhfN0u.s:246    .text.tm_stat:00000000000001de .L0 
C:\Users\Jesper\AppData\Local\Temp\ccjhfN0u.s:249    .text.tm_stat:00000000000001e0 .L0 
C:\Users\Jesper\AppData\Local\Temp\ccjhfN0u.s:251    .text.tm_stat:00000000000001e2 .L0 
C:\Users\Jesper\AppData\Local\Temp\ccjhfN0u.s:254    .text.tm_stat:00000000000001e4 .L0 
C:\Users\Jesper\AppData\Local\Temp\ccjhfN0u.s:256    .text.tm_stat:00000000000001e6 .L0 
C:\Users\Jesper\AppData\Local\Temp\ccjhfN0u.s:259    .text.tm_stat:00000000000001e8 .L0 
C:\Users\Jesper\AppData\Local\Temp\ccjhfN0u.s:264    .text.tm_stat:00000000000001ea .L0 
C:\Users\Jesper\AppData\Local\Temp\ccjhfN0u.s:267    .text.tm_stat:00000000000001ea .L0 
C:\Users\Jesper\AppData\Local\Temp\ccjhfN0u.s:268    .text.tm_stat:00000000000001ea .L0 
C:\Users\Jesper\AppData\Local\Temp\ccjhfN0u.s:273    .text.tm_stat:00000000000001fa .L0 
C:\Users\Jesper\AppData\Local\Temp\ccjhfN0u.s:279    .text.tm_stat:000000000000020e .L0 
C:\Users\Jesper\AppData\Local\Temp\ccjhfN0u.s:280    .text.tm_stat:000000000000020e .L0 
C:\Users\Jesper\AppData\Local\Temp\ccjhfN0u.s:285    .text.tm_stat:000000000000021e .L0 
C:\Users\Jesper\AppData\Local\Temp\ccjhfN0u.s:336    .text.tm_stat:00000000000002a6 .L0 
C:\Users\Jesper\AppData\Local\Temp\ccjhfN0u.s:337    .text.tm_stat:00000000000002a6 .L0 
C:\Users\Jesper\AppData\Local\Temp\ccjhfN0u.s:338    .text.tm_stat:00000000000002a6 .L0 
C:\Users\Jesper\AppData\Local\Temp\ccjhfN0u.s:340    .text.tm_stat:00000000000002aa .L0 
C:\Users\Jesper\AppData\Local\Temp\ccjhfN0u.s:344    .text.tm_stat:00000000000002b0 .L0 
C:\Users\Jesper\AppData\Local\Temp\ccjhfN0u.s:345    .text.tm_stat:00000000000002b0 .L0 
C:\Users\Jesper\AppData\Local\Temp\ccjhfN0u.s:347    .text.tm_stat:00000000000002b4 .L0 
C:\Users\Jesper\AppData\Local\Temp\ccjhfN0u.s:349    .text.tm_stat:00000000000002b8 .L0 
C:\Users\Jesper\AppData\Local\Temp\ccjhfN0u.s:351    .text.tm_stat:00000000000002bc .L0 
C:\Users\Jesper\AppData\Local\Temp\ccjhfN0u.s:353    .text.tm_stat:00000000000002c0 .L0 
C:\Users\Jesper\AppData\Local\Temp\ccjhfN0u.s:357    .text.tm_stat:00000000000002c4 .L0 
C:\Users\Jesper\AppData\Local\Temp\ccjhfN0u.s:360    .text.tm_stat:00000000000002cc .L0 
C:\Users\Jesper\AppData\Local\Temp\ccjhfN0u.s:363    .text.tm_stat:00000000000002d2 .L0 
C:\Users\Jesper\AppData\Local\Temp\ccjhfN0u.s:365    .text.tm_stat:00000000000002d4 .L0 
C:\Users\Jesper\AppData\Local\Temp\ccjhfN0u.s:368    .text.tm_stat:00000000000002d8 .L0 
C:\Users\Jesper\AppData\Local\Temp\ccjhfN0u.s:369    .text.tm_stat:00000000000002d8 .L0 
C:\Users\Jesper\AppData\Local\Temp\ccjhfN0u.s:370    .text.tm_stat:00000000000002d8 .L0 
C:\Users\Jesper\AppData\Local\Temp\ccjhfN0u.s:389    .text.tm_stat:00000000000002e2 .L0 
C:\Users\Jesper\AppData\Local\Temp\ccjhfN0u.s:390    .text.tm_stat:00000000000002e2 .L0 
C:\Users\Jesper\AppData\Local\Temp\ccjhfN0u.s:391    .text.tm_stat:00000000000002e2 .L0 
C:\Users\Jesper\AppData\Local\Temp\ccjhfN0u.s:393    .text.tm_stat:00000000000002e6 .L0 
C:\Users\Jesper\AppData\Local\Temp\ccjhfN0u.s:395    .text.tm_stat:00000000000002ea .L0 
C:\Users\Jesper\AppData\Local\Temp\ccjhfN0u.s:397    .text.tm_stat:00000000000002ee .L0 
C:\Users\Jesper\AppData\Local\Temp\ccjhfN0u.s:399    .text.tm_stat:00000000000002f2 .L0 
C:\Users\Jesper\AppData\Local\Temp\ccjhfN0u.s:401    .text.tm_stat:00000000000002f6 .L0 
C:\Users\Jesper\AppData\Local\Temp\ccjhfN0u.s:403    .text.tm_stat:00000000000002fa .L0 
C:\Users\Jesper\AppData\Local\Temp\ccjhfN0u.s:405    .text.tm_stat:00000000000002fe .L0 
C:\Users\Jesper\AppData\Local\Temp\ccjhfN0u.s:408    .text.tm_stat:0000000000000302 .L0 
C:\Users\Jesper\AppData\Local\Temp\ccjhfN0u.s:411    .text.tm_stat:000000000000030a .L0 
C:\Users\Jesper\AppData\Local\Temp\ccjhfN0u.s:441    .text.tm_stat:0000000000000356 .L0 
C:\Users\Jesper\AppData\Local\Temp\ccjhfN0u.s:444    .text.tm_stat:000000000000035e .L0 
GAS LISTING C:\Users\Jesper\AppData\Local\Temp\ccjhfN0u.s 			page 23


C:\Users\Jesper\AppData\Local\Temp\ccjhfN0u.s:445    .text.tm_stat:000000000000035e .L0 
C:\Users\Jesper\AppData\Local\Temp\ccjhfN0u.s:450    .text.tm_stat:0000000000000360 .L0 
C:\Users\Jesper\AppData\Local\Temp\ccjhfN0u.s:451    .text.tm_stat:0000000000000360 .L0 
C:\Users\Jesper\AppData\Local\Temp\ccjhfN0u.s:453    .text.tm_stat:0000000000000364 .L0 
C:\Users\Jesper\AppData\Local\Temp\ccjhfN0u.s:455    .text.tm_stat:0000000000000368 .L0 
C:\Users\Jesper\AppData\Local\Temp\ccjhfN0u.s:457    .text.tm_stat:000000000000036c .L0 
C:\Users\Jesper\AppData\Local\Temp\ccjhfN0u.s:460    .text.tm_stat:0000000000000370 .L0 
C:\Users\Jesper\AppData\Local\Temp\ccjhfN0u.s:463    .text.tm_stat:0000000000000374 .L0 
C:\Users\Jesper\AppData\Local\Temp\ccjhfN0u.s:468    .text.tm_stat:0000000000000376 .L0 
C:\Users\Jesper\AppData\Local\Temp\ccjhfN0u.s:469    .text.tm_stat:0000000000000376 .L0 
C:\Users\Jesper\AppData\Local\Temp\ccjhfN0u.s:470    .text.tm_stat:0000000000000376 .L0 
C:\Users\Jesper\AppData\Local\Temp\ccjhfN0u.s:472    .text.tm_stat:000000000000037a .L0 
C:\Users\Jesper\AppData\Local\Temp\ccjhfN0u.s:475    .text.tm_stat:0000000000000382 .L0 
C:\Users\Jesper\AppData\Local\Temp\ccjhfN0u.s:478    .text.tm_stat:0000000000000386 .L0 
C:\Users\Jesper\AppData\Local\Temp\ccjhfN0u.s:481    .text.tm_stat:000000000000038e .L0 
C:\Users\Jesper\AppData\Local\Temp\ccjhfN0u.s:489    .text.tm_stat:00000000000003a4 .L0 
C:\Users\Jesper\AppData\Local\Temp\ccjhfN0u.s:492    .text.tm_stat:00000000000003a4 .L0 
C:\Users\Jesper\AppData\Local\Temp\ccjhfN0u.s:493    .text.tm_stat:00000000000003a4 .L0 
C:\Users\Jesper\AppData\Local\Temp\ccjhfN0u.s:494    .text.tm_stat:00000000000003a4 .L0 
C:\Users\Jesper\AppData\Local\Temp\ccjhfN0u.s:496    .text.tm_stat:00000000000003a8 .L0 
C:\Users\Jesper\AppData\Local\Temp\ccjhfN0u.s:501    .text.tm_stat:00000000000003b2 .L0 
C:\Users\Jesper\AppData\Local\Temp\ccjhfN0u.s:503    .text.tm_stat:00000000000003b4 .L0 
C:\Users\Jesper\AppData\Local\Temp\ccjhfN0u.s:518    .text.tm_stat:00000000000003e4 .L0 
C:\Users\Jesper\AppData\Local\Temp\ccjhfN0u.s:525    .text.tm_stat:00000000000003f6 .L0 
C:\Users\Jesper\AppData\Local\Temp\ccjhfN0u.s:528    .text.tm_stat:00000000000003f8 .L0 
C:\Users\Jesper\AppData\Local\Temp\ccjhfN0u.s:531    .text.tm_stat:00000000000003fa .L0 
C:\Users\Jesper\AppData\Local\Temp\ccjhfN0u.s:533    .text.tm_stat:00000000000003fa .L0 
C:\Users\Jesper\AppData\Local\Temp\ccjhfN0u.s:535    .text.tm_stat:00000000000003fa .L0 
C:\Users\Jesper\AppData\Local\Temp\ccjhfN0u.s:536    .text.tm_stat:00000000000003fa .L0 
C:\Users\Jesper\AppData\Local\Temp\ccjhfN0u.s:540    .text.tm_stat:00000000000003fc .L0 
C:\Users\Jesper\AppData\Local\Temp\ccjhfN0u.s:547    .text.tm_stat:0000000000000400 .L0 
C:\Users\Jesper\AppData\Local\Temp\ccjhfN0u.s:548    .text.tm_stat:0000000000000400 .L0 
C:\Users\Jesper\AppData\Local\Temp\ccjhfN0u.s:554    .text.tm_stat:0000000000000404 .L0 
C:\Users\Jesper\AppData\Local\Temp\ccjhfN0u.s:555    .text.tm_stat:0000000000000404 .L0 
C:\Users\Jesper\AppData\Local\Temp\ccjhfN0u.s:556    .text.tm_stat:0000000000000404 .L0 
C:\Users\Jesper\AppData\Local\Temp\ccjhfN0u.s:558    .text.tm_stat:0000000000000408 .L0 
C:\Users\Jesper\AppData\Local\Temp\ccjhfN0u.s:560    .text.tm_stat:000000000000040c .L0 
C:\Users\Jesper\AppData\Local\Temp\ccjhfN0u.s:562    .text.tm_stat:0000000000000410 .L0 
C:\Users\Jesper\AppData\Local\Temp\ccjhfN0u.s:564    .text.tm_stat:0000000000000414 .L0 
C:\Users\Jesper\AppData\Local\Temp\ccjhfN0u.s:566    .text.tm_stat:0000000000000418 .L0 
C:\Users\Jesper\AppData\Local\Temp\ccjhfN0u.s:569    .text.tm_stat:000000000000041c .L0 
C:\Users\Jesper\AppData\Local\Temp\ccjhfN0u.s:572    .text.tm_stat:0000000000000424 .L0 
C:\Users\Jesper\AppData\Local\Temp\ccjhfN0u.s:602    .text.tm_stat:0000000000000472 .L0 
C:\Users\Jesper\AppData\Local\Temp\ccjhfN0u.s:608    .text.tm_stat:0000000000000476 .L0 
C:\Users\Jesper\AppData\Local\Temp\ccjhfN0u.s:611    .text.tm_stat:000000000000047a .L0 
C:\Users\Jesper\AppData\Local\Temp\ccjhfN0u.s:616    .rodata.mdl_type_str:0000000000000000 .LANCHOR0
C:\Users\Jesper\AppData\Local\Temp\ccjhfN0u.s:619    .rodata.mdl_type_str:0000000000000000 mdl_type_str
C:\Users\Jesper\AppData\Local\Temp\ccjhfN0u.s:726    .rodata.tml_headsize_tbl:0000000000000000 .LANCHOR1
C:\Users\Jesper\AppData\Local\Temp\ccjhfN0u.s:729    .rodata.tml_headsize_tbl:0000000000000000 tml_headsize_tbl
C:\Users\Jesper\AppData\Local\Temp\ccjhfN0u.s:739    .rodata.tml_str_tbl:0000000000000000 .LANCHOR2
C:\Users\Jesper\AppData\Local\Temp\ccjhfN0u.s:742    .rodata.tml_str_tbl:0000000000000000 tml_str_tbl
C:\Users\Jesper\AppData\Local\Temp\ccjhfN0u.s:614    .text.tm_stat:000000000000047a .L0 
                     .debug_frame:0000000000000000 .L0 
C:\Users\Jesper\AppData\Local\Temp\ccjhfN0u.s:672    .rodata.tm_stat.str1.4:0000000000000000 .LC0
C:\Users\Jesper\AppData\Local\Temp\ccjhfN0u.s:675    .rodata.tm_stat.str1.4:0000000000000050 .LC1
C:\Users\Jesper\AppData\Local\Temp\ccjhfN0u.s:678    .rodata.tm_stat.str1.4:0000000000000064 .LC2
C:\Users\Jesper\AppData\Local\Temp\ccjhfN0u.s:681    .rodata.tm_stat.str1.4:0000000000000074 .LC3
GAS LISTING C:\Users\Jesper\AppData\Local\Temp\ccjhfN0u.s 			page 24


C:\Users\Jesper\AppData\Local\Temp\ccjhfN0u.s:684    .rodata.tm_stat.str1.4:00000000000000a0 .LC4
C:\Users\Jesper\AppData\Local\Temp\ccjhfN0u.s:686    .rodata.tm_stat.str1.4:00000000000000bc .LC5
C:\Users\Jesper\AppData\Local\Temp\ccjhfN0u.s:689    .rodata.tm_stat.str1.4:00000000000000dc .LC6
C:\Users\Jesper\AppData\Local\Temp\ccjhfN0u.s:692    .rodata.tm_stat.str1.4:0000000000000100 .LC7
C:\Users\Jesper\AppData\Local\Temp\ccjhfN0u.s:694    .rodata.tm_stat.str1.4:000000000000013c .LC8
C:\Users\Jesper\AppData\Local\Temp\ccjhfN0u.s:697    .rodata.tm_stat.str1.4:0000000000000178 .LC9
C:\Users\Jesper\AppData\Local\Temp\ccjhfN0u.s:377    .rodata.tm_stat:0000000000000000 .L6
C:\Users\Jesper\AppData\Local\Temp\ccjhfN0u.s:699    .rodata.tm_stat.str1.4:00000000000001a8 .LC10
C:\Users\Jesper\AppData\Local\Temp\ccjhfN0u.s:664    .rodata.tm_stat.cst8:0000000000000000 .LC18
C:\Users\Jesper\AppData\Local\Temp\ccjhfN0u.s:667    .rodata.tm_stat.cst8:0000000000000008 .LC19
C:\Users\Jesper\AppData\Local\Temp\ccjhfN0u.s:722    .rodata.tm_stat.str1.4:0000000000000398 .LC20
C:\Users\Jesper\AppData\Local\Temp\ccjhfN0u.s:702    .rodata.tm_stat.str1.4:00000000000001b4 .LC11
C:\Users\Jesper\AppData\Local\Temp\ccjhfN0u.s:705    .rodata.tm_stat.str1.4:00000000000001c4 .LC12
C:\Users\Jesper\AppData\Local\Temp\ccjhfN0u.s:708    .rodata.tm_stat.str1.4:0000000000000254 .LC13
C:\Users\Jesper\AppData\Local\Temp\ccjhfN0u.s:711    .rodata.tm_stat.str1.4:00000000000002cc .LC14
C:\Users\Jesper\AppData\Local\Temp\ccjhfN0u.s:717    .rodata.tm_stat.str1.4:0000000000000368 .LC16
C:\Users\Jesper\AppData\Local\Temp\ccjhfN0u.s:719    .rodata.tm_stat.str1.4:0000000000000390 .LC17
C:\Users\Jesper\AppData\Local\Temp\ccjhfN0u.s:714    .rodata.tm_stat.str1.4:00000000000002f0 .LC15
C:\Users\Jesper\AppData\Local\Temp\ccjhfN0u.s:262    .text.tm_stat:00000000000001ea .L11
C:\Users\Jesper\AppData\Local\Temp\ccjhfN0u.s:605    .text.tm_stat:0000000000000476 .L12
C:\Users\Jesper\AppData\Local\Temp\ccjhfN0u.s:599    .text.tm_stat:0000000000000472 .L13
C:\Users\Jesper\AppData\Local\Temp\ccjhfN0u.s:490    .text.tm_stat:00000000000003a4 .L4
C:\Users\Jesper\AppData\Local\Temp\ccjhfN0u.s:175    .text.tm_stat:0000000000000142 .L2
C:\Users\Jesper\AppData\Local\Temp\ccjhfN0u.s:458    .text.tm_stat:0000000000000370 .L16
C:\Users\Jesper\AppData\Local\Temp\ccjhfN0u.s:437    .text.tm_stat:0000000000000356 .L15
C:\Users\Jesper\AppData\Local\Temp\ccjhfN0u.s:226    .text.tm_stat:00000000000001ce .L1
C:\Users\Jesper\AppData\Local\Temp\ccjhfN0u.s:385    .text.tm_stat:00000000000002e2 .L10
C:\Users\Jesper\AppData\Local\Temp\ccjhfN0u.s:447    .text.tm_stat:0000000000000360 .L9
C:\Users\Jesper\AppData\Local\Temp\ccjhfN0u.s:465    .text.tm_stat:0000000000000376 .L8
C:\Users\Jesper\AppData\Local\Temp\ccjhfN0u.s:544    .text.tm_stat:0000000000000400 .L7
C:\Users\Jesper\AppData\Local\Temp\ccjhfN0u.s:550    .text.tm_stat:0000000000000404 .L5
C:\Users\Jesper\AppData\Local\Temp\ccjhfN0u.s:645    .rodata.str1.4:0000000000000030 .LC28
C:\Users\Jesper\AppData\Local\Temp\ccjhfN0u.s:648    .rodata.str1.4:0000000000000038 .LC29
C:\Users\Jesper\AppData\Local\Temp\ccjhfN0u.s:651    .rodata.str1.4:0000000000000040 .LC30
C:\Users\Jesper\AppData\Local\Temp\ccjhfN0u.s:654    .rodata.str1.4:0000000000000048 .LC31
C:\Users\Jesper\AppData\Local\Temp\ccjhfN0u.s:657    .rodata.str1.4:0000000000000050 .LC32
C:\Users\Jesper\AppData\Local\Temp\ccjhfN0u.s:660    .rodata.str1.4:000000000000005c .LC33
C:\Users\Jesper\AppData\Local\Temp\ccjhfN0u.s:628    .rodata.str1.4:0000000000000000 .LC21
C:\Users\Jesper\AppData\Local\Temp\ccjhfN0u.s:631    .rodata.str1.4:0000000000000008 .LC22
C:\Users\Jesper\AppData\Local\Temp\ccjhfN0u.s:633    .rodata.str1.4:000000000000000c .LC23
C:\Users\Jesper\AppData\Local\Temp\ccjhfN0u.s:636    .rodata.str1.4:0000000000000010 .LC24
C:\Users\Jesper\AppData\Local\Temp\ccjhfN0u.s:638    .rodata.str1.4:0000000000000018 .LC25
C:\Users\Jesper\AppData\Local\Temp\ccjhfN0u.s:640    .rodata.str1.4:0000000000000020 .LC26
C:\Users\Jesper\AppData\Local\Temp\ccjhfN0u.s:643    .rodata.str1.4:000000000000002c .LC27
C:\Users\Jesper\AppData\Local\Temp\ccjhfN0u.s:3342   .debug_abbrev:0000000000000000 .Ldebug_abbrev0
C:\Users\Jesper\AppData\Local\Temp\ccjhfN0u.s:4521   .debug_str:0000000000000556 .LASF200
C:\Users\Jesper\AppData\Local\Temp\ccjhfN0u.s:4371   .debug_str:000000000000026c .LASF201
C:\Users\Jesper\AppData\Local\Temp\ccjhfN0u.s:4369   .debug_str:00000000000001ff .LASF202
C:\Users\Jesper\AppData\Local\Temp\ccjhfN0u.s:4223   .debug_ranges:0000000000000000 .Ldebug_ranges0
C:\Users\Jesper\AppData\Local\Temp\ccjhfN0u.s:4259   .debug_line:0000000000000000 .Ldebug_line0
C:\Users\Jesper\AppData\Local\Temp\ccjhfN0u.s:4629   .debug_str:00000000000007b8 .LASF0
C:\Users\Jesper\AppData\Local\Temp\ccjhfN0u.s:4555   .debug_str:0000000000000672 .LASF3
C:\Users\Jesper\AppData\Local\Temp\ccjhfN0u.s:4597   .debug_str:000000000000071d .LASF1
C:\Users\Jesper\AppData\Local\Temp\ccjhfN0u.s:4531   .debug_str:0000000000000604 .LASF2
C:\Users\Jesper\AppData\Local\Temp\ccjhfN0u.s:4363   .debug_str:00000000000001e5 .LASF4
C:\Users\Jesper\AppData\Local\Temp\ccjhfN0u.s:4633   .debug_str:00000000000007cb .LASF5
C:\Users\Jesper\AppData\Local\Temp\ccjhfN0u.s:4301   .debug_str:00000000000000ca .LASF6
GAS LISTING C:\Users\Jesper\AppData\Local\Temp\ccjhfN0u.s 			page 25


C:\Users\Jesper\AppData\Local\Temp\ccjhfN0u.s:4533   .debug_str:000000000000060e .LASF7
C:\Users\Jesper\AppData\Local\Temp\ccjhfN0u.s:4599   .debug_str:000000000000072b .LASF8
C:\Users\Jesper\AppData\Local\Temp\ccjhfN0u.s:4575   .debug_str:00000000000006bd .LASF9
C:\Users\Jesper\AppData\Local\Temp\ccjhfN0u.s:4477   .debug_str:0000000000000493 .LASF10
C:\Users\Jesper\AppData\Local\Temp\ccjhfN0u.s:4353   .debug_str:00000000000001af .LASF11
C:\Users\Jesper\AppData\Local\Temp\ccjhfN0u.s:4291   .debug_str:000000000000009c .LASF12
C:\Users\Jesper\AppData\Local\Temp\ccjhfN0u.s:4459   .debug_str:000000000000042f .LASF13
C:\Users\Jesper\AppData\Local\Temp\ccjhfN0u.s:4517   .debug_str:0000000000000546 .LASF14
C:\Users\Jesper\AppData\Local\Temp\ccjhfN0u.s:4585   .debug_str:00000000000006ef .LASF15
C:\Users\Jesper\AppData\Local\Temp\ccjhfN0u.s:4333   .debug_str:0000000000000157 .LASF16
C:\Users\Jesper\AppData\Local\Temp\ccjhfN0u.s:4381   .debug_str:00000000000002b1 .LASF17
C:\Users\Jesper\AppData\Local\Temp\ccjhfN0u.s:4515   .debug_str:000000000000053a .LASF18
C:\Users\Jesper\AppData\Local\Temp\ccjhfN0u.s:4583   .debug_str:00000000000006e8 .LASF19
C:\Users\Jesper\AppData\Local\Temp\ccjhfN0u.s:4645   .debug_str:0000000000000809 .LASF20
C:\Users\Jesper\AppData\Local\Temp\ccjhfN0u.s:4321   .debug_str:0000000000000128 .LASF21
C:\Users\Jesper\AppData\Local\Temp\ccjhfN0u.s:4627   .debug_str:00000000000007af .LASF22
C:\Users\Jesper\AppData\Local\Temp\ccjhfN0u.s:4455   .debug_str:0000000000000423 .LASF23
C:\Users\Jesper\AppData\Local\Temp\ccjhfN0u.s:4541   .debug_str:0000000000000628 .LASF24
C:\Users\Jesper\AppData\Local\Temp\ccjhfN0u.s:4339   .debug_str:0000000000000173 .LASF25
C:\Users\Jesper\AppData\Local\Temp\ccjhfN0u.s:4415   .debug_str:000000000000034a .LASF26
C:\Users\Jesper\AppData\Local\Temp\ccjhfN0u.s:4497   .debug_str:00000000000004f0 .LASF27
C:\Users\Jesper\AppData\Local\Temp\ccjhfN0u.s:4487   .debug_str:00000000000004be .LASF28
C:\Users\Jesper\AppData\Local\Temp\ccjhfN0u.s:4311   .debug_str:00000000000000f3 .LASF29
C:\Users\Jesper\AppData\Local\Temp\ccjhfN0u.s:4451   .debug_str:000000000000040e .LASF30
C:\Users\Jesper\AppData\Local\Temp\ccjhfN0u.s:4327   .debug_str:000000000000013d .LASF35
C:\Users\Jesper\AppData\Local\Temp\ccjhfN0u.s:4405   .debug_str:000000000000031c .LASF31
C:\Users\Jesper\AppData\Local\Temp\ccjhfN0u.s:4561   .debug_str:0000000000000689 .LASF32
C:\Users\Jesper\AppData\Local\Temp\ccjhfN0u.s:4537   .debug_str:000000000000061c .LASF33
C:\Users\Jesper\AppData\Local\Temp\ccjhfN0u.s:4359   .debug_str:00000000000001db .LASF34
C:\Users\Jesper\AppData\Local\Temp\ccjhfN0u.s:4571   .debug_str:00000000000006b2 .LASF36
C:\Users\Jesper\AppData\Local\Temp\ccjhfN0u.s:4385   .debug_str:00000000000002c5 .LASF37
C:\Users\Jesper\AppData\Local\Temp\ccjhfN0u.s:4343   .debug_str:0000000000000181 .LASF38
C:\Users\Jesper\AppData\Local\Temp\ccjhfN0u.s:4335   .debug_str:0000000000000160 .LASF39
C:\Users\Jesper\AppData\Local\Temp\ccjhfN0u.s:4429   .debug_str:000000000000038d .LASF40
C:\Users\Jesper\AppData\Local\Temp\ccjhfN0u.s:4513   .debug_str:0000000000000531 .LASF41
C:\Users\Jesper\AppData\Local\Temp\ccjhfN0u.s:4545   .debug_str:0000000000000642 .LASF42
C:\Users\Jesper\AppData\Local\Temp\ccjhfN0u.s:4329   .debug_str:0000000000000145 .LASF43
C:\Users\Jesper\AppData\Local\Temp\ccjhfN0u.s:4391   .debug_str:00000000000002df .LASF44
C:\Users\Jesper\AppData\Local\Temp\ccjhfN0u.s:4503   .debug_str:0000000000000508 .LASF45
C:\Users\Jesper\AppData\Local\Temp\ccjhfN0u.s:4271   .debug_str:000000000000002c .LASF46
C:\Users\Jesper\AppData\Local\Temp\ccjhfN0u.s:4499   .debug_str:00000000000004fb .LASF47
C:\Users\Jesper\AppData\Local\Temp\ccjhfN0u.s:4591   .debug_str:0000000000000704 .LASF48
C:\Users\Jesper\AppData\Local\Temp\ccjhfN0u.s:4639   .debug_str:00000000000007f2 .LASF49
C:\Users\Jesper\AppData\Local\Temp\ccjhfN0u.s:4655   .debug_str:0000000000000844 .LASF50
C:\Users\Jesper\AppData\Local\Temp\ccjhfN0u.s:4525   .debug_str:00000000000005e8 .LASF51
C:\Users\Jesper\AppData\Local\Temp\ccjhfN0u.s:4395   .debug_str:00000000000002ee .LASF52
C:\Users\Jesper\AppData\Local\Temp\ccjhfN0u.s:4323   .debug_str:0000000000000130 .LASF53
C:\Users\Jesper\AppData\Local\Temp\ccjhfN0u.s:4609   .debug_str:0000000000000759 .LASF54
C:\Users\Jesper\AppData\Local\Temp\ccjhfN0u.s:4481   .debug_str:00000000000004a8 .LASF55
C:\Users\Jesper\AppData\Local\Temp\ccjhfN0u.s:4641   .debug_str:00000000000007fb .LASF56
C:\Users\Jesper\AppData\Local\Temp\ccjhfN0u.s:4357   .debug_str:00000000000001d3 .LASF57
C:\Users\Jesper\AppData\Local\Temp\ccjhfN0u.s:4297   .debug_str:00000000000000bb .LASF58
C:\Users\Jesper\AppData\Local\Temp\ccjhfN0u.s:4491   .debug_str:00000000000004d5 .LASF59
C:\Users\Jesper\AppData\Local\Temp\ccjhfN0u.s:4295   .debug_str:00000000000000b2 .LASF60
C:\Users\Jesper\AppData\Local\Temp\ccjhfN0u.s:4325   .debug_str:0000000000000135 .LASF61
C:\Users\Jesper\AppData\Local\Temp\ccjhfN0u.s:4315   .debug_str:000000000000010c .LASF62
C:\Users\Jesper\AppData\Local\Temp\ccjhfN0u.s:4519   .debug_str:000000000000054f .LASF63
GAS LISTING C:\Users\Jesper\AppData\Local\Temp\ccjhfN0u.s 			page 26


C:\Users\Jesper\AppData\Local\Temp\ccjhfN0u.s:4665   .debug_str:0000000000000871 .LASF64
C:\Users\Jesper\AppData\Local\Temp\ccjhfN0u.s:4465   .debug_str:0000000000000452 .LASF65
C:\Users\Jesper\AppData\Local\Temp\ccjhfN0u.s:4673   .debug_str:0000000000000891 .LASF66
C:\Users\Jesper\AppData\Local\Temp\ccjhfN0u.s:4647   .debug_str:0000000000000810 .LASF67
C:\Users\Jesper\AppData\Local\Temp\ccjhfN0u.s:4569   .debug_str:00000000000006a9 .LASF68
C:\Users\Jesper\AppData\Local\Temp\ccjhfN0u.s:4367   .debug_str:00000000000001f7 .LASF69
C:\Users\Jesper\AppData\Local\Temp\ccjhfN0u.s:4539   .debug_str:0000000000000622 .LASF70
C:\Users\Jesper\AppData\Local\Temp\ccjhfN0u.s:4573   .debug_str:00000000000006b7 .LASF71
C:\Users\Jesper\AppData\Local\Temp\ccjhfN0u.s:4527   .debug_str:00000000000005f0 .LASF72
C:\Users\Jesper\AppData\Local\Temp\ccjhfN0u.s:4653   .debug_str:000000000000083c .LASF73
C:\Users\Jesper\AppData\Local\Temp\ccjhfN0u.s:4631   .debug_str:00000000000007c4 .LASF74
C:\Users\Jesper\AppData\Local\Temp\ccjhfN0u.s:4303   .debug_str:00000000000000d4 .LASF75
C:\Users\Jesper\AppData\Local\Temp\ccjhfN0u.s:4473   .debug_str:000000000000047d .LASF76
C:\Users\Jesper\AppData\Local\Temp\ccjhfN0u.s:4319   .debug_str:0000000000000120 .LASF77
C:\Users\Jesper\AppData\Local\Temp\ccjhfN0u.s:4669   .debug_str:0000000000000880 .LASF78
C:\Users\Jesper\AppData\Local\Temp\ccjhfN0u.s:4393   .debug_str:00000000000002e9 .LASF79
C:\Users\Jesper\AppData\Local\Temp\ccjhfN0u.s:4375   .debug_str:0000000000000298 .LASF80
C:\Users\Jesper\AppData\Local\Temp\ccjhfN0u.s:4651   .debug_str:0000000000000823 .LASF81
C:\Users\Jesper\AppData\Local\Temp\ccjhfN0u.s:4625   .debug_str:00000000000007a7 .LASF82
C:\Users\Jesper\AppData\Local\Temp\ccjhfN0u.s:4467   .debug_str:0000000000000459 .LASF83
C:\Users\Jesper\AppData\Local\Temp\ccjhfN0u.s:4495   .debug_str:00000000000004e6 .LASF84
C:\Users\Jesper\AppData\Local\Temp\ccjhfN0u.s:4331   .debug_str:000000000000014f .LASF85
C:\Users\Jesper\AppData\Local\Temp\ccjhfN0u.s:4351   .debug_str:00000000000001a5 .LASF86
C:\Users\Jesper\AppData\Local\Temp\ccjhfN0u.s:4417   .debug_str:0000000000000352 .LASF87
C:\Users\Jesper\AppData\Local\Temp\ccjhfN0u.s:4483   .debug_str:00000000000004ae .LASF88
C:\Users\Jesper\AppData\Local\Temp\ccjhfN0u.s:4559   .debug_str:0000000000000681 .LASF89
C:\Users\Jesper\AppData\Local\Temp\ccjhfN0u.s:4595   .debug_str:0000000000000715 .LASF90
C:\Users\Jesper\AppData\Local\Temp\ccjhfN0u.s:4557   .debug_str:000000000000067c .LASF91
C:\Users\Jesper\AppData\Local\Temp\ccjhfN0u.s:4435   .debug_str:00000000000003b0 .LASF92
C:\Users\Jesper\AppData\Local\Temp\ccjhfN0u.s:4431   .debug_str:0000000000000397 .LASF93
C:\Users\Jesper\AppData\Local\Temp\ccjhfN0u.s:4617   .debug_str:0000000000000778 .LASF94
C:\Users\Jesper\AppData\Local\Temp\ccjhfN0u.s:4535   .debug_str:0000000000000617 .LASF95
C:\Users\Jesper\AppData\Local\Temp\ccjhfN0u.s:4427   .debug_str:0000000000000388 .LASF96
C:\Users\Jesper\AppData\Local\Temp\ccjhfN0u.s:4365   .debug_str:00000000000001f0 .LASF97
C:\Users\Jesper\AppData\Local\Temp\ccjhfN0u.s:4613   .debug_str:0000000000000769 .LASF98
C:\Users\Jesper\AppData\Local\Temp\ccjhfN0u.s:4581   .debug_str:00000000000006e1 .LASF99
C:\Users\Jesper\AppData\Local\Temp\ccjhfN0u.s:4457   .debug_str:0000000000000429 .LASF100
C:\Users\Jesper\AppData\Local\Temp\ccjhfN0u.s:4349   .debug_str:000000000000019d .LASF101
C:\Users\Jesper\AppData\Local\Temp\ccjhfN0u.s:4659   .debug_str:0000000000000855 .LASF102
C:\Users\Jesper\AppData\Local\Temp\ccjhfN0u.s:4485   .debug_str:00000000000004b8 .LASF103
C:\Users\Jesper\AppData\Local\Temp\ccjhfN0u.s:4605   .debug_str:000000000000074e .LASF104
C:\Users\Jesper\AppData\Local\Temp\ccjhfN0u.s:4649   .debug_str:0000000000000816 .LASF105
C:\Users\Jesper\AppData\Local\Temp\ccjhfN0u.s:4619   .debug_str:0000000000000780 .LASF106
C:\Users\Jesper\AppData\Local\Temp\ccjhfN0u.s:4355   .debug_str:00000000000001c6 .LASF107
C:\Users\Jesper\AppData\Local\Temp\ccjhfN0u.s:4551   .debug_str:000000000000065b .LASF108
C:\Users\Jesper\AppData\Local\Temp\ccjhfN0u.s:4475   .debug_str:0000000000000484 .LASF109
C:\Users\Jesper\AppData\Local\Temp\ccjhfN0u.s:4661   .debug_str:000000000000085b .LASF110
C:\Users\Jesper\AppData\Local\Temp\ccjhfN0u.s:4285   .debug_str:000000000000007f .LASF111
C:\Users\Jesper\AppData\Local\Temp\ccjhfN0u.s:4425   .debug_str:000000000000037b .LASF112
C:\Users\Jesper\AppData\Local\Temp\ccjhfN0u.s:4621   .debug_str:000000000000078d .LASF113
C:\Users\Jesper\AppData\Local\Temp\ccjhfN0u.s:4277   .debug_str:000000000000004a .LASF114
C:\Users\Jesper\AppData\Local\Temp\ccjhfN0u.s:4563   .debug_str:0000000000000691 .LASF115
C:\Users\Jesper\AppData\Local\Temp\ccjhfN0u.s:4289   .debug_str:0000000000000090 .LASF116
C:\Users\Jesper\AppData\Local\Temp\ccjhfN0u.s:4601   .debug_str:0000000000000736 .LASF117
C:\Users\Jesper\AppData\Local\Temp\ccjhfN0u.s:4317   .debug_str:0000000000000112 .LASF118
C:\Users\Jesper\AppData\Local\Temp\ccjhfN0u.s:4433   .debug_str:00000000000003a1 .LASF119
C:\Users\Jesper\AppData\Local\Temp\ccjhfN0u.s:4407   .debug_str:0000000000000322 .LASF120
GAS LISTING C:\Users\Jesper\AppData\Local\Temp\ccjhfN0u.s 			page 27


C:\Users\Jesper\AppData\Local\Temp\ccjhfN0u.s:4489   .debug_str:00000000000004c6 .LASF121
C:\Users\Jesper\AppData\Local\Temp\ccjhfN0u.s:4423   .debug_str:000000000000036a .LASF122
C:\Users\Jesper\AppData\Local\Temp\ccjhfN0u.s:4505   .debug_str:0000000000000513 .LASF123
C:\Users\Jesper\AppData\Local\Temp\ccjhfN0u.s:4347   .debug_str:0000000000000196 .LASF124
C:\Users\Jesper\AppData\Local\Temp\ccjhfN0u.s:4671   .debug_str:0000000000000888 .LASF125
C:\Users\Jesper\AppData\Local\Temp\ccjhfN0u.s:4553   .debug_str:000000000000066a .LASF126
C:\Users\Jesper\AppData\Local\Temp\ccjhfN0u.s:4663   .debug_str:0000000000000866 .LASF203
C:\Users\Jesper\AppData\Local\Temp\ccjhfN0u.s:4345   .debug_str:000000000000018a .LASF127
C:\Users\Jesper\AppData\Local\Temp\ccjhfN0u.s:4543   .debug_str:000000000000062f .LASF128
C:\Users\Jesper\AppData\Local\Temp\ccjhfN0u.s:4389   .debug_str:00000000000002d5 .LASF129
C:\Users\Jesper\AppData\Local\Temp\ccjhfN0u.s:4469   .debug_str:0000000000000464 .LASF130
C:\Users\Jesper\AppData\Local\Temp\ccjhfN0u.s:4275   .debug_str:0000000000000040 .LASF131
C:\Users\Jesper\AppData\Local\Temp\ccjhfN0u.s:4411   .debug_str:000000000000033a .LASF132
C:\Users\Jesper\AppData\Local\Temp\ccjhfN0u.s:4379   .debug_str:00000000000002a8 .LASF133
C:\Users\Jesper\AppData\Local\Temp\ccjhfN0u.s:4611   .debug_str:0000000000000760 .LASF134
C:\Users\Jesper\AppData\Local\Temp\ccjhfN0u.s:4341   .debug_str:000000000000017b .LASF135
C:\Users\Jesper\AppData\Local\Temp\ccjhfN0u.s:4273   .debug_str:000000000000003a .LASF136
C:\Users\Jesper\AppData\Local\Temp\ccjhfN0u.s:4387   .debug_str:00000000000002ce .LASF137
C:\Users\Jesper\AppData\Local\Temp\ccjhfN0u.s:4441   .debug_str:00000000000003d0 .LASF138
C:\Users\Jesper\AppData\Local\Temp\ccjhfN0u.s:4447   .debug_str:00000000000003f7 .LASF139
C:\Users\Jesper\AppData\Local\Temp\ccjhfN0u.s:4281   .debug_str:0000000000000064 .LASF140
C:\Users\Jesper\AppData\Local\Temp\ccjhfN0u.s:4443   .debug_str:00000000000003dd .LASF141
C:\Users\Jesper\AppData\Local\Temp\ccjhfN0u.s:4453   .debug_str:0000000000000417 .LASF142
C:\Users\Jesper\AppData\Local\Temp\ccjhfN0u.s:4463   .debug_str:0000000000000446 .LASF143
C:\Users\Jesper\AppData\Local\Temp\ccjhfN0u.s:4471   .debug_str:000000000000046e .LASF144
C:\Users\Jesper\AppData\Local\Temp\ccjhfN0u.s:4439   .debug_str:00000000000003c3 .LASF145
C:\Users\Jesper\AppData\Local\Temp\ccjhfN0u.s:4667   .debug_str:0000000000000877 .LASF146
C:\Users\Jesper\AppData\Local\Temp\ccjhfN0u.s:4401   .debug_str:0000000000000304 .LASF147
C:\Users\Jesper\AppData\Local\Temp\ccjhfN0u.s:4589   .debug_str:00000000000006fc .LASF148
C:\Users\Jesper\AppData\Local\Temp\ccjhfN0u.s:4549   .debug_str:0000000000000654 .LASF149
C:\Users\Jesper\AppData\Local\Temp\ccjhfN0u.s:4637   .debug_str:00000000000007e6 .LASF150
C:\Users\Jesper\AppData\Local\Temp\ccjhfN0u.s:4279   .debug_str:0000000000000058 .LASF151
C:\Users\Jesper\AppData\Local\Temp\ccjhfN0u.s:4403   .debug_str:000000000000030f .LASF152
C:\Users\Jesper\AppData\Local\Temp\ccjhfN0u.s:4509   .debug_str:0000000000000523 .LASF153
C:\Users\Jesper\AppData\Local\Temp\ccjhfN0u.s:4603   .debug_str:0000000000000743 .LASF154
C:\Users\Jesper\AppData\Local\Temp\ccjhfN0u.s:4565   .debug_str:000000000000069b .LASF155
C:\Users\Jesper\AppData\Local\Temp\ccjhfN0u.s:4421   .debug_str:0000000000000361 .LASF156
C:\Users\Jesper\AppData\Local\Temp\ccjhfN0u.s:4643   .debug_str:0000000000000801 .LASF157
C:\Users\Jesper\AppData\Local\Temp\ccjhfN0u.s:4419   .debug_str:0000000000000357 .LASF158
C:\Users\Jesper\AppData\Local\Temp\ccjhfN0u.s:4493   .debug_str:00000000000004db .LASF159
C:\Users\Jesper\AppData\Local\Temp\ccjhfN0u.s:4397   .debug_str:00000000000002f3 .LASF160
C:\Users\Jesper\AppData\Local\Temp\ccjhfN0u.s:4337   .debug_str:000000000000016a .LASF161
C:\Users\Jesper\AppData\Local\Temp\ccjhfN0u.s:4577   .debug_str:00000000000006cf .LASF162
C:\Users\Jesper\AppData\Local\Temp\ccjhfN0u.s:4307   .debug_str:00000000000000e0 .LASF163
C:\Users\Jesper\AppData\Local\Temp\ccjhfN0u.s:4267   .debug_str:0000000000000018 .LASF164
C:\Users\Jesper\AppData\Local\Temp\ccjhfN0u.s:4567   .debug_str:00000000000006a1 .LASF165
C:\Users\Jesper\AppData\Local\Temp\ccjhfN0u.s:4623   .debug_str:000000000000079b .LASF166
C:\Users\Jesper\AppData\Local\Temp\ccjhfN0u.s:4287   .debug_str:0000000000000084 .LASF167
C:\Users\Jesper\AppData\Local\Temp\ccjhfN0u.s:4593   .debug_str:0000000000000710 .LASF168
C:\Users\Jesper\AppData\Local\Temp\ccjhfN0u.s:4507   .debug_str:000000000000051c .LASF169
C:\Users\Jesper\AppData\Local\Temp\ccjhfN0u.s:4501   .debug_str:0000000000000503 .LASF170
C:\Users\Jesper\AppData\Local\Temp\ccjhfN0u.s:4409   .debug_str:0000000000000333 .LASF171
C:\Users\Jesper\AppData\Local\Temp\ccjhfN0u.s:4413   .debug_str:0000000000000342 .LASF172
C:\Users\Jesper\AppData\Local\Temp\ccjhfN0u.s:4305   .debug_str:00000000000000db .LASF173
C:\Users\Jesper\AppData\Local\Temp\ccjhfN0u.s:4511   .debug_str:000000000000052b .LASF174
C:\Users\Jesper\AppData\Local\Temp\ccjhfN0u.s:4607   .debug_str:0000000000000753 .LASF175
C:\Users\Jesper\AppData\Local\Temp\ccjhfN0u.s:4399   .debug_str:00000000000002fd .LASF176
GAS LISTING C:\Users\Jesper\AppData\Local\Temp\ccjhfN0u.s 			page 28


C:\Users\Jesper\AppData\Local\Temp\ccjhfN0u.s:4529   .debug_str:00000000000005f9 .LASF177
C:\Users\Jesper\AppData\Local\Temp\ccjhfN0u.s:4579   .debug_str:00000000000006d8 .LASF178
C:\Users\Jesper\AppData\Local\Temp\ccjhfN0u.s:4615   .debug_str:000000000000076f .LASF179
C:\Users\Jesper\AppData\Local\Temp\ccjhfN0u.s:4445   .debug_str:00000000000003ee .LASF180
C:\Users\Jesper\AppData\Local\Temp\ccjhfN0u.s:4657   .debug_str:000000000000084c .LASF181
C:\Users\Jesper\AppData\Local\Temp\ccjhfN0u.s:4269   .debug_str:0000000000000021 .LASF182
C:\Users\Jesper\AppData\Local\Temp\ccjhfN0u.s:4265   .debug_str:000000000000000d .LASF183
C:\Users\Jesper\AppData\Local\Temp\ccjhfN0u.s:4523   .debug_str:00000000000005de .LASF184
C:\Users\Jesper\AppData\Local\Temp\ccjhfN0u.s:4313   .debug_str:0000000000000105 .LASF185
C:\Users\Jesper\AppData\Local\Temp\ccjhfN0u.s:4263   .debug_str:0000000000000007 .LASF186
C:\Users\Jesper\AppData\Local\Temp\ccjhfN0u.s:4449   .debug_str:0000000000000408 .LASF187
C:\Users\Jesper\AppData\Local\Temp\ccjhfN0u.s:4283   .debug_str:000000000000006f .LASF188
C:\Users\Jesper\AppData\Local\Temp\ccjhfN0u.s:4293   .debug_str:00000000000000a9 .LASF189
C:\Users\Jesper\AppData\Local\Temp\ccjhfN0u.s:4383   .debug_str:00000000000002b8 .LASF190
C:\Users\Jesper\AppData\Local\Temp\ccjhfN0u.s:4675   .debug_str:0000000000000897 .LASF191
C:\Users\Jesper\AppData\Local\Temp\ccjhfN0u.s:4373   .debug_str:0000000000000287 .LASF192
C:\Users\Jesper\AppData\Local\Temp\ccjhfN0u.s:4635   .debug_str:00000000000007de .LASF204
C:\Users\Jesper\AppData\Local\Temp\ccjhfN0u.s:19     .text.tm_stat:0000000000000000 .LFB26
C:\Users\Jesper\AppData\Local\Temp\ccjhfN0u.s:612    .text.tm_stat:000000000000047a .LFE26
C:\Users\Jesper\AppData\Local\Temp\ccjhfN0u.s:3976   .debug_loc:0000000000000000 .LLST0
C:\Users\Jesper\AppData\Local\Temp\ccjhfN0u.s:3999   .debug_loc:000000000000003a .LLST1
C:\Users\Jesper\AppData\Local\Temp\ccjhfN0u.s:4587   .debug_str:00000000000006f7 .LASF193
C:\Users\Jesper\AppData\Local\Temp\ccjhfN0u.s:4021   .debug_loc:0000000000000071 .LLST2
C:\Users\Jesper\AppData\Local\Temp\ccjhfN0u.s:4361   .debug_str:00000000000001e0 .LASF194
C:\Users\Jesper\AppData\Local\Temp\ccjhfN0u.s:4045   .debug_loc:00000000000000a3 .LLST3
C:\Users\Jesper\AppData\Local\Temp\ccjhfN0u.s:4437   .debug_str:00000000000003b9 .LASF195
C:\Users\Jesper\AppData\Local\Temp\ccjhfN0u.s:4069   .debug_loc:00000000000000d5 .LLST4
C:\Users\Jesper\AppData\Local\Temp\ccjhfN0u.s:4547   .debug_str:000000000000064c .LASF196
C:\Users\Jesper\AppData\Local\Temp\ccjhfN0u.s:4084   .debug_loc:00000000000000fe .LLST5
C:\Users\Jesper\AppData\Local\Temp\ccjhfN0u.s:4309   .debug_str:00000000000000e8 .LASF197
C:\Users\Jesper\AppData\Local\Temp\ccjhfN0u.s:4095   .debug_loc:000000000000011c .LLST6
C:\Users\Jesper\AppData\Local\Temp\ccjhfN0u.s:4299   .debug_str:00000000000000c2 .LASF198
C:\Users\Jesper\AppData\Local\Temp\ccjhfN0u.s:4106   .debug_loc:000000000000013a .LLST7
C:\Users\Jesper\AppData\Local\Temp\ccjhfN0u.s:4127   .debug_loc:0000000000000170 .LLST8
C:\Users\Jesper\AppData\Local\Temp\ccjhfN0u.s:4261   .debug_str:0000000000000000 .LASF199
C:\Users\Jesper\AppData\Local\Temp\ccjhfN0u.s:4138   .debug_loc:000000000000018e .LLST9
C:\Users\Jesper\AppData\Local\Temp\ccjhfN0u.s:4145   .debug_loc:00000000000001a1 .LLST10
C:\Users\Jesper\AppData\Local\Temp\ccjhfN0u.s:386    .text.tm_stat:00000000000002e2 .LBB4
C:\Users\Jesper\AppData\Local\Temp\ccjhfN0u.s:438    .text.tm_stat:0000000000000356 .LBE4
C:\Users\Jesper\AppData\Local\Temp\ccjhfN0u.s:4189   .debug_loc:0000000000000211 .LLST11
C:\Users\Jesper\AppData\Local\Temp\ccjhfN0u.s:409    .text.tm_stat:000000000000030a .LVL35
C:\Users\Jesper\AppData\Local\Temp\ccjhfN0u.s:466    .text.tm_stat:0000000000000376 .LBB6
C:\Users\Jesper\AppData\Local\Temp\ccjhfN0u.s:491    .text.tm_stat:00000000000003a4 .LBE6
C:\Users\Jesper\AppData\Local\Temp\ccjhfN0u.s:4196   .debug_loc:0000000000000224 .LLST13
C:\Users\Jesper\AppData\Local\Temp\ccjhfN0u.s:479    .text.tm_stat:000000000000038e .LVL42
C:\Users\Jesper\AppData\Local\Temp\ccjhfN0u.s:487    .text.tm_stat:00000000000003a4 .LVL43
C:\Users\Jesper\AppData\Local\Temp\ccjhfN0u.s:4203   .debug_loc:0000000000000237 .LLST12
C:\Users\Jesper\AppData\Local\Temp\ccjhfN0u.s:442    .text.tm_stat:000000000000035e .LVL37
C:\Users\Jesper\AppData\Local\Temp\ccjhfN0u.s:570    .text.tm_stat:0000000000000424 .LVL52
C:\Users\Jesper\AppData\Local\Temp\ccjhfN0u.s:516    .text.tm_stat:00000000000003e4 .LVL44
C:\Users\Jesper\AppData\Local\Temp\ccjhfN0u.s:522    .text.tm_stat:00000000000003f6 .LVL45
C:\Users\Jesper\AppData\Local\Temp\ccjhfN0u.s:271    .text.tm_stat:00000000000001fa .LVL25
C:\Users\Jesper\AppData\Local\Temp\ccjhfN0u.s:277    .text.tm_stat:000000000000020e .LVL26
C:\Users\Jesper\AppData\Local\Temp\ccjhfN0u.s:283    .text.tm_stat:000000000000021e .LVL27
C:\Users\Jesper\AppData\Local\Temp\ccjhfN0u.s:334    .text.tm_stat:00000000000002a6 .LVL30
C:\Users\Jesper\AppData\Local\Temp\ccjhfN0u.s:61     .text.tm_stat:000000000000002c .LVL2
C:\Users\Jesper\AppData\Local\Temp\ccjhfN0u.s:72     .text.tm_stat:0000000000000050 .LVL3
GAS LISTING C:\Users\Jesper\AppData\Local\Temp\ccjhfN0u.s 			page 29


C:\Users\Jesper\AppData\Local\Temp\ccjhfN0u.s:78     .text.tm_stat:0000000000000064 .LVL4
C:\Users\Jesper\AppData\Local\Temp\ccjhfN0u.s:86     .text.tm_stat:0000000000000080 .LVL5
C:\Users\Jesper\AppData\Local\Temp\ccjhfN0u.s:96     .text.tm_stat:00000000000000a0 .LVL6
C:\Users\Jesper\AppData\Local\Temp\ccjhfN0u.s:106    .text.tm_stat:00000000000000c0 .LVL7
C:\Users\Jesper\AppData\Local\Temp\ccjhfN0u.s:113    .text.tm_stat:00000000000000d8 .LVL8
C:\Users\Jesper\AppData\Local\Temp\ccjhfN0u.s:118    .text.tm_stat:00000000000000e8 .LVL9
C:\Users\Jesper\AppData\Local\Temp\ccjhfN0u.s:123    .text.tm_stat:00000000000000f8 .LVL10
C:\Users\Jesper\AppData\Local\Temp\ccjhfN0u.s:169    .text.tm_stat:0000000000000142 .LVL11
C:\Users\Jesper\AppData\Local\Temp\ccjhfN0u.s:222    .text.tm_stat:00000000000001cc .LVL19
C:\Users\Jesper\AppData\Local\Temp\ccjhfN0u.s:4479   .debug_str:00000000000004a1 .LASF205
C:\Users\Jesper\AppData\Local\Temp\ccjhfN0u.s:4377   .debug_str:00000000000002a3 .LASF206
C:\Users\Jesper\AppData\Local\Temp\ccjhfN0u.s:4461   .debug_str:0000000000000437 .LASF207
C:\Users\Jesper\AppData\Local\Temp\ccjhfN0u.s:27     .text.tm_stat:0000000000000002 .LCFI0
C:\Users\Jesper\AppData\Local\Temp\ccjhfN0u.s:258    .text.tm_stat:00000000000001e8 .LCFI1
C:\Users\Jesper\AppData\Local\Temp\ccjhfN0u.s:263    .text.tm_stat:00000000000001ea .LCFI2
C:\Users\Jesper\AppData\Local\Temp\ccjhfN0u.s:23     .text.tm_stat:0000000000000000 .LVL0
C:\Users\Jesper\AppData\Local\Temp\ccjhfN0u.s:34     .text.tm_stat:000000000000000a .LVL1
C:\Users\Jesper\AppData\Local\Temp\ccjhfN0u.s:237    .text.tm_stat:00000000000001d6 .LVL20
C:\Users\Jesper\AppData\Local\Temp\ccjhfN0u.s:261    .text.tm_stat:00000000000001ea .LVL24
C:\Users\Jesper\AppData\Local\Temp\ccjhfN0u.s:242    .text.tm_stat:00000000000001da .LVL21
C:\Users\Jesper\AppData\Local\Temp\ccjhfN0u.s:355    .text.tm_stat:00000000000002c4 .LVL31
C:\Users\Jesper\AppData\Local\Temp\ccjhfN0u.s:366    .text.tm_stat:00000000000002d8 .LVL32
C:\Users\Jesper\AppData\Local\Temp\ccjhfN0u.s:252    .text.tm_stat:00000000000001e2 .LVL23
C:\Users\Jesper\AppData\Local\Temp\ccjhfN0u.s:186    .text.tm_stat:0000000000000156 .LVL12
C:\Users\Jesper\AppData\Local\Temp\ccjhfN0u.s:247    .text.tm_stat:00000000000001de .LVL22
C:\Users\Jesper\AppData\Local\Temp\ccjhfN0u.s:537    .text.tm_stat:00000000000003fc .LVL47
C:\Users\Jesper\AppData\Local\Temp\ccjhfN0u.s:541    .text.tm_stat:00000000000003fe .LVL48
C:\Users\Jesper\AppData\Local\Temp\ccjhfN0u.s:543    .text.tm_stat:0000000000000400 .LVL49
C:\Users\Jesper\AppData\Local\Temp\ccjhfN0u.s:604    .text.tm_stat:0000000000000476 .LVL54
C:\Users\Jesper\AppData\Local\Temp\ccjhfN0u.s:406    .text.tm_stat:0000000000000302 .LVL34
C:\Users\Jesper\AppData\Local\Temp\ccjhfN0u.s:446    .text.tm_stat:0000000000000360 .LVL38
C:\Users\Jesper\AppData\Local\Temp\ccjhfN0u.s:461    .text.tm_stat:0000000000000374 .LVL39
C:\Users\Jesper\AppData\Local\Temp\ccjhfN0u.s:464    .text.tm_stat:0000000000000376 .LVL40
C:\Users\Jesper\AppData\Local\Temp\ccjhfN0u.s:476    .text.tm_stat:0000000000000386 .LVL41
C:\Users\Jesper\AppData\Local\Temp\ccjhfN0u.s:567    .text.tm_stat:000000000000041c .LVL51
C:\Users\Jesper\AppData\Local\Temp\ccjhfN0u.s:598    .text.tm_stat:0000000000000472 .LVL53
C:\Users\Jesper\AppData\Local\Temp\ccjhfN0u.s:388    .text.tm_stat:00000000000002e2 .LVL33
C:\Users\Jesper\AppData\Local\Temp\ccjhfN0u.s:436    .text.tm_stat:0000000000000356 .LVL36
C:\Users\Jesper\AppData\Local\Temp\ccjhfN0u.s:553    .text.tm_stat:0000000000000404 .LVL50
C:\Users\Jesper\AppData\Local\Temp\ccjhfN0u.s:764    .debug_info:0000000000000000 .Ldebug_info0
C:\Users\Jesper\AppData\Local\Temp\ccjhfN0u.s:133    .text.tm_stat:0000000000000110 .LBB2
C:\Users\Jesper\AppData\Local\Temp\ccjhfN0u.s:142    .text.tm_stat:000000000000011c .LBE2
C:\Users\Jesper\AppData\Local\Temp\ccjhfN0u.s:151    .text.tm_stat:0000000000000126 .LBB12
C:\Users\Jesper\AppData\Local\Temp\ccjhfN0u.s:154    .text.tm_stat:000000000000012a .LBE12
C:\Users\Jesper\AppData\Local\Temp\ccjhfN0u.s:157    .text.tm_stat:000000000000012e .LBB13
C:\Users\Jesper\AppData\Local\Temp\ccjhfN0u.s:166    .text.tm_stat:000000000000013a .LBE13
C:\Users\Jesper\AppData\Local\Temp\ccjhfN0u.s:265    .text.tm_stat:00000000000001ea .LBB14
C:\Users\Jesper\AppData\Local\Temp\ccjhfN0u.s:534    .text.tm_stat:00000000000003fa .LBE14
C:\Users\Jesper\AppData\Local\Temp\ccjhfN0u.s:538    .text.tm_stat:00000000000003fc .LBB15
C:\Users\Jesper\AppData\Local\Temp\ccjhfN0u.s:610    .text.tm_stat:000000000000047a .LBE15
C:\Users\Jesper\AppData\Local\Temp\ccjhfN0u.s:134    .text.tm_stat:0000000000000110 .LBB3
C:\Users\Jesper\AppData\Local\Temp\ccjhfN0u.s:141    .text.tm_stat:000000000000011c .LBE3
C:\Users\Jesper\AppData\Local\Temp\ccjhfN0u.s:158    .text.tm_stat:000000000000012e .LBB8
C:\Users\Jesper\AppData\Local\Temp\ccjhfN0u.s:165    .text.tm_stat:000000000000013a .LBE8
C:\Users\Jesper\AppData\Local\Temp\ccjhfN0u.s:342    .text.tm_stat:00000000000002b0 .LBB9
C:\Users\Jesper\AppData\Local\Temp\ccjhfN0u.s:523    .text.tm_stat:00000000000003f6 .LBE9
C:\Users\Jesper\AppData\Local\Temp\ccjhfN0u.s:526    .text.tm_stat:00000000000003f8 .LBB10
GAS LISTING C:\Users\Jesper\AppData\Local\Temp\ccjhfN0u.s 			page 30


C:\Users\Jesper\AppData\Local\Temp\ccjhfN0u.s:532    .text.tm_stat:00000000000003fa .LBE10
C:\Users\Jesper\AppData\Local\Temp\ccjhfN0u.s:545    .text.tm_stat:0000000000000400 .LBB11
C:\Users\Jesper\AppData\Local\Temp\ccjhfN0u.s:606    .text.tm_stat:0000000000000476 .LBE11
C:\Users\Jesper\AppData\Local\Temp\ccjhfN0u.s:439    .text.tm_stat:0000000000000356 .LBB5
C:\Users\Jesper\AppData\Local\Temp\ccjhfN0u.s:448    .text.tm_stat:0000000000000360 .LBE5
C:\Users\Jesper\AppData\Local\Temp\ccjhfN0u.s:551    .text.tm_stat:0000000000000404 .LBB7
C:\Users\Jesper\AppData\Local\Temp\ccjhfN0u.s:600    .text.tm_stat:0000000000000472 .LBE7

UNDEFINED SYMBOLS
__extendsfdf2
__floatunsidf
__muldf3
__floatsidf
__divdf3
puts
printf
