GAS LISTING C:\Users\Jesper\AppData\Local\Temp\cc2zx2TT.s 			page 1


   1              		.file	"usart.c"
   2              		.option nopic
   3              		.attribute arch, "rv32i2p0_m2p0_a2p0_c2p0"
   4              		.attribute unaligned_access, 0
   5              		.attribute stack_align, 16
   6              		.text
   7              	.Ltext0:
   8              		.cfi_sections	.debug_frame
   9              		.section	.text.u0_TX_Queue,"ax",@progbits
  10              		.align	1
  11              		.globl	u0_TX_Queue
  13              	u0_TX_Queue:
  14              	.LFB2:
  15              		.file 1 "lib/usart/src/usart.c"
   1:lib/usart/src/usart.c **** #include "gd32vf103.h"
   2:lib/usart/src/usart.c **** #include "usart.h" 
   3:lib/usart/src/usart.c **** #include "eclicw.h"   
   4:lib/usart/src/usart.c **** 
   5:lib/usart/src/usart.c **** int txr=0, txw=0, txq[16]={0}, rxr=0, rxw = 0, rxq[16]={0};                     // 256 Byte wr queu
   6:lib/usart/src/usart.c **** 
   7:lib/usart/src/usart.c **** void u0_TX_Queue(void){
  16              		.loc 1 7 23
  17              		.cfi_startproc
   8:lib/usart/src/usart.c ****     if (txr!=txw) {                                 // Buffer empty?
  18              		.loc 1 8 5
   7:lib/usart/src/usart.c ****     if (txr!=txw) {                                 // Buffer empty?
  19              		.loc 1 7 23 is_stmt 0
  20 0000 4111     		addi	sp,sp,-16
  21              	.LCFI0:
  22              		.cfi_def_cfa_offset 16
  23 0002 22C4     		sw	s0,8(sp)
  24              		.cfi_offset 8, -8
  25              		.loc 1 8 12
  26 0004 37040000 		lui	s0,%hi(.LANCHOR0)
  27 0008 13040400 		addi	s0,s0,%lo(.LANCHOR0)
  28              		.loc 1 8 8
  29 000c B7070000 		lui	a5,%hi(.LANCHOR1)
  30 0010 1840     		lw	a4,0(s0)
  31 0012 83A70700 		lw	a5,%lo(.LANCHOR1)(a5)
   7:lib/usart/src/usart.c ****     if (txr!=txw) {                                 // Buffer empty?
  32              		.loc 1 7 23
  33 0016 06C6     		sw	ra,12(sp)
  34 0018 26C2     		sw	s1,4(sp)
  35              		.cfi_offset 1, -4
  36              		.cfi_offset 9, -12
  37              		.loc 1 8 8
  38 001a 6308F704 		beq	a4,a5,.L2
   9:lib/usart/src/usart.c ****        if (usart_flag_get(USART0,USART_FLAG_TBE)) { // ...no! Device redy?
  39              		.loc 1 9 8 is_stmt 1
  40              		.loc 1 9 12 is_stmt 0
  41 001e B7440140 		li	s1,1073823744
  42 0022 9D45     		li	a1,7
  43 0024 13850480 		addi	a0,s1,-2048
  44 0028 97000000 		call	usart_flag_get
  44      E7800000 
  45              	.LVL0:
  46              		.loc 1 9 11
GAS LISTING C:\Users\Jesper\AppData\Local\Temp\cc2zx2TT.s 			page 2


  47 0030 05C9     		beq	a0,zero,.L1
  48              	.LBB4:
  49              	.LBB5:
  10:lib/usart/src/usart.c ****           usart_data_transmit(USART0, txq[txr++]);  //        Yes Write!
  50              		.loc 1 10 11 is_stmt 1
  51              		.loc 1 10 46 is_stmt 0
  52 0032 1C40     		lw	a5,0(s0)
  53              		.loc 1 10 11
  54 0034 13850480 		addi	a0,s1,-2048
  55              		.loc 1 10 46
  56 0038 13871700 		addi	a4,a5,1
  57 003c 18C0     		sw	a4,0(s0)
  58              		.loc 1 10 42
  59 003e 13972700 		slli	a4,a5,2
  60 0042 B7070000 		lui	a5,%hi(.LANCHOR2)
  61 0046 93870700 		addi	a5,a5,%lo(.LANCHOR2)
  62 004a BA97     		add	a5,a5,a4
  63              		.loc 1 10 11
  64 004c 8C43     		lw	a1,0(a5)
  65 004e 97000000 		call	usart_data_transmit
  65      E7800000 
  66              	.LVL1:
  11:lib/usart/src/usart.c ****           txr%=16;                                 //        wrap around.
  67              		.loc 1 11 11 is_stmt 1
  68              		.loc 1 11 14 is_stmt 0
  69 0056 1C40     		lw	a5,0(s0)
  70 0058 4147     		li	a4,16
  71 005a B3E7E702 		rem	a5,a5,a4
  72 005e 1CC0     		sw	a5,0(s0)
  73              	.L1:
  74              	.LBE5:
  75              	.LBE4:
  12:lib/usart/src/usart.c ****         }                                           //        No! Return!
  13:lib/usart/src/usart.c ****     } else 
  14:lib/usart/src/usart.c ****        usart_interrupt_disable(USART0, USART_INT_TBE);
  15:lib/usart/src/usart.c **** }
  76              		.loc 1 15 1
  77 0060 B240     		lw	ra,12(sp)
  78              		.cfi_remember_state
  79              		.cfi_restore 1
  80 0062 2244     		lw	s0,8(sp)
  81              		.cfi_restore 8
  82 0064 9244     		lw	s1,4(sp)
  83              		.cfi_restore 9
  84 0066 4101     		addi	sp,sp,16
  85              	.LCFI1:
  86              		.cfi_def_cfa_offset 0
  87 0068 8280     		jr	ra
  88              	.L2:
  89              	.LCFI2:
  90              		.cfi_restore_state
  14:lib/usart/src/usart.c **** }
  91              		.loc 1 14 8 is_stmt 1
  92              		.loc 1 15 1 is_stmt 0
  93 006a 2244     		lw	s0,8(sp)
  94              		.cfi_restore 8
  95 006c B240     		lw	ra,12(sp)
GAS LISTING C:\Users\Jesper\AppData\Local\Temp\cc2zx2TT.s 			page 3


  96              		.cfi_restore 1
  97 006e 9244     		lw	s1,4(sp)
  98              		.cfi_restore 9
  14:lib/usart/src/usart.c **** }
  99              		.loc 1 14 8
 100 0070 37450140 		li	a0,1073823744
 101              		.loc 1 15 1
  14:lib/usart/src/usart.c **** }
 102              		.loc 1 14 8
 103 0074 93057030 		li	a1,775
 104 0078 13050580 		addi	a0,a0,-2048
 105              		.loc 1 15 1
 106 007c 4101     		addi	sp,sp,16
 107              	.LCFI3:
 108              		.cfi_def_cfa_offset 0
  14:lib/usart/src/usart.c **** }
 109              		.loc 1 14 8
 110 007e 17030000 		tail	usart_interrupt_disable
 110      67000300 
 111              	.LVL2:
 112              		.cfi_endproc
 113              	.LFE2:
 115              		.section	.text.ClearQueue,"ax",@progbits
 116              		.align	1
 117              		.globl	ClearQueue
 119              	ClearQueue:
 120              	.LFB3:
  16:lib/usart/src/usart.c **** 
  17:lib/usart/src/usart.c **** void ClearQueue(void)
  18:lib/usart/src/usart.c **** {
 121              		.loc 1 18 1 is_stmt 1
 122              		.cfi_startproc
  19:lib/usart/src/usart.c ****   for (int i = 0; i < 16; i++)
 123              		.loc 1 19 3
 124              	.LBB6:
 125              		.loc 1 19 8
 126              	.LVL3:
 127 0000 B7070000 		lui	a5,%hi(.LANCHOR2)
 128 0004 93870700 		addi	a5,a5,%lo(.LANCHOR2)
 129 0008 13870704 		addi	a4,a5,64
 130              	.LVL4:
 131              	.L9:
  20:lib/usart/src/usart.c ****   {
  21:lib/usart/src/usart.c ****     txq[i] = 0;
 132              		.loc 1 21 5 discriminator 3
 133              		.loc 1 21 12 is_stmt 0 discriminator 3
 134 000c 23A00700 		sw	zero,0(a5)
 135 0010 9107     		addi	a5,a5,4
  19:lib/usart/src/usart.c ****   for (int i = 0; i < 16; i++)
 136              		.loc 1 19 3 discriminator 3
 137 0012 E39DE7FE 		bne	a5,a4,.L9
 138              	.LBE6:
  22:lib/usart/src/usart.c ****   }
  23:lib/usart/src/usart.c **** }
 139              		.loc 1 23 1
 140 0016 8280     		ret
 141              		.cfi_endproc
GAS LISTING C:\Users\Jesper\AppData\Local\Temp\cc2zx2TT.s 			page 4


 142              	.LFE3:
 144              		.section	.text.putch,"ax",@progbits
 145              		.align	1
 146              		.globl	putch
 148              	putch:
 149              	.LFB4:
  24:lib/usart/src/usart.c **** 
  25:lib/usart/src/usart.c **** void putch(char ch){
 150              		.loc 1 25 20 is_stmt 1
 151              		.cfi_startproc
 152              	.LVL5:
  26:lib/usart/src/usart.c ****    while (((txw+1)%16)==txr) u0_TX_Queue(); //If buffer full then spin...
 153              		.loc 1 26 4
  25:lib/usart/src/usart.c ****    while (((txw+1)%16)==txr) u0_TX_Queue(); //If buffer full then spin...
 154              		.loc 1 25 20 is_stmt 0
 155 0000 0111     		addi	sp,sp,-32
 156              	.LCFI4:
 157              		.cfi_def_cfa_offset 32
 158 0002 22CC     		sw	s0,24(sp)
 159 0004 26CA     		sw	s1,20(sp)
 160 0006 4AC8     		sw	s2,16(sp)
 161 0008 06CE     		sw	ra,28(sp)
 162              		.cfi_offset 8, -8
 163              		.cfi_offset 9, -12
 164              		.cfi_offset 18, -16
 165              		.cfi_offset 1, -4
 166              		.loc 1 26 16
 167 000a 37090000 		lui	s2,%hi(.LANCHOR1)
 168              		.loc 1 26 19
 169 000e C144     		li	s1,16
 170              		.loc 1 26 23
 171 0010 37040000 		lui	s0,%hi(.LANCHOR0)
 172              	.LVL6:
 173              	.L12:
 174              		.loc 1 26 16 discriminator 1
 175 0014 13060900 		addi	a2,s2,%lo(.LANCHOR1)
 176 0018 1C42     		lw	a5,0(a2)
 177              		.loc 1 26 10 discriminator 1
 178 001a 83260400 		lw	a3,%lo(.LANCHOR0)(s0)
 179              		.loc 1 26 16 discriminator 1
 180 001e 13871700 		addi	a4,a5,1
 181              		.loc 1 26 19 discriminator 1
 182 0022 33679702 		rem	a4,a4,s1
 183              		.loc 1 26 10 discriminator 1
 184 0026 630AD702 		beq	a4,a3,.L13
  27:lib/usart/src/usart.c ****    txq[txw++]=ch;                            //...If/when not then store data...
 185              		.loc 1 27 4 is_stmt 1
 186              		.loc 1 27 14 is_stmt 0
 187 002a 93962700 		slli	a3,a5,2
 188 002e B7070000 		lui	a5,%hi(.LANCHOR2)
  28:lib/usart/src/usart.c ****    txw%=16;                                 //...and advance write index!
  29:lib/usart/src/usart.c ****    usart_interrupt_enable(USART0, USART_INT_TBE);
  30:lib/usart/src/usart.c **** }
 189              		.loc 1 30 1
 190 0032 6244     		lw	s0,24(sp)
 191              		.cfi_remember_state
 192              		.cfi_restore 8
GAS LISTING C:\Users\Jesper\AppData\Local\Temp\cc2zx2TT.s 			page 5


  27:lib/usart/src/usart.c ****    txq[txw++]=ch;                            //...If/when not then store data...
 193              		.loc 1 27 14
 194 0034 93870700 		addi	a5,a5,%lo(.LANCHOR2)
 195              		.loc 1 30 1
 196 0038 F240     		lw	ra,28(sp)
 197              		.cfi_restore 1
 198 003a D244     		lw	s1,20(sp)
 199              		.cfi_restore 9
 200 003c 4249     		lw	s2,16(sp)
 201              		.cfi_restore 18
  27:lib/usart/src/usart.c ****    txq[txw++]=ch;                            //...If/when not then store data...
 202              		.loc 1 27 14
 203 003e B697     		add	a5,a5,a3
 204 0040 88C3     		sw	a0,0(a5)
  28:lib/usart/src/usart.c ****    txw%=16;                                 //...and advance write index!
 205              		.loc 1 28 4 is_stmt 1
  28:lib/usart/src/usart.c ****    txw%=16;                                 //...and advance write index!
 206              		.loc 1 28 7 is_stmt 0
 207 0042 18C2     		sw	a4,0(a2)
  29:lib/usart/src/usart.c **** }
 208              		.loc 1 29 4 is_stmt 1
 209 0044 37450140 		li	a0,1073823744
 210              		.loc 1 30 1 is_stmt 0
  29:lib/usart/src/usart.c **** }
 211              		.loc 1 29 4
 212 0048 93057030 		li	a1,775
 213 004c 13050580 		addi	a0,a0,-2048
 214              		.loc 1 30 1
 215 0050 0561     		addi	sp,sp,32
 216              	.LCFI5:
 217              		.cfi_def_cfa_offset 0
  29:lib/usart/src/usart.c **** }
 218              		.loc 1 29 4
 219 0052 17030000 		tail	usart_interrupt_enable
 219      67000300 
 220              	.LVL7:
 221              	.L13:
 222              	.LCFI6:
 223              		.cfi_restore_state
 224 005a 2AC6     		sw	a0,12(sp)
  26:lib/usart/src/usart.c ****    txq[txw++]=ch;                            //...If/when not then store data...
 225              		.loc 1 26 30 is_stmt 1 discriminator 2
 226 005c 97000000 		call	u0_TX_Queue
 226      E7800000 
 227              	.LVL8:
 228 0064 3245     		lw	a0,12(sp)
 229 0066 7DB7     		j	.L12
 230              		.cfi_endproc
 231              	.LFE4:
 233              		.section	.text.putstr,"ax",@progbits
 234              		.align	1
 235              		.globl	putstr
 237              	putstr:
 238              	.LFB5:
  31:lib/usart/src/usart.c **** /*
  32:lib/usart/src/usart.c **** void putch(char ch){
  33:lib/usart/src/usart.c ****   while (!usart_flag_get(USART0,USART_FLAG_TBE)); // Spin util buffer empty!
GAS LISTING C:\Users\Jesper\AppData\Local\Temp\cc2zx2TT.s 			page 6


  34:lib/usart/src/usart.c ****   usart_data_transmit(USART0, ch);                // USART0 TX!
  35:lib/usart/src/usart.c **** }
  36:lib/usart/src/usart.c **** */
  37:lib/usart/src/usart.c **** void putstr(char str[]){
 239              		.loc 1 37 24
 240              		.cfi_startproc
 241              	.LVL9:
 242 0000 4111     		addi	sp,sp,-16
 243              	.LCFI7:
 244              		.cfi_def_cfa_offset 16
 245 0002 22C4     		sw	s0,8(sp)
 246 0004 06C6     		sw	ra,12(sp)
 247              		.cfi_offset 8, -8
 248              		.cfi_offset 1, -4
 249 0006 2A84     		mv	s0,a0
  38:lib/usart/src/usart.c ****   while (*str) putch(*str++);
 250              		.loc 1 38 3
 251              	.LVL10:
 252              	.L16:
 253              		.loc 1 38 10 is_stmt 0 discriminator 1
 254 0008 03450400 		lbu	a0,0(s0)
 255              		.loc 1 38 9 discriminator 1
 256 000c 09E5     		bne	a0,zero,.L17
  39:lib/usart/src/usart.c **** }
 257              		.loc 1 39 1
 258 000e B240     		lw	ra,12(sp)
 259              		.cfi_remember_state
 260              		.cfi_restore 1
 261 0010 2244     		lw	s0,8(sp)
 262              		.cfi_restore 8
 263              	.LVL11:
 264 0012 4101     		addi	sp,sp,16
 265              	.LCFI8:
 266              		.cfi_def_cfa_offset 0
 267 0014 8280     		jr	ra
 268              	.LVL12:
 269              	.L17:
 270              	.LCFI9:
 271              		.cfi_restore_state
  38:lib/usart/src/usart.c ****   while (*str) putch(*str++);
 272              		.loc 1 38 16 is_stmt 1 discriminator 2
  38:lib/usart/src/usart.c ****   while (*str) putch(*str++);
 273              		.loc 1 38 26 is_stmt 0 discriminator 2
 274 0016 0504     		addi	s0,s0,1
 275              	.LVL13:
  38:lib/usart/src/usart.c ****   while (*str) putch(*str++);
 276              		.loc 1 38 16 discriminator 2
 277 0018 97000000 		call	putch
 277      E7800000 
 278              	.LVL14:
 279 0020 E5B7     		j	.L16
 280              		.cfi_endproc
 281              	.LFE5:
 283              		.section	.text.u0init,"ax",@progbits
 284              		.align	1
 285              		.globl	u0init
 287              	u0init:
GAS LISTING C:\Users\Jesper\AppData\Local\Temp\cc2zx2TT.s 			page 7


 288              	.LFB6:
  40:lib/usart/src/usart.c **** 
  41:lib/usart/src/usart.c **** void u0init(int enable){
 289              		.loc 1 41 24 is_stmt 1
 290              		.cfi_startproc
 291              	.LVL15:
  42:lib/usart/src/usart.c ****      /* initialize USART */
  43:lib/usart/src/usart.c ****     rcu_periph_clock_enable(RCU_GPIOA);
 292              		.loc 1 43 5
  41:lib/usart/src/usart.c ****      /* initialize USART */
 293              		.loc 1 41 24 is_stmt 0
 294 0000 4111     		addi	sp,sp,-16
 295              	.LCFI10:
 296              		.cfi_def_cfa_offset 16
 297 0002 26C2     		sw	s1,4(sp)
 298              		.cfi_offset 9, -12
 299 0004 AA84     		mv	s1,a0
 300              		.loc 1 43 5
 301 0006 13052060 		li	a0,1538
 302              	.LVL16:
  41:lib/usart/src/usart.c ****      /* initialize USART */
 303              		.loc 1 41 24
 304 000a 06C6     		sw	ra,12(sp)
 305 000c 22C4     		sw	s0,8(sp)
 306              		.cfi_offset 1, -4
 307              		.cfi_offset 8, -8
 308              		.loc 1 43 5
 309 000e 97000000 		call	rcu_periph_clock_enable
 309      E7800000 
 310              	.LVL17:
  44:lib/usart/src/usart.c **** 
  45:lib/usart/src/usart.c ****     /* enable USART clock */
  46:lib/usart/src/usart.c ****     rcu_periph_clock_enable(RCU_USART0);
 311              		.loc 1 46 5 is_stmt 1
 312 0016 1305E060 		li	a0,1550
 313 001a 97000000 		call	rcu_periph_clock_enable
 313      E7800000 
 314              	.LVL18:
  47:lib/usart/src/usart.c **** 
  48:lib/usart/src/usart.c ****     /* connect port to USARTx_Tx */
  49:lib/usart/src/usart.c ****     gpio_init(GPIOA, GPIO_MODE_AF_PP, GPIO_OSPEED_50MHZ, GPIO_PIN_9); //orginalet hade 9 här
 315              		.loc 1 49 5
 316 0022 37140140 		li	s0,1073811456
 317 0026 13050480 		addi	a0,s0,-2048
 318 002a 93060020 		li	a3,512
 319 002e 0D46     		li	a2,3
 320 0030 E145     		li	a1,24
 321 0032 97000000 		call	gpio_init
 321      E7800000 
 322              	.LVL19:
  50:lib/usart/src/usart.c **** 
  51:lib/usart/src/usart.c ****     /* connect port to USARTx_Rx */
  52:lib/usart/src/usart.c ****     gpio_init(GPIOA, GPIO_MODE_IN_FLOATING, GPIO_OSPEED_50MHZ, GPIO_PIN_10);
 323              		.loc 1 52 5
 324 003a 93060040 		li	a3,1024
 325 003e 0D46     		li	a2,3
 326 0040 9145     		li	a1,4
GAS LISTING C:\Users\Jesper\AppData\Local\Temp\cc2zx2TT.s 			page 8


 327 0042 13050480 		addi	a0,s0,-2048
 328 0046 97000000 		call	gpio_init
 328      E7800000 
 329              	.LVL20:
  53:lib/usart/src/usart.c **** 
  54:lib/usart/src/usart.c ****     /* USART configure */
  55:lib/usart/src/usart.c ****     usart_deinit(USART0);
 330              		.loc 1 55 5
 331 004e 37440140 		li	s0,1073823744
 332 0052 13050480 		addi	a0,s0,-2048
 333 0056 97000000 		call	usart_deinit
 333      E7800000 
 334              	.LVL21:
  56:lib/usart/src/usart.c ****     usart_baudrate_set(USART0, 115200U);
 335              		.loc 1 56 5
 336 005e F165     		li	a1,114688
 337 0060 93850520 		addi	a1,a1,512
 338 0064 13050480 		addi	a0,s0,-2048
 339 0068 97000000 		call	usart_baudrate_set
 339      E7800000 
 340              	.LVL22:
  57:lib/usart/src/usart.c ****     usart_word_length_set(USART0, USART_WL_8BIT);
 341              		.loc 1 57 5
 342 0070 8145     		li	a1,0
 343 0072 13050480 		addi	a0,s0,-2048
 344 0076 97000000 		call	usart_word_length_set
 344      E7800000 
 345              	.LVL23:
  58:lib/usart/src/usart.c ****     usart_stop_bit_set(USART0, USART_STB_1BIT);
 346              		.loc 1 58 5
 347 007e 8145     		li	a1,0
 348 0080 13050480 		addi	a0,s0,-2048
 349 0084 97000000 		call	usart_stop_bit_set
 349      E7800000 
 350              	.LVL24:
  59:lib/usart/src/usart.c ****     usart_parity_config(USART0, USART_PM_NONE);
 351              		.loc 1 59 5
 352 008c 8145     		li	a1,0
 353 008e 13050480 		addi	a0,s0,-2048
 354 0092 97000000 		call	usart_parity_config
 354      E7800000 
 355              	.LVL25:
  60:lib/usart/src/usart.c ****     usart_hardware_flow_rts_config(USART0, USART_RTS_DISABLE);
 356              		.loc 1 60 5
 357 009a 8145     		li	a1,0
 358 009c 13050480 		addi	a0,s0,-2048
 359 00a0 97000000 		call	usart_hardware_flow_rts_config
 359      E7800000 
 360              	.LVL26:
  61:lib/usart/src/usart.c ****     usart_hardware_flow_cts_config(USART0, USART_CTS_DISABLE);
 361              		.loc 1 61 5
 362 00a8 8145     		li	a1,0
 363 00aa 13050480 		addi	a0,s0,-2048
 364 00ae 97000000 		call	usart_hardware_flow_cts_config
 364      E7800000 
 365              	.LVL27:
  62:lib/usart/src/usart.c ****     usart_receive_config(USART0, USART_RECEIVE_ENABLE);
GAS LISTING C:\Users\Jesper\AppData\Local\Temp\cc2zx2TT.s 			page 9


 366              		.loc 1 62 5
 367 00b6 9145     		li	a1,4
 368 00b8 13050480 		addi	a0,s0,-2048
 369 00bc 97000000 		call	usart_receive_config
 369      E7800000 
 370              	.LVL28:
  63:lib/usart/src/usart.c ****     usart_transmit_config(USART0, USART_TRANSMIT_ENABLE);
 371              		.loc 1 63 5
 372 00c4 13050480 		addi	a0,s0,-2048
 373 00c8 A145     		li	a1,8
 374 00ca 97000000 		call	usart_transmit_config
 374      E7800000 
 375              	.LVL29:
  64:lib/usart/src/usart.c ****     usart_enable(USART0);
 376              		.loc 1 64 5
 377 00d2 13050480 		addi	a0,s0,-2048
 378 00d6 97000000 		call	usart_enable
 378      E7800000 
 379              	.LVL30:
  65:lib/usart/src/usart.c **** 
  66:lib/usart/src/usart.c ****     if (enable) {
 380              		.loc 1 66 5
 381              		.loc 1 66 8 is_stmt 0
 382 00de 8DC0     		beq	s1,zero,.L19
  67:lib/usart/src/usart.c ****         eclicw_enable(USART0_IRQn, 3, 1, &u0_TX_Queue);
 383              		.loc 1 67 9 is_stmt 1
  68:lib/usart/src/usart.c ****     }
  69:lib/usart/src/usart.c **** }...
 384              		.loc 1 69 1 is_stmt 0
 385 00e0 2244     		lw	s0,8(sp)
 386              		.cfi_remember_state
 387              		.cfi_restore 8
 388 00e2 B240     		lw	ra,12(sp)
 389              		.cfi_restore 1
 390 00e4 9244     		lw	s1,4(sp)
 391              		.cfi_restore 9
 392              	.LVL31:
  67:lib/usart/src/usart.c ****         eclicw_enable(USART0_IRQn, 3, 1, &u0_TX_Queue);
 393              		.loc 1 67 9
 394 00e6 B7060000 		lui	a3,%hi(u0_TX_Queue)
 395              		.loc 1 69 1
  67:lib/usart/src/usart.c ****         eclicw_enable(USART0_IRQn, 3, 1, &u0_TX_Queue);
 396              		.loc 1 67 9
 397 00ea 93860600 		addi	a3,a3,%lo(u0_TX_Queue)
 398 00ee 0546     		li	a2,1
 399 00f0 8D45     		li	a1,3
 400 00f2 13058003 		li	a0,56
 401              		.loc 1 69 1
 402 00f6 4101     		addi	sp,sp,16
 403              	.LCFI11:
 404              		.cfi_def_cfa_offset 0
  67:lib/usart/src/usart.c ****         eclicw_enable(USART0_IRQn, 3, 1, &u0_TX_Queue);
 405              		.loc 1 67 9
 406 00f8 17030000 		tail	eclicw_enable
 406      67000300 
 407              	.LVL32:
 408              	.L19:
GAS LISTING C:\Users\Jesper\AppData\Local\Temp\cc2zx2TT.s 			page 10


 409              	.LCFI12:
 410              		.cfi_restore_state
 411              		.loc 1 69 1
 412 0100 B240     		lw	ra,12(sp)
 413              		.cfi_restore 1
 414 0102 2244     		lw	s0,8(sp)
 415              		.cfi_restore 8
 416 0104 9244     		lw	s1,4(sp)
 417              		.cfi_restore 9
 418              	.LVL33:
 419 0106 4101     		addi	sp,sp,16
 420              	.LCFI13:
 421              		.cfi_def_cfa_offset 0
 422 0108 8280     		jr	ra
 423              		.cfi_endproc
 424              	.LFE6:
 426              		.globl	rxq
 427              		.globl	rxw
 428              		.globl	rxr
 429              		.globl	txq
 430              		.globl	txw
 431              		.globl	txr
 432              		.section	.bss.rxq,"aw",@nobits
 433              		.align	2
 436              	rxq:
 437 0000 00000000 		.zero	64
 437      00000000 
 437      00000000 
 437      00000000 
 437      00000000 
 438              		.section	.bss.txq,"aw",@nobits
 439              		.align	2
 440              		.set	.LANCHOR2,. + 0
 443              	txq:
 444 0000 00000000 		.zero	64
 444      00000000 
 444      00000000 
 444      00000000 
 444      00000000 
 445              		.section	.sbss.rxr,"aw",@nobits
 446              		.align	2
 449              	rxr:
 450 0000 00000000 		.zero	4
 451              		.section	.sbss.rxw,"aw",@nobits
 452              		.align	2
 455              	rxw:
 456 0000 00000000 		.zero	4
 457              		.section	.sbss.txr,"aw",@nobits
 458              		.align	2
 459              		.set	.LANCHOR0,. + 0
 462              	txr:
 463 0000 00000000 		.zero	4
 464              		.section	.sbss.txw,"aw",@nobits
 465              		.align	2
 466              		.set	.LANCHOR1,. + 0
 469              	txw:
 470 0000 00000000 		.zero	4
GAS LISTING C:\Users\Jesper\AppData\Local\Temp\cc2zx2TT.s 			page 11


 471              		.text
 472              	.Letext0:
 473              		.file 2 "c:\\users\\jesper\\documents\\ml_sommarjobb\\toolchain-gd32v-v201-win\\toolchain-gd32v-v2
 474              		.file 3 "c:\\users\\jesper\\documents\\ml_sommarjobb\\toolchain-gd32v-v201-win\\toolchain-gd32v-v2
 475              		.file 4 "./../../firmware/GD32VF103_standard_peripheral/Include/gd32vf103_rcu.h"
 476              		.file 5 "./../../firmware/GD32VF103_standard_peripheral/Include/gd32vf103_usart.h"
 477              		.file 6 "./../../firmware/GD32VF103_standard_peripheral/Include/gd32vf103_gpio.h"
 478              		.file 7 "lib/eclicw/include/eclicw.h"
 479              		.file 8 "./../../firmware/GD32VF103_standard_peripheral/gd32vf103.h"
 480              		.file 9 "./../../firmware/GD32VF103_standard_peripheral/system_gd32vf103.h"
GAS LISTING C:\Users\Jesper\AppData\Local\Temp\cc2zx2TT.s 			page 12

